; Listing generated by Microsoft (R) Optimizing Compiler Version 19.34.31937.0 

	TITLE	J:\work\SUDOKU\SUDOKU\SUDOKU\Debug\Solution.obj
	.686P
	.XMM
	include listing.inc
	.model	flat

INCLUDELIB LIBCMTD
INCLUDELIB OLDNAMES

PUBLIC	?grid@@3PAY08HA					; grid
_BSS	SEGMENT
?grid@@3PAY08HA DD 051H DUP (?)				; grid
_BSS	ENDS
msvcjmc	SEGMENT
__7723FEDF_SUDOKU@pch DB 01H
__3E101F51_comutil@h DB 01H
__B5C48800_stdio@h DB 01H
__B64CFDC3_atlconv@h DB 01H
__B2E308CD_atlcore@h DB 01H
__7381F871_atlchecked@h DB 01H
__184F7456_corecrt_memcpy_s@h DB 01H
__2B0A8887_atltime@h DB 01H
__981866FA_afx@h DB 01H
__B625A68F_cstringt@h DB 01H
__AA932BE8_atlexcept@h DB 01H
__A8C6672F_winerror@h DB 01H
__A7F89B2B_corecrt_wstdio@h DB 01H
__C44F8F6B_corecrt_stdio_config@h DB 01H
__D909E87F_atlalloc@h DB 01H
__63F83F46_atltrace@h DB 01H
__5DCF1DCC_afxstr@h DB 01H
__05D8B7B7_atlsimpstr@h DB 01H
__A700C7EB_Solution@h DB 01H
__BB6863C9_timeb@h DB 01H
__3C941363_Calcul_temps@h DB 01H
__CBE53D1F_Solution@cpp DB 01H
__6E6BE0F3_resource@h DB 01H
__3EA9D4DA_stdafx@h DB 01H
__8906E2DA_stdafx@cpp DB 01H
msvcjmc	ENDS
PUBLIC	?__empty_global_delete@@YAXPAX@Z		; __empty_global_delete
PUBLIC	?__empty_global_delete@@YAXPAXI@Z		; __empty_global_delete
PUBLIC	_HRESULT_FROM_WIN32
PUBLIC	___local_stdio_printf_options
PUBLIC	__vswprintf_s_l
PUBLIC	_swprintf_s
PUBLIC	__vfprintf_l
PUBLIC	_fprintf
PUBLIC	?AfxAssertFailedLine@@YGHPBDH@Z			; AfxAssertFailedLine
PUBLIC	?AtlThrowImpl@ATL@@YGXJ@Z			; ATL::AtlThrowImpl
PUBLIC	??$AtlMultiply@I@ATL@@YAJPAIII@Z		; ATL::AtlMultiply<unsigned int>
PUBLIC	?Allocate@CCRTAllocator@ATL@@SAPAXI@Z		; ATL::CCRTAllocator::Allocate
PUBLIC	?Free@CCRTAllocator@ATL@@SAXPAX@Z		; ATL::CCRTAllocator::Free
PUBLIC	?_AtlGetConversionACP@ATL@@YGIXZ		; ATL::_AtlGetConversionACP
PUBLIC	??0?$CTraceCategoryEx@$0CAAA@$0A@@ATL@@QAE@PB_W@Z ; ATL::CTraceCategoryEx<8192,0>::CTraceCategoryEx<8192,0>
PUBLIC	??B?$CTraceCategoryEx@$0CAAA@$0A@@ATL@@QAEIXZ	; ATL::CTraceCategoryEx<8192,0>::operator unsigned int
PUBLIC	??0?$CTraceCategoryEx@$0CAAAA@$0A@@ATL@@QAE@PB_W@Z ; ATL::CTraceCategoryEx<131072,0>::CTraceCategoryEx<131072,0>
PUBLIC	??B?$CTraceCategoryEx@$0CAAAA@$0A@@ATL@@QAEIXZ	; ATL::CTraceCategoryEx<131072,0>::operator unsigned int
PUBLIC	?GetCategoryName@CTrace@ATL@@CAPA_WI@Z		; ATL::CTrace::GetCategoryName
PUBLIC	?TraceV@CTrace@ATL@@CAXPBDHIIPB_W@Z		; ATL::CTrace::TraceV
PUBLIC	?TraceV@CTrace@ATL@@SAXPBDHIIPB_WPAD@Z		; ATL::CTrace::TraceV
PUBLIC	?RegisterCategory@CTrace@ATL@@SAXPB_WI@Z	; ATL::CTrace::RegisterCategory
PUBLIC	??0?$CHeapPtrBase@_WVCCRTAllocator@ATL@@@ATL@@IAE@XZ ; ATL::CHeapPtrBase<wchar_t,ATL::CCRTAllocator>::CHeapPtrBase<wchar_t,ATL::CCRTAllocator>
PUBLIC	??1?$CHeapPtrBase@_WVCCRTAllocator@ATL@@@ATL@@QAE@XZ ; ATL::CHeapPtrBase<wchar_t,ATL::CCRTAllocator>::~CHeapPtrBase<wchar_t,ATL::CCRTAllocator>
PUBLIC	??B?$CHeapPtrBase@_WVCCRTAllocator@ATL@@@ATL@@QBEPA_WXZ ; ATL::CHeapPtrBase<wchar_t,ATL::CCRTAllocator>::operator wchar_t *
PUBLIC	?AllocateBytes@?$CHeapPtrBase@_WVCCRTAllocator@ATL@@@ATL@@QAE_NI@Z ; ATL::CHeapPtrBase<wchar_t,ATL::CCRTAllocator>::AllocateBytes
PUBLIC	?Free@?$CHeapPtrBase@_WVCCRTAllocator@ATL@@@ATL@@QAEXXZ ; ATL::CHeapPtrBase<wchar_t,ATL::CCRTAllocator>::Free
PUBLIC	??0?$CHeapPtr@_WVCCRTAllocator@ATL@@@ATL@@QAE@XZ ; ATL::CHeapPtr<wchar_t,ATL::CCRTAllocator>::CHeapPtr<wchar_t,ATL::CCRTAllocator>
PUBLIC	?Allocate@?$CHeapPtr@_WVCCRTAllocator@ATL@@@ATL@@QAE_NI@Z ; ATL::CHeapPtr<wchar_t,ATL::CCRTAllocator>::Allocate
PUBLIC	??1?$CHeapPtr@_WVCCRTAllocator@ATL@@@ATL@@QAE@XZ ; ATL::CHeapPtr<wchar_t,ATL::CCRTAllocator>::~CHeapPtr<wchar_t,ATL::CCRTAllocator>
PUBLIC	?__autoclassinit2@?$CHeapPtr@_WVCCRTAllocator@ATL@@@ATL@@QAEXI@Z ; ATL::CHeapPtr<wchar_t,ATL::CCRTAllocator>::__autoclassinit2
PUBLIC	??0CPreserveLastError@ATL@@QAE@XZ		; ATL::CPreserveLastError::CPreserveLastError
PUBLIC	??1CPreserveLastError@ATL@@QAE@XZ		; ATL::CPreserveLastError::~CPreserveLastError
PUBLIC	??0CTraceFileAndLineInfo@ATL@@QAE@PBDH@Z	; ATL::CTraceFileAndLineInfo::CTraceFileAndLineInfo
PUBLIC	??RCTraceFileAndLineInfo@ATL@@QBAXHIPB_WZZ	; ATL::CTraceFileAndLineInfo::operator()
PUBLIC	?AfxCrtErrorCheck@@YAHH@Z			; AfxCrtErrorCheck
PUBLIC	?wmemcpy_s@Checked@ATL@@YAXPA_WIPB_WI@Z		; ATL::Checked::wmemcpy_s
PUBLIC	?AtlStrLen@ATL@@YAHPB_W@Z			; ATL::AtlStrLen
PUBLIC	?AtlIsValidString@ATL@@YAHPB_WI@Z		; ATL::AtlIsValidString
PUBLIC	?_AtlGetStringResourceImage@ATL@@YAPBUATLSTRINGRESOURCEIMAGE@1@PAUHINSTANCE__@@PAUHRSRC__@@I@Z ; ATL::_AtlGetStringResourceImage
PUBLIC	?AtlGetStringResourceImage@ATL@@YAPBUATLSTRINGRESOURCEIMAGE@1@PAUHINSTANCE__@@I@Z ; ATL::AtlGetStringResourceImage
PUBLIC	?data@CStringData@ATL@@QAEPAXXZ			; ATL::CStringData::data
PUBLIC	?AddRef@CStringData@ATL@@QAEXXZ			; ATL::CStringData::AddRef
PUBLIC	?IsLocked@CStringData@ATL@@QBE_NXZ		; ATL::CStringData::IsLocked
PUBLIC	?IsShared@CStringData@ATL@@QBE_NXZ		; ATL::CStringData::IsShared
PUBLIC	?Release@CStringData@ATL@@QAEXXZ		; ATL::CStringData::Release
PUBLIC	?GetFormattedLength@?$ChTraitsCRT@_W@ATL@@SAHPB_WPAD@Z ; ATL::ChTraitsCRT<wchar_t>::GetFormattedLength
PUBLIC	?Format@?$ChTraitsCRT@_W@ATL@@SAHPA_WIPB_WPAD@Z	; ATL::ChTraitsCRT<wchar_t>::Format
PUBLIC	?GetBaseTypeLength@?$ChTraitsCRT@_W@ATL@@SAHPBD@Z ; ATL::ChTraitsCRT<wchar_t>::GetBaseTypeLength
PUBLIC	?GetBaseTypeLength@?$ChTraitsCRT@_W@ATL@@SAHPB_W@Z ; ATL::ChTraitsCRT<wchar_t>::GetBaseTypeLength
PUBLIC	?GetBaseTypeLength@?$ChTraitsCRT@_W@ATL@@SAHPB_WH@Z ; ATL::ChTraitsCRT<wchar_t>::GetBaseTypeLength
PUBLIC	?ConvertToBaseType@?$ChTraitsCRT@_W@ATL@@SAXPA_WHPBDH@Z ; ATL::ChTraitsCRT<wchar_t>::ConvertToBaseType
PUBLIC	?ConvertToBaseType@?$ChTraitsCRT@_W@ATL@@SAXPA_WHPB_WH@Z ; ATL::ChTraitsCRT<wchar_t>::ConvertToBaseType
PUBLIC	??0?$CSimpleStringT@_W$0A@@ATL@@QAE@PAUIAtlStringMgr@1@@Z ; ATL::CSimpleStringT<wchar_t,0>::CSimpleStringT<wchar_t,0>
PUBLIC	??0?$CSimpleStringT@_W$0A@@ATL@@QAE@ABV01@@Z	; ATL::CSimpleStringT<wchar_t,0>::CSimpleStringT<wchar_t,0>
PUBLIC	??1?$CSimpleStringT@_W$0A@@ATL@@QAE@XZ		; ATL::CSimpleStringT<wchar_t,0>::~CSimpleStringT<wchar_t,0>
PUBLIC	??4?$CSimpleStringT@_W$0A@@ATL@@QAEAAV01@PB_W@Z	; ATL::CSimpleStringT<wchar_t,0>::operator=
PUBLIC	??Y?$CSimpleStringT@_W$0A@@ATL@@QAEAAV01@ABV01@@Z ; ATL::CSimpleStringT<wchar_t,0>::operator+=
PUBLIC	??B?$CSimpleStringT@_W$0A@@ATL@@QBEPB_WXZ	; ATL::CSimpleStringT<wchar_t,0>::operator wchar_t const *
PUBLIC	?Append@?$CSimpleStringT@_W$0A@@ATL@@QAEXPB_WH@Z ; ATL::CSimpleStringT<wchar_t,0>::Append
PUBLIC	?Append@?$CSimpleStringT@_W$0A@@ATL@@QAEXABV12@@Z ; ATL::CSimpleStringT<wchar_t,0>::Append
PUBLIC	?Empty@?$CSimpleStringT@_W$0A@@ATL@@QAEXXZ	; ATL::CSimpleStringT<wchar_t,0>::Empty
PUBLIC	?GetAllocLength@?$CSimpleStringT@_W$0A@@ATL@@QBEHXZ ; ATL::CSimpleStringT<wchar_t,0>::GetAllocLength
PUBLIC	?GetBuffer@?$CSimpleStringT@_W$0A@@ATL@@QAEPA_WXZ ; ATL::CSimpleStringT<wchar_t,0>::GetBuffer
PUBLIC	?GetBuffer@?$CSimpleStringT@_W$0A@@ATL@@QAEPA_WH@Z ; ATL::CSimpleStringT<wchar_t,0>::GetBuffer
PUBLIC	?GetLength@?$CSimpleStringT@_W$0A@@ATL@@QBEHXZ	; ATL::CSimpleStringT<wchar_t,0>::GetLength
PUBLIC	?GetManager@?$CSimpleStringT@_W$0A@@ATL@@QBEPAUIAtlStringMgr@2@XZ ; ATL::CSimpleStringT<wchar_t,0>::GetManager
PUBLIC	?GetString@?$CSimpleStringT@_W$0A@@ATL@@QBEPB_WXZ ; ATL::CSimpleStringT<wchar_t,0>::GetString
PUBLIC	?ReleaseBuffer@?$CSimpleStringT@_W$0A@@ATL@@QAEXH@Z ; ATL::CSimpleStringT<wchar_t,0>::ReleaseBuffer
PUBLIC	?ReleaseBufferSetLength@?$CSimpleStringT@_W$0A@@ATL@@QAEXH@Z ; ATL::CSimpleStringT<wchar_t,0>::ReleaseBufferSetLength
PUBLIC	?SetString@?$CSimpleStringT@_W$0A@@ATL@@QAEXPB_W@Z ; ATL::CSimpleStringT<wchar_t,0>::SetString
PUBLIC	?SetString@?$CSimpleStringT@_W$0A@@ATL@@QAEXPB_WH@Z ; ATL::CSimpleStringT<wchar_t,0>::SetString
PUBLIC	?CopyCharsOverlapped@?$CSimpleStringT@_W$0A@@ATL@@SAXPA_WIPB_WH@Z ; ATL::CSimpleStringT<wchar_t,0>::CopyCharsOverlapped
PUBLIC	?StringLength@?$CSimpleStringT@_W$0A@@ATL@@SAHPB_W@Z ; ATL::CSimpleStringT<wchar_t,0>::StringLength
PUBLIC	?StringLengthN@?$CSimpleStringT@_W$0A@@ATL@@SAHPB_WI@Z ; ATL::CSimpleStringT<wchar_t,0>::StringLengthN
PUBLIC	?Concatenate@?$CSimpleStringT@_W$0A@@ATL@@KAXAAV12@PB_WH1H@Z ; ATL::CSimpleStringT<wchar_t,0>::Concatenate
PUBLIC	?ThrowMemoryException@?$CSimpleStringT@_W$0A@@ATL@@KAXXZ ; ATL::CSimpleStringT<wchar_t,0>::ThrowMemoryException
PUBLIC	?Attach@?$CSimpleStringT@_W$0A@@ATL@@AAEXPAUCStringData@2@@Z ; ATL::CSimpleStringT<wchar_t,0>::Attach
PUBLIC	?Fork@?$CSimpleStringT@_W$0A@@ATL@@AAEXH@Z	; ATL::CSimpleStringT<wchar_t,0>::Fork
PUBLIC	?GetData@?$CSimpleStringT@_W$0A@@ATL@@ABEPAUCStringData@2@XZ ; ATL::CSimpleStringT<wchar_t,0>::GetData
PUBLIC	?PrepareWrite@?$CSimpleStringT@_W$0A@@ATL@@AAEPA_WH@Z ; ATL::CSimpleStringT<wchar_t,0>::PrepareWrite
PUBLIC	?PrepareWrite2@?$CSimpleStringT@_W$0A@@ATL@@AAEXH@Z ; ATL::CSimpleStringT<wchar_t,0>::PrepareWrite2
PUBLIC	?Reallocate@?$CSimpleStringT@_W$0A@@ATL@@AAEXH@Z ; ATL::CSimpleStringT<wchar_t,0>::Reallocate
PUBLIC	?SetLength@?$CSimpleStringT@_W$0A@@ATL@@AAEXH@Z	; ATL::CSimpleStringT<wchar_t,0>::SetLength
PUBLIC	?CloneData@?$CSimpleStringT@_W$0A@@ATL@@CAPAUCStringData@2@PAU32@@Z ; ATL::CSimpleStringT<wchar_t,0>::CloneData
PUBLIC	??0?$CStringT@_WV?$StrTraitMFC@_WV?$ChTraitsCRT@_W@ATL@@@@@ATL@@QAE@XZ ; ATL::CStringT<wchar_t,StrTraitMFC<wchar_t,ATL::ChTraitsCRT<wchar_t> > >::CStringT<wchar_t,StrTraitMFC<wchar_t,ATL::ChTraitsCRT<wchar_t> > >
PUBLIC	??0?$CStringT@_WV?$StrTraitMFC@_WV?$ChTraitsCRT@_W@ATL@@@@@ATL@@QAE@PAUIAtlStringMgr@1@@Z ; ATL::CStringT<wchar_t,StrTraitMFC<wchar_t,ATL::ChTraitsCRT<wchar_t> > >::CStringT<wchar_t,StrTraitMFC<wchar_t,ATL::ChTraitsCRT<wchar_t> > >
PUBLIC	??0?$CStringT@_WV?$StrTraitMFC@_WV?$ChTraitsCRT@_W@ATL@@@@@ATL@@QAE@ABV01@@Z ; ATL::CStringT<wchar_t,StrTraitMFC<wchar_t,ATL::ChTraitsCRT<wchar_t> > >::CStringT<wchar_t,StrTraitMFC<wchar_t,ATL::ChTraitsCRT<wchar_t> > >
PUBLIC	??0?$CStringT@_WV?$StrTraitMFC@_WV?$ChTraitsCRT@_W@ATL@@@@@ATL@@QAE@PB_W@Z ; ATL::CStringT<wchar_t,StrTraitMFC<wchar_t,ATL::ChTraitsCRT<wchar_t> > >::CStringT<wchar_t,StrTraitMFC<wchar_t,ATL::ChTraitsCRT<wchar_t> > >
PUBLIC	??0?$CStringT@_WV?$StrTraitMFC@_WV?$ChTraitsCRT@_W@ATL@@@@@ATL@@QAE@PB_WPAUIAtlStringMgr@1@@Z ; ATL::CStringT<wchar_t,StrTraitMFC<wchar_t,ATL::ChTraitsCRT<wchar_t> > >::CStringT<wchar_t,StrTraitMFC<wchar_t,ATL::ChTraitsCRT<wchar_t> > >
PUBLIC	??0?$CStringT@_WV?$StrTraitMFC@_WV?$ChTraitsCRT@_W@ATL@@@@@ATL@@QAE@PBDPAUIAtlStringMgr@1@@Z ; ATL::CStringT<wchar_t,StrTraitMFC<wchar_t,ATL::ChTraitsCRT<wchar_t> > >::CStringT<wchar_t,StrTraitMFC<wchar_t,ATL::ChTraitsCRT<wchar_t> > >
PUBLIC	??1?$CStringT@_WV?$StrTraitMFC@_WV?$ChTraitsCRT@_W@ATL@@@@@ATL@@QAE@XZ ; ATL::CStringT<wchar_t,StrTraitMFC<wchar_t,ATL::ChTraitsCRT<wchar_t> > >::~CStringT<wchar_t,StrTraitMFC<wchar_t,ATL::ChTraitsCRT<wchar_t> > >
PUBLIC	??4?$CStringT@_WV?$StrTraitMFC@_WV?$ChTraitsCRT@_W@ATL@@@@@ATL@@QAEAAV01@PB_W@Z ; ATL::CStringT<wchar_t,StrTraitMFC<wchar_t,ATL::ChTraitsCRT<wchar_t> > >::operator=
PUBLIC	??4?$CStringT@_WV?$StrTraitMFC@_WV?$ChTraitsCRT@_W@ATL@@@@@ATL@@QAEAAV01@PBD@Z ; ATL::CStringT<wchar_t,StrTraitMFC<wchar_t,ATL::ChTraitsCRT<wchar_t> > >::operator=
PUBLIC	??Y?$CStringT@_WV?$StrTraitMFC@_WV?$ChTraitsCRT@_W@ATL@@@@@ATL@@QAEAAV01@ABV?$CSimpleStringT@_W$0A@@1@@Z ; ATL::CStringT<wchar_t,StrTraitMFC<wchar_t,ATL::ChTraitsCRT<wchar_t> > >::operator+=
PUBLIC	??Y?$CStringT@_WV?$StrTraitMFC@_WV?$ChTraitsCRT@_W@ATL@@@@@ATL@@QAEAAV01@PBD@Z ; ATL::CStringT<wchar_t,StrTraitMFC<wchar_t,ATL::ChTraitsCRT<wchar_t> > >::operator+=
PUBLIC	?GetManager@?$CStringT@_WV?$StrTraitMFC@_WV?$ChTraitsCRT@_W@ATL@@@@@ATL@@QBEPAUIAtlStringMgr@2@XZ ; ATL::CStringT<wchar_t,StrTraitMFC<wchar_t,ATL::ChTraitsCRT<wchar_t> > >::GetManager
PUBLIC	?Format@?$CStringT@_WV?$StrTraitMFC@_WV?$ChTraitsCRT@_W@ATL@@@@@ATL@@QAAXPB_WZZ ; ATL::CStringT<wchar_t,StrTraitMFC<wchar_t,ATL::ChTraitsCRT<wchar_t> > >::Format
PUBLIC	?FormatV@?$CStringT@_WV?$StrTraitMFC@_WV?$ChTraitsCRT@_W@ATL@@@@@ATL@@QAEXPB_WPAD@Z ; ATL::CStringT<wchar_t,StrTraitMFC<wchar_t,ATL::ChTraitsCRT<wchar_t> > >::FormatV
PUBLIC	?LoadStringW@?$CStringT@_WV?$StrTraitMFC@_WV?$ChTraitsCRT@_W@ATL@@@@@ATL@@QAEHI@Z ; ATL::CStringT<wchar_t,StrTraitMFC<wchar_t,ATL::ChTraitsCRT<wchar_t> > >::LoadStringW
PUBLIC	?LoadStringW@?$CStringT@_WV?$StrTraitMFC@_WV?$ChTraitsCRT@_W@ATL@@@@@ATL@@QAEHPAUHINSTANCE__@@I@Z ; ATL::CStringT<wchar_t,StrTraitMFC<wchar_t,ATL::ChTraitsCRT<wchar_t> > >::LoadStringW
PUBLIC	??HATL@@YA?AV?$CStringT@_WV?$StrTraitMFC@_WV?$ChTraitsCRT@_W@ATL@@@@@0@ABV10@0@Z ; ATL::operator+
PUBLIC	?CheckImplicitLoad@?$CStringT@_WV?$StrTraitMFC@_WV?$ChTraitsCRT@_W@ATL@@@@@ATL@@AAE_NPBX@Z ; ATL::CStringT<wchar_t,StrTraitMFC<wchar_t,ATL::ChTraitsCRT<wchar_t> > >::CheckImplicitLoad
PUBLIC	?__autoclassinit2@?$CStringT@_WV?$StrTraitMFC@_WV?$ChTraitsCRT@_W@ATL@@@@@ATL@@QAEXI@Z ; ATL::CStringT<wchar_t,StrTraitMFC<wchar_t,ATL::ChTraitsCRT<wchar_t> > >::__autoclassinit2
PUBLIC	?FindStringResourceInstance@?$StrTraitMFC@_WV?$ChTraitsCRT@_W@ATL@@@@SAPAUHINSTANCE__@@I@Z ; StrTraitMFC<wchar_t,ATL::ChTraitsCRT<wchar_t> >::FindStringResourceInstance
PUBLIC	?GetDefaultManager@?$StrTraitMFC@_WV?$ChTraitsCRT@_W@ATL@@@@SAPAUIAtlStringMgr@ATL@@XZ ; StrTraitMFC<wchar_t,ATL::ChTraitsCRT<wchar_t> >::GetDefaultManager
PUBLIC	?__autoclassinit2@CFileDialog@@QAEXI@Z		; CFileDialog::__autoclassinit2
PUBLIC	??0_bstr_t@@QAE@ABV0@@Z				; _bstr_t::_bstr_t
PUBLIC	??0_bstr_t@@QAE@PBD@Z				; _bstr_t::_bstr_t
PUBLIC	??0_bstr_t@@QAE@PB_W@Z				; _bstr_t::_bstr_t
PUBLIC	??1_bstr_t@@QAE@XZ				; _bstr_t::~_bstr_t
PUBLIC	??Y_bstr_t@@QAEAAV0@ABV0@@Z			; _bstr_t::operator+=
PUBLIC	??H@YA?AV_bstr_t@@PB_WABV0@@Z			; operator+
PUBLIC	??B_bstr_t@@QBEPB_WXZ				; _bstr_t::operator wchar_t const *
PUBLIC	?length@_bstr_t@@QBEIXZ				; _bstr_t::length
PUBLIC	??0Data_t@_bstr_t@@QAE@PBD@Z			; _bstr_t::Data_t::Data_t
PUBLIC	??0Data_t@_bstr_t@@QAE@PB_W@Z			; _bstr_t::Data_t::Data_t
PUBLIC	??0Data_t@_bstr_t@@QAE@ABV1@0@Z			; _bstr_t::Data_t::Data_t
PUBLIC	?AddRef@Data_t@_bstr_t@@QAEKXZ			; _bstr_t::Data_t::AddRef
PUBLIC	?Release@Data_t@_bstr_t@@QAEKXZ			; _bstr_t::Data_t::Release
PUBLIC	?GetWString@Data_t@_bstr_t@@QAEAAPA_WXZ		; _bstr_t::Data_t::GetWString
PUBLIC	?Length@Data_t@_bstr_t@@QBEIXZ			; _bstr_t::Data_t::Length
PUBLIC	??2Data_t@_bstr_t@@SAPAXI@Z			; _bstr_t::Data_t::operator new
PUBLIC	??1Data_t@_bstr_t@@AAE@XZ			; _bstr_t::Data_t::~Data_t
PUBLIC	?_Free@Data_t@_bstr_t@@AAEXXZ			; _bstr_t::Data_t::_Free
PUBLIC	?__autoclassinit2@Data_t@_bstr_t@@QAEXI@Z	; _bstr_t::Data_t::__autoclassinit2
PUBLIC	??_GData_t@_bstr_t@@AAEPAXI@Z			; _bstr_t::Data_t::`scalar deleting destructor'
PUBLIC	?_AddRef@_bstr_t@@AAEXXZ			; _bstr_t::_AddRef
PUBLIC	?_Free@_bstr_t@@AAEXXZ				; _bstr_t::_Free
PUBLIC	?__autoclassinit2@_bstr_t@@QAEXI@Z		; _bstr_t::__autoclassinit2
PUBLIC	??_GCalcul_temps@@QAEPAXI@Z			; Calcul_temps::`scalar deleting destructor'
PUBLIC	??0Solution@@QAE@XZ				; Solution::Solution
PUBLIC	??0Solution@@QAE@PAUHWND__@@@Z			; Solution::Solution
PUBLIC	??1Solution@@UAE@XZ				; Solution::~Solution
PUBLIC	?Charger_valeur_saisie@Solution@@QAEHPAUHWND__@@@Z ; Solution::Charger_valeur_saisie
PUBLIC	?Charger_From_a_File@Solution@@QAEHPAUHWND__@@@Z ; Solution::Charger_From_a_File
PUBLIC	?Raz@Solution@@AAEXXZ				; Solution::Raz
PUBLIC	?Check_input_grid@Solution@@AAEHXZ		; Solution::Check_input_grid
PUBLIC	?Check_input_rows@Solution@@AAEHXZ		; Solution::Check_input_rows
PUBLIC	?Check_input_a_row@Solution@@AAEHH@Z		; Solution::Check_input_a_row
PUBLIC	?Check_input_columns@Solution@@AAEHXZ		; Solution::Check_input_columns
PUBLIC	?Check_input_a_column@Solution@@AAEHH@Z		; Solution::Check_input_a_column
PUBLIC	?Check_input_sub_squares@Solution@@AAEHXZ	; Solution::Check_input_sub_squares
PUBLIC	?Check_input_a_sub_square@Solution@@AAEHH@Z	; Solution::Check_input_a_sub_square
PUBLIC	?Trans_sub_square@Solution@@AAEXQADH@Z		; Solution::Trans_sub_square
PUBLIC	?Resolve@Solution@@AAEXXZ			; Solution::Resolve
PUBLIC	?Free_cell_for_number@Solution@@AAEHHHH@Z	; Solution::Free_cell_for_number
PUBLIC	?Trans_sub_square_of_cell@Solution@@AAEXQADHH@Z	; Solution::Trans_sub_square_of_cell
PUBLIC	?Finished_grid@Solution@@AAEHXZ			; Solution::Finished_grid
PUBLIC	?Display_grille@Solution@@AAEXPAUHWND__@@@Z	; Solution::Display_grille
PUBLIC	?Print@Solution@@AAEXXZ				; Solution::Print
PUBLIC	?Charge_tableau_relation@Solution@@AAEXXZ	; Solution::Charge_tableau_relation
PUBLIC	?Definition_limite@Solution@@AAEXPAUHWND__@@@Z	; Solution::Definition_limite
PUBLIC	?Current_Dir@Solution@@AAE?AV?$CStringT@_WV?$StrTraitMFC@_WV?$ChTraitsCRT@_W@ATL@@@@@ATL@@XZ ; Solution::Current_Dir
PUBLIC	?Save_Load_Data@Solution@@AAEHXZ		; Solution::Save_Load_Data
PUBLIC	?Save_File@Solution@@AAEHPA_W@Z			; Solution::Save_File
PUBLIC	?Open_File@Solution@@AAEHPA_W@Z			; Solution::Open_File
PUBLIC	?WriteFile@Solution@@AAEHPAU_iobuf@@@Z		; Solution::WriteFile
PUBLIC	?Folder@Solution@@AAE?AV?$CStringT@_WV?$StrTraitMFC@_WV?$ChTraitsCRT@_W@ATL@@@@@ATL@@XZ ; Solution::Folder
PUBLIC	?Sepcial_Folder@Solution@@AAE?AV?$CStringT@_WV?$StrTraitMFC@_WV?$ChTraitsCRT@_W@ATL@@@@@ATL@@H@Z ; Solution::Sepcial_Folder
PUBLIC	?Dur_Dur@Solution@@AAEXXZ			; Solution::Dur_Dur
PUBLIC	?Conversion@Solution@@AAEXV?$CStringT@_WV?$StrTraitMFC@_WV?$ChTraitsCRT@_W@ATL@@@@@ATL@@@Z ; Solution::Conversion
PUBLIC	?Affiche_Synchro@Solution@@AAEX_K@Z		; Solution::Affiche_Synchro
PUBLIC	??_GSolution@@UAEPAXI@Z				; Solution::`scalar deleting destructor'
PUBLIC	__JustMyCode_Default
PUBLIC	?_OptionsStorage@?1??__local_stdio_printf_options@@9@4_KA ; `__local_stdio_printf_options'::`2'::_OptionsStorage
PUBLIC	??_C@_17CNPHIMPH@?$AA?$CF?$AAl?$AAs@		; `string'
PUBLIC	??_C@_1NK@JCBLKNMO@?$AAC?$AA?3?$AA?2?$AAP?$AAr?$AAo?$AAg?$AAr?$AAa?$AAm?$AA?5?$AAF?$AAi?$AAl?$AAe@ ; `string'
PUBLIC	?atlTraceException@ATL@@3V?$CTraceCategoryEx@$0CAAA@$0A@@1@A ; ATL::atlTraceException
PUBLIC	??_C@_1CE@IMMADNAP@?$AAa?$AAt?$AAl?$AAT?$AAr?$AAa?$AAc?$AAe?$AAE?$AAx?$AAc?$AAe?$AAp?$AAt?$AAi@ ; `string'
PUBLIC	?atlTraceString@ATL@@3V?$CTraceCategoryEx@$0CAAAA@$0A@@1@A ; ATL::atlTraceString
PUBLIC	??_C@_1BO@GMLILNDJ@?$AAa?$AAt?$AAl?$AAT?$AAr?$AAa?$AAc?$AAe?$AAS?$AAt?$AAr?$AAi?$AAn?$AAg@ ; `string'
PUBLIC	?m_nLevel@CTrace@ATL@@1IA			; ATL::CTrace::m_nLevel
PUBLIC	?m_nCategory@CTrace@ATL@@1IA			; ATL::CTrace::m_nCategory
PUBLIC	?m_nLastCategory@CTrace@ATL@@1IA		; ATL::CTrace::m_nLastCategory
PUBLIC	?m_nMap@CTrace@ATL@@1PAUCategoryMap@12@A	; ATL::CTrace::m_nMap
PUBLIC	??_C@_1O@LFNDFEBP@?$AA?$CF?$AAl?$AAs?$AA?5?$AA?9?$AA?5@ ; `string'
PUBLIC	??_C@_1M@PGKOAACE@?$AA?$CF?$AAu?$AA?5?$AA?9?$AA?5@ ; `string'
PUBLIC	??_C@_1O@OAIPCDPO@?$AA?$CF?$AAl?$AAs?$AA?$CF?$AAl?$AAs@ ; `string'
PUBLIC	??_C@_17LGGGMOOB@?$AA?$CF?$AAh?$AAs@		; `string'
PUBLIC	??_C@_1EO@EBPPKGOM@?$AAf?$AAa?$AAl?$AAs?$AAe?$AA?5?$AA?$CG?$AA?$CG?$AA?5?$AA?$CC?$AAT?$AAo?$AAo?$AA?5?$AAm@ ; `string'
PUBLIC	??_C@_1NK@OBLAMPEN@?$AAC?$AA?3?$AA?2?$AAP?$AAr?$AAo?$AAg?$AAr?$AAa?$AAm?$AA?5?$AAF?$AAi?$AAl?$AAe@ ; `string'
PUBLIC	?__LINE__Var@?0??AtlThrowImpl@ATL@@YGXJ@Z@4JA	; `ATL::AtlThrowImpl'::`1'::__LINE__Var
PUBLIC	??_C@_0GO@OMMACHMC@C?3?2Program?5Files?2Microsoft?5Visu@ ; `string'
PUBLIC	??_C@_1CK@DFMKPFAK@?$AAA?$AAt?$AAl?$AAT?$AAh?$AAr?$AAo?$AAw?$AA?3?$AA?5?$AAh?$AAr?$AA?5?$AA?$DN?$AA?5@ ; `string'
PUBLIC	??_C@_1BM@GBBOFEAE@?$AA_?$AA_?$AAa?$AAt?$AAl?$AA_?$AAc?$AAo?$AAn?$AAd?$AAV?$AAa?$AAl@ ; `string'
PUBLIC	??_C@_13FPGAJAPJ@?$AA?2@			; `string'
PUBLIC	??_C@_1BE@BLGCOAPB@?$AAn?$AAR?$AAe?$AAf?$AAs?$AA?5?$AA?$DO?$AA?5?$AA0@ ; `string'
PUBLIC	??_C@_1NO@CMNIKGIF@?$AAC?$AA?3?$AA?2?$AAP?$AAr?$AAo?$AAg?$AAr?$AAa?$AAm?$AA?5?$AAF?$AAi?$AAl?$AAe@ ; `string'
PUBLIC	??_C@_1BG@GPELCNED@?$AAn?$AAR?$AAe?$AAf?$AAs?$AA?5?$AA?$CB?$AA?$DN?$AA?5?$AA0@ ; `string'
PUBLIC	??_C@_1NK@KGCDDCJB@?$AAC?$AA?3?$AA?2?$AAP?$AAr?$AAo?$AAg?$AAr?$AAa?$AAm?$AA?5?$AAF?$AAi?$AAl?$AAe@ ; `string'
PUBLIC	??_C@_0GN@HEPHHEDO@C?3?2Program?5Files?2Microsoft?5Visu@ ; `string'
PUBLIC	??_C@_15KNBIKKIN@?$AA?$CF?$AAd@			; `string'
PUBLIC	??_C@_11LOCGONAA@@				; `string'
PUBLIC	??_C@_1FC@BMOLDHIO@?$AAW?$AAa?$AAr?$AAn?$AAi?$AAn?$AAg?$AA?3?$AA?5?$AAi?$AAm?$AAp?$AAl?$AAi?$AAc@ ; `string'
PUBLIC	??_C@_1BK@OGOKLNEF@?$AAn?$AAL?$AAe?$AAn?$AAg?$AAt?$AAh?$AA?5?$AA?$DO?$AA?$DN?$AA?5?$AA0@ ; `string'
PUBLIC	??_C@_1EG@PELIOAAG@?$AAn?$AAL?$AAe?$AAn?$AAg?$AAt?$AAh?$AA?5?$AA?$DM?$AA?$DN?$AA?5?$AAG?$AAe?$AAt?$AAD@ ; `string'
PUBLIC	??_C@_1BK@NHECDDNK@?$AAm?$AA_?$AAp?$AAD?$AAa?$AAt?$AAa?$AA?5?$AA?$DN?$AA?$DN?$AA?5?$AA0@ ; `string'
PUBLIC	??_C@_1CA@FILBIMGF@?$AAn?$AAN?$AAe?$AAw?$AAL?$AAe?$AAn?$AAg?$AAt?$AAh?$AA?5?$AA?$DO?$AA?$DN?$AA?5?$AA0@ ; `string'
PUBLIC	??_C@_1EC@BCBEFJPM@?$AAp?$AAO?$AAl?$AAd?$AAD?$AAa?$AAt?$AAa?$AA?9?$AA?$DO?$AAn?$AAA?$AAl?$AAl?$AAo@ ; `string'
PUBLIC	??_C@_1DM@KPGCKOJB@?$AAA?$AAt?$AAl?$AAI?$AAs?$AAV?$AAa?$AAl?$AAi?$AAd?$AAS?$AAt?$AAr?$AAi?$AAn@ ; `string'
PUBLIC	??_C@_01EEMJAFIK@?6@				; `string'
PUBLIC	??_7Solution@@6B@				; Solution::`vftable'
PUBLIC	?__LINE__Var@?0??Definition_limite@Solution@@AAEXPAUHWND__@@@Z@4JA ; `Solution::Definition_limite'::`1'::__LINE__Var
PUBLIC	??_C@_0CK@JGFDDPMM@J?3?2work?2SUDOKU?2SUDOKU?2SUDOKU?2So@ ; `string'
PUBLIC	??_C@_0BJ@LICJPAK@Text?5File?5?$CI?$CK?4txt?$CJ?$HM?$CK?4txt?$HM@ ; `string'
PUBLIC	??_C@_0BG@FALAGNOM@All?5Files?5?$CI?$CK?4?$CK?$CJ?$HM?$CK?4?$CK?$HM?$HM@ ; `string'
PUBLIC	??_C@_1BI@LHMMMGAL@?$AAS?$AAu?$AAd?$AAo?$AAk?$AAu?$AA?5?$AAF?$AAi?$AAl?$AAe@ ; `string'
PUBLIC	??_C@_1CC@DBEOBEPH@?$AAS?$AAu?$AAd?$AAo?$AAk?$AAu?$AA_?$AAi?$AAn?$AAp?$AAu?$AAt?$AA?4?$AAt?$AAx@ ; `string'
PUBLIC	??_C@_15OMIKMFFN@?$AAr?$AAt@			; `string'
PUBLIC	??_C@_1DI@PECEIFDA@?$AAT?$AAe?$AAm?$AAp?$AAs?$AA?5?$AAd?$AAe?$AA?5?$AAr?$PP?i?$AAs?$AAo?$AAl?$AAu@ ; `string'
PUBLIC	??_C@_1DG@BPKNNOLH@?$AAT?$AAe?$AAm?$AAp?$AAs?$AA?5?$AAd?$AAe?$AA?5?$AAr?$PP?i?$AAs?$AAo?$AAl?$AAu@ ; `string'
PUBLIC	??_C@_0BH@JLAFPNCO@Nombre?5d?8essais?5?3?5?$CFd?6?6@ ; `string'
PUBLIC	??_C@_1CK@FIOBKKHN@?$AAN?$AAo?$AAm?$AAb?$AAr?$AAe?$AA?5?$AAd?$AA?8?$AAe?$AAs?$AAs?$AAa?$AAi?$AAs@ ; `string'
PUBLIC	??_C@_03JDANDILB@?$CFd?5@			; `string'
PUBLIC	??_C@_03EGHOKNNL@?6?6?6@			; `string'
PUBLIC	?__LINE__Var@?0???0Solution@@QAE@PAUHWND__@@@Z@4JA ; `Solution::Solution'::`1'::__LINE__Var
PUBLIC	??_C@_0BL@JGGBKHK@resultat_grille_Sudoku?4txt@	; `string'
PUBLIC	??_C@_17LFHOHKCB@?$AAw?$AA?$CL?$AAt@		; `string'
PUBLIC	?__LINE__Var@?0??Charger_valeur_saisie@Solution@@QAEHPAUHWND__@@@Z@4JA ; `Solution::Charger_valeur_saisie'::`1'::__LINE__Var
PUBLIC	??_C@_1CC@NLMIMJJF@?$AAS?$AAu?$AAd?$AAo?$AAk?$AAu?$AA_?$AAi?$AAm?$AAp?$AAu?$AAt?$AA?4?$AAt?$AAx@ ; `string'
PUBLIC	??_C@_15LMEHFEOO@?$AAw?$AAt@			; `string'
PUBLIC	?__LINE__Var@?0??Display_grille@Solution@@AAEXPAUHWND__@@@Z@4JA ; `Solution::Display_grille'::`1'::__LINE__Var
PUBLIC	??_C@_1DM@DDLFPJCI@?$AAE?$AAr?$AAr?$AAe?$AAu?$AAr?$AA?5?$AAl?$AAi?$AAg?$AAn?$AAe?$AA?5?$AA?$CF?$AAd@ ; `string'
PUBLIC	??_C@_1EA@OLIANHL@?$AAE?$AAr?$AAr?$AAe?$AAu?$AAr?$AA?5?$AAc?$AAo?$AAl?$AAo?$AAn?$AAn?$AAe?$AA?5@ ; `string'
PUBLIC	??_C@_1EG@ECKKEMMN@?$AAE?$AAr?$AAr?$AAe?$AAu?$AAr?$AA?5?$AAs?$AAo?$AAu?$AAs?$AA?5?$AAc?$AAa?$AAr@ ; `string'
PUBLIC	??_C@_03OFAPEBGM@?$CFs?6@			; `string'
PUBLIC	??_R4Solution@@6B@				; Solution::`RTTI Complete Object Locator'
PUBLIC	??_R0?AVSolution@@@8				; Solution `RTTI Type Descriptor'
PUBLIC	??_R3Solution@@8				; Solution::`RTTI Class Hierarchy Descriptor'
PUBLIC	??_R2Solution@@8				; Solution::`RTTI Base Class Array'
PUBLIC	??_R1A@?0A@EA@Solution@@8			; Solution::`RTTI Base Class Descriptor at (0,-1,0,64)'
EXTRN	??2@YAPAXI@Z:PROC				; operator new
EXTRN	??3@YAXPAXI@Z:PROC				; operator delete
EXTRN	??_U@YAPAXI@Z:PROC				; operator new[]
EXTRN	??_V@YAXPAX@Z:PROC				; operator delete[]
EXTRN	__invalid_parameter_noinfo:PROC
EXTRN	__errno:PROC
EXTRN	_memcpy:PROC
EXTRN	_memmove:PROC
EXTRN	_memset:PROC
EXTRN	_wcscpy_s:PROC
EXTRN	_wcslen:PROC
EXTRN	_wcsnlen:PROC
EXTRN	__imp__GetCurrentDirectoryW@8:PROC
EXTRN	__imp__GetLastError@0:PROC
EXTRN	__imp__SetLastError@4:PROC
EXTRN	__imp__LoadResource@8:PROC
EXTRN	__imp__LockResource@4:PROC
EXTRN	__imp__SizeofResource@8:PROC
EXTRN	__imp__FindResourceW@12:PROC
EXTRN	__imp__PeekMessageW@20:PROC
EXTRN	__imp__SendMessageW@16:PROC
EXTRN	__imp__PostQuitMessage@4:PROC
EXTRN	__imp__IsWindow@4:PROC
EXTRN	__imp__GetDlgItem@8:PROC
EXTRN	__imp__SetDlgItemTextW@12:PROC
EXTRN	__imp__GetDlgItemTextW@16:PROC
EXTRN	__imp__MultiByteToWideChar@24:PROC
EXTRN	__wfopen:PROC
EXTRN	___stdio_common_vswprintf:PROC
EXTRN	___stdio_common_vswprintf_s:PROC
EXTRN	___stdio_common_vsnwprintf_s:PROC
EXTRN	_wmemcpy_s:PROC
EXTRN	_fclose:PROC
EXTRN	_fgets:PROC
EXTRN	___stdio_common_vfprintf:PROC
EXTRN	_free:PROC
EXTRN	_malloc:PROC
EXTRN	_atoi:PROC
EXTRN	_wcstombs_s:PROC
EXTRN	__CrtDbgReport:PROC
EXTRN	__CrtDbgReportW:PROC
EXTRN	__imp__SysAllocString@4:PROC
EXTRN	__imp__SysFreeString@4:PROC
EXTRN	__imp__SysStringLen@4:PROC
EXTRN	__imp__SysAllocStringByteLen@8:PROC
EXTRN	?AfxThrowMemoryException@@YGXXZ:PROC		; AfxThrowMemoryException
EXTRN	?AfxThrowInvalidArgException@@YGXXZ:PROC	; AfxThrowInvalidArgException
EXTRN	?AfxThrowOleException@@YGXJ@Z:PROC		; AfxThrowOleException
EXTRN	?AfxFindStringResourceHandle@@YGPAUHINSTANCE__@@I@Z:PROC ; AfxFindStringResourceHandle
EXTRN	?AfxGetStringManager@@YGPAUIAtlStringMgr@ATL@@XZ:PROC ; AfxGetStringManager
EXTRN	?AfxGetMainWnd@@YGPAVCWnd@@XZ:PROC		; AfxGetMainWnd
EXTRN	?AfxMessageBox@@YGHPB_WII@Z:PROC		; AfxMessageBox
EXTRN	?GetOFN@CFileDialog@@QAEAAUtagOFNW@@XZ:PROC	; CFileDialog::GetOFN
EXTRN	??0CFileDialog@@QAE@HPB_W0K0PAVCWnd@@KH@Z:PROC	; CFileDialog::CFileDialog
EXTRN	??1CFileDialog@@UAE@XZ:PROC			; CFileDialog::~CFileDialog
EXTRN	?DoModal@CFileDialog@@UAEHXZ:PROC		; CFileDialog::DoModal
EXTRN	__imp__SHGetFolderPathW@20:PROC
EXTRN	?_com_issue_error@@YGXJ@Z:PROC			; _com_issue_error
EXTRN	?ConvertStringToBSTR@_com_util@@YGPA_WPBD@Z:PROC ; _com_util::ConvertStringToBSTR
EXTRN	??0Calcul_temps@@QAE@XZ:PROC			; Calcul_temps::Calcul_temps
EXTRN	??1Calcul_temps@@QAE@XZ:PROC			; Calcul_temps::~Calcul_temps
EXTRN	?Start_time@Calcul_temps@@QAEXXZ:PROC		; Calcul_temps::Start_time
EXTRN	?Stop_time@Calcul_temps@@QAEXXZ:PROC		; Calcul_temps::Stop_time
EXTRN	?Read_time@Calcul_temps@@QAE_KXZ:PROC		; Calcul_temps::Read_time
EXTRN	??_ESolution@@UAEPAXI@Z:PROC			; Solution::`vector deleting destructor'
EXTRN	@_RTC_CheckStackVars@8:PROC
EXTRN	@__CheckForDebuggerJustMyCode@4:PROC
EXTRN	@__security_check_cookie@4:PROC
EXTRN	__RTC_CheckEsp:PROC
EXTRN	__RTC_InitBase:PROC
EXTRN	__RTC_Shutdown:PROC
EXTRN	___CxxFrameHandler3:PROC
EXTRN	_memset:PROC
EXTRN	??_7type_info@@6B@:QWORD			; type_info::`vftable'
EXTRN	___security_cookie:DWORD
;	COMDAT ?_OptionsStorage@?1??__local_stdio_printf_options@@9@4_KA
_BSS	SEGMENT
?_OptionsStorage@?1??__local_stdio_printf_options@@9@4_KA DQ 01H DUP (?) ; `__local_stdio_printf_options'::`2'::_OptionsStorage
_BSS	ENDS
;	COMDAT ?atlTraceException@ATL@@3V?$CTraceCategoryEx@$0CAAA@$0A@@1@A
_BSS	SEGMENT
?atlTraceException@ATL@@3V?$CTraceCategoryEx@$0CAAA@$0A@@1@A DD 01H DUP (?) ; ATL::atlTraceException
_BSS	ENDS
;	COMDAT ?atlTraceString@ATL@@3V?$CTraceCategoryEx@$0CAAAA@$0A@@1@A
_BSS	SEGMENT
?atlTraceString@ATL@@3V?$CTraceCategoryEx@$0CAAAA@$0A@@1@A DD 01H DUP (?) ; ATL::atlTraceString
_BSS	ENDS
;	COMDAT ?m_nLevel@CTrace@ATL@@1IA
_BSS	SEGMENT
?m_nLevel@CTrace@ATL@@1IA DD 01H DUP (?)		; ATL::CTrace::m_nLevel
_BSS	ENDS
;	COMDAT ?m_nLastCategory@CTrace@ATL@@1IA
_BSS	SEGMENT
?m_nLastCategory@CTrace@ATL@@1IA DD 01H DUP (?)		; ATL::CTrace::m_nLastCategory
_BSS	ENDS
;	COMDAT ?m_nMap@CTrace@ATL@@1PAUCategoryMap@12@A
_BSS	SEGMENT
?m_nMap@CTrace@ATL@@1PAUCategoryMap@12@A DB 02080H DUP (?) ; ATL::CTrace::m_nMap
_BSS	ENDS
;	COMDAT CRT$XCU
CRT$XCU	SEGMENT
?atlTraceException$initializer$@ATL@@3P6AXXZA DD FLAT:??__EatlTraceException@ATL@@YAXXZ ; ATL::atlTraceException$initializer$
CRT$XCU	ENDS
;	COMDAT rtc$TMZ
rtc$TMZ	SEGMENT
__RTC_Shutdown.rtc$TMZ DD FLAT:__RTC_Shutdown
rtc$TMZ	ENDS
;	COMDAT rtc$IMZ
rtc$IMZ	SEGMENT
__RTC_InitBase.rtc$IMZ DD FLAT:__RTC_InitBase
rtc$IMZ	ENDS
;	COMDAT ??_R1A@?0A@EA@Solution@@8
rdata$r	SEGMENT
??_R1A@?0A@EA@Solution@@8 DD FLAT:??_R0?AVSolution@@@8	; Solution::`RTTI Base Class Descriptor at (0,-1,0,64)'
	DD	00H
	DD	00H
	DD	0ffffffffH
	DD	00H
	DD	040H
	DD	FLAT:??_R3Solution@@8
rdata$r	ENDS
;	COMDAT ??_R2Solution@@8
rdata$r	SEGMENT
??_R2Solution@@8 DD FLAT:??_R1A@?0A@EA@Solution@@8	; Solution::`RTTI Base Class Array'
rdata$r	ENDS
;	COMDAT ??_R3Solution@@8
rdata$r	SEGMENT
??_R3Solution@@8 DD 00H					; Solution::`RTTI Class Hierarchy Descriptor'
	DD	00H
	DD	01H
	DD	FLAT:??_R2Solution@@8
rdata$r	ENDS
;	COMDAT ??_R0?AVSolution@@@8
data$rs	SEGMENT
??_R0?AVSolution@@@8 DD FLAT:??_7type_info@@6B@		; Solution `RTTI Type Descriptor'
	DD	00H
	DB	'.?AVSolution@@', 00H
data$rs	ENDS
;	COMDAT ??_R4Solution@@6B@
rdata$r	SEGMENT
??_R4Solution@@6B@ DD 00H				; Solution::`RTTI Complete Object Locator'
	DD	00H
	DD	00H
	DD	FLAT:??_R0?AVSolution@@@8
	DD	FLAT:??_R3Solution@@8
rdata$r	ENDS
;	COMDAT ??_C@_03OFAPEBGM@?$CFs?6@
CONST	SEGMENT
??_C@_03OFAPEBGM@?$CFs?6@ DB '%s', 0aH, 00H		; `string'
CONST	ENDS
;	COMDAT ??_C@_1EG@ECKKEMMN@?$AAE?$AAr?$AAr?$AAe?$AAu?$AAr?$AA?5?$AAs?$AAo?$AAu?$AAs?$AA?5?$AAc?$AAa?$AAr@
CONST	SEGMENT
??_C@_1EG@ECKKEMMN@?$AAE?$AAr?$AAr?$AAe?$AAu?$AAr?$AA?5?$AAs?$AAo?$AAu?$AAs?$AA?5?$AAc?$AAa?$AAr@ DB 'E'
	DB	00H, 'r', 00H, 'r', 00H, 'e', 00H, 'u', 00H, 'r', 00H, ' ', 00H
	DB	's', 00H, 'o', 00H, 'u', 00H, 's', 00H, ' ', 00H, 'c', 00H, 'a'
	DB	00H, 'r', 00H, 'r', 00H, 0e9H, 00H, ' ', 00H, '%', 00H, 'd', 00H
	DB	':', 00H, ' ', 00H, 'n', 00H, 'o', 00H, 'm', 00H, 'b', 00H, 'r'
	DB	00H, 'e', 00H, ' ', 00H, 'e', 00H, 'g', 00H, 'a', 00H, 'u', 00H
	DB	'x', 00H, 00H, 00H				; `string'
CONST	ENDS
;	COMDAT ??_C@_1EA@OLIANHL@?$AAE?$AAr?$AAr?$AAe?$AAu?$AAr?$AA?5?$AAc?$AAo?$AAl?$AAo?$AAn?$AAn?$AAe?$AA?5@
CONST	SEGMENT
??_C@_1EA@OLIANHL@?$AAE?$AAr?$AAr?$AAe?$AAu?$AAr?$AA?5?$AAc?$AAo?$AAl?$AAo?$AAn?$AAn?$AAe?$AA?5@ DB 'E'
	DB	00H, 'r', 00H, 'r', 00H, 'e', 00H, 'u', 00H, 'r', 00H, ' ', 00H
	DB	'c', 00H, 'o', 00H, 'l', 00H, 'o', 00H, 'n', 00H, 'n', 00H, 'e'
	DB	00H, ' ', 00H, '%', 00H, 'd', 00H, ':', 00H, ' ', 00H, 'n', 00H
	DB	'o', 00H, 'm', 00H, 'b', 00H, 'r', 00H, 'e', 00H, ' ', 00H, 'e'
	DB	00H, 'g', 00H, 'a', 00H, 'u', 00H, 'x', 00H, 00H, 00H ; `string'
CONST	ENDS
;	COMDAT ??_C@_1DM@DDLFPJCI@?$AAE?$AAr?$AAr?$AAe?$AAu?$AAr?$AA?5?$AAl?$AAi?$AAg?$AAn?$AAe?$AA?5?$AA?$CF?$AAd@
CONST	SEGMENT
??_C@_1DM@DDLFPJCI@?$AAE?$AAr?$AAr?$AAe?$AAu?$AAr?$AA?5?$AAl?$AAi?$AAg?$AAn?$AAe?$AA?5?$AA?$CF?$AAd@ DB 'E'
	DB	00H, 'r', 00H, 'r', 00H, 'e', 00H, 'u', 00H, 'r', 00H, ' ', 00H
	DB	'l', 00H, 'i', 00H, 'g', 00H, 'n', 00H, 'e', 00H, ' ', 00H, '%'
	DB	00H, 'd', 00H, ':', 00H, ' ', 00H, 'n', 00H, 'o', 00H, 'm', 00H
	DB	'b', 00H, 'r', 00H, 'e', 00H, ' ', 00H, 'e', 00H, 'g', 00H, 'a'
	DB	00H, 'u', 00H, 'x', 00H, 00H, 00H		; `string'
CONST	ENDS
;	COMDAT ?__LINE__Var@?0??Display_grille@Solution@@AAEXPAUHWND__@@@Z@4JA
_DATA	SEGMENT
?__LINE__Var@?0??Display_grille@Solution@@AAEXPAUHWND__@@@Z@4JA DD 017fH ; `Solution::Display_grille'::`1'::__LINE__Var
_DATA	ENDS
;	COMDAT ??_C@_15LMEHFEOO@?$AAw?$AAt@
CONST	SEGMENT
??_C@_15LMEHFEOO@?$AAw?$AAt@ DB 'w', 00H, 't', 00H, 00H, 00H ; `string'
CONST	ENDS
;	COMDAT ??_C@_1CC@NLMIMJJF@?$AAS?$AAu?$AAd?$AAo?$AAk?$AAu?$AA_?$AAi?$AAm?$AAp?$AAu?$AAt?$AA?4?$AAt?$AAx@
CONST	SEGMENT
??_C@_1CC@NLMIMJJF@?$AAS?$AAu?$AAd?$AAo?$AAk?$AAu?$AA_?$AAi?$AAm?$AAp?$AAu?$AAt?$AA?4?$AAt?$AAx@ DB 'S'
	DB	00H, 'u', 00H, 'd', 00H, 'o', 00H, 'k', 00H, 'u', 00H, '_', 00H
	DB	'i', 00H, 'm', 00H, 'p', 00H, 'u', 00H, 't', 00H, '.', 00H, 't'
	DB	00H, 'x', 00H, 't', 00H, 00H, 00H		; `string'
CONST	ENDS
;	COMDAT ?__LINE__Var@?0??Charger_valeur_saisie@Solution@@QAEHPAUHWND__@@@Z@4JA
_DATA	SEGMENT
?__LINE__Var@?0??Charger_valeur_saisie@Solution@@QAEHPAUHWND__@@@Z@4JA DD 011fH ; `Solution::Charger_valeur_saisie'::`1'::__LINE__Var
_DATA	ENDS
;	COMDAT ??_C@_17LFHOHKCB@?$AAw?$AA?$CL?$AAt@
CONST	SEGMENT
??_C@_17LFHOHKCB@?$AAw?$AA?$CL?$AAt@ DB 'w', 00H, '+', 00H, 't', 00H, 00H
	DB	00H						; `string'
CONST	ENDS
;	COMDAT ??_C@_0BL@JGGBKHK@resultat_grille_Sudoku?4txt@
CONST	SEGMENT
??_C@_0BL@JGGBKHK@resultat_grille_Sudoku?4txt@ DB 'resultat_grille_Sudoku'
	DB	'.txt', 00H					; `string'
CONST	ENDS
;	COMDAT ?__LINE__Var@?0???0Solution@@QAE@PAUHWND__@@@Z@4JA
_DATA	SEGMENT
?__LINE__Var@?0???0Solution@@QAE@PAUHWND__@@@Z@4JA DD 0104H ; `Solution::Solution'::`1'::__LINE__Var
_DATA	ENDS
;	COMDAT ??_C@_03EGHOKNNL@?6?6?6@
CONST	SEGMENT
??_C@_03EGHOKNNL@?6?6?6@ DB 0aH, 0aH, 0aH, 00H		; `string'
CONST	ENDS
;	COMDAT ??_C@_03JDANDILB@?$CFd?5@
CONST	SEGMENT
??_C@_03JDANDILB@?$CFd?5@ DB '%d ', 00H			; `string'
CONST	ENDS
;	COMDAT ??_C@_1CK@FIOBKKHN@?$AAN?$AAo?$AAm?$AAb?$AAr?$AAe?$AA?5?$AAd?$AA?8?$AAe?$AAs?$AAs?$AAa?$AAi?$AAs@
CONST	SEGMENT
??_C@_1CK@FIOBKKHN@?$AAN?$AAo?$AAm?$AAb?$AAr?$AAe?$AA?5?$AAd?$AA?8?$AAe?$AAs?$AAs?$AAa?$AAi?$AAs@ DB 'N'
	DB	00H, 'o', 00H, 'm', 00H, 'b', 00H, 'r', 00H, 'e', 00H, ' ', 00H
	DB	'd', 00H, '''', 00H, 'e', 00H, 's', 00H, 's', 00H, 'a', 00H, 'i'
	DB	00H, 's', 00H, ' ', 00H, ':', 00H, ' ', 00H, '%', 00H, 'd', 00H
	DB	00H, 00H					; `string'
CONST	ENDS
;	COMDAT ??_C@_0BH@JLAFPNCO@Nombre?5d?8essais?5?3?5?$CFd?6?6@
CONST	SEGMENT
??_C@_0BH@JLAFPNCO@Nombre?5d?8essais?5?3?5?$CFd?6?6@ DB 'Nombre d''essais'
	DB	' : %d', 0aH, 0aH, 00H			; `string'
CONST	ENDS
;	COMDAT ??_C@_1DG@BPKNNOLH@?$AAT?$AAe?$AAm?$AAp?$AAs?$AA?5?$AAd?$AAe?$AA?5?$AAr?$PP?i?$AAs?$AAo?$AAl?$AAu@
CONST	SEGMENT
??_C@_1DG@BPKNNOLH@?$AAT?$AAe?$AAm?$AAp?$AAs?$AA?5?$AAd?$AAe?$AA?5?$AAr?$PP?i?$AAs?$AAo?$AAl?$AAu@ DB 'T'
	DB	00H, 'e', 00H, 'm', 00H, 'p', 00H, 's', 00H, ' ', 00H, 'd', 00H
	DB	'e', 00H, ' ', 00H, 'r', 00H, 0e9H, 00H, 's', 00H, 'o', 00H, 'l'
	DB	00H, 'u', 00H, 't', 00H, 'i', 00H, 'o', 00H, 'n', 00H, ' ', 00H
	DB	'<', 00H, ' ', 00H, '1', 00H, ' ', 00H, 'm', 00H, 's', 00H, 00H
	DB	00H						; `string'
CONST	ENDS
;	COMDAT ??_C@_1DI@PECEIFDA@?$AAT?$AAe?$AAm?$AAp?$AAs?$AA?5?$AAd?$AAe?$AA?5?$AAr?$PP?i?$AAs?$AAo?$AAl?$AAu@
CONST	SEGMENT
??_C@_1DI@PECEIFDA@?$AAT?$AAe?$AAm?$AAp?$AAs?$AA?5?$AAd?$AAe?$AA?5?$AAr?$PP?i?$AAs?$AAo?$AAl?$AAu@ DB 'T'
	DB	00H, 'e', 00H, 'm', 00H, 'p', 00H, 's', 00H, ' ', 00H, 'd', 00H
	DB	'e', 00H, ' ', 00H, 'r', 00H, 0e9H, 00H, 's', 00H, 'o', 00H, 'l'
	DB	00H, 'u', 00H, 't', 00H, 'i', 00H, 'o', 00H, 'n', 00H, ':', 00H
	DB	' ', 00H, '%', 00H, 'l', 00H, 'd', 00H, ' ', 00H, 'm', 00H, 's'
	DB	00H, 00H, 00H				; `string'
CONST	ENDS
;	COMDAT ??_C@_15OMIKMFFN@?$AAr?$AAt@
CONST	SEGMENT
??_C@_15OMIKMFFN@?$AAr?$AAt@ DB 'r', 00H, 't', 00H, 00H, 00H ; `string'
CONST	ENDS
;	COMDAT ??_C@_1CC@DBEOBEPH@?$AAS?$AAu?$AAd?$AAo?$AAk?$AAu?$AA_?$AAi?$AAn?$AAp?$AAu?$AAt?$AA?4?$AAt?$AAx@
CONST	SEGMENT
??_C@_1CC@DBEOBEPH@?$AAS?$AAu?$AAd?$AAo?$AAk?$AAu?$AA_?$AAi?$AAn?$AAp?$AAu?$AAt?$AA?4?$AAt?$AAx@ DB 'S'
	DB	00H, 'u', 00H, 'd', 00H, 'o', 00H, 'k', 00H, 'u', 00H, '_', 00H
	DB	'i', 00H, 'n', 00H, 'p', 00H, 'u', 00H, 't', 00H, '.', 00H, 't'
	DB	00H, 'x', 00H, 't', 00H, 00H, 00H		; `string'
CONST	ENDS
;	COMDAT ??_C@_1BI@LHMMMGAL@?$AAS?$AAu?$AAd?$AAo?$AAk?$AAu?$AA?5?$AAF?$AAi?$AAl?$AAe@
CONST	SEGMENT
??_C@_1BI@LHMMMGAL@?$AAS?$AAu?$AAd?$AAo?$AAk?$AAu?$AA?5?$AAF?$AAi?$AAl?$AAe@ DB 'S'
	DB	00H, 'u', 00H, 'd', 00H, 'o', 00H, 'k', 00H, 'u', 00H, ' ', 00H
	DB	'F', 00H, 'i', 00H, 'l', 00H, 'e', 00H, 00H, 00H ; `string'
CONST	ENDS
;	COMDAT ??_C@_0BG@FALAGNOM@All?5Files?5?$CI?$CK?4?$CK?$CJ?$HM?$CK?4?$CK?$HM?$HM@
CONST	SEGMENT
??_C@_0BG@FALAGNOM@All?5Files?5?$CI?$CK?4?$CK?$CJ?$HM?$CK?4?$CK?$HM?$HM@ DB 'A'
	DB	'll Files (*.*)|*.*||', 00H			; `string'
CONST	ENDS
;	COMDAT ??_C@_0BJ@LICJPAK@Text?5File?5?$CI?$CK?4txt?$CJ?$HM?$CK?4txt?$HM@
CONST	SEGMENT
??_C@_0BJ@LICJPAK@Text?5File?5?$CI?$CK?4txt?$CJ?$HM?$CK?4txt?$HM@ DB 'Tex'
	DB	't File (*.txt)|*.txt|', 00H			; `string'
CONST	ENDS
;	COMDAT ??_C@_0CK@JGFDDPMM@J?3?2work?2SUDOKU?2SUDOKU?2SUDOKU?2So@
CONST	SEGMENT
??_C@_0CK@JGFDDPMM@J?3?2work?2SUDOKU?2SUDOKU?2SUDOKU?2So@ DB 'J:\work\SUD'
	DB	'OKU\SUDOKU\SUDOKU\Solution.cpp', 00H	; `string'
CONST	ENDS
;	COMDAT ?__LINE__Var@?0??Definition_limite@Solution@@AAEXPAUHWND__@@@Z@4JA
_DATA	SEGMENT
?__LINE__Var@?0??Definition_limite@Solution@@AAEXPAUHWND__@@@Z@4JA DD 01eH ; `Solution::Definition_limite'::`1'::__LINE__Var
_DATA	ENDS
;	COMDAT ??_7Solution@@6B@
CONST	SEGMENT
??_7Solution@@6B@ DD FLAT:??_R4Solution@@6B@		; Solution::`vftable'
	DD	FLAT:??_ESolution@@UAEPAXI@Z
CONST	ENDS
;	COMDAT ??_C@_01EEMJAFIK@?6@
CONST	SEGMENT
??_C@_01EEMJAFIK@?6@ DB 0aH, 00H			; `string'
CONST	ENDS
;	COMDAT ??_C@_1DM@KPGCKOJB@?$AAA?$AAt?$AAl?$AAI?$AAs?$AAV?$AAa?$AAl?$AAi?$AAd?$AAS?$AAt?$AAr?$AAi?$AAn@
CONST	SEGMENT
??_C@_1DM@KPGCKOJB@?$AAA?$AAt?$AAl?$AAI?$AAs?$AAV?$AAa?$AAl?$AAi?$AAd?$AAS?$AAt?$AAr?$AAi?$AAn@ DB 'A'
	DB	00H, 't', 00H, 'l', 00H, 'I', 00H, 's', 00H, 'V', 00H, 'a', 00H
	DB	'l', 00H, 'i', 00H, 'd', 00H, 'S', 00H, 't', 00H, 'r', 00H, 'i'
	DB	00H, 'n', 00H, 'g', 00H, '(', 00H, ' ', 00H, 'p', 00H, 's', 00H
	DB	'z', 00H, 'F', 00H, 'o', 00H, 'r', 00H, 'm', 00H, 'a', 00H, 't'
	DB	00H, ' ', 00H, ')', 00H, 00H, 00H		; `string'
CONST	ENDS
;	COMDAT ??_C@_1EC@BCBEFJPM@?$AAp?$AAO?$AAl?$AAd?$AAD?$AAa?$AAt?$AAa?$AA?9?$AA?$DO?$AAn?$AAA?$AAl?$AAl?$AAo@
CONST	SEGMENT
??_C@_1EC@BCBEFJPM@?$AAp?$AAO?$AAl?$AAd?$AAD?$AAa?$AAt?$AAa?$AA?9?$AA?$DO?$AAn?$AAA?$AAl?$AAl?$AAo@ DB 'p'
	DB	00H, 'O', 00H, 'l', 00H, 'd', 00H, 'D', 00H, 'a', 00H, 't', 00H
	DB	'a', 00H, '-', 00H, '>', 00H, 'n', 00H, 'A', 00H, 'l', 00H, 'l'
	DB	00H, 'o', 00H, 'c', 00H, 'L', 00H, 'e', 00H, 'n', 00H, 'g', 00H
	DB	't', 00H, 'h', 00H, ' ', 00H, '<', 00H, ' ', 00H, 'n', 00H, 'L'
	DB	00H, 'e', 00H, 'n', 00H, 'g', 00H, 't', 00H, 'h', 00H, 00H, 00H ; `string'
CONST	ENDS
;	COMDAT ??_C@_1CA@FILBIMGF@?$AAn?$AAN?$AAe?$AAw?$AAL?$AAe?$AAn?$AAg?$AAt?$AAh?$AA?5?$AA?$DO?$AA?$DN?$AA?5?$AA0@
CONST	SEGMENT
??_C@_1CA@FILBIMGF@?$AAn?$AAN?$AAe?$AAw?$AAL?$AAe?$AAn?$AAg?$AAt?$AAh?$AA?5?$AA?$DO?$AA?$DN?$AA?5?$AA0@ DB 'n'
	DB	00H, 'N', 00H, 'e', 00H, 'w', 00H, 'L', 00H, 'e', 00H, 'n', 00H
	DB	'g', 00H, 't', 00H, 'h', 00H, ' ', 00H, '>', 00H, '=', 00H, ' '
	DB	00H, '0', 00H, 00H, 00H			; `string'
CONST	ENDS
;	COMDAT ??_C@_1BK@NHECDDNK@?$AAm?$AA_?$AAp?$AAD?$AAa?$AAt?$AAa?$AA?5?$AA?$DN?$AA?$DN?$AA?5?$AA0@
CONST	SEGMENT
??_C@_1BK@NHECDDNK@?$AAm?$AA_?$AAp?$AAD?$AAa?$AAt?$AAa?$AA?5?$AA?$DN?$AA?$DN?$AA?5?$AA0@ DB 'm'
	DB	00H, '_', 00H, 'p', 00H, 'D', 00H, 'a', 00H, 't', 00H, 'a', 00H
	DB	' ', 00H, '=', 00H, '=', 00H, ' ', 00H, '0', 00H, 00H, 00H ; `string'
CONST	ENDS
;	COMDAT ??_C@_1EG@PELIOAAG@?$AAn?$AAL?$AAe?$AAn?$AAg?$AAt?$AAh?$AA?5?$AA?$DM?$AA?$DN?$AA?5?$AAG?$AAe?$AAt?$AAD@
CONST	SEGMENT
??_C@_1EG@PELIOAAG@?$AAn?$AAL?$AAe?$AAn?$AAg?$AAt?$AAh?$AA?5?$AA?$DM?$AA?$DN?$AA?5?$AAG?$AAe?$AAt?$AAD@ DB 'n'
	DB	00H, 'L', 00H, 'e', 00H, 'n', 00H, 'g', 00H, 't', 00H, 'h', 00H
	DB	' ', 00H, '<', 00H, '=', 00H, ' ', 00H, 'G', 00H, 'e', 00H, 't'
	DB	00H, 'D', 00H, 'a', 00H, 't', 00H, 'a', 00H, '(', 00H, ')', 00H
	DB	'-', 00H, '>', 00H, 'n', 00H, 'A', 00H, 'l', 00H, 'l', 00H, 'o'
	DB	00H, 'c', 00H, 'L', 00H, 'e', 00H, 'n', 00H, 'g', 00H, 't', 00H
	DB	'h', 00H, 00H, 00H				; `string'
CONST	ENDS
;	COMDAT ??_C@_1BK@OGOKLNEF@?$AAn?$AAL?$AAe?$AAn?$AAg?$AAt?$AAh?$AA?5?$AA?$DO?$AA?$DN?$AA?5?$AA0@
CONST	SEGMENT
??_C@_1BK@OGOKLNEF@?$AAn?$AAL?$AAe?$AAn?$AAg?$AAt?$AAh?$AA?5?$AA?$DO?$AA?$DN?$AA?5?$AA0@ DB 'n'
	DB	00H, 'L', 00H, 'e', 00H, 'n', 00H, 'g', 00H, 't', 00H, 'h', 00H
	DB	' ', 00H, '>', 00H, '=', 00H, ' ', 00H, '0', 00H, 00H, 00H ; `string'
CONST	ENDS
;	COMDAT ??_C@_1FC@BMOLDHIO@?$AAW?$AAa?$AAr?$AAn?$AAi?$AAn?$AAg?$AA?3?$AA?5?$AAi?$AAm?$AAp?$AAl?$AAi?$AAc@
CONST	SEGMENT
??_C@_1FC@BMOLDHIO@?$AAW?$AAa?$AAr?$AAn?$AAi?$AAn?$AAg?$AA?3?$AA?5?$AAi?$AAm?$AAp?$AAl?$AAi?$AAc@ DB 'W'
	DB	00H, 'a', 00H, 'r', 00H, 'n', 00H, 'i', 00H, 'n', 00H, 'g', 00H
	DB	':', 00H, ' ', 00H, 'i', 00H, 'm', 00H, 'p', 00H, 'l', 00H, 'i'
	DB	00H, 'c', 00H, 'i', 00H, 't', 00H, ' ', 00H, 'L', 00H, 'o', 00H
	DB	'a', 00H, 'd', 00H, 'S', 00H, 't', 00H, 'r', 00H, 'i', 00H, 'n'
	DB	00H, 'g', 00H, '(', 00H, '%', 00H, 'u', 00H, ')', 00H, ' ', 00H
	DB	'f', 00H, 'a', 00H, 'i', 00H, 'l', 00H, 'e', 00H, 'd', 00H, 0aH
	DB	00H, 00H, 00H				; `string'
CONST	ENDS
;	COMDAT ??_C@_11LOCGONAA@@
CONST	SEGMENT
??_C@_11LOCGONAA@@ DB 00H, 00H				; `string'
CONST	ENDS
;	COMDAT ??_C@_15KNBIKKIN@?$AA?$CF?$AAd@
CONST	SEGMENT
??_C@_15KNBIKKIN@?$AA?$CF?$AAd@ DB '%', 00H, 'd', 00H, 00H, 00H ; `string'
CONST	ENDS
;	COMDAT ??_C@_0GN@HEPHHEDO@C?3?2Program?5Files?2Microsoft?5Visu@
CONST	SEGMENT
??_C@_0GN@HEPHHEDO@C?3?2Program?5Files?2Microsoft?5Visu@ DB 'C:\Program F'
	DB	'iles\Microsoft Visual Studio\2022\Enterprise\VC\Tools\MSVC\14'
	DB	'.34.31933\atlmfc\include\cstringt.h', 00H	; `string'
CONST	ENDS
;	COMDAT ??_C@_1NK@KGCDDCJB@?$AAC?$AA?3?$AA?2?$AAP?$AAr?$AAo?$AAg?$AAr?$AAa?$AAm?$AA?5?$AAF?$AAi?$AAl?$AAe@
CONST	SEGMENT
??_C@_1NK@KGCDDCJB@?$AAC?$AA?3?$AA?2?$AAP?$AAr?$AAo?$AAg?$AAr?$AAa?$AAm?$AA?5?$AAF?$AAi?$AAl?$AAe@ DB 'C'
	DB	00H, ':', 00H, '\', 00H, 'P', 00H, 'r', 00H, 'o', 00H, 'g', 00H
	DB	'r', 00H, 'a', 00H, 'm', 00H, ' ', 00H, 'F', 00H, 'i', 00H, 'l'
	DB	00H, 'e', 00H, 's', 00H, '\', 00H, 'M', 00H, 'i', 00H, 'c', 00H
	DB	'r', 00H, 'o', 00H, 's', 00H, 'o', 00H, 'f', 00H, 't', 00H, ' '
	DB	00H, 'V', 00H, 'i', 00H, 's', 00H, 'u', 00H, 'a', 00H, 'l', 00H
	DB	' ', 00H, 'S', 00H, 't', 00H, 'u', 00H, 'd', 00H, 'i', 00H, 'o'
	DB	00H, '\', 00H, '2', 00H, '0', 00H, '2', 00H, '2', 00H, '\', 00H
	DB	'E', 00H, 'n', 00H, 't', 00H, 'e', 00H, 'r', 00H, 'p', 00H, 'r'
	DB	00H, 'i', 00H, 's', 00H, 'e', 00H, '\', 00H, 'V', 00H, 'C', 00H
	DB	'\', 00H, 'T', 00H, 'o', 00H, 'o', 00H, 'l', 00H, 's', 00H, '\'
	DB	00H, 'M', 00H, 'S', 00H, 'V', 00H, 'C', 00H, '\', 00H, '1', 00H
	DB	'4', 00H, '.', 00H, '3', 00H, '4', 00H, '.', 00H, '3', 00H, '1'
	DB	00H, '9', 00H, '3', 00H, '3', 00H, '\', 00H, 'a', 00H, 't', 00H
	DB	'l', 00H, 'm', 00H, 'f', 00H, 'c', 00H, '\', 00H, 'i', 00H, 'n'
	DB	00H, 'c', 00H, 'l', 00H, 'u', 00H, 'd', 00H, 'e', 00H, '\', 00H
	DB	'c', 00H, 's', 00H, 't', 00H, 'r', 00H, 'i', 00H, 'n', 00H, 'g'
	DB	00H, 't', 00H, '.', 00H, 'h', 00H, 00H, 00H	; `string'
CONST	ENDS
;	COMDAT ??_C@_1BG@GPELCNED@?$AAn?$AAR?$AAe?$AAf?$AAs?$AA?5?$AA?$CB?$AA?$DN?$AA?5?$AA0@
CONST	SEGMENT
??_C@_1BG@GPELCNED@?$AAn?$AAR?$AAe?$AAf?$AAs?$AA?5?$AA?$CB?$AA?$DN?$AA?5?$AA0@ DB 'n'
	DB	00H, 'R', 00H, 'e', 00H, 'f', 00H, 's', 00H, ' ', 00H, '!', 00H
	DB	'=', 00H, ' ', 00H, '0', 00H, 00H, 00H	; `string'
CONST	ENDS
;	COMDAT ??_C@_1NO@CMNIKGIF@?$AAC?$AA?3?$AA?2?$AAP?$AAr?$AAo?$AAg?$AAr?$AAa?$AAm?$AA?5?$AAF?$AAi?$AAl?$AAe@
CONST	SEGMENT
??_C@_1NO@CMNIKGIF@?$AAC?$AA?3?$AA?2?$AAP?$AAr?$AAo?$AAg?$AAr?$AAa?$AAm?$AA?5?$AAF?$AAi?$AAl?$AAe@ DB 'C'
	DB	00H, ':', 00H, '\', 00H, 'P', 00H, 'r', 00H, 'o', 00H, 'g', 00H
	DB	'r', 00H, 'a', 00H, 'm', 00H, ' ', 00H, 'F', 00H, 'i', 00H, 'l'
	DB	00H, 'e', 00H, 's', 00H, '\', 00H, 'M', 00H, 'i', 00H, 'c', 00H
	DB	'r', 00H, 'o', 00H, 's', 00H, 'o', 00H, 'f', 00H, 't', 00H, ' '
	DB	00H, 'V', 00H, 'i', 00H, 's', 00H, 'u', 00H, 'a', 00H, 'l', 00H
	DB	' ', 00H, 'S', 00H, 't', 00H, 'u', 00H, 'd', 00H, 'i', 00H, 'o'
	DB	00H, '\', 00H, '2', 00H, '0', 00H, '2', 00H, '2', 00H, '\', 00H
	DB	'E', 00H, 'n', 00H, 't', 00H, 'e', 00H, 'r', 00H, 'p', 00H, 'r'
	DB	00H, 'i', 00H, 's', 00H, 'e', 00H, '\', 00H, 'V', 00H, 'C', 00H
	DB	'\', 00H, 'T', 00H, 'o', 00H, 'o', 00H, 'l', 00H, 's', 00H, '\'
	DB	00H, 'M', 00H, 'S', 00H, 'V', 00H, 'C', 00H, '\', 00H, '1', 00H
	DB	'4', 00H, '.', 00H, '3', 00H, '4', 00H, '.', 00H, '3', 00H, '1'
	DB	00H, '9', 00H, '3', 00H, '3', 00H, '\', 00H, 'a', 00H, 't', 00H
	DB	'l', 00H, 'm', 00H, 'f', 00H, 'c', 00H, '\', 00H, 'i', 00H, 'n'
	DB	00H, 'c', 00H, 'l', 00H, 'u', 00H, 'd', 00H, 'e', 00H, '\', 00H
	DB	'a', 00H, 't', 00H, 'l', 00H, 's', 00H, 'i', 00H, 'm', 00H, 'p'
	DB	00H, 's', 00H, 't', 00H, 'r', 00H, '.', 00H, 'h', 00H, 00H, 00H ; `string'
CONST	ENDS
;	COMDAT ??_C@_1BE@BLGCOAPB@?$AAn?$AAR?$AAe?$AAf?$AAs?$AA?5?$AA?$DO?$AA?5?$AA0@
CONST	SEGMENT
??_C@_1BE@BLGCOAPB@?$AAn?$AAR?$AAe?$AAf?$AAs?$AA?5?$AA?$DO?$AA?5?$AA0@ DB 'n'
	DB	00H, 'R', 00H, 'e', 00H, 'f', 00H, 's', 00H, ' ', 00H, '>', 00H
	DB	' ', 00H, '0', 00H, 00H, 00H			; `string'
CONST	ENDS
;	COMDAT ??_C@_13FPGAJAPJ@?$AA?2@
CONST	SEGMENT
??_C@_13FPGAJAPJ@?$AA?2@ DB '\', 00H, 00H, 00H		; `string'
CONST	ENDS
;	COMDAT ??_C@_1BM@GBBOFEAE@?$AA_?$AA_?$AAa?$AAt?$AAl?$AA_?$AAc?$AAo?$AAn?$AAd?$AAV?$AAa?$AAl@
CONST	SEGMENT
??_C@_1BM@GBBOFEAE@?$AA_?$AA_?$AAa?$AAt?$AAl?$AA_?$AAc?$AAo?$AAn?$AAd?$AAV?$AAa?$AAl@ DB '_'
	DB	00H, '_', 00H, 'a', 00H, 't', 00H, 'l', 00H, '_', 00H, 'c', 00H
	DB	'o', 00H, 'n', 00H, 'd', 00H, 'V', 00H, 'a', 00H, 'l', 00H, 00H
	DB	00H						; `string'
CONST	ENDS
;	COMDAT ??_C@_1CK@DFMKPFAK@?$AAA?$AAt?$AAl?$AAT?$AAh?$AAr?$AAo?$AAw?$AA?3?$AA?5?$AAh?$AAr?$AA?5?$AA?$DN?$AA?5@
CONST	SEGMENT
??_C@_1CK@DFMKPFAK@?$AAA?$AAt?$AAl?$AAT?$AAh?$AAr?$AAo?$AAw?$AA?3?$AA?5?$AAh?$AAr?$AA?5?$AA?$DN?$AA?5@ DB 'A'
	DB	00H, 't', 00H, 'l', 00H, 'T', 00H, 'h', 00H, 'r', 00H, 'o', 00H
	DB	'w', 00H, ':', 00H, ' ', 00H, 'h', 00H, 'r', 00H, ' ', 00H, '='
	DB	00H, ' ', 00H, '0', 00H, 'x', 00H, '%', 00H, 'x', 00H, 0aH, 00H
	DB	00H, 00H					; `string'
CONST	ENDS
;	COMDAT ??_C@_0GO@OMMACHMC@C?3?2Program?5Files?2Microsoft?5Visu@
CONST	SEGMENT
??_C@_0GO@OMMACHMC@C?3?2Program?5Files?2Microsoft?5Visu@ DB 'C:\Program F'
	DB	'iles\Microsoft Visual Studio\2022\Enterprise\VC\Tools\MSVC\14'
	DB	'.34.31933\atlmfc\include\atlexcept.h', 00H	; `string'
CONST	ENDS
;	COMDAT ?__LINE__Var@?0??AtlThrowImpl@ATL@@YGXJ@Z@4JA
_DATA	SEGMENT
?__LINE__Var@?0??AtlThrowImpl@ATL@@YGXJ@Z@4JA DD 041H	; `ATL::AtlThrowImpl'::`1'::__LINE__Var
_DATA	ENDS
;	COMDAT ??_C@_1NK@OBLAMPEN@?$AAC?$AA?3?$AA?2?$AAP?$AAr?$AAo?$AAg?$AAr?$AAa?$AAm?$AA?5?$AAF?$AAi?$AAl?$AAe@
CONST	SEGMENT
??_C@_1NK@OBLAMPEN@?$AAC?$AA?3?$AA?2?$AAP?$AAr?$AAo?$AAg?$AAr?$AAa?$AAm?$AA?5?$AAF?$AAi?$AAl?$AAe@ DB 'C'
	DB	00H, ':', 00H, '\', 00H, 'P', 00H, 'r', 00H, 'o', 00H, 'g', 00H
	DB	'r', 00H, 'a', 00H, 'm', 00H, ' ', 00H, 'F', 00H, 'i', 00H, 'l'
	DB	00H, 'e', 00H, 's', 00H, '\', 00H, 'M', 00H, 'i', 00H, 'c', 00H
	DB	'r', 00H, 'o', 00H, 's', 00H, 'o', 00H, 'f', 00H, 't', 00H, ' '
	DB	00H, 'V', 00H, 'i', 00H, 's', 00H, 'u', 00H, 'a', 00H, 'l', 00H
	DB	' ', 00H, 'S', 00H, 't', 00H, 'u', 00H, 'd', 00H, 'i', 00H, 'o'
	DB	00H, '\', 00H, '2', 00H, '0', 00H, '2', 00H, '2', 00H, '\', 00H
	DB	'E', 00H, 'n', 00H, 't', 00H, 'e', 00H, 'r', 00H, 'p', 00H, 'r'
	DB	00H, 'i', 00H, 's', 00H, 'e', 00H, '\', 00H, 'V', 00H, 'C', 00H
	DB	'\', 00H, 'T', 00H, 'o', 00H, 'o', 00H, 'l', 00H, 's', 00H, '\'
	DB	00H, 'M', 00H, 'S', 00H, 'V', 00H, 'C', 00H, '\', 00H, '1', 00H
	DB	'4', 00H, '.', 00H, '3', 00H, '4', 00H, '.', 00H, '3', 00H, '1'
	DB	00H, '9', 00H, '3', 00H, '3', 00H, '\', 00H, 'a', 00H, 't', 00H
	DB	'l', 00H, 'm', 00H, 'f', 00H, 'c', 00H, '\', 00H, 'i', 00H, 'n'
	DB	00H, 'c', 00H, 'l', 00H, 'u', 00H, 'd', 00H, 'e', 00H, '\', 00H
	DB	'a', 00H, 't', 00H, 'l', 00H, 't', 00H, 'r', 00H, 'a', 00H, 'c'
	DB	00H, 'e', 00H, '.', 00H, 'h', 00H, 00H, 00H	; `string'
CONST	ENDS
;	COMDAT ??_C@_1EO@EBPPKGOM@?$AAf?$AAa?$AAl?$AAs?$AAe?$AA?5?$AA?$CG?$AA?$CG?$AA?5?$AA?$CC?$AAT?$AAo?$AAo?$AA?5?$AAm@
CONST	SEGMENT
??_C@_1EO@EBPPKGOM@?$AAf?$AAa?$AAl?$AAs?$AAe?$AA?5?$AA?$CG?$AA?$CG?$AA?5?$AA?$CC?$AAT?$AAo?$AAo?$AA?5?$AAm@ DB 'f'
	DB	00H, 'a', 00H, 'l', 00H, 's', 00H, 'e', 00H, ' ', 00H, '&', 00H
	DB	'&', 00H, ' ', 00H, '"', 00H, 'T', 00H, 'o', 00H, 'o', 00H, ' '
	DB	00H, 'm', 00H, 'a', 00H, 'n', 00H, 'y', 00H, ' ', 00H, 'c', 00H
	DB	'a', 00H, 't', 00H, 'e', 00H, 'g', 00H, 'o', 00H, 'r', 00H, 'i'
	DB	00H, 'e', 00H, 's', 00H, ' ', 00H, 'd', 00H, 'e', 00H, 'f', 00H
	DB	'i', 00H, 'n', 00H, 'e', 00H, 'd', 00H, '"', 00H, 00H, 00H ; `string'
CONST	ENDS
;	COMDAT ??_C@_17LGGGMOOB@?$AA?$CF?$AAh?$AAs@
CONST	SEGMENT
??_C@_17LGGGMOOB@?$AA?$CF?$AAh?$AAs@ DB '%', 00H, 'h', 00H, 's', 00H, 00H
	DB	00H						; `string'
CONST	ENDS
;	COMDAT ??_C@_1O@OAIPCDPO@?$AA?$CF?$AAl?$AAs?$AA?$CF?$AAl?$AAs@
CONST	SEGMENT
??_C@_1O@OAIPCDPO@?$AA?$CF?$AAl?$AAs?$AA?$CF?$AAl?$AAs@ DB '%', 00H, 'l', 00H
	DB	's', 00H, '%', 00H, 'l', 00H, 's', 00H, 00H, 00H ; `string'
CONST	ENDS
;	COMDAT ??_C@_1M@PGKOAACE@?$AA?$CF?$AAu?$AA?5?$AA?9?$AA?5@
CONST	SEGMENT
??_C@_1M@PGKOAACE@?$AA?$CF?$AAu?$AA?5?$AA?9?$AA?5@ DB '%', 00H, 'u', 00H, ' '
	DB	00H, '-', 00H, ' ', 00H, 00H, 00H		; `string'
CONST	ENDS
;	COMDAT ??_C@_1O@LFNDFEBP@?$AA?$CF?$AAl?$AAs?$AA?5?$AA?9?$AA?5@
CONST	SEGMENT
??_C@_1O@LFNDFEBP@?$AA?$CF?$AAl?$AAs?$AA?5?$AA?9?$AA?5@ DB '%', 00H, 'l', 00H
	DB	's', 00H, ' ', 00H, '-', 00H, ' ', 00H, 00H, 00H ; `string'
CONST	ENDS
;	COMDAT ?m_nCategory@CTrace@ATL@@1IA
_DATA	SEGMENT
?m_nCategory@CTrace@ATL@@1IA DD 0ffffffffH		; ATL::CTrace::m_nCategory
_DATA	ENDS
;	COMDAT ??_C@_1BO@GMLILNDJ@?$AAa?$AAt?$AAl?$AAT?$AAr?$AAa?$AAc?$AAe?$AAS?$AAt?$AAr?$AAi?$AAn?$AAg@
CONST	SEGMENT
??_C@_1BO@GMLILNDJ@?$AAa?$AAt?$AAl?$AAT?$AAr?$AAa?$AAc?$AAe?$AAS?$AAt?$AAr?$AAi?$AAn?$AAg@ DB 'a'
	DB	00H, 't', 00H, 'l', 00H, 'T', 00H, 'r', 00H, 'a', 00H, 'c', 00H
	DB	'e', 00H, 'S', 00H, 't', 00H, 'r', 00H, 'i', 00H, 'n', 00H, 'g'
	DB	00H, 00H, 00H				; `string'
CONST	ENDS
;	COMDAT ??_C@_1CE@IMMADNAP@?$AAa?$AAt?$AAl?$AAT?$AAr?$AAa?$AAc?$AAe?$AAE?$AAx?$AAc?$AAe?$AAp?$AAt?$AAi@
CONST	SEGMENT
??_C@_1CE@IMMADNAP@?$AAa?$AAt?$AAl?$AAT?$AAr?$AAa?$AAc?$AAe?$AAE?$AAx?$AAc?$AAe?$AAp?$AAt?$AAi@ DB 'a'
	DB	00H, 't', 00H, 'l', 00H, 'T', 00H, 'r', 00H, 'a', 00H, 'c', 00H
	DB	'e', 00H, 'E', 00H, 'x', 00H, 'c', 00H, 'e', 00H, 'p', 00H, 't'
	DB	00H, 'i', 00H, 'o', 00H, 'n', 00H, 00H, 00H	; `string'
CONST	ENDS
;	COMDAT ??_C@_1NK@JCBLKNMO@?$AAC?$AA?3?$AA?2?$AAP?$AAr?$AAo?$AAg?$AAr?$AAa?$AAm?$AA?5?$AAF?$AAi?$AAl?$AAe@
CONST	SEGMENT
??_C@_1NK@JCBLKNMO@?$AAC?$AA?3?$AA?2?$AAP?$AAr?$AAo?$AAg?$AAr?$AAa?$AAm?$AA?5?$AAF?$AAi?$AAl?$AAe@ DB 'C'
	DB	00H, ':', 00H, '\', 00H, 'P', 00H, 'r', 00H, 'o', 00H, 'g', 00H
	DB	'r', 00H, 'a', 00H, 'm', 00H, ' ', 00H, 'F', 00H, 'i', 00H, 'l'
	DB	00H, 'e', 00H, 's', 00H, '\', 00H, 'M', 00H, 'i', 00H, 'c', 00H
	DB	'r', 00H, 'o', 00H, 's', 00H, 'o', 00H, 'f', 00H, 't', 00H, ' '
	DB	00H, 'V', 00H, 'i', 00H, 's', 00H, 'u', 00H, 'a', 00H, 'l', 00H
	DB	' ', 00H, 'S', 00H, 't', 00H, 'u', 00H, 'd', 00H, 'i', 00H, 'o'
	DB	00H, '\', 00H, '2', 00H, '0', 00H, '2', 00H, '2', 00H, '\', 00H
	DB	'E', 00H, 'n', 00H, 't', 00H, 'e', 00H, 'r', 00H, 'p', 00H, 'r'
	DB	00H, 'i', 00H, 's', 00H, 'e', 00H, '\', 00H, 'V', 00H, 'C', 00H
	DB	'\', 00H, 'T', 00H, 'o', 00H, 'o', 00H, 'l', 00H, 's', 00H, '\'
	DB	00H, 'M', 00H, 'S', 00H, 'V', 00H, 'C', 00H, '\', 00H, '1', 00H
	DB	'4', 00H, '.', 00H, '3', 00H, '4', 00H, '.', 00H, '3', 00H, '1'
	DB	00H, '9', 00H, '3', 00H, '3', 00H, '\', 00H, 'a', 00H, 't', 00H
	DB	'l', 00H, 'm', 00H, 'f', 00H, 'c', 00H, '\', 00H, 'i', 00H, 'n'
	DB	00H, 'c', 00H, 'l', 00H, 'u', 00H, 'd', 00H, 'e', 00H, '\', 00H
	DB	'a', 00H, 't', 00H, 'l', 00H, 'a', 00H, 'l', 00H, 'l', 00H, 'o'
	DB	00H, 'c', 00H, '.', 00H, 'h', 00H, 00H, 00H	; `string'
CONST	ENDS
;	COMDAT ??_C@_17CNPHIMPH@?$AA?$CF?$AAl?$AAs@
CONST	SEGMENT
??_C@_17CNPHIMPH@?$AA?$CF?$AAl?$AAs@ DB '%', 00H, 'l', 00H, 's', 00H, 00H
	DB	00H						; `string'
CONST	ENDS
;	COMDAT voltbl
voltbl	SEGMENT
_volmd	DB	016H
	DB	023H
voltbl	ENDS
;	COMDAT voltbl
voltbl	SEGMENT
_volmd	DB	030H
	DB	0e5H
voltbl	ENDS
;	COMDAT xdata$x
xdata$x	SEGMENT
__unwindtable$?Affiche_Synchro@Solution@@AAEX_K@Z DD 0ffffffffH
	DD	FLAT:__unwindfunclet$?Affiche_Synchro@Solution@@AAEX_K@Z$0
__ehfuncinfo$?Affiche_Synchro@Solution@@AAEX_K@Z DD 019930522H
	DD	01H
	DD	FLAT:__unwindtable$?Affiche_Synchro@Solution@@AAEX_K@Z
	DD	2 DUP(00H)
	DD	2 DUP(00H)
	DD	00H
	DD	01H
xdata$x	ENDS
;	COMDAT voltbl
voltbl	SEGMENT
_volmd	DB	016H
	DB	023H
voltbl	ENDS
;	COMDAT voltbl
voltbl	SEGMENT
_volmd	DW	030H
	DW	0114H
voltbl	ENDS
;	COMDAT xdata$x
xdata$x	SEGMENT
__unwindtable$?Conversion@Solution@@AAEXV?$CStringT@_WV?$StrTraitMFC@_WV?$ChTraitsCRT@_W@ATL@@@@@ATL@@@Z DD 0ffffffffH
	DD	FLAT:__unwindfunclet$?Conversion@Solution@@AAEXV?$CStringT@_WV?$StrTraitMFC@_WV?$ChTraitsCRT@_W@ATL@@@@@ATL@@@Z$0
__ehfuncinfo$?Conversion@Solution@@AAEXV?$CStringT@_WV?$StrTraitMFC@_WV?$ChTraitsCRT@_W@ATL@@@@@ATL@@@Z DD 019930522H
	DD	01H
	DD	FLAT:__unwindtable$?Conversion@Solution@@AAEXV?$CStringT@_WV?$StrTraitMFC@_WV?$ChTraitsCRT@_W@ATL@@@@@ATL@@@Z
	DD	2 DUP(00H)
	DD	2 DUP(00H)
	DD	00H
	DD	01H
xdata$x	ENDS
;	COMDAT voltbl
voltbl	SEGMENT
_volmd	DB	01eH
voltbl	ENDS
;	COMDAT xdata$x
xdata$x	SEGMENT
__unwindtable$?Dur_Dur@Solution@@AAEXXZ DD 0ffffffffH
	DD	FLAT:__unwindfunclet$?Dur_Dur@Solution@@AAEXXZ$0
__ehfuncinfo$?Dur_Dur@Solution@@AAEXXZ DD 019930522H
	DD	01H
	DD	FLAT:__unwindtable$?Dur_Dur@Solution@@AAEXXZ
	DD	2 DUP(00H)
	DD	2 DUP(00H)
	DD	00H
	DD	01H
xdata$x	ENDS
;	COMDAT voltbl
voltbl	SEGMENT
_volmd	DB	019H
	DB	026H
voltbl	ENDS
;	COMDAT voltbl
voltbl	SEGMENT
_volmd	DB	035H
	DB	0e7H
voltbl	ENDS
;	COMDAT xdata$x
xdata$x	SEGMENT
__unwindtable$?Sepcial_Folder@Solution@@AAE?AV?$CStringT@_WV?$StrTraitMFC@_WV?$ChTraitsCRT@_W@ATL@@@@@ATL@@H@Z DD 0ffffffffH
	DD	FLAT:__unwindfunclet$?Sepcial_Folder@Solution@@AAE?AV?$CStringT@_WV?$StrTraitMFC@_WV?$ChTraitsCRT@_W@ATL@@@@@ATL@@H@Z$0
__ehfuncinfo$?Sepcial_Folder@Solution@@AAE?AV?$CStringT@_WV?$StrTraitMFC@_WV?$ChTraitsCRT@_W@ATL@@@@@ATL@@H@Z DD 019930522H
	DD	01H
	DD	FLAT:__unwindtable$?Sepcial_Folder@Solution@@AAE?AV?$CStringT@_WV?$StrTraitMFC@_WV?$ChTraitsCRT@_W@ATL@@@@@ATL@@H@Z
	DD	2 DUP(00H)
	DD	2 DUP(00H)
	DD	00H
	DD	01H
xdata$x	ENDS
;	COMDAT voltbl
voltbl	SEGMENT
_volmd	DB	029H
	DB	036H
voltbl	ENDS
;	COMDAT voltbl
voltbl	SEGMENT
_volmd	DW	030H
	DW	0117H
voltbl	ENDS
;	COMDAT xdata$x
xdata$x	SEGMENT
__unwindtable$?Folder@Solution@@AAE?AV?$CStringT@_WV?$StrTraitMFC@_WV?$ChTraitsCRT@_W@ATL@@@@@ATL@@XZ DD 0ffffffffH
	DD	FLAT:__unwindfunclet$?Folder@Solution@@AAE?AV?$CStringT@_WV?$StrTraitMFC@_WV?$ChTraitsCRT@_W@ATL@@@@@ATL@@XZ$0
	DD	00H
	DD	FLAT:__unwindfunclet$?Folder@Solution@@AAE?AV?$CStringT@_WV?$StrTraitMFC@_WV?$ChTraitsCRT@_W@ATL@@@@@ATL@@XZ$1
	DD	01H
	DD	FLAT:__unwindfunclet$?Folder@Solution@@AAE?AV?$CStringT@_WV?$StrTraitMFC@_WV?$ChTraitsCRT@_W@ATL@@@@@ATL@@XZ$2
	DD	00H
	DD	FLAT:__unwindfunclet$?Folder@Solution@@AAE?AV?$CStringT@_WV?$StrTraitMFC@_WV?$ChTraitsCRT@_W@ATL@@@@@ATL@@XZ$2
__ehfuncinfo$?Folder@Solution@@AAE?AV?$CStringT@_WV?$StrTraitMFC@_WV?$ChTraitsCRT@_W@ATL@@@@@ATL@@XZ DD 019930522H
	DD	04H
	DD	FLAT:__unwindtable$?Folder@Solution@@AAE?AV?$CStringT@_WV?$StrTraitMFC@_WV?$ChTraitsCRT@_W@ATL@@@@@ATL@@XZ
	DD	2 DUP(00H)
	DD	2 DUP(00H)
	DD	00H
	DD	01H
xdata$x	ENDS
;	COMDAT voltbl
voltbl	SEGMENT
_volmd	DB	034H
	DB	041H
voltbl	ENDS
;	COMDAT voltbl
voltbl	SEGMENT
_volmd	DW	035H
	DW	01ffH
voltbl	ENDS
;	COMDAT xdata$x
xdata$x	SEGMENT
__unwindtable$?Open_File@Solution@@AAEHPA_W@Z DD 0ffffffffH
	DD	FLAT:__unwindfunclet$?Open_File@Solution@@AAEHPA_W@Z$0
	DD	00H
	DD	FLAT:__unwindfunclet$?Open_File@Solution@@AAEHPA_W@Z$1
	DD	01H
	DD	FLAT:__unwindfunclet$?Open_File@Solution@@AAEHPA_W@Z$2
	DD	02H
	DD	FLAT:__unwindfunclet$?Open_File@Solution@@AAEHPA_W@Z$3
__ehfuncinfo$?Open_File@Solution@@AAEHPA_W@Z DD 019930522H
	DD	04H
	DD	FLAT:__unwindtable$?Open_File@Solution@@AAEHPA_W@Z
	DD	2 DUP(00H)
	DD	2 DUP(00H)
	DD	00H
	DD	01H
xdata$x	ENDS
;	COMDAT voltbl
voltbl	SEGMENT
_volmd	DB	034H
	DB	041H
voltbl	ENDS
;	COMDAT voltbl
voltbl	SEGMENT
_volmd	DW	035H
	DW	01ffH
voltbl	ENDS
;	COMDAT xdata$x
xdata$x	SEGMENT
__unwindtable$?Save_File@Solution@@AAEHPA_W@Z DD 0ffffffffH
	DD	FLAT:__unwindfunclet$?Save_File@Solution@@AAEHPA_W@Z$0
	DD	00H
	DD	FLAT:__unwindfunclet$?Save_File@Solution@@AAEHPA_W@Z$1
	DD	01H
	DD	FLAT:__unwindfunclet$?Save_File@Solution@@AAEHPA_W@Z$2
	DD	02H
	DD	FLAT:__unwindfunclet$?Save_File@Solution@@AAEHPA_W@Z$3
__ehfuncinfo$?Save_File@Solution@@AAEHPA_W@Z DD 019930522H
	DD	04H
	DD	FLAT:__unwindtable$?Save_File@Solution@@AAEHPA_W@Z
	DD	2 DUP(00H)
	DD	2 DUP(00H)
	DD	00H
	DD	01H
xdata$x	ENDS
;	COMDAT voltbl
voltbl	SEGMENT
_volmd	DB	016H
	DB	023H
voltbl	ENDS
;	COMDAT voltbl
voltbl	SEGMENT
_volmd	DB	030H
	DB	0dcH
voltbl	ENDS
;	COMDAT xdata$x
xdata$x	SEGMENT
__unwindtable$?Current_Dir@Solution@@AAE?AV?$CStringT@_WV?$StrTraitMFC@_WV?$ChTraitsCRT@_W@ATL@@@@@ATL@@XZ DD 0ffffffffH
	DD	FLAT:__unwindfunclet$?Current_Dir@Solution@@AAE?AV?$CStringT@_WV?$StrTraitMFC@_WV?$ChTraitsCRT@_W@ATL@@@@@ATL@@XZ$0
__ehfuncinfo$?Current_Dir@Solution@@AAE?AV?$CStringT@_WV?$StrTraitMFC@_WV?$ChTraitsCRT@_W@ATL@@@@@ATL@@XZ DD 019930522H
	DD	01H
	DD	FLAT:__unwindtable$?Current_Dir@Solution@@AAE?AV?$CStringT@_WV?$StrTraitMFC@_WV?$ChTraitsCRT@_W@ATL@@@@@ATL@@XZ
	DD	2 DUP(00H)
	DD	2 DUP(00H)
	DD	00H
	DD	01H
xdata$x	ENDS
;	COMDAT voltbl
voltbl	SEGMENT
_volmd	DB	016H
	DB	023H
voltbl	ENDS
;	COMDAT voltbl
voltbl	SEGMENT
_volmd	DW	030H
	DW	015fH
voltbl	ENDS
;	COMDAT xdata$x
xdata$x	SEGMENT
__unwindtable$?Print@Solution@@AAEXXZ DD 0ffffffffH
	DD	FLAT:__unwindfunclet$?Print@Solution@@AAEXXZ$0
__ehfuncinfo$?Print@Solution@@AAEXXZ DD 019930522H
	DD	01H
	DD	FLAT:__unwindtable$?Print@Solution@@AAEXXZ
	DD	2 DUP(00H)
	DD	2 DUP(00H)
	DD	00H
	DD	01H
xdata$x	ENDS
;	COMDAT voltbl
voltbl	SEGMENT
_volmd	DB	016H
	DB	023H
voltbl	ENDS
;	COMDAT voltbl
voltbl	SEGMENT
_volmd	DW	030H
	DW	0174H
voltbl	ENDS
;	COMDAT xdata$x
xdata$x	SEGMENT
__unwindtable$?Display_grille@Solution@@AAEXPAUHWND__@@@Z DD 0ffffffffH
	DD	FLAT:__unwindfunclet$?Display_grille@Solution@@AAEXPAUHWND__@@@Z$0
__ehfuncinfo$?Display_grille@Solution@@AAEXPAUHWND__@@@Z DD 019930522H
	DD	01H
	DD	FLAT:__unwindtable$?Display_grille@Solution@@AAEXPAUHWND__@@@Z
	DD	2 DUP(00H)
	DD	2 DUP(00H)
	DD	00H
	DD	01H
xdata$x	ENDS
;	COMDAT voltbl
voltbl	SEGMENT
_volmd	DB	022H
	DB	0e8H
voltbl	ENDS
;	COMDAT voltbl
voltbl	SEGMENT
_volmd	DB	016H
	DB	023H
voltbl	ENDS
;	COMDAT voltbl
voltbl	SEGMENT
_volmd	DW	030H
	DW	012aH
voltbl	ENDS
;	COMDAT xdata$x
xdata$x	SEGMENT
__unwindtable$?Check_input_a_sub_square@Solution@@AAEHH@Z DD 0ffffffffH
	DD	FLAT:__unwindfunclet$?Check_input_a_sub_square@Solution@@AAEHH@Z$0
__ehfuncinfo$?Check_input_a_sub_square@Solution@@AAEHH@Z DD 019930522H
	DD	01H
	DD	FLAT:__unwindtable$?Check_input_a_sub_square@Solution@@AAEHH@Z
	DD	2 DUP(00H)
	DD	2 DUP(00H)
	DD	00H
	DD	01H
xdata$x	ENDS
;	COMDAT voltbl
voltbl	SEGMENT
_volmd	DB	016H
	DB	023H
voltbl	ENDS
;	COMDAT voltbl
voltbl	SEGMENT
_volmd	DW	030H
	DW	012dH
voltbl	ENDS
;	COMDAT xdata$x
xdata$x	SEGMENT
__unwindtable$?Check_input_a_column@Solution@@AAEHH@Z DD 0ffffffffH
	DD	FLAT:__unwindfunclet$?Check_input_a_column@Solution@@AAEHH@Z$0
__ehfuncinfo$?Check_input_a_column@Solution@@AAEHH@Z DD 019930522H
	DD	01H
	DD	FLAT:__unwindtable$?Check_input_a_column@Solution@@AAEHH@Z
	DD	2 DUP(00H)
	DD	2 DUP(00H)
	DD	00H
	DD	01H
xdata$x	ENDS
;	COMDAT voltbl
voltbl	SEGMENT
_volmd	DB	016H
	DB	023H
voltbl	ENDS
;	COMDAT voltbl
voltbl	SEGMENT
_volmd	DW	030H
	DW	012dH
voltbl	ENDS
;	COMDAT xdata$x
xdata$x	SEGMENT
__unwindtable$?Check_input_a_row@Solution@@AAEHH@Z DD 0ffffffffH
	DD	FLAT:__unwindfunclet$?Check_input_a_row@Solution@@AAEHH@Z$0
__ehfuncinfo$?Check_input_a_row@Solution@@AAEHH@Z DD 019930522H
	DD	01H
	DD	FLAT:__unwindtable$?Check_input_a_row@Solution@@AAEHH@Z
	DD	2 DUP(00H)
	DD	2 DUP(00H)
	DD	00H
	DD	01H
xdata$x	ENDS
;	COMDAT voltbl
voltbl	SEGMENT
_volmd	DW	025H
	DW	01abH
voltbl	ENDS
;	COMDAT voltbl
voltbl	SEGMENT
_volmd	DB	016H
	DB	023H
voltbl	ENDS
;	COMDAT voltbl
voltbl	SEGMENT
_volmd	DW	030H
	DW	01d2H
voltbl	ENDS
;	COMDAT xdata$x
xdata$x	SEGMENT
__unwindtable$?Charger_valeur_saisie@Solution@@QAEHPAUHWND__@@@Z DD 0ffffffffH
	DD	FLAT:__unwindfunclet$?Charger_valeur_saisie@Solution@@QAEHPAUHWND__@@@Z$0
__ehfuncinfo$?Charger_valeur_saisie@Solution@@QAEHPAUHWND__@@@Z DD 019930522H
	DD	01H
	DD	FLAT:__unwindtable$?Charger_valeur_saisie@Solution@@QAEHPAUHWND__@@@Z
	DD	2 DUP(00H)
	DD	2 DUP(00H)
	DD	00H
	DD	01H
xdata$x	ENDS
;	COMDAT voltbl
voltbl	SEGMENT
_volmd	DB	061H
	DB	06eH
voltbl	ENDS
;	COMDAT voltbl
voltbl	SEGMENT
_volmd	DW	030H
	DW	01f2H
voltbl	ENDS
;	COMDAT xdata$x
xdata$x	SEGMENT
__ehfuncinfo$??0Solution@@QAE@PAUHWND__@@@Z DD 019930522H
	DD	0aH
	DD	FLAT:__unwindtable$??0Solution@@QAE@PAUHWND__@@@Z
	DD	2 DUP(00H)
	DD	2 DUP(00H)
	DD	00H
	DD	01H
__unwindtable$??0Solution@@QAE@PAUHWND__@@@Z DD 0ffffffffH
	DD	FLAT:__unwindfunclet$??0Solution@@QAE@PAUHWND__@@@Z$0
	DD	00H
	DD	FLAT:__unwindfunclet$??0Solution@@QAE@PAUHWND__@@@Z$1
	DD	01H
	DD	FLAT:__unwindfunclet$??0Solution@@QAE@PAUHWND__@@@Z$2
	DD	02H
	DD	FLAT:__unwindfunclet$??0Solution@@QAE@PAUHWND__@@@Z$3
	DD	03H
	DD	FLAT:__unwindfunclet$??0Solution@@QAE@PAUHWND__@@@Z$4
	DD	04H
	DD	FLAT:__unwindfunclet$??0Solution@@QAE@PAUHWND__@@@Z$5
	DD	05H
	DD	FLAT:__unwindfunclet$??0Solution@@QAE@PAUHWND__@@@Z$6
	DD	04H
	DD	FLAT:__unwindfunclet$??0Solution@@QAE@PAUHWND__@@@Z$6
	DD	03H
	DD	FLAT:__unwindfunclet$??0Solution@@QAE@PAUHWND__@@@Z$6
	DD	02H
	DD	FLAT:__unwindfunclet$??0Solution@@QAE@PAUHWND__@@@Z$6
xdata$x	ENDS
;	COMDAT voltbl
voltbl	SEGMENT
_volmd	DW	022H
	DW	0153H
voltbl	ENDS
;	COMDAT voltbl
voltbl	SEGMENT
_volmd	DB	016H
	DB	023H
voltbl	ENDS
;	COMDAT voltbl
voltbl	SEGMENT
_volmd	DB	02eH
	DB	0b9H
voltbl	ENDS
;	COMDAT xdata$x
xdata$x	SEGMENT
__unwindtable$??H@YA?AV_bstr_t@@PB_WABV0@@Z DD 0ffffffffH
	DD	FLAT:__unwindfunclet$??H@YA?AV_bstr_t@@PB_WABV0@@Z$0
__ehfuncinfo$??H@YA?AV_bstr_t@@PB_WABV0@@Z DD 019930522H
	DD	01H
	DD	FLAT:__unwindtable$??H@YA?AV_bstr_t@@PB_WABV0@@Z
	DD	2 DUP(00H)
	DD	2 DUP(00H)
	DD	00H
	DD	01H
xdata$x	ENDS
;	COMDAT voltbl
voltbl	SEGMENT
_volmd	DB	01eH
voltbl	ENDS
;	COMDAT xdata$x
xdata$x	SEGMENT
__unwindtable$??Y_bstr_t@@QAEAAV0@ABV0@@Z DD 0ffffffffH
	DD	FLAT:__unwindfunclet$??Y_bstr_t@@QAEAAV0@ABV0@@Z$0
__ehfuncinfo$??Y_bstr_t@@QAEAAV0@ABV0@@Z DD 019930522H
	DD	01H
	DD	FLAT:__unwindtable$??Y_bstr_t@@QAEAAV0@ABV0@@Z
	DD	2 DUP(00H)
	DD	2 DUP(00H)
	DD	00H
	DD	01H
xdata$x	ENDS
;	COMDAT voltbl
voltbl	SEGMENT
_volmd	DB	01eH
voltbl	ENDS
;	COMDAT xdata$x
xdata$x	SEGMENT
__unwindtable$??0_bstr_t@@QAE@PB_W@Z DD 0ffffffffH
	DD	FLAT:__unwindfunclet$??0_bstr_t@@QAE@PB_W@Z$0
__ehfuncinfo$??0_bstr_t@@QAE@PB_W@Z DD 019930522H
	DD	01H
	DD	FLAT:__unwindtable$??0_bstr_t@@QAE@PB_W@Z
	DD	2 DUP(00H)
	DD	2 DUP(00H)
	DD	00H
	DD	01H
xdata$x	ENDS
;	COMDAT voltbl
voltbl	SEGMENT
_volmd	DB	01eH
voltbl	ENDS
;	COMDAT xdata$x
xdata$x	SEGMENT
__unwindtable$??0_bstr_t@@QAE@PBD@Z DD 0ffffffffH
	DD	FLAT:__unwindfunclet$??0_bstr_t@@QAE@PBD@Z$0
__ehfuncinfo$??0_bstr_t@@QAE@PBD@Z DD 019930522H
	DD	01H
	DD	FLAT:__unwindtable$??0_bstr_t@@QAE@PBD@Z
	DD	2 DUP(00H)
	DD	2 DUP(00H)
	DD	00H
	DD	01H
xdata$x	ENDS
;	COMDAT voltbl
voltbl	SEGMENT
_volmd	DB	016H
	DB	023H
voltbl	ENDS
;	COMDAT voltbl
voltbl	SEGMENT
_volmd	DB	02eH
	DB	0e4H
voltbl	ENDS
;	COMDAT xdata$x
xdata$x	SEGMENT
__unwindtable$??HATL@@YA?AV?$CStringT@_WV?$StrTraitMFC@_WV?$ChTraitsCRT@_W@ATL@@@@@0@ABV10@0@Z DD 0ffffffffH
	DD	FLAT:__unwindfunclet$??HATL@@YA?AV?$CStringT@_WV?$StrTraitMFC@_WV?$ChTraitsCRT@_W@ATL@@@@@0@ABV10@0@Z$0
__ehfuncinfo$??HATL@@YA?AV?$CStringT@_WV?$StrTraitMFC@_WV?$ChTraitsCRT@_W@ATL@@@@@0@ABV10@0@Z DD 019930522H
	DD	01H
	DD	FLAT:__unwindtable$??HATL@@YA?AV?$CStringT@_WV?$StrTraitMFC@_WV?$ChTraitsCRT@_W@ATL@@@@@0@ABV10@0@Z
	DD	2 DUP(00H)
	DD	2 DUP(00H)
	DD	00H
	DD	01H
xdata$x	ENDS
;	COMDAT voltbl
voltbl	SEGMENT
_volmd	DB	016H
	DB	023H
voltbl	ENDS
;	COMDAT voltbl
voltbl	SEGMENT
_volmd	DW	030H
	DW	0135H
voltbl	ENDS
;	COMDAT xdata$x
xdata$x	SEGMENT
__unwindtable$?FormatV@?$CStringT@_WV?$StrTraitMFC@_WV?$ChTraitsCRT@_W@ATL@@@@@ATL@@QAEXPB_WPAD@Z DD 0ffffffffH
	DD	FLAT:__unwindfunclet$?FormatV@?$CStringT@_WV?$StrTraitMFC@_WV?$ChTraitsCRT@_W@ATL@@@@@ATL@@QAEXPB_WPAD@Z$0
__ehfuncinfo$?FormatV@?$CStringT@_WV?$StrTraitMFC@_WV?$ChTraitsCRT@_W@ATL@@@@@ATL@@QAEXPB_WPAD@Z DD 019930522H
	DD	01H
	DD	FLAT:__unwindtable$?FormatV@?$CStringT@_WV?$StrTraitMFC@_WV?$ChTraitsCRT@_W@ATL@@@@@ATL@@QAEXPB_WPAD@Z
	DD	2 DUP(00H)
	DD	2 DUP(00H)
	DD	00H
	DD	01H
xdata$x	ENDS
;	COMDAT voltbl
voltbl	SEGMENT
_volmd	DB	016H
	DB	023H
voltbl	ENDS
;	COMDAT voltbl
voltbl	SEGMENT
_volmd	DB	030H
	DB	0afH
voltbl	ENDS
;	COMDAT xdata$x
xdata$x	SEGMENT
__unwindtable$??Y?$CStringT@_WV?$StrTraitMFC@_WV?$ChTraitsCRT@_W@ATL@@@@@ATL@@QAEAAV01@PBD@Z DD 0ffffffffH
	DD	FLAT:__unwindfunclet$??Y?$CStringT@_WV?$StrTraitMFC@_WV?$ChTraitsCRT@_W@ATL@@@@@ATL@@QAEAAV01@PBD@Z$0
__ehfuncinfo$??Y?$CStringT@_WV?$StrTraitMFC@_WV?$ChTraitsCRT@_W@ATL@@@@@ATL@@QAEAAV01@PBD@Z DD 019930522H
	DD	01H
	DD	FLAT:__unwindtable$??Y?$CStringT@_WV?$StrTraitMFC@_WV?$ChTraitsCRT@_W@ATL@@@@@ATL@@QAEAAV01@PBD@Z
	DD	2 DUP(00H)
	DD	2 DUP(00H)
	DD	00H
	DD	01H
xdata$x	ENDS
;	COMDAT voltbl
voltbl	SEGMENT
_volmd	DB	016H
voltbl	ENDS
;	COMDAT xdata$x
xdata$x	SEGMENT
__unwindtable$??0?$CStringT@_WV?$StrTraitMFC@_WV?$ChTraitsCRT@_W@ATL@@@@@ATL@@QAE@PBDPAUIAtlStringMgr@1@@Z DD 0ffffffffH
	DD	FLAT:__unwindfunclet$??0?$CStringT@_WV?$StrTraitMFC@_WV?$ChTraitsCRT@_W@ATL@@@@@ATL@@QAE@PBDPAUIAtlStringMgr@1@@Z$0
__ehfuncinfo$??0?$CStringT@_WV?$StrTraitMFC@_WV?$ChTraitsCRT@_W@ATL@@@@@ATL@@QAE@PBDPAUIAtlStringMgr@1@@Z DD 019930522H
	DD	01H
	DD	FLAT:__unwindtable$??0?$CStringT@_WV?$StrTraitMFC@_WV?$ChTraitsCRT@_W@ATL@@@@@ATL@@QAE@PBDPAUIAtlStringMgr@1@@Z
	DD	2 DUP(00H)
	DD	2 DUP(00H)
	DD	00H
	DD	01H
xdata$x	ENDS
;	COMDAT voltbl
voltbl	SEGMENT
_volmd	DB	016H
voltbl	ENDS
;	COMDAT xdata$x
xdata$x	SEGMENT
__unwindtable$??0?$CStringT@_WV?$StrTraitMFC@_WV?$ChTraitsCRT@_W@ATL@@@@@ATL@@QAE@PB_WPAUIAtlStringMgr@1@@Z DD 0ffffffffH
	DD	FLAT:__unwindfunclet$??0?$CStringT@_WV?$StrTraitMFC@_WV?$ChTraitsCRT@_W@ATL@@@@@ATL@@QAE@PB_WPAUIAtlStringMgr@1@@Z$0
__ehfuncinfo$??0?$CStringT@_WV?$StrTraitMFC@_WV?$ChTraitsCRT@_W@ATL@@@@@ATL@@QAE@PB_WPAUIAtlStringMgr@1@@Z DD 019930522H
	DD	01H
	DD	FLAT:__unwindtable$??0?$CStringT@_WV?$StrTraitMFC@_WV?$ChTraitsCRT@_W@ATL@@@@@ATL@@QAE@PB_WPAUIAtlStringMgr@1@@Z
	DD	2 DUP(00H)
	DD	2 DUP(00H)
	DD	00H
	DD	01H
xdata$x	ENDS
;	COMDAT voltbl
voltbl	SEGMENT
_volmd	DB	016H
voltbl	ENDS
;	COMDAT xdata$x
xdata$x	SEGMENT
__unwindtable$??0?$CStringT@_WV?$StrTraitMFC@_WV?$ChTraitsCRT@_W@ATL@@@@@ATL@@QAE@PB_W@Z DD 0ffffffffH
	DD	FLAT:__unwindfunclet$??0?$CStringT@_WV?$StrTraitMFC@_WV?$ChTraitsCRT@_W@ATL@@@@@ATL@@QAE@PB_W@Z$0
__ehfuncinfo$??0?$CStringT@_WV?$StrTraitMFC@_WV?$ChTraitsCRT@_W@ATL@@@@@ATL@@QAE@PB_W@Z DD 019930522H
	DD	01H
	DD	FLAT:__unwindtable$??0?$CStringT@_WV?$StrTraitMFC@_WV?$ChTraitsCRT@_W@ATL@@@@@ATL@@QAE@PB_W@Z
	DD	2 DUP(00H)
	DD	2 DUP(00H)
	DD	00H
	DD	01H
xdata$x	ENDS
;	COMDAT voltbl
voltbl	SEGMENT
_volmd	DB	016H
	DB	023H
voltbl	ENDS
;	COMDAT voltbl
voltbl	SEGMENT
_volmd	DB	02eH
	DB	0a5H
voltbl	ENDS
;	COMDAT xdata$x
xdata$x	SEGMENT
__unwindtable$??RCTraceFileAndLineInfo@ATL@@QBAXHIPB_WZZ DD 0ffffffffH
	DD	FLAT:__unwindfunclet$??RCTraceFileAndLineInfo@ATL@@QBAXHIPB_WZZ$0
__ehfuncinfo$??RCTraceFileAndLineInfo@ATL@@QBAXHIPB_WZZ DD 019930522H
	DD	01H
	DD	FLAT:__unwindtable$??RCTraceFileAndLineInfo@ATL@@QBAXHIPB_WZZ
	DD	2 DUP(00H)
	DD	2 DUP(00H)
	DD	00H
	DD	01H
xdata$x	ENDS
;	COMDAT voltbl
voltbl	SEGMENT
_volmd	DB	022H
	DB	06eH
voltbl	ENDS
;	COMDAT voltbl
voltbl	SEGMENT
_volmd	DB	016H
	DB	023H
voltbl	ENDS
;	COMDAT voltbl
voltbl	SEGMENT
_volmd	DW	02eH
	DW	0157H
voltbl	ENDS
;	COMDAT xdata$x
xdata$x	SEGMENT
__unwindtable$?TraceV@CTrace@ATL@@SAXPBDHIIPB_WPAD@Z DD 0ffffffffH
	DD	FLAT:__unwindfunclet$?TraceV@CTrace@ATL@@SAXPBDHIIPB_WPAD@Z$0
__ehfuncinfo$?TraceV@CTrace@ATL@@SAXPBDHIIPB_WPAD@Z DD 019930522H
	DD	01H
	DD	FLAT:__unwindtable$?TraceV@CTrace@ATL@@SAXPBDHIIPB_WPAD@Z
	DD	2 DUP(00H)
	DD	2 DUP(00H)
	DD	00H
	DD	01H
xdata$x	ENDS
;	COMDAT voltbl
voltbl	SEGMENT
_volmd	DW	025H
	DW	0223H
voltbl	ENDS
;	COMDAT voltbl
voltbl	SEGMENT
_volmd	DB	020H
	DB	091H
voltbl	ENDS
;	COMDAT CRT$XCU
CRT$XCU	SEGMENT
?atlTraceString$initializer$@ATL@@3P6AXXZA DD FLAT:??__EatlTraceString@ATL@@YAXXZ ; ATL::atlTraceString$initializer$
CRT$XCU	ENDS
; Function compile flags: /Odt
;	COMDAT __JustMyCode_Default
_TEXT	SEGMENT
__JustMyCode_Default PROC				; COMDAT
  00000	55		 push	 ebp
  00001	8b ec		 mov	 ebp, esp
  00003	5d		 pop	 ebp
  00004	c3		 ret	 0
__JustMyCode_Default ENDP
_TEXT	ENDS
; Function compile flags: /Odsp /RTCsu /ZI
;	COMDAT ??_GSolution@@UAEPAXI@Z
_TEXT	SEGMENT
_this$ = -8						; size = 4
___flags$ = 8						; size = 4
??_GSolution@@UAEPAXI@Z PROC				; Solution::`scalar deleting destructor', COMDAT
; _this$ = ecx
  00000	55		 push	 ebp
  00001	8b ec		 mov	 ebp, esp
  00003	81 ec cc 00 00
	00		 sub	 esp, 204		; 000000ccH
  00009	53		 push	 ebx
  0000a	56		 push	 esi
  0000b	57		 push	 edi
  0000c	51		 push	 ecx
  0000d	8d 7d f4	 lea	 edi, DWORD PTR [ebp-12]
  00010	6a 03		 push	 3
  00012	59		 pop	 ecx
  00013	b8 cc cc cc cc	 mov	 eax, -858993460		; ccccccccH
  00018	f3 ab		 rep stosd
  0001a	59		 pop	 ecx
  0001b	89 4d f8	 mov	 DWORD PTR _this$[ebp], ecx
  0001e	8b 4d f8	 mov	 ecx, DWORD PTR _this$[ebp]
  00021	e8 00 00 00 00	 call	 ??1Solution@@UAE@XZ	; Solution::~Solution
  00026	8b 45 08	 mov	 eax, DWORD PTR ___flags$[ebp]
  00029	83 e0 01	 and	 eax, 1
  0002c	74 0f		 je	 SHORT $LN2@scalar
  0002e	68 60 01 00 00	 push	 352			; 00000160H
  00033	ff 75 f8	 push	 DWORD PTR _this$[ebp]
  00036	e8 00 00 00 00	 call	 ??3@YAXPAXI@Z		; operator delete
  0003b	59		 pop	 ecx
  0003c	59		 pop	 ecx
$LN2@scalar:
  0003d	8b 45 f8	 mov	 eax, DWORD PTR _this$[ebp]
  00040	5f		 pop	 edi
  00041	5e		 pop	 esi
  00042	5b		 pop	 ebx
  00043	81 c4 cc 00 00
	00		 add	 esp, 204		; 000000ccH
  00049	3b ec		 cmp	 ebp, esp
  0004b	e8 00 00 00 00	 call	 __RTC_CheckEsp
  00050	c9		 leave
  00051	c2 04 00	 ret	 4
??_GSolution@@UAEPAXI@Z ENDP				; Solution::`scalar deleting destructor'
_TEXT	ENDS
; Function compile flags: /Odsp /RTCsu /ZI
; File J:\work\SUDOKU\SUDOKU\SUDOKU\Solution.cpp
;	COMDAT ?Affiche_Synchro@Solution@@AAEX_K@Z
_TEXT	SEGMENT
_Affiche$ = -36						; size = 4
_this$ = -24						; size = 4
__$ArrayPad$ = -16					; size = 4
__$EHRec$ = -12						; size = 12
___Time$ = 8						; size = 8
?Affiche_Synchro@Solution@@AAEX_K@Z PROC		; Solution::Affiche_Synchro, COMDAT
; _this$ = ecx

; 197  : {	

  00000	55		 push	 ebp
  00001	8b ec		 mov	 ebp, esp
  00003	6a ff		 push	 -1
  00005	68 00 00 00 00	 push	 __ehhandler$?Affiche_Synchro@Solution@@AAEX_K@Z
  0000a	64 a1 00 00 00
	00		 mov	 eax, DWORD PTR fs:0
  00010	50		 push	 eax
  00011	81 ec dc 00 00
	00		 sub	 esp, 220		; 000000dcH
  00017	53		 push	 ebx
  00018	56		 push	 esi
  00019	57		 push	 edi
  0001a	51		 push	 ecx
  0001b	8d 7d d8	 lea	 edi, DWORD PTR [ebp-40]
  0001e	6a 07		 push	 7
  00020	59		 pop	 ecx
  00021	b8 cc cc cc cc	 mov	 eax, -858993460		; ccccccccH
  00026	f3 ab		 rep stosd
  00028	59		 pop	 ecx
  00029	a1 00 00 00 00	 mov	 eax, DWORD PTR ___security_cookie
  0002e	33 c5		 xor	 eax, ebp
  00030	89 45 f0	 mov	 DWORD PTR __$ArrayPad$[ebp], eax
  00033	50		 push	 eax
  00034	8d 45 f4	 lea	 eax, DWORD PTR __$EHRec$[ebp]
  00037	64 a3 00 00 00
	00		 mov	 DWORD PTR fs:0, eax
  0003d	89 4d e8	 mov	 DWORD PTR _this$[ebp], ecx
  00040	b9 00 00 00 00	 mov	 ecx, OFFSET __CBE53D1F_Solution@cpp
  00045	e8 00 00 00 00	 call	 @__CheckForDebuggerJustMyCode@4

; 198  : 	CString Affiche = _T("");

  0004a	6a 04		 push	 4
  0004c	8d 4d dc	 lea	 ecx, DWORD PTR _Affiche$[ebp]
  0004f	e8 00 00 00 00	 call	 ?__autoclassinit2@?$CStringT@_WV?$StrTraitMFC@_WV?$ChTraitsCRT@_W@ATL@@@@@ATL@@QAEXI@Z
  00054	68 00 00 00 00	 push	 OFFSET ??_C@_11LOCGONAA@@
  00059	8d 4d dc	 lea	 ecx, DWORD PTR _Affiche$[ebp]
  0005c	e8 00 00 00 00	 call	 ??0?$CStringT@_WV?$StrTraitMFC@_WV?$ChTraitsCRT@_W@ATL@@@@@ATL@@QAE@PB_W@Z ; ATL::CStringT<wchar_t,StrTraitMFC<wchar_t,ATL::ChTraitsCRT<wchar_t> > >::CStringT<wchar_t,StrTraitMFC<wchar_t,ATL::ChTraitsCRT<wchar_t> > >
  00061	83 65 fc 00	 and	 DWORD PTR __$EHRec$[ebp+8], 0

; 199  : 	if (__Time > 0)

  00065	83 7d 0c 00	 cmp	 DWORD PTR ___Time$[ebp+4], 0
  00069	77 06		 ja	 SHORT $LN6@Affiche_Sy
  0006b	83 7d 08 00	 cmp	 DWORD PTR ___Time$[ebp], 0
  0006f	76 16		 jbe	 SHORT $LN2@Affiche_Sy
$LN6@Affiche_Sy:

; 200  : 	{
; 201  : 		Affiche.Format(_T("Temps de rsolution: %ld ms"), (long) __Time);

  00071	ff 75 08	 push	 DWORD PTR ___Time$[ebp]
  00074	68 00 00 00 00	 push	 OFFSET ??_C@_1DI@PECEIFDA@?$AAT?$AAe?$AAm?$AAp?$AAs?$AA?5?$AAd?$AAe?$AA?5?$AAr?$PP?i?$AAs?$AAo?$AAl?$AAu@
  00079	8d 45 dc	 lea	 eax, DWORD PTR _Affiche$[ebp]
  0007c	50		 push	 eax
  0007d	e8 00 00 00 00	 call	 ?Format@?$CStringT@_WV?$StrTraitMFC@_WV?$ChTraitsCRT@_W@ATL@@@@@ATL@@QAAXPB_WZZ ; ATL::CStringT<wchar_t,StrTraitMFC<wchar_t,ATL::ChTraitsCRT<wchar_t> > >::Format
  00082	83 c4 0c	 add	 esp, 12			; 0000000cH

; 202  : 	}

  00085	eb 0d		 jmp	 SHORT $LN3@Affiche_Sy
$LN2@Affiche_Sy:

; 203  : 	else
; 204  : 	{
; 205  : 		Affiche = _T("Temps de rsolution < 1 ms");

  00087	68 00 00 00 00	 push	 OFFSET ??_C@_1DG@BPKNNOLH@?$AAT?$AAe?$AAm?$AAp?$AAs?$AA?5?$AAd?$AAe?$AA?5?$AAr?$PP?i?$AAs?$AAo?$AAl?$AAu@
  0008c	8d 4d dc	 lea	 ecx, DWORD PTR _Affiche$[ebp]
  0008f	e8 00 00 00 00	 call	 ??4?$CStringT@_WV?$StrTraitMFC@_WV?$ChTraitsCRT@_W@ATL@@@@@ATL@@QAEAAV01@PB_W@Z ; ATL::CStringT<wchar_t,StrTraitMFC<wchar_t,ATL::ChTraitsCRT<wchar_t> > >::operator=
$LN3@Affiche_Sy:

; 206  : 	}
; 207  : 	
; 208  : 	::SetDlgItemTextW(Save_Curent_windows, IDC_STATIC3, (LPWSTR)Affiche.GetBuffer());

  00094	8d 4d dc	 lea	 ecx, DWORD PTR _Affiche$[ebp]
  00097	e8 00 00 00 00	 call	 ?GetBuffer@?$CSimpleStringT@_W$0A@@ATL@@QAEPA_WXZ ; ATL::CSimpleStringT<wchar_t,0>::GetBuffer
  0009c	8b f4		 mov	 esi, esp
  0009e	50		 push	 eax
  0009f	68 3b 04 00 00	 push	 1083			; 0000043bH
  000a4	8b 45 e8	 mov	 eax, DWORD PTR _this$[ebp]
  000a7	ff b0 48 01 00
	00		 push	 DWORD PTR [eax+328]
  000ad	ff 15 00 00 00
	00		 call	 DWORD PTR __imp__SetDlgItemTextW@12
  000b3	3b f4		 cmp	 esi, esp
  000b5	e8 00 00 00 00	 call	 __RTC_CheckEsp

; 209  : 	
; 210  : 	// AfxMessageBox(Affiche, MB_OK);
; 211  : }

  000ba	83 4d fc ff	 or	 DWORD PTR __$EHRec$[ebp+8], -1
  000be	8d 4d dc	 lea	 ecx, DWORD PTR _Affiche$[ebp]
  000c1	e8 00 00 00 00	 call	 ??1?$CStringT@_WV?$StrTraitMFC@_WV?$ChTraitsCRT@_W@ATL@@@@@ATL@@QAE@XZ ; ATL::CStringT<wchar_t,StrTraitMFC<wchar_t,ATL::ChTraitsCRT<wchar_t> > >::~CStringT<wchar_t,StrTraitMFC<wchar_t,ATL::ChTraitsCRT<wchar_t> > >
  000c6	52		 push	 edx
  000c7	8b cd		 mov	 ecx, ebp
  000c9	50		 push	 eax
  000ca	8d 15 00 00 00
	00		 lea	 edx, DWORD PTR $LN10@Affiche_Sy
  000d0	e8 00 00 00 00	 call	 @_RTC_CheckStackVars@8
  000d5	58		 pop	 eax
  000d6	5a		 pop	 edx
  000d7	8b 4d f4	 mov	 ecx, DWORD PTR __$EHRec$[ebp]
  000da	64 89 0d 00 00
	00 00		 mov	 DWORD PTR fs:0, ecx
  000e1	59		 pop	 ecx
  000e2	5f		 pop	 edi
  000e3	5e		 pop	 esi
  000e4	5b		 pop	 ebx
  000e5	8b 4d f0	 mov	 ecx, DWORD PTR __$ArrayPad$[ebp]
  000e8	33 cd		 xor	 ecx, ebp
  000ea	e8 00 00 00 00	 call	 @__security_check_cookie@4
  000ef	81 c4 e8 00 00
	00		 add	 esp, 232		; 000000e8H
  000f5	3b ec		 cmp	 ebp, esp
  000f7	e8 00 00 00 00	 call	 __RTC_CheckEsp
  000fc	c9		 leave
  000fd	c2 08 00	 ret	 8
$LN10@Affiche_Sy:
  00100	01 00 00 00	 DD	 1
  00104	00 00 00 00	 DD	 $LN9@Affiche_Sy
$LN9@Affiche_Sy:
  00108	dc ff ff ff	 DD	 -36			; ffffffdcH
  0010c	04 00 00 00	 DD	 4
  00110	00 00 00 00	 DD	 $LN7@Affiche_Sy
$LN7@Affiche_Sy:
  00114	41		 DB	 65			; 00000041H
  00115	66		 DB	 102			; 00000066H
  00116	66		 DB	 102			; 00000066H
  00117	69		 DB	 105			; 00000069H
  00118	63		 DB	 99			; 00000063H
  00119	68		 DB	 104			; 00000068H
  0011a	65		 DB	 101			; 00000065H
  0011b	00		 DB	 0
_TEXT	ENDS
;	COMDAT text$x
text$x	SEGMENT
__unwindfunclet$?Affiche_Synchro@Solution@@AAEX_K@Z$0:
  00000	8d 4d dc	 lea	 ecx, DWORD PTR _Affiche$[ebp]
  00003	e9 00 00 00 00	 jmp	 ??1?$CStringT@_WV?$StrTraitMFC@_WV?$ChTraitsCRT@_W@ATL@@@@@ATL@@QAE@XZ ; ATL::CStringT<wchar_t,StrTraitMFC<wchar_t,ATL::ChTraitsCRT<wchar_t> > >::~CStringT<wchar_t,StrTraitMFC<wchar_t,ATL::ChTraitsCRT<wchar_t> > >
  00008	cc		 int	 3
  00009	cc		 int	 3
  0000a	cc		 int	 3
  0000b	cc		 int	 3
  0000c	cc		 int	 3
__ehhandler$?Affiche_Synchro@Solution@@AAEX_K@Z:
  0000d	90		 npad	 1
  0000e	90		 npad	 1
  0000f	8b 54 24 08	 mov	 edx, DWORD PTR [esp+8]
  00013	8d 42 0c	 lea	 eax, DWORD PTR [edx+12]
  00016	8b 8a 14 ff ff
	ff		 mov	 ecx, DWORD PTR [edx-236]
  0001c	33 c8		 xor	 ecx, eax
  0001e	e8 00 00 00 00	 call	 @__security_check_cookie@4
  00023	8b 4a fc	 mov	 ecx, DWORD PTR [edx-4]
  00026	33 c8		 xor	 ecx, eax
  00028	e8 00 00 00 00	 call	 @__security_check_cookie@4
  0002d	b8 00 00 00 00	 mov	 eax, OFFSET __ehfuncinfo$?Affiche_Synchro@Solution@@AAEX_K@Z
  00032	e9 00 00 00 00	 jmp	 ___CxxFrameHandler3
text$x	ENDS
?Affiche_Synchro@Solution@@AAEX_K@Z ENDP		; Solution::Affiche_Synchro
; Function compile flags: /Odsp /RTCsu /ZI
; File J:\work\SUDOKU\SUDOKU\SUDOKU\Solution.cpp
;	COMDAT ?Conversion@Solution@@AAEXV?$CStringT@_WV?$StrTraitMFC@_WV?$ChTraitsCRT@_W@ATL@@@@@ATL@@@Z
_TEXT	SEGMENT
tv128 = -284						; size = 4
$T2 = -276						; size = 4
$T3 = -264						; size = 4
_convertedCharsw$ = -60					; size = 4
_nstringw$ = -48					; size = 4
_newsizew$ = -36					; size = 4
_this$ = -24						; size = 4
__$ArrayPad$ = -16					; size = 4
__$EHRec$ = -12						; size = 12
_chaine$ = 8						; size = 4
?Conversion@Solution@@AAEXV?$CStringT@_WV?$StrTraitMFC@_WV?$ChTraitsCRT@_W@ATL@@@@@ATL@@@Z PROC ; Solution::Conversion, COMDAT
; _this$ = ecx

; 631  : {

  00000	55		 push	 ebp
  00001	8b ec		 mov	 ebp, esp
  00003	6a ff		 push	 -1
  00005	68 00 00 00 00	 push	 __ehhandler$?Conversion@Solution@@AAEXV?$CStringT@_WV?$StrTraitMFC@_WV?$ChTraitsCRT@_W@ATL@@@@@ATL@@@Z
  0000a	64 a1 00 00 00
	00		 mov	 eax, DWORD PTR fs:0
  00010	50		 push	 eax
  00011	81 ec 10 01 00
	00		 sub	 esp, 272		; 00000110H
  00017	53		 push	 ebx
  00018	56		 push	 esi
  00019	57		 push	 edi
  0001a	51		 push	 ecx
  0001b	8d 7d a4	 lea	 edi, DWORD PTR [ebp-92]
  0001e	6a 14		 push	 20			; 00000014H
  00020	59		 pop	 ecx
  00021	b8 cc cc cc cc	 mov	 eax, -858993460		; ccccccccH
  00026	f3 ab		 rep stosd
  00028	59		 pop	 ecx
  00029	a1 00 00 00 00	 mov	 eax, DWORD PTR ___security_cookie
  0002e	33 c5		 xor	 eax, ebp
  00030	89 45 f0	 mov	 DWORD PTR __$ArrayPad$[ebp], eax
  00033	50		 push	 eax
  00034	8d 45 f4	 lea	 eax, DWORD PTR __$EHRec$[ebp]
  00037	64 a3 00 00 00
	00		 mov	 DWORD PTR fs:0, eax
  0003d	89 4d e8	 mov	 DWORD PTR _this$[ebp], ecx
  00040	83 65 fc 00	 and	 DWORD PTR __$EHRec$[ebp+8], 0
  00044	b9 00 00 00 00	 mov	 ecx, OFFSET __CBE53D1F_Solution@cpp
  00049	e8 00 00 00 00	 call	 @__CheckForDebuggerJustMyCode@4

; 632  : 	const size_t newsizew = (chaine.GetLength() + 1) * 2;

  0004e	8d 4d 08	 lea	 ecx, DWORD PTR _chaine$[ebp]
  00051	e8 00 00 00 00	 call	 ?GetLength@?$CSimpleStringT@_W$0A@@ATL@@QBEHXZ ; ATL::CSimpleStringT<wchar_t,0>::GetLength
  00056	8d 44 00 02	 lea	 eax, DWORD PTR [eax+eax+2]
  0005a	89 45 dc	 mov	 DWORD PTR _newsizew$[ebp], eax

; 633  : 	char *nstringw = new char[newsizew];

  0005d	ff 75 dc	 push	 DWORD PTR _newsizew$[ebp]
  00060	e8 00 00 00 00	 call	 ??_U@YAPAXI@Z		; operator new[]
  00065	59		 pop	 ecx
  00066	89 85 f8 fe ff
	ff		 mov	 DWORD PTR $T3[ebp], eax
  0006c	8b 85 f8 fe ff
	ff		 mov	 eax, DWORD PTR $T3[ebp]
  00072	89 45 d0	 mov	 DWORD PTR _nstringw$[ebp], eax

; 634  : 	size_t convertedCharsw = 0;

  00075	83 65 c4 00	 and	 DWORD PTR _convertedCharsw$[ebp], 0

; 635  : 	wcstombs_s(&convertedCharsw, nstringw, newsizew, chaine, _TRUNCATE);

  00079	6a ff		 push	 -1
  0007b	8d 4d 08	 lea	 ecx, DWORD PTR _chaine$[ebp]
  0007e	e8 00 00 00 00	 call	 ??B?$CSimpleStringT@_W$0A@@ATL@@QBEPB_WXZ ; ATL::CSimpleStringT<wchar_t,0>::operator wchar_t const *
  00083	50		 push	 eax
  00084	ff 75 dc	 push	 DWORD PTR _newsizew$[ebp]
  00087	ff 75 d0	 push	 DWORD PTR _nstringw$[ebp]
  0008a	8d 45 c4	 lea	 eax, DWORD PTR _convertedCharsw$[ebp]
  0008d	50		 push	 eax
  0008e	e8 00 00 00 00	 call	 _wcstombs_s
  00093	83 c4 14	 add	 esp, 20			; 00000014H

; 636  : 	fprintf(pt_fichier, "%s\n", nstringw);

  00096	ff 75 d0	 push	 DWORD PTR _nstringw$[ebp]
  00099	68 00 00 00 00	 push	 OFFSET ??_C@_03OFAPEBGM@?$CFs?6@
  0009e	8b 45 e8	 mov	 eax, DWORD PTR _this$[ebp]
  000a1	ff b0 54 01 00
	00		 push	 DWORD PTR [eax+340]
  000a7	e8 00 00 00 00	 call	 _fprintf
  000ac	83 c4 0c	 add	 esp, 12			; 0000000cH

; 637  : 	delete nstringw;

  000af	8b 45 d0	 mov	 eax, DWORD PTR _nstringw$[ebp]
  000b2	89 85 ec fe ff
	ff		 mov	 DWORD PTR $T2[ebp], eax
  000b8	6a 01		 push	 1
  000ba	ff b5 ec fe ff
	ff		 push	 DWORD PTR $T2[ebp]
  000c0	e8 00 00 00 00	 call	 ??3@YAXPAXI@Z		; operator delete
  000c5	59		 pop	 ecx
  000c6	59		 pop	 ecx
  000c7	83 bd ec fe ff
	ff 00		 cmp	 DWORD PTR $T2[ebp], 0
  000ce	75 09		 jne	 SHORT $LN3@Conversion
  000d0	83 a5 e4 fe ff
	ff 00		 and	 DWORD PTR tv128[ebp], 0
  000d7	eb 10		 jmp	 SHORT $LN4@Conversion
$LN3@Conversion:
  000d9	c7 45 d0 23 81
	00 00		 mov	 DWORD PTR _nstringw$[ebp], 33059 ; 00008123H
  000e0	8b 45 d0	 mov	 eax, DWORD PTR _nstringw$[ebp]
  000e3	89 85 e4 fe ff
	ff		 mov	 DWORD PTR tv128[ebp], eax
$LN4@Conversion:

; 638  : 
; 639  : }

  000e9	83 4d fc ff	 or	 DWORD PTR __$EHRec$[ebp+8], -1
  000ed	8d 4d 08	 lea	 ecx, DWORD PTR _chaine$[ebp]
  000f0	e8 00 00 00 00	 call	 ??1?$CStringT@_WV?$StrTraitMFC@_WV?$ChTraitsCRT@_W@ATL@@@@@ATL@@QAE@XZ ; ATL::CStringT<wchar_t,StrTraitMFC<wchar_t,ATL::ChTraitsCRT<wchar_t> > >::~CStringT<wchar_t,StrTraitMFC<wchar_t,ATL::ChTraitsCRT<wchar_t> > >
  000f5	52		 push	 edx
  000f6	8b cd		 mov	 ecx, ebp
  000f8	50		 push	 eax
  000f9	8d 15 00 00 00
	00		 lea	 edx, DWORD PTR $LN9@Conversion
  000ff	e8 00 00 00 00	 call	 @_RTC_CheckStackVars@8
  00104	58		 pop	 eax
  00105	5a		 pop	 edx
  00106	8b 4d f4	 mov	 ecx, DWORD PTR __$EHRec$[ebp]
  00109	64 89 0d 00 00
	00 00		 mov	 DWORD PTR fs:0, ecx
  00110	59		 pop	 ecx
  00111	5f		 pop	 edi
  00112	5e		 pop	 esi
  00113	5b		 pop	 ebx
  00114	8b 4d f0	 mov	 ecx, DWORD PTR __$ArrayPad$[ebp]
  00117	33 cd		 xor	 ecx, ebp
  00119	e8 00 00 00 00	 call	 @__security_check_cookie@4
  0011e	81 c4 1c 01 00
	00		 add	 esp, 284		; 0000011cH
  00124	3b ec		 cmp	 ebp, esp
  00126	e8 00 00 00 00	 call	 __RTC_CheckEsp
  0012b	c9		 leave
  0012c	c2 04 00	 ret	 4
  0012f	90		 npad	 1
$LN9@Conversion:
  00130	01 00 00 00	 DD	 1
  00134	00 00 00 00	 DD	 $LN8@Conversion
$LN8@Conversion:
  00138	c4 ff ff ff	 DD	 -60			; ffffffc4H
  0013c	04 00 00 00	 DD	 4
  00140	00 00 00 00	 DD	 $LN6@Conversion
$LN6@Conversion:
  00144	63		 DB	 99			; 00000063H
  00145	6f		 DB	 111			; 0000006fH
  00146	6e		 DB	 110			; 0000006eH
  00147	76		 DB	 118			; 00000076H
  00148	65		 DB	 101			; 00000065H
  00149	72		 DB	 114			; 00000072H
  0014a	74		 DB	 116			; 00000074H
  0014b	65		 DB	 101			; 00000065H
  0014c	64		 DB	 100			; 00000064H
  0014d	43		 DB	 67			; 00000043H
  0014e	68		 DB	 104			; 00000068H
  0014f	61		 DB	 97			; 00000061H
  00150	72		 DB	 114			; 00000072H
  00151	73		 DB	 115			; 00000073H
  00152	77		 DB	 119			; 00000077H
  00153	00		 DB	 0
_TEXT	ENDS
;	COMDAT text$x
text$x	SEGMENT
__unwindfunclet$?Conversion@Solution@@AAEXV?$CStringT@_WV?$StrTraitMFC@_WV?$ChTraitsCRT@_W@ATL@@@@@ATL@@@Z$0:
  00000	8d 4d 08	 lea	 ecx, DWORD PTR _chaine$[ebp]
  00003	e9 00 00 00 00	 jmp	 ??1?$CStringT@_WV?$StrTraitMFC@_WV?$ChTraitsCRT@_W@ATL@@@@@ATL@@QAE@XZ ; ATL::CStringT<wchar_t,StrTraitMFC<wchar_t,ATL::ChTraitsCRT<wchar_t> > >::~CStringT<wchar_t,StrTraitMFC<wchar_t,ATL::ChTraitsCRT<wchar_t> > >
  00008	cc		 int	 3
  00009	cc		 int	 3
  0000a	cc		 int	 3
  0000b	cc		 int	 3
  0000c	cc		 int	 3
__ehhandler$?Conversion@Solution@@AAEXV?$CStringT@_WV?$StrTraitMFC@_WV?$ChTraitsCRT@_W@ATL@@@@@ATL@@@Z:
  0000d	90		 npad	 1
  0000e	90		 npad	 1
  0000f	8b 54 24 08	 mov	 edx, DWORD PTR [esp+8]
  00013	8d 42 0c	 lea	 eax, DWORD PTR [edx+12]
  00016	8b 8a e0 fe ff
	ff		 mov	 ecx, DWORD PTR [edx-288]
  0001c	33 c8		 xor	 ecx, eax
  0001e	e8 00 00 00 00	 call	 @__security_check_cookie@4
  00023	8b 4a fc	 mov	 ecx, DWORD PTR [edx-4]
  00026	33 c8		 xor	 ecx, eax
  00028	e8 00 00 00 00	 call	 @__security_check_cookie@4
  0002d	b8 00 00 00 00	 mov	 eax, OFFSET __ehfuncinfo$?Conversion@Solution@@AAEXV?$CStringT@_WV?$StrTraitMFC@_WV?$ChTraitsCRT@_W@ATL@@@@@ATL@@@Z
  00032	e9 00 00 00 00	 jmp	 ___CxxFrameHandler3
text$x	ENDS
?Conversion@Solution@@AAEXV?$CStringT@_WV?$StrTraitMFC@_WV?$ChTraitsCRT@_W@ATL@@@@@ATL@@@Z ENDP ; Solution::Conversion
; Function compile flags: /Odsp /RTCsu /ZI
; File J:\work\SUDOKU\SUDOKU\SUDOKU\Solution.cpp
;	COMDAT ?Dur_Dur@Solution@@AAEXXZ
_TEXT	SEGMENT
tv86 = -268						; size = 4
tv75 = -268						; size = 4
$T2 = -260						; size = 4
$T3 = -248						; size = 4
$T4 = -236						; size = 4
_pt_temps$ = -32					; size = 4
_this$ = -20						; size = 4
__$EHRec$ = -12						; size = 12
?Dur_Dur@Solution@@AAEXXZ PROC				; Solution::Dur_Dur, COMDAT
; _this$ = ecx

; 182  : {

  00000	55		 push	 ebp
  00001	8b ec		 mov	 ebp, esp
  00003	6a ff		 push	 -1
  00005	68 00 00 00 00	 push	 __ehhandler$?Dur_Dur@Solution@@AAEXXZ
  0000a	64 a1 00 00 00
	00		 mov	 eax, DWORD PTR fs:0
  00010	50		 push	 eax
  00011	81 ec 00 01 00
	00		 sub	 esp, 256		; 00000100H
  00017	53		 push	 ebx
  00018	56		 push	 esi
  00019	57		 push	 edi
  0001a	51		 push	 ecx
  0001b	8d 7d b4	 lea	 edi, DWORD PTR [ebp-76]
  0001e	6a 10		 push	 16			; 00000010H
  00020	59		 pop	 ecx
  00021	b8 cc cc cc cc	 mov	 eax, -858993460		; ccccccccH
  00026	f3 ab		 rep stosd
  00028	59		 pop	 ecx
  00029	a1 00 00 00 00	 mov	 eax, DWORD PTR ___security_cookie
  0002e	33 c5		 xor	 eax, ebp
  00030	50		 push	 eax
  00031	8d 45 f4	 lea	 eax, DWORD PTR __$EHRec$[ebp]
  00034	64 a3 00 00 00
	00		 mov	 DWORD PTR fs:0, eax
  0003a	89 4d ec	 mov	 DWORD PTR _this$[ebp], ecx
  0003d	b9 00 00 00 00	 mov	 ecx, OFFSET __CBE53D1F_Solution@cpp
  00042	e8 00 00 00 00	 call	 @__CheckForDebuggerJustMyCode@4

; 183  : 
; 184  : 	Calcul_temps * pt_temps = new Calcul_temps;

  00047	6a 10		 push	 16			; 00000010H
  00049	e8 00 00 00 00	 call	 ??2@YAPAXI@Z		; operator new
  0004e	59		 pop	 ecx
  0004f	89 85 08 ff ff
	ff		 mov	 DWORD PTR $T3[ebp], eax
  00055	83 65 fc 00	 and	 DWORD PTR __$EHRec$[ebp+8], 0
  00059	83 bd 08 ff ff
	ff 00		 cmp	 DWORD PTR $T3[ebp], 0
  00060	74 13		 je	 SHORT $LN3@Dur_Dur
  00062	8b 8d 08 ff ff
	ff		 mov	 ecx, DWORD PTR $T3[ebp]
  00068	e8 00 00 00 00	 call	 ??0Calcul_temps@@QAE@XZ	; Calcul_temps::Calcul_temps
  0006d	89 85 f4 fe ff
	ff		 mov	 DWORD PTR tv75[ebp], eax
  00073	eb 07		 jmp	 SHORT $LN4@Dur_Dur
$LN3@Dur_Dur:
  00075	83 a5 f4 fe ff
	ff 00		 and	 DWORD PTR tv75[ebp], 0
$LN4@Dur_Dur:
  0007c	8b 85 f4 fe ff
	ff		 mov	 eax, DWORD PTR tv75[ebp]
  00082	89 85 14 ff ff
	ff		 mov	 DWORD PTR $T4[ebp], eax
  00088	83 4d fc ff	 or	 DWORD PTR __$EHRec$[ebp+8], -1
  0008c	8b 85 14 ff ff
	ff		 mov	 eax, DWORD PTR $T4[ebp]
  00092	89 45 e0	 mov	 DWORD PTR _pt_temps$[ebp], eax

; 185  : 	pt_temps->Start_time();

  00095	8b 4d e0	 mov	 ecx, DWORD PTR _pt_temps$[ebp]
  00098	e8 00 00 00 00	 call	 ?Start_time@Calcul_temps@@QAEXXZ ; Calcul_temps::Start_time

; 186  : 
; 187  : 	Resolve();

  0009d	8b 4d ec	 mov	 ecx, DWORD PTR _this$[ebp]
  000a0	e8 00 00 00 00	 call	 ?Resolve@Solution@@AAEXXZ ; Solution::Resolve

; 188  : 
; 189  : 	pt_temps->Stop_time();

  000a5	8b 4d e0	 mov	 ecx, DWORD PTR _pt_temps$[ebp]
  000a8	e8 00 00 00 00	 call	 ?Stop_time@Calcul_temps@@QAEXXZ ; Calcul_temps::Stop_time

; 190  : 	Affiche_Synchro( pt_temps->Read_time());

  000ad	8b 4d e0	 mov	 ecx, DWORD PTR _pt_temps$[ebp]
  000b0	e8 00 00 00 00	 call	 ?Read_time@Calcul_temps@@QAE_KXZ ; Calcul_temps::Read_time
  000b5	52		 push	 edx
  000b6	50		 push	 eax
  000b7	8b 4d ec	 mov	 ecx, DWORD PTR _this$[ebp]
  000ba	e8 00 00 00 00	 call	 ?Affiche_Synchro@Solution@@AAEX_K@Z ; Solution::Affiche_Synchro

; 191  : 
; 192  : 	delete pt_temps;

  000bf	8b 45 e0	 mov	 eax, DWORD PTR _pt_temps$[ebp]
  000c2	89 85 fc fe ff
	ff		 mov	 DWORD PTR $T2[ebp], eax
  000c8	83 bd fc fe ff
	ff 00		 cmp	 DWORD PTR $T2[ebp], 0
  000cf	74 15		 je	 SHORT $LN5@Dur_Dur
  000d1	6a 01		 push	 1
  000d3	8b 8d fc fe ff
	ff		 mov	 ecx, DWORD PTR $T2[ebp]
  000d9	e8 00 00 00 00	 call	 ??_GCalcul_temps@@QAEPAXI@Z
  000de	89 85 f4 fe ff
	ff		 mov	 DWORD PTR tv86[ebp], eax
  000e4	eb 07		 jmp	 SHORT $LN1@Dur_Dur
$LN5@Dur_Dur:
  000e6	83 a5 f4 fe ff
	ff 00		 and	 DWORD PTR tv86[ebp], 0
$LN1@Dur_Dur:

; 193  : 
; 194  : }

  000ed	8b 4d f4	 mov	 ecx, DWORD PTR __$EHRec$[ebp]
  000f0	64 89 0d 00 00
	00 00		 mov	 DWORD PTR fs:0, ecx
  000f7	59		 pop	 ecx
  000f8	5f		 pop	 edi
  000f9	5e		 pop	 esi
  000fa	5b		 pop	 ebx
  000fb	81 c4 0c 01 00
	00		 add	 esp, 268		; 0000010cH
  00101	3b ec		 cmp	 ebp, esp
  00103	e8 00 00 00 00	 call	 __RTC_CheckEsp
  00108	c9		 leave
  00109	c3		 ret	 0
_TEXT	ENDS
;	COMDAT text$x
text$x	SEGMENT
__unwindfunclet$?Dur_Dur@Solution@@AAEXXZ$0:
  00000	6a 10		 push	 16			; 00000010H
  00002	ff b5 08 ff ff
	ff		 push	 DWORD PTR $T3[ebp]
  00008	e8 00 00 00 00	 call	 ??3@YAXPAXI@Z		; operator delete
  0000d	59		 pop	 ecx
  0000e	59		 pop	 ecx
  0000f	c3		 ret	 0
  00010	cc		 int	 3
  00011	cc		 int	 3
  00012	cc		 int	 3
  00013	cc		 int	 3
  00014	cc		 int	 3
__ehhandler$?Dur_Dur@Solution@@AAEXXZ:
  00015	90		 npad	 1
  00016	90		 npad	 1
  00017	8b 54 24 08	 mov	 edx, DWORD PTR [esp+8]
  0001b	8d 42 0c	 lea	 eax, DWORD PTR [edx+12]
  0001e	8b 8a f0 fe ff
	ff		 mov	 ecx, DWORD PTR [edx-272]
  00024	33 c8		 xor	 ecx, eax
  00026	e8 00 00 00 00	 call	 @__security_check_cookie@4
  0002b	b8 00 00 00 00	 mov	 eax, OFFSET __ehfuncinfo$?Dur_Dur@Solution@@AAEXXZ
  00030	e9 00 00 00 00	 jmp	 ___CxxFrameHandler3
text$x	ENDS
?Dur_Dur@Solution@@AAEXXZ ENDP				; Solution::Dur_Dur
; Function compile flags: /Odsp /RTCsu /ZI
; File J:\work\SUDOKU\SUDOKU\SUDOKU\Solution.cpp
;	COMDAT ?Sepcial_Folder@Solution@@AAE?AV?$CStringT@_WV?$StrTraitMFC@_WV?$ChTraitsCRT@_W@ATL@@@@@ATL@@H@Z
_TEXT	SEGMENT
$T2 = -960						; size = 4
_chaine$ = -564						; size = 4
_szPath$ = -552						; size = 520
_this$ = -24						; size = 4
__$ArrayPad$ = -16					; size = 4
__$EHRec$ = -12						; size = 12
___$ReturnUdt$ = 8					; size = 4
__directory_resquest$ = 12				; size = 4
?Sepcial_Folder@Solution@@AAE?AV?$CStringT@_WV?$StrTraitMFC@_WV?$ChTraitsCRT@_W@ATL@@@@@ATL@@H@Z PROC ; Solution::Sepcial_Folder, COMDAT
; _this$ = ecx

; 215  : {

  00000	55		 push	 ebp
  00001	8b ec		 mov	 ebp, esp
  00003	6a ff		 push	 -1
  00005	68 00 00 00 00	 push	 __ehhandler$?Sepcial_Folder@Solution@@AAE?AV?$CStringT@_WV?$StrTraitMFC@_WV?$ChTraitsCRT@_W@ATL@@@@@ATL@@H@Z
  0000a	64 a1 00 00 00
	00		 mov	 eax, DWORD PTR fs:0
  00010	50		 push	 eax
  00011	81 ec b8 03 00
	00		 sub	 esp, 952		; 000003b8H
  00017	53		 push	 ebx
  00018	56		 push	 esi
  00019	57		 push	 edi
  0001a	51		 push	 ecx
  0001b	8d bd bc fd ff
	ff		 lea	 edi, DWORD PTR [ebp-580]
  00021	b9 8e 00 00 00	 mov	 ecx, 142		; 0000008eH
  00026	b8 cc cc cc cc	 mov	 eax, -858993460		; ccccccccH
  0002b	f3 ab		 rep stosd
  0002d	59		 pop	 ecx
  0002e	a1 00 00 00 00	 mov	 eax, DWORD PTR ___security_cookie
  00033	33 c5		 xor	 eax, ebp
  00035	89 45 f0	 mov	 DWORD PTR __$ArrayPad$[ebp], eax
  00038	50		 push	 eax
  00039	8d 45 f4	 lea	 eax, DWORD PTR __$EHRec$[ebp]
  0003c	64 a3 00 00 00
	00		 mov	 DWORD PTR fs:0, eax
  00042	89 4d e8	 mov	 DWORD PTR _this$[ebp], ecx
  00045	83 a5 40 fc ff
	ff 00		 and	 DWORD PTR $T2[ebp], 0
  0004c	b9 00 00 00 00	 mov	 ecx, OFFSET __CBE53D1F_Solution@cpp
  00051	e8 00 00 00 00	 call	 @__CheckForDebuggerJustMyCode@4

; 216  : 	TCHAR szPath[MAX_PATH];
; 217  : 
; 218  : 	SHGetFolderPath(NULL, _directory_resquest, NULL, 0, szPath);

  00056	8b f4		 mov	 esi, esp
  00058	8d 85 d8 fd ff
	ff		 lea	 eax, DWORD PTR _szPath$[ebp]
  0005e	50		 push	 eax
  0005f	6a 00		 push	 0
  00061	6a 00		 push	 0
  00063	ff 75 0c	 push	 DWORD PTR __directory_resquest$[ebp]
  00066	6a 00		 push	 0
  00068	ff 15 00 00 00
	00		 call	 DWORD PTR __imp__SHGetFolderPathW@20
  0006e	3b f4		 cmp	 esi, esp
  00070	e8 00 00 00 00	 call	 __RTC_CheckEsp

; 219  : 
; 220  : 	CString chaine(szPath);

  00075	6a 04		 push	 4
  00077	8d 8d cc fd ff
	ff		 lea	 ecx, DWORD PTR _chaine$[ebp]
  0007d	e8 00 00 00 00	 call	 ?__autoclassinit2@?$CStringT@_WV?$StrTraitMFC@_WV?$ChTraitsCRT@_W@ATL@@@@@ATL@@QAEXI@Z
  00082	8d 85 d8 fd ff
	ff		 lea	 eax, DWORD PTR _szPath$[ebp]
  00088	50		 push	 eax
  00089	8d 8d cc fd ff
	ff		 lea	 ecx, DWORD PTR _chaine$[ebp]
  0008f	e8 00 00 00 00	 call	 ??0?$CStringT@_WV?$StrTraitMFC@_WV?$ChTraitsCRT@_W@ATL@@@@@ATL@@QAE@PB_W@Z ; ATL::CStringT<wchar_t,StrTraitMFC<wchar_t,ATL::ChTraitsCRT<wchar_t> > >::CStringT<wchar_t,StrTraitMFC<wchar_t,ATL::ChTraitsCRT<wchar_t> > >
  00094	83 65 fc 00	 and	 DWORD PTR __$EHRec$[ebp+8], 0

; 221  : 	return (chaine);

  00098	8d 85 cc fd ff
	ff		 lea	 eax, DWORD PTR _chaine$[ebp]
  0009e	50		 push	 eax
  0009f	8b 4d 08	 mov	 ecx, DWORD PTR ___$ReturnUdt$[ebp]
  000a2	e8 00 00 00 00	 call	 ??0?$CStringT@_WV?$StrTraitMFC@_WV?$ChTraitsCRT@_W@ATL@@@@@ATL@@QAE@ABV01@@Z ; ATL::CStringT<wchar_t,StrTraitMFC<wchar_t,ATL::ChTraitsCRT<wchar_t> > >::CStringT<wchar_t,StrTraitMFC<wchar_t,ATL::ChTraitsCRT<wchar_t> > >
  000a7	8b 85 40 fc ff
	ff		 mov	 eax, DWORD PTR $T2[ebp]
  000ad	83 c8 01	 or	 eax, 1
  000b0	89 85 40 fc ff
	ff		 mov	 DWORD PTR $T2[ebp], eax
  000b6	83 4d fc ff	 or	 DWORD PTR __$EHRec$[ebp+8], -1
  000ba	8d 8d cc fd ff
	ff		 lea	 ecx, DWORD PTR _chaine$[ebp]
  000c0	e8 00 00 00 00	 call	 ??1?$CStringT@_WV?$StrTraitMFC@_WV?$ChTraitsCRT@_W@ATL@@@@@ATL@@QAE@XZ ; ATL::CStringT<wchar_t,StrTraitMFC<wchar_t,ATL::ChTraitsCRT<wchar_t> > >::~CStringT<wchar_t,StrTraitMFC<wchar_t,ATL::ChTraitsCRT<wchar_t> > >
  000c5	8b 45 08	 mov	 eax, DWORD PTR ___$ReturnUdt$[ebp]

; 222  : 
; 223  : }

  000c8	52		 push	 edx
  000c9	8b cd		 mov	 ecx, ebp
  000cb	50		 push	 eax
  000cc	8d 15 00 00 00
	00		 lea	 edx, DWORD PTR $LN10@Sepcial_Fo
  000d2	e8 00 00 00 00	 call	 @_RTC_CheckStackVars@8
  000d7	58		 pop	 eax
  000d8	5a		 pop	 edx
  000d9	8b 4d f4	 mov	 ecx, DWORD PTR __$EHRec$[ebp]
  000dc	64 89 0d 00 00
	00 00		 mov	 DWORD PTR fs:0, ecx
  000e3	59		 pop	 ecx
  000e4	5f		 pop	 edi
  000e5	5e		 pop	 esi
  000e6	5b		 pop	 ebx
  000e7	8b 4d f0	 mov	 ecx, DWORD PTR __$ArrayPad$[ebp]
  000ea	33 cd		 xor	 ecx, ebp
  000ec	e8 00 00 00 00	 call	 @__security_check_cookie@4
  000f1	81 c4 c4 03 00
	00		 add	 esp, 964		; 000003c4H
  000f7	3b ec		 cmp	 ebp, esp
  000f9	e8 00 00 00 00	 call	 __RTC_CheckEsp
  000fe	c9		 leave
  000ff	c2 08 00	 ret	 8
  00102	66 90		 npad	 2
$LN10@Sepcial_Fo:
  00104	02 00 00 00	 DD	 2
  00108	00 00 00 00	 DD	 $LN9@Sepcial_Fo
$LN9@Sepcial_Fo:
  0010c	d8 fd ff ff	 DD	 -552			; fffffdd8H
  00110	08 02 00 00	 DD	 520			; 00000208H
  00114	00 00 00 00	 DD	 $LN6@Sepcial_Fo
  00118	cc fd ff ff	 DD	 -564			; fffffdccH
  0011c	04 00 00 00	 DD	 4
  00120	00 00 00 00	 DD	 $LN7@Sepcial_Fo
$LN7@Sepcial_Fo:
  00124	63		 DB	 99			; 00000063H
  00125	68		 DB	 104			; 00000068H
  00126	61		 DB	 97			; 00000061H
  00127	69		 DB	 105			; 00000069H
  00128	6e		 DB	 110			; 0000006eH
  00129	65		 DB	 101			; 00000065H
  0012a	00		 DB	 0
$LN6@Sepcial_Fo:
  0012b	73		 DB	 115			; 00000073H
  0012c	7a		 DB	 122			; 0000007aH
  0012d	50		 DB	 80			; 00000050H
  0012e	61		 DB	 97			; 00000061H
  0012f	74		 DB	 116			; 00000074H
  00130	68		 DB	 104			; 00000068H
  00131	00		 DB	 0
_TEXT	ENDS
;	COMDAT text$x
text$x	SEGMENT
__unwindfunclet$?Sepcial_Folder@Solution@@AAE?AV?$CStringT@_WV?$StrTraitMFC@_WV?$ChTraitsCRT@_W@ATL@@@@@ATL@@H@Z$0:
  00000	8d 8d cc fd ff
	ff		 lea	 ecx, DWORD PTR _chaine$[ebp]
  00006	e9 00 00 00 00	 jmp	 ??1?$CStringT@_WV?$StrTraitMFC@_WV?$ChTraitsCRT@_W@ATL@@@@@ATL@@QAE@XZ ; ATL::CStringT<wchar_t,StrTraitMFC<wchar_t,ATL::ChTraitsCRT<wchar_t> > >::~CStringT<wchar_t,StrTraitMFC<wchar_t,ATL::ChTraitsCRT<wchar_t> > >
  0000b	cc		 int	 3
  0000c	cc		 int	 3
  0000d	cc		 int	 3
  0000e	cc		 int	 3
  0000f	cc		 int	 3
__ehhandler$?Sepcial_Folder@Solution@@AAE?AV?$CStringT@_WV?$StrTraitMFC@_WV?$ChTraitsCRT@_W@ATL@@@@@ATL@@H@Z:
  00010	90		 npad	 1
  00011	90		 npad	 1
  00012	8b 54 24 08	 mov	 edx, DWORD PTR [esp+8]
  00016	8d 42 0c	 lea	 eax, DWORD PTR [edx+12]
  00019	8b 8a 38 fc ff
	ff		 mov	 ecx, DWORD PTR [edx-968]
  0001f	33 c8		 xor	 ecx, eax
  00021	e8 00 00 00 00	 call	 @__security_check_cookie@4
  00026	8b 4a fc	 mov	 ecx, DWORD PTR [edx-4]
  00029	33 c8		 xor	 ecx, eax
  0002b	e8 00 00 00 00	 call	 @__security_check_cookie@4
  00030	b8 00 00 00 00	 mov	 eax, OFFSET __ehfuncinfo$?Sepcial_Folder@Solution@@AAE?AV?$CStringT@_WV?$StrTraitMFC@_WV?$ChTraitsCRT@_W@ATL@@@@@ATL@@H@Z
  00035	e9 00 00 00 00	 jmp	 ___CxxFrameHandler3
text$x	ENDS
?Sepcial_Folder@Solution@@AAE?AV?$CStringT@_WV?$StrTraitMFC@_WV?$ChTraitsCRT@_W@ATL@@@@@ATL@@H@Z ENDP ; Solution::Sepcial_Folder
; Function compile flags: /Odsp /RTCsu /ZI
; File J:\work\SUDOKU\SUDOKU\SUDOKU\Solution.cpp
;	COMDAT ?Folder@Solution@@AAE?AV?$CStringT@_WV?$StrTraitMFC@_WV?$ChTraitsCRT@_W@ATL@@@@@ATL@@XZ
_TEXT	SEGMENT
tv90 = -276						; size = 4
tv67 = -272						; size = 4
$T2 = -264						; size = 4
$T3 = -252						; size = 4
_Output_diectory$ = -48					; size = 4
_Back_slash$ = -36					; size = 4
_this$ = -24						; size = 4
__$ArrayPad$ = -16					; size = 4
__$EHRec$ = -12						; size = 12
___$ReturnUdt$ = 8					; size = 4
?Folder@Solution@@AAE?AV?$CStringT@_WV?$StrTraitMFC@_WV?$ChTraitsCRT@_W@ATL@@@@@ATL@@XZ PROC ; Solution::Folder, COMDAT
; _this$ = ecx

; 226  : {

  00000	55		 push	 ebp
  00001	8b ec		 mov	 ebp, esp
  00003	6a ff		 push	 -1
  00005	68 00 00 00 00	 push	 __ehhandler$?Folder@Solution@@AAE?AV?$CStringT@_WV?$StrTraitMFC@_WV?$ChTraitsCRT@_W@ATL@@@@@ATL@@XZ
  0000a	64 a1 00 00 00
	00		 mov	 eax, DWORD PTR fs:0
  00010	50		 push	 eax
  00011	81 ec 08 01 00
	00		 sub	 esp, 264		; 00000108H
  00017	53		 push	 ebx
  00018	56		 push	 esi
  00019	57		 push	 edi
  0001a	51		 push	 ecx
  0001b	8d 7d ac	 lea	 edi, DWORD PTR [ebp-84]
  0001e	6a 12		 push	 18			; 00000012H
  00020	59		 pop	 ecx
  00021	b8 cc cc cc cc	 mov	 eax, -858993460		; ccccccccH
  00026	f3 ab		 rep stosd
  00028	59		 pop	 ecx
  00029	a1 00 00 00 00	 mov	 eax, DWORD PTR ___security_cookie
  0002e	33 c5		 xor	 eax, ebp
  00030	89 45 f0	 mov	 DWORD PTR __$ArrayPad$[ebp], eax
  00033	50		 push	 eax
  00034	8d 45 f4	 lea	 eax, DWORD PTR __$EHRec$[ebp]
  00037	64 a3 00 00 00
	00		 mov	 DWORD PTR fs:0, eax
  0003d	89 4d e8	 mov	 DWORD PTR _this$[ebp], ecx
  00040	83 a5 f8 fe ff
	ff 00		 and	 DWORD PTR $T2[ebp], 0
  00047	b9 00 00 00 00	 mov	 ecx, OFFSET __CBE53D1F_Solution@cpp
  0004c	e8 00 00 00 00	 call	 @__CheckForDebuggerJustMyCode@4

; 227  : 	CString Back_slash = _T("\\");

  00051	6a 04		 push	 4
  00053	8d 4d dc	 lea	 ecx, DWORD PTR _Back_slash$[ebp]
  00056	e8 00 00 00 00	 call	 ?__autoclassinit2@?$CStringT@_WV?$StrTraitMFC@_WV?$ChTraitsCRT@_W@ATL@@@@@ATL@@QAEXI@Z
  0005b	68 00 00 00 00	 push	 OFFSET ??_C@_13FPGAJAPJ@?$AA?2@
  00060	8d 4d dc	 lea	 ecx, DWORD PTR _Back_slash$[ebp]
  00063	e8 00 00 00 00	 call	 ??0?$CStringT@_WV?$StrTraitMFC@_WV?$ChTraitsCRT@_W@ATL@@@@@ATL@@QAE@PB_W@Z ; ATL::CStringT<wchar_t,StrTraitMFC<wchar_t,ATL::ChTraitsCRT<wchar_t> > >::CStringT<wchar_t,StrTraitMFC<wchar_t,ATL::ChTraitsCRT<wchar_t> > >
  00068	83 65 fc 00	 and	 DWORD PTR __$EHRec$[ebp+8], 0

; 228  : 	CString Output_diectory = Sepcial_Folder(CSIDL_PERSONAL) + Back_slash;

  0006c	6a 04		 push	 4
  0006e	8d 4d d0	 lea	 ecx, DWORD PTR _Output_diectory$[ebp]
  00071	e8 00 00 00 00	 call	 ?__autoclassinit2@?$CStringT@_WV?$StrTraitMFC@_WV?$ChTraitsCRT@_W@ATL@@@@@ATL@@QAEXI@Z
  00076	8d 45 dc	 lea	 eax, DWORD PTR _Back_slash$[ebp]
  00079	50		 push	 eax
  0007a	6a 05		 push	 5
  0007c	8d 85 04 ff ff
	ff		 lea	 eax, DWORD PTR $T3[ebp]
  00082	50		 push	 eax
  00083	8b 4d e8	 mov	 ecx, DWORD PTR _this$[ebp]
  00086	e8 00 00 00 00	 call	 ?Sepcial_Folder@Solution@@AAE?AV?$CStringT@_WV?$StrTraitMFC@_WV?$ChTraitsCRT@_W@ATL@@@@@ATL@@H@Z ; Solution::Sepcial_Folder
  0008b	89 85 f0 fe ff
	ff		 mov	 DWORD PTR tv67[ebp], eax
  00091	8b 85 f0 fe ff
	ff		 mov	 eax, DWORD PTR tv67[ebp]
  00097	89 85 ec fe ff
	ff		 mov	 DWORD PTR tv90[ebp], eax
  0009d	c6 45 fc 01	 mov	 BYTE PTR __$EHRec$[ebp+8], 1
  000a1	ff b5 ec fe ff
	ff		 push	 DWORD PTR tv90[ebp]
  000a7	8d 45 d0	 lea	 eax, DWORD PTR _Output_diectory$[ebp]
  000aa	50		 push	 eax
  000ab	e8 00 00 00 00	 call	 ??HATL@@YA?AV?$CStringT@_WV?$StrTraitMFC@_WV?$ChTraitsCRT@_W@ATL@@@@@0@ABV10@0@Z ; ATL::operator+
  000b0	83 c4 0c	 add	 esp, 12			; 0000000cH
  000b3	c6 45 fc 03	 mov	 BYTE PTR __$EHRec$[ebp+8], 3
  000b7	8d 8d 04 ff ff
	ff		 lea	 ecx, DWORD PTR $T3[ebp]
  000bd	e8 00 00 00 00	 call	 ??1?$CStringT@_WV?$StrTraitMFC@_WV?$ChTraitsCRT@_W@ATL@@@@@ATL@@QAE@XZ ; ATL::CStringT<wchar_t,StrTraitMFC<wchar_t,ATL::ChTraitsCRT<wchar_t> > >::~CStringT<wchar_t,StrTraitMFC<wchar_t,ATL::ChTraitsCRT<wchar_t> > >

; 229  : 	return (Output_diectory);

  000c2	8d 45 d0	 lea	 eax, DWORD PTR _Output_diectory$[ebp]
  000c5	50		 push	 eax
  000c6	8b 4d 08	 mov	 ecx, DWORD PTR ___$ReturnUdt$[ebp]
  000c9	e8 00 00 00 00	 call	 ??0?$CStringT@_WV?$StrTraitMFC@_WV?$ChTraitsCRT@_W@ATL@@@@@ATL@@QAE@ABV01@@Z ; ATL::CStringT<wchar_t,StrTraitMFC<wchar_t,ATL::ChTraitsCRT<wchar_t> > >::CStringT<wchar_t,StrTraitMFC<wchar_t,ATL::ChTraitsCRT<wchar_t> > >
  000ce	8b 85 f8 fe ff
	ff		 mov	 eax, DWORD PTR $T2[ebp]
  000d4	83 c8 01	 or	 eax, 1
  000d7	89 85 f8 fe ff
	ff		 mov	 DWORD PTR $T2[ebp], eax
  000dd	c6 45 fc 00	 mov	 BYTE PTR __$EHRec$[ebp+8], 0
  000e1	8d 4d d0	 lea	 ecx, DWORD PTR _Output_diectory$[ebp]
  000e4	e8 00 00 00 00	 call	 ??1?$CStringT@_WV?$StrTraitMFC@_WV?$ChTraitsCRT@_W@ATL@@@@@ATL@@QAE@XZ ; ATL::CStringT<wchar_t,StrTraitMFC<wchar_t,ATL::ChTraitsCRT<wchar_t> > >::~CStringT<wchar_t,StrTraitMFC<wchar_t,ATL::ChTraitsCRT<wchar_t> > >
  000e9	83 4d fc ff	 or	 DWORD PTR __$EHRec$[ebp+8], -1
  000ed	8d 4d dc	 lea	 ecx, DWORD PTR _Back_slash$[ebp]
  000f0	e8 00 00 00 00	 call	 ??1?$CStringT@_WV?$StrTraitMFC@_WV?$ChTraitsCRT@_W@ATL@@@@@ATL@@QAE@XZ ; ATL::CStringT<wchar_t,StrTraitMFC<wchar_t,ATL::ChTraitsCRT<wchar_t> > >::~CStringT<wchar_t,StrTraitMFC<wchar_t,ATL::ChTraitsCRT<wchar_t> > >
  000f5	8b 45 08	 mov	 eax, DWORD PTR ___$ReturnUdt$[ebp]

; 230  : }

  000f8	52		 push	 edx
  000f9	8b cd		 mov	 ecx, ebp
  000fb	50		 push	 eax
  000fc	8d 15 00 00 00
	00		 lea	 edx, DWORD PTR $LN12@Folder
  00102	e8 00 00 00 00	 call	 @_RTC_CheckStackVars@8
  00107	58		 pop	 eax
  00108	5a		 pop	 edx
  00109	8b 4d f4	 mov	 ecx, DWORD PTR __$EHRec$[ebp]
  0010c	64 89 0d 00 00
	00 00		 mov	 DWORD PTR fs:0, ecx
  00113	59		 pop	 ecx
  00114	5f		 pop	 edi
  00115	5e		 pop	 esi
  00116	5b		 pop	 ebx
  00117	8b 4d f0	 mov	 ecx, DWORD PTR __$ArrayPad$[ebp]
  0011a	33 cd		 xor	 ecx, ebp
  0011c	e8 00 00 00 00	 call	 @__security_check_cookie@4
  00121	81 c4 14 01 00
	00		 add	 esp, 276		; 00000114H
  00127	3b ec		 cmp	 ebp, esp
  00129	e8 00 00 00 00	 call	 __RTC_CheckEsp
  0012e	c9		 leave
  0012f	c2 04 00	 ret	 4
  00132	66 90		 npad	 2
$LN12@Folder:
  00134	02 00 00 00	 DD	 2
  00138	00 00 00 00	 DD	 $LN11@Folder
$LN11@Folder:
  0013c	dc ff ff ff	 DD	 -36			; ffffffdcH
  00140	04 00 00 00	 DD	 4
  00144	00 00 00 00	 DD	 $LN8@Folder
  00148	d0 ff ff ff	 DD	 -48			; ffffffd0H
  0014c	04 00 00 00	 DD	 4
  00150	00 00 00 00	 DD	 $LN9@Folder
$LN9@Folder:
  00154	4f		 DB	 79			; 0000004fH
  00155	75		 DB	 117			; 00000075H
  00156	74		 DB	 116			; 00000074H
  00157	70		 DB	 112			; 00000070H
  00158	75		 DB	 117			; 00000075H
  00159	74		 DB	 116			; 00000074H
  0015a	5f		 DB	 95			; 0000005fH
  0015b	64		 DB	 100			; 00000064H
  0015c	69		 DB	 105			; 00000069H
  0015d	65		 DB	 101			; 00000065H
  0015e	63		 DB	 99			; 00000063H
  0015f	74		 DB	 116			; 00000074H
  00160	6f		 DB	 111			; 0000006fH
  00161	72		 DB	 114			; 00000072H
  00162	79		 DB	 121			; 00000079H
  00163	00		 DB	 0
$LN8@Folder:
  00164	42		 DB	 66			; 00000042H
  00165	61		 DB	 97			; 00000061H
  00166	63		 DB	 99			; 00000063H
  00167	6b		 DB	 107			; 0000006bH
  00168	5f		 DB	 95			; 0000005fH
  00169	73		 DB	 115			; 00000073H
  0016a	6c		 DB	 108			; 0000006cH
  0016b	61		 DB	 97			; 00000061H
  0016c	73		 DB	 115			; 00000073H
  0016d	68		 DB	 104			; 00000068H
  0016e	00		 DB	 0
_TEXT	ENDS
;	COMDAT text$x
text$x	SEGMENT
__unwindfunclet$?Folder@Solution@@AAE?AV?$CStringT@_WV?$StrTraitMFC@_WV?$ChTraitsCRT@_W@ATL@@@@@ATL@@XZ$0:
  00000	8d 4d dc	 lea	 ecx, DWORD PTR _Back_slash$[ebp]
  00003	e9 00 00 00 00	 jmp	 ??1?$CStringT@_WV?$StrTraitMFC@_WV?$ChTraitsCRT@_W@ATL@@@@@ATL@@QAE@XZ ; ATL::CStringT<wchar_t,StrTraitMFC<wchar_t,ATL::ChTraitsCRT<wchar_t> > >::~CStringT<wchar_t,StrTraitMFC<wchar_t,ATL::ChTraitsCRT<wchar_t> > >
__unwindfunclet$?Folder@Solution@@AAE?AV?$CStringT@_WV?$StrTraitMFC@_WV?$ChTraitsCRT@_W@ATL@@@@@ATL@@XZ$1:
  00008	8d 8d 04 ff ff
	ff		 lea	 ecx, DWORD PTR $T3[ebp]
  0000e	e9 00 00 00 00	 jmp	 ??1?$CStringT@_WV?$StrTraitMFC@_WV?$ChTraitsCRT@_W@ATL@@@@@ATL@@QAE@XZ ; ATL::CStringT<wchar_t,StrTraitMFC<wchar_t,ATL::ChTraitsCRT<wchar_t> > >::~CStringT<wchar_t,StrTraitMFC<wchar_t,ATL::ChTraitsCRT<wchar_t> > >
__unwindfunclet$?Folder@Solution@@AAE?AV?$CStringT@_WV?$StrTraitMFC@_WV?$ChTraitsCRT@_W@ATL@@@@@ATL@@XZ$2:
  00013	8d 4d d0	 lea	 ecx, DWORD PTR _Output_diectory$[ebp]
  00016	e9 00 00 00 00	 jmp	 ??1?$CStringT@_WV?$StrTraitMFC@_WV?$ChTraitsCRT@_W@ATL@@@@@ATL@@QAE@XZ ; ATL::CStringT<wchar_t,StrTraitMFC<wchar_t,ATL::ChTraitsCRT<wchar_t> > >::~CStringT<wchar_t,StrTraitMFC<wchar_t,ATL::ChTraitsCRT<wchar_t> > >
  0001b	cc		 int	 3
  0001c	cc		 int	 3
  0001d	cc		 int	 3
  0001e	cc		 int	 3
  0001f	cc		 int	 3
__ehhandler$?Folder@Solution@@AAE?AV?$CStringT@_WV?$StrTraitMFC@_WV?$ChTraitsCRT@_W@ATL@@@@@ATL@@XZ:
  00020	90		 npad	 1
  00021	90		 npad	 1
  00022	8b 54 24 08	 mov	 edx, DWORD PTR [esp+8]
  00026	8d 42 0c	 lea	 eax, DWORD PTR [edx+12]
  00029	8b 8a e8 fe ff
	ff		 mov	 ecx, DWORD PTR [edx-280]
  0002f	33 c8		 xor	 ecx, eax
  00031	e8 00 00 00 00	 call	 @__security_check_cookie@4
  00036	8b 4a fc	 mov	 ecx, DWORD PTR [edx-4]
  00039	33 c8		 xor	 ecx, eax
  0003b	e8 00 00 00 00	 call	 @__security_check_cookie@4
  00040	b8 00 00 00 00	 mov	 eax, OFFSET __ehfuncinfo$?Folder@Solution@@AAE?AV?$CStringT@_WV?$StrTraitMFC@_WV?$ChTraitsCRT@_W@ATL@@@@@ATL@@XZ
  00045	e9 00 00 00 00	 jmp	 ___CxxFrameHandler3
text$x	ENDS
?Folder@Solution@@AAE?AV?$CStringT@_WV?$StrTraitMFC@_WV?$ChTraitsCRT@_W@ATL@@@@@ATL@@XZ ENDP ; Solution::Folder
; Function compile flags: /Odsp /RTCsu /ZI
; File J:\work\SUDOKU\SUDOKU\SUDOKU\Solution.cpp
;	COMDAT ?WriteFile@Solution@@AAEHPAU_iobuf@@@Z
_TEXT	SEGMENT
_col$1 = -32						; size = 4
_row$2 = -20						; size = 4
_this$ = -8						; size = 4
__File$ = 8						; size = 4
?WriteFile@Solution@@AAEHPAU_iobuf@@@Z PROC		; Solution::WriteFile, COMDAT
; _this$ = ecx

; 363  : {

  00000	55		 push	 ebp
  00001	8b ec		 mov	 ebp, esp
  00003	81 ec e4 00 00
	00		 sub	 esp, 228		; 000000e4H
  00009	53		 push	 ebx
  0000a	56		 push	 esi
  0000b	57		 push	 edi
  0000c	51		 push	 ecx
  0000d	8d 7d dc	 lea	 edi, DWORD PTR [ebp-36]
  00010	6a 09		 push	 9
  00012	59		 pop	 ecx
  00013	b8 cc cc cc cc	 mov	 eax, -858993460		; ccccccccH
  00018	f3 ab		 rep stosd
  0001a	59		 pop	 ecx
  0001b	89 4d f8	 mov	 DWORD PTR _this$[ebp], ecx
  0001e	b9 00 00 00 00	 mov	 ecx, OFFSET __CBE53D1F_Solution@cpp
  00023	e8 00 00 00 00	 call	 @__CheckForDebuggerJustMyCode@4

; 364  : 
; 365  : 	for (int row = 0; row < MAX; row++)

  00028	83 65 ec 00	 and	 DWORD PTR _row$2[ebp], 0
  0002c	eb 07		 jmp	 SHORT $LN4@WriteFile
$LN2@WriteFile:
  0002e	8b 45 ec	 mov	 eax, DWORD PTR _row$2[ebp]
  00031	40		 inc	 eax
  00032	89 45 ec	 mov	 DWORD PTR _row$2[ebp], eax
$LN4@WriteFile:
  00035	83 7d ec 09	 cmp	 DWORD PTR _row$2[ebp], 9
  00039	7d 44		 jge	 SHORT $LN3@WriteFile

; 366  : 	{
; 367  : 		for (int col = 0; col < MAX; col++)

  0003b	83 65 e0 00	 and	 DWORD PTR _col$1[ebp], 0
  0003f	eb 07		 jmp	 SHORT $LN7@WriteFile
$LN5@WriteFile:
  00041	8b 45 e0	 mov	 eax, DWORD PTR _col$1[ebp]
  00044	40		 inc	 eax
  00045	89 45 e0	 mov	 DWORD PTR _col$1[ebp], eax
$LN7@WriteFile:
  00048	83 7d e0 09	 cmp	 DWORD PTR _col$1[ebp], 9
  0004c	7d 20		 jge	 SHORT $LN6@WriteFile

; 368  : 		{
; 369  : 
; 370  : 			fprintf(_File, "%d ", grid[row][col]);

  0004e	6b 45 ec 24	 imul	 eax, DWORD PTR _row$2[ebp], 36
  00052	8b 4d e0	 mov	 ecx, DWORD PTR _col$1[ebp]
  00055	ff b4 88 00 00
	00 00		 push	 DWORD PTR ?grid@@3PAY08HA[eax+ecx*4]
  0005c	68 00 00 00 00	 push	 OFFSET ??_C@_03JDANDILB@?$CFd?5@
  00061	ff 75 08	 push	 DWORD PTR __File$[ebp]
  00064	e8 00 00 00 00	 call	 _fprintf
  00069	83 c4 0c	 add	 esp, 12			; 0000000cH

; 371  : 
; 372  : 		}

  0006c	eb d3		 jmp	 SHORT $LN5@WriteFile
$LN6@WriteFile:

; 373  : 
; 374  : 		fprintf(_File, "\n");

  0006e	68 00 00 00 00	 push	 OFFSET ??_C@_01EEMJAFIK@?6@
  00073	ff 75 08	 push	 DWORD PTR __File$[ebp]
  00076	e8 00 00 00 00	 call	 _fprintf
  0007b	59		 pop	 ecx
  0007c	59		 pop	 ecx

; 375  : 	}

  0007d	eb af		 jmp	 SHORT $LN2@WriteFile
$LN3@WriteFile:

; 376  : 
; 377  : 	fprintf(_File, "\n");

  0007f	68 00 00 00 00	 push	 OFFSET ??_C@_01EEMJAFIK@?6@
  00084	ff 75 08	 push	 DWORD PTR __File$[ebp]
  00087	e8 00 00 00 00	 call	 _fprintf
  0008c	59		 pop	 ecx
  0008d	59		 pop	 ecx

; 378  : 	return (TRUE);

  0008e	33 c0		 xor	 eax, eax
  00090	40		 inc	 eax

; 379  : }

  00091	5f		 pop	 edi
  00092	5e		 pop	 esi
  00093	5b		 pop	 ebx
  00094	81 c4 e4 00 00
	00		 add	 esp, 228		; 000000e4H
  0009a	3b ec		 cmp	 ebp, esp
  0009c	e8 00 00 00 00	 call	 __RTC_CheckEsp
  000a1	c9		 leave
  000a2	c2 04 00	 ret	 4
?WriteFile@Solution@@AAEHPAU_iobuf@@@Z ENDP		; Solution::WriteFile
_TEXT	ENDS
; Function compile flags: /Odsp /RTCsu /ZI
; File J:\work\SUDOKU\SUDOKU\SUDOKU\Solution.cpp
;	COMDAT ?Open_File@Solution@@AAEHPA_W@Z
_TEXT	SEGMENT
$T2 = -1924						; size = 4
$T3 = -1912						; size = 4
_result$ = -1324					; size = 4
_FileOpenDialog$ = -1312				; size = 1256
_local_File$ = -48					; size = 4
_OpenFilter$ = -36					; size = 4
_this$ = -24						; size = 4
__$ArrayPad$ = -16					; size = 4
__$EHRec$ = -12						; size = 12
_File$ = 8						; size = 4
?Open_File@Solution@@AAEHPA_W@Z PROC			; Solution::Open_File, COMDAT
; _this$ = ecx

; 43   : {

  00000	55		 push	 ebp
  00001	8b ec		 mov	 ebp, esp
  00003	6a ff		 push	 -1
  00005	68 00 00 00 00	 push	 __ehhandler$?Open_File@Solution@@AAEHPA_W@Z
  0000a	64 a1 00 00 00
	00		 mov	 eax, DWORD PTR fs:0
  00010	50		 push	 eax
  00011	81 ec 7c 07 00
	00		 sub	 esp, 1916		; 0000077cH
  00017	53		 push	 ebx
  00018	56		 push	 esi
  00019	57		 push	 edi
  0001a	51		 push	 ecx
  0001b	8d bd b8 fa ff
	ff		 lea	 edi, DWORD PTR [ebp-1352]
  00021	b9 4f 01 00 00	 mov	 ecx, 335		; 0000014fH
  00026	b8 cc cc cc cc	 mov	 eax, -858993460		; ccccccccH
  0002b	f3 ab		 rep stosd
  0002d	59		 pop	 ecx
  0002e	a1 00 00 00 00	 mov	 eax, DWORD PTR ___security_cookie
  00033	33 c5		 xor	 eax, ebp
  00035	89 45 f0	 mov	 DWORD PTR __$ArrayPad$[ebp], eax
  00038	50		 push	 eax
  00039	8d 45 f4	 lea	 eax, DWORD PTR __$EHRec$[ebp]
  0003c	64 a3 00 00 00
	00		 mov	 DWORD PTR fs:0, eax
  00042	89 4d e8	 mov	 DWORD PTR _this$[ebp], ecx
  00045	b9 00 00 00 00	 mov	 ecx, OFFSET __CBE53D1F_Solution@cpp
  0004a	e8 00 00 00 00	 call	 @__CheckForDebuggerJustMyCode@4

; 44   : 	CString OpenFilter;

  0004f	6a 04		 push	 4
  00051	8d 4d dc	 lea	 ecx, DWORD PTR _OpenFilter$[ebp]
  00054	e8 00 00 00 00	 call	 ?__autoclassinit2@?$CStringT@_WV?$StrTraitMFC@_WV?$ChTraitsCRT@_W@ATL@@@@@ATL@@QAEXI@Z
  00059	8d 4d dc	 lea	 ecx, DWORD PTR _OpenFilter$[ebp]
  0005c	e8 00 00 00 00	 call	 ??0?$CStringT@_WV?$StrTraitMFC@_WV?$ChTraitsCRT@_W@ATL@@@@@ATL@@QAE@XZ ; ATL::CStringT<wchar_t,StrTraitMFC<wchar_t,ATL::ChTraitsCRT<wchar_t> > >::CStringT<wchar_t,StrTraitMFC<wchar_t,ATL::ChTraitsCRT<wchar_t> > >
  00061	83 65 fc 00	 and	 DWORD PTR __$EHRec$[ebp+8], 0

; 45   : 	CString local_File(File);

  00065	6a 04		 push	 4
  00067	8d 4d d0	 lea	 ecx, DWORD PTR _local_File$[ebp]
  0006a	e8 00 00 00 00	 call	 ?__autoclassinit2@?$CStringT@_WV?$StrTraitMFC@_WV?$ChTraitsCRT@_W@ATL@@@@@ATL@@QAEXI@Z
  0006f	ff 75 08	 push	 DWORD PTR _File$[ebp]
  00072	8d 4d d0	 lea	 ecx, DWORD PTR _local_File$[ebp]
  00075	e8 00 00 00 00	 call	 ??0?$CStringT@_WV?$StrTraitMFC@_WV?$ChTraitsCRT@_W@ATL@@@@@ATL@@QAE@PB_W@Z ; ATL::CStringT<wchar_t,StrTraitMFC<wchar_t,ATL::ChTraitsCRT<wchar_t> > >::CStringT<wchar_t,StrTraitMFC<wchar_t,ATL::ChTraitsCRT<wchar_t> > >
  0007a	c6 45 fc 01	 mov	 BYTE PTR __$EHRec$[ebp+8], 1

; 46   : 
; 47   : 	OpenFilter = "Text File (*.txt)|*.txt|";

  0007e	68 00 00 00 00	 push	 OFFSET ??_C@_0BJ@LICJPAK@Text?5File?5?$CI?$CK?4txt?$CJ?$HM?$CK?4txt?$HM@
  00083	8d 4d dc	 lea	 ecx, DWORD PTR _OpenFilter$[ebp]
  00086	e8 00 00 00 00	 call	 ??4?$CStringT@_WV?$StrTraitMFC@_WV?$ChTraitsCRT@_W@ATL@@@@@ATL@@QAEAAV01@PBD@Z ; ATL::CStringT<wchar_t,StrTraitMFC<wchar_t,ATL::ChTraitsCRT<wchar_t> > >::operator=

; 48   : 	OpenFilter += "All Files (*.*)|*.*||";

  0008b	68 00 00 00 00	 push	 OFFSET ??_C@_0BG@FALAGNOM@All?5Files?5?$CI?$CK?4?$CK?$CJ?$HM?$CK?4?$CK?$HM?$HM@
  00090	8d 4d dc	 lea	 ecx, DWORD PTR _OpenFilter$[ebp]
  00093	e8 00 00 00 00	 call	 ??Y?$CStringT@_WV?$StrTraitMFC@_WV?$ChTraitsCRT@_W@ATL@@@@@ATL@@QAEAAV01@PBD@Z ; ATL::CStringT<wchar_t,StrTraitMFC<wchar_t,ATL::ChTraitsCRT<wchar_t> > >::operator+=

; 49   : 
; 50   : 	CFileDialog FileOpenDialog(

  00098	68 e8 04 00 00	 push	 1256			; 000004e8H
  0009d	8d 8d e0 fa ff
	ff		 lea	 ecx, DWORD PTR _FileOpenDialog$[ebp]
  000a3	e8 00 00 00 00	 call	 ?__autoclassinit2@CFileDialog@@QAEXI@Z
  000a8	6a 01		 push	 1
  000aa	6a 00		 push	 0
  000ac	e8 00 00 00 00	 call	 ?AfxGetMainWnd@@YGPAVCWnd@@XZ ; AfxGetMainWnd
  000b1	50		 push	 eax
  000b2	8d 4d dc	 lea	 ecx, DWORD PTR _OpenFilter$[ebp]
  000b5	e8 00 00 00 00	 call	 ??B?$CSimpleStringT@_W$0A@@ATL@@QBEPB_WXZ ; ATL::CSimpleStringT<wchar_t,0>::operator wchar_t const *
  000ba	50		 push	 eax
  000bb	68 04 18 00 00	 push	 6148			; 00001804H
  000c0	8d 4d d0	 lea	 ecx, DWORD PTR _local_File$[ebp]
  000c3	e8 00 00 00 00	 call	 ??B?$CSimpleStringT@_W$0A@@ATL@@QBEPB_WXZ ; ATL::CSimpleStringT<wchar_t,0>::operator wchar_t const *
  000c8	50		 push	 eax
  000c9	6a 00		 push	 0
  000cb	6a 01		 push	 1
  000cd	8d 8d e0 fa ff
	ff		 lea	 ecx, DWORD PTR _FileOpenDialog$[ebp]
  000d3	e8 00 00 00 00	 call	 ??0CFileDialog@@QAE@HPB_W0K0PAVCWnd@@KH@Z ; CFileDialog::CFileDialog
  000d8	c6 45 fc 02	 mov	 BYTE PTR __$EHRec$[ebp+8], 2

; 51   : 		TRUE,
; 52   : 		NULL,
; 53   : 		local_File,
; 54   : 		OFN_FILEMUSTEXIST | OFN_HIDEREADONLY | OFN_PATHMUSTEXIST,
; 55   : 		OpenFilter,                       // filter
; 56   : 		AfxGetMainWnd());               // the parent window 
; 57   : 	CString result = Current_Dir();

  000dc	6a 04		 push	 4
  000de	8d 8d d4 fa ff
	ff		 lea	 ecx, DWORD PTR _result$[ebp]
  000e4	e8 00 00 00 00	 call	 ?__autoclassinit2@?$CStringT@_WV?$StrTraitMFC@_WV?$ChTraitsCRT@_W@ATL@@@@@ATL@@QAEXI@Z
  000e9	8d 85 d4 fa ff
	ff		 lea	 eax, DWORD PTR _result$[ebp]
  000ef	50		 push	 eax
  000f0	8b 4d e8	 mov	 ecx, DWORD PTR _this$[ebp]
  000f3	e8 00 00 00 00	 call	 ?Current_Dir@Solution@@AAE?AV?$CStringT@_WV?$StrTraitMFC@_WV?$ChTraitsCRT@_W@ATL@@@@@ATL@@XZ ; Solution::Current_Dir
  000f8	c6 45 fc 03	 mov	 BYTE PTR __$EHRec$[ebp+8], 3

; 58   : 
; 59   : 	FileOpenDialog.m_ofn.lpstrInitialDir = result;

  000fc	8d 8d d4 fa ff
	ff		 lea	 ecx, DWORD PTR _result$[ebp]
  00102	e8 00 00 00 00	 call	 ??B?$CSimpleStringT@_W$0A@@ATL@@QBEPB_WXZ ; ATL::CSimpleStringT<wchar_t,0>::operator wchar_t const *
  00107	8b f0		 mov	 esi, eax
  00109	8d 8d e0 fa ff
	ff		 lea	 ecx, DWORD PTR _FileOpenDialog$[ebp]
  0010f	e8 00 00 00 00	 call	 ?GetOFN@CFileDialog@@QAEAAUtagOFNW@@XZ ; CFileDialog::GetOFN
  00114	89 70 2c	 mov	 DWORD PTR [eax+44], esi

; 60   : 
; 61   : 	FileOpenDialog.m_ofn.lpstrTitle = _T("Sudoku File");

  00117	8d 8d e0 fa ff
	ff		 lea	 ecx, DWORD PTR _FileOpenDialog$[ebp]
  0011d	e8 00 00 00 00	 call	 ?GetOFN@CFileDialog@@QAEAAUtagOFNW@@XZ ; CFileDialog::GetOFN
  00122	c7 40 30 00 00
	00 00		 mov	 DWORD PTR [eax+48], OFFSET ??_C@_1BI@LHMMMGAL@?$AAS?$AAu?$AAd?$AAo?$AAk?$AAu?$AA?5?$AAF?$AAi?$AAl?$AAe@

; 62   : 
; 63   : 	if (FileOpenDialog.DoModal() == IDOK)

  00129	8d 8d e0 fa ff
	ff		 lea	 ecx, DWORD PTR _FileOpenDialog$[ebp]
  0012f	e8 00 00 00 00	 call	 ?DoModal@CFileDialog@@UAEHXZ ; CFileDialog::DoModal
  00134	83 f8 01	 cmp	 eax, 1
  00137	75 64		 jne	 SHORT $LN2@Open_File

; 64   : 	{
; 65   : 		pszSource = FileOpenDialog.m_ofn.lpstrFile;

  00139	8d 8d e0 fa ff
	ff		 lea	 ecx, DWORD PTR _FileOpenDialog$[ebp]
  0013f	e8 00 00 00 00	 call	 ?GetOFN@CFileDialog@@QAEAAUtagOFNW@@XZ ; CFileDialog::GetOFN
  00144	ff 70 1c	 push	 DWORD PTR [eax+28]
  00147	8b 4d e8	 mov	 ecx, DWORD PTR _this$[ebp]
  0014a	81 c1 50 01 00
	00		 add	 ecx, 336		; 00000150H
  00150	e8 00 00 00 00	 call	 ??4?$CStringT@_WV?$StrTraitMFC@_WV?$ChTraitsCRT@_W@ATL@@@@@ATL@@QAEAAV01@PB_W@Z ; ATL::CStringT<wchar_t,StrTraitMFC<wchar_t,ATL::ChTraitsCRT<wchar_t> > >::operator=

; 66   : 		return TRUE;

  00155	c7 85 88 f8 ff
	ff 01 00 00 00	 mov	 DWORD PTR $T3[ebp], 1
  0015f	c6 45 fc 02	 mov	 BYTE PTR __$EHRec$[ebp+8], 2
  00163	8d 8d d4 fa ff
	ff		 lea	 ecx, DWORD PTR _result$[ebp]
  00169	e8 00 00 00 00	 call	 ??1?$CStringT@_WV?$StrTraitMFC@_WV?$ChTraitsCRT@_W@ATL@@@@@ATL@@QAE@XZ ; ATL::CStringT<wchar_t,StrTraitMFC<wchar_t,ATL::ChTraitsCRT<wchar_t> > >::~CStringT<wchar_t,StrTraitMFC<wchar_t,ATL::ChTraitsCRT<wchar_t> > >
  0016e	c6 45 fc 01	 mov	 BYTE PTR __$EHRec$[ebp+8], 1
  00172	8d 8d e0 fa ff
	ff		 lea	 ecx, DWORD PTR _FileOpenDialog$[ebp]
  00178	e8 00 00 00 00	 call	 ??1CFileDialog@@UAE@XZ	; CFileDialog::~CFileDialog
  0017d	c6 45 fc 00	 mov	 BYTE PTR __$EHRec$[ebp+8], 0
  00181	8d 4d d0	 lea	 ecx, DWORD PTR _local_File$[ebp]
  00184	e8 00 00 00 00	 call	 ??1?$CStringT@_WV?$StrTraitMFC@_WV?$ChTraitsCRT@_W@ATL@@@@@ATL@@QAE@XZ ; ATL::CStringT<wchar_t,StrTraitMFC<wchar_t,ATL::ChTraitsCRT<wchar_t> > >::~CStringT<wchar_t,StrTraitMFC<wchar_t,ATL::ChTraitsCRT<wchar_t> > >
  00189	83 4d fc ff	 or	 DWORD PTR __$EHRec$[ebp+8], -1
  0018d	8d 4d dc	 lea	 ecx, DWORD PTR _OpenFilter$[ebp]
  00190	e8 00 00 00 00	 call	 ??1?$CStringT@_WV?$StrTraitMFC@_WV?$ChTraitsCRT@_W@ATL@@@@@ATL@@QAE@XZ ; ATL::CStringT<wchar_t,StrTraitMFC<wchar_t,ATL::ChTraitsCRT<wchar_t> > >::~CStringT<wchar_t,StrTraitMFC<wchar_t,ATL::ChTraitsCRT<wchar_t> > >
  00195	8b 85 88 f8 ff
	ff		 mov	 eax, DWORD PTR $T3[ebp]
  0019b	eb 43		 jmp	 SHORT $LN1@Open_File
$LN2@Open_File:

; 67   : 	}
; 68   : 
; 69   : 	return FALSE;

  0019d	83 a5 7c f8 ff
	ff 00		 and	 DWORD PTR $T2[ebp], 0
  001a4	c6 45 fc 02	 mov	 BYTE PTR __$EHRec$[ebp+8], 2
  001a8	8d 8d d4 fa ff
	ff		 lea	 ecx, DWORD PTR _result$[ebp]
  001ae	e8 00 00 00 00	 call	 ??1?$CStringT@_WV?$StrTraitMFC@_WV?$ChTraitsCRT@_W@ATL@@@@@ATL@@QAE@XZ ; ATL::CStringT<wchar_t,StrTraitMFC<wchar_t,ATL::ChTraitsCRT<wchar_t> > >::~CStringT<wchar_t,StrTraitMFC<wchar_t,ATL::ChTraitsCRT<wchar_t> > >
  001b3	c6 45 fc 01	 mov	 BYTE PTR __$EHRec$[ebp+8], 1
  001b7	8d 8d e0 fa ff
	ff		 lea	 ecx, DWORD PTR _FileOpenDialog$[ebp]
  001bd	e8 00 00 00 00	 call	 ??1CFileDialog@@UAE@XZ	; CFileDialog::~CFileDialog
  001c2	c6 45 fc 00	 mov	 BYTE PTR __$EHRec$[ebp+8], 0
  001c6	8d 4d d0	 lea	 ecx, DWORD PTR _local_File$[ebp]
  001c9	e8 00 00 00 00	 call	 ??1?$CStringT@_WV?$StrTraitMFC@_WV?$ChTraitsCRT@_W@ATL@@@@@ATL@@QAE@XZ ; ATL::CStringT<wchar_t,StrTraitMFC<wchar_t,ATL::ChTraitsCRT<wchar_t> > >::~CStringT<wchar_t,StrTraitMFC<wchar_t,ATL::ChTraitsCRT<wchar_t> > >
  001ce	83 4d fc ff	 or	 DWORD PTR __$EHRec$[ebp+8], -1
  001d2	8d 4d dc	 lea	 ecx, DWORD PTR _OpenFilter$[ebp]
  001d5	e8 00 00 00 00	 call	 ??1?$CStringT@_WV?$StrTraitMFC@_WV?$ChTraitsCRT@_W@ATL@@@@@ATL@@QAE@XZ ; ATL::CStringT<wchar_t,StrTraitMFC<wchar_t,ATL::ChTraitsCRT<wchar_t> > >::~CStringT<wchar_t,StrTraitMFC<wchar_t,ATL::ChTraitsCRT<wchar_t> > >
  001da	8b 85 7c f8 ff
	ff		 mov	 eax, DWORD PTR $T2[ebp]
$LN1@Open_File:

; 70   : 
; 71   : }

  001e0	52		 push	 edx
  001e1	8b cd		 mov	 ecx, ebp
  001e3	50		 push	 eax
  001e4	8d 15 00 00 00
	00		 lea	 edx, DWORD PTR $LN14@Open_File
  001ea	e8 00 00 00 00	 call	 @_RTC_CheckStackVars@8
  001ef	58		 pop	 eax
  001f0	5a		 pop	 edx
  001f1	8b 4d f4	 mov	 ecx, DWORD PTR __$EHRec$[ebp]
  001f4	64 89 0d 00 00
	00 00		 mov	 DWORD PTR fs:0, ecx
  001fb	59		 pop	 ecx
  001fc	5f		 pop	 edi
  001fd	5e		 pop	 esi
  001fe	5b		 pop	 ebx
  001ff	8b 4d f0	 mov	 ecx, DWORD PTR __$ArrayPad$[ebp]
  00202	33 cd		 xor	 ecx, ebp
  00204	e8 00 00 00 00	 call	 @__security_check_cookie@4
  00209	81 c4 88 07 00
	00		 add	 esp, 1928		; 00000788H
  0020f	3b ec		 cmp	 ebp, esp
  00211	e8 00 00 00 00	 call	 __RTC_CheckEsp
  00216	c9		 leave
  00217	c2 04 00	 ret	 4
  0021a	66 90		 npad	 2
$LN14@Open_File:
  0021c	04 00 00 00	 DD	 4
  00220	00 00 00 00	 DD	 $LN13@Open_File
$LN13@Open_File:
  00224	dc ff ff ff	 DD	 -36			; ffffffdcH
  00228	04 00 00 00	 DD	 4
  0022c	00 00 00 00	 DD	 $LN8@Open_File
  00230	d0 ff ff ff	 DD	 -48			; ffffffd0H
  00234	04 00 00 00	 DD	 4
  00238	00 00 00 00	 DD	 $LN9@Open_File
  0023c	e0 fa ff ff	 DD	 -1312			; fffffae0H
  00240	e8 04 00 00	 DD	 1256			; 000004e8H
  00244	00 00 00 00	 DD	 $LN10@Open_File
  00248	d4 fa ff ff	 DD	 -1324			; fffffad4H
  0024c	04 00 00 00	 DD	 4
  00250	00 00 00 00	 DD	 $LN11@Open_File
$LN11@Open_File:
  00254	72		 DB	 114			; 00000072H
  00255	65		 DB	 101			; 00000065H
  00256	73		 DB	 115			; 00000073H
  00257	75		 DB	 117			; 00000075H
  00258	6c		 DB	 108			; 0000006cH
  00259	74		 DB	 116			; 00000074H
  0025a	00		 DB	 0
$LN10@Open_File:
  0025b	46		 DB	 70			; 00000046H
  0025c	69		 DB	 105			; 00000069H
  0025d	6c		 DB	 108			; 0000006cH
  0025e	65		 DB	 101			; 00000065H
  0025f	4f		 DB	 79			; 0000004fH
  00260	70		 DB	 112			; 00000070H
  00261	65		 DB	 101			; 00000065H
  00262	6e		 DB	 110			; 0000006eH
  00263	44		 DB	 68			; 00000044H
  00264	69		 DB	 105			; 00000069H
  00265	61		 DB	 97			; 00000061H
  00266	6c		 DB	 108			; 0000006cH
  00267	6f		 DB	 111			; 0000006fH
  00268	67		 DB	 103			; 00000067H
  00269	00		 DB	 0
$LN9@Open_File:
  0026a	6c		 DB	 108			; 0000006cH
  0026b	6f		 DB	 111			; 0000006fH
  0026c	63		 DB	 99			; 00000063H
  0026d	61		 DB	 97			; 00000061H
  0026e	6c		 DB	 108			; 0000006cH
  0026f	5f		 DB	 95			; 0000005fH
  00270	46		 DB	 70			; 00000046H
  00271	69		 DB	 105			; 00000069H
  00272	6c		 DB	 108			; 0000006cH
  00273	65		 DB	 101			; 00000065H
  00274	00		 DB	 0
$LN8@Open_File:
  00275	4f		 DB	 79			; 0000004fH
  00276	70		 DB	 112			; 00000070H
  00277	65		 DB	 101			; 00000065H
  00278	6e		 DB	 110			; 0000006eH
  00279	46		 DB	 70			; 00000046H
  0027a	69		 DB	 105			; 00000069H
  0027b	6c		 DB	 108			; 0000006cH
  0027c	74		 DB	 116			; 00000074H
  0027d	65		 DB	 101			; 00000065H
  0027e	72		 DB	 114			; 00000072H
  0027f	00		 DB	 0
_TEXT	ENDS
;	COMDAT text$x
text$x	SEGMENT
__unwindfunclet$?Open_File@Solution@@AAEHPA_W@Z$0:
  00000	8d 4d dc	 lea	 ecx, DWORD PTR _OpenFilter$[ebp]
  00003	e9 00 00 00 00	 jmp	 ??1?$CStringT@_WV?$StrTraitMFC@_WV?$ChTraitsCRT@_W@ATL@@@@@ATL@@QAE@XZ ; ATL::CStringT<wchar_t,StrTraitMFC<wchar_t,ATL::ChTraitsCRT<wchar_t> > >::~CStringT<wchar_t,StrTraitMFC<wchar_t,ATL::ChTraitsCRT<wchar_t> > >
__unwindfunclet$?Open_File@Solution@@AAEHPA_W@Z$1:
  00008	8d 4d d0	 lea	 ecx, DWORD PTR _local_File$[ebp]
  0000b	e9 00 00 00 00	 jmp	 ??1?$CStringT@_WV?$StrTraitMFC@_WV?$ChTraitsCRT@_W@ATL@@@@@ATL@@QAE@XZ ; ATL::CStringT<wchar_t,StrTraitMFC<wchar_t,ATL::ChTraitsCRT<wchar_t> > >::~CStringT<wchar_t,StrTraitMFC<wchar_t,ATL::ChTraitsCRT<wchar_t> > >
__unwindfunclet$?Open_File@Solution@@AAEHPA_W@Z$2:
  00010	8d 8d e0 fa ff
	ff		 lea	 ecx, DWORD PTR _FileOpenDialog$[ebp]
  00016	e9 00 00 00 00	 jmp	 ??1CFileDialog@@UAE@XZ	; CFileDialog::~CFileDialog
__unwindfunclet$?Open_File@Solution@@AAEHPA_W@Z$3:
  0001b	8d 8d d4 fa ff
	ff		 lea	 ecx, DWORD PTR _result$[ebp]
  00021	e9 00 00 00 00	 jmp	 ??1?$CStringT@_WV?$StrTraitMFC@_WV?$ChTraitsCRT@_W@ATL@@@@@ATL@@QAE@XZ ; ATL::CStringT<wchar_t,StrTraitMFC<wchar_t,ATL::ChTraitsCRT<wchar_t> > >::~CStringT<wchar_t,StrTraitMFC<wchar_t,ATL::ChTraitsCRT<wchar_t> > >
  00026	cc		 int	 3
  00027	cc		 int	 3
  00028	cc		 int	 3
  00029	cc		 int	 3
  0002a	cc		 int	 3
__ehhandler$?Open_File@Solution@@AAEHPA_W@Z:
  0002b	90		 npad	 1
  0002c	90		 npad	 1
  0002d	8b 54 24 08	 mov	 edx, DWORD PTR [esp+8]
  00031	8d 42 0c	 lea	 eax, DWORD PTR [edx+12]
  00034	8b 8a 74 f8 ff
	ff		 mov	 ecx, DWORD PTR [edx-1932]
  0003a	33 c8		 xor	 ecx, eax
  0003c	e8 00 00 00 00	 call	 @__security_check_cookie@4
  00041	8b 4a fc	 mov	 ecx, DWORD PTR [edx-4]
  00044	33 c8		 xor	 ecx, eax
  00046	e8 00 00 00 00	 call	 @__security_check_cookie@4
  0004b	b8 00 00 00 00	 mov	 eax, OFFSET __ehfuncinfo$?Open_File@Solution@@AAEHPA_W@Z
  00050	e9 00 00 00 00	 jmp	 ___CxxFrameHandler3
text$x	ENDS
?Open_File@Solution@@AAEHPA_W@Z ENDP			; Solution::Open_File
; Function compile flags: /Odsp /RTCsu /ZI
; File J:\work\SUDOKU\SUDOKU\SUDOKU\Solution.cpp
;	COMDAT ?Save_File@Solution@@AAEHPA_W@Z
_TEXT	SEGMENT
$T2 = -1924						; size = 4
$T3 = -1912						; size = 4
_result$ = -1324					; size = 4
_FileOpenDialog$ = -1312				; size = 1256
_local_File$ = -48					; size = 4
_OpenFilter$ = -36					; size = 4
_this$ = -24						; size = 4
__$ArrayPad$ = -16					; size = 4
__$EHRec$ = -12						; size = 12
_File$ = 8						; size = 4
?Save_File@Solution@@AAEHPA_W@Z PROC			; Solution::Save_File, COMDAT
; _this$ = ecx

; 74   : {

  00000	55		 push	 ebp
  00001	8b ec		 mov	 ebp, esp
  00003	6a ff		 push	 -1
  00005	68 00 00 00 00	 push	 __ehhandler$?Save_File@Solution@@AAEHPA_W@Z
  0000a	64 a1 00 00 00
	00		 mov	 eax, DWORD PTR fs:0
  00010	50		 push	 eax
  00011	81 ec 7c 07 00
	00		 sub	 esp, 1916		; 0000077cH
  00017	53		 push	 ebx
  00018	56		 push	 esi
  00019	57		 push	 edi
  0001a	51		 push	 ecx
  0001b	8d bd b8 fa ff
	ff		 lea	 edi, DWORD PTR [ebp-1352]
  00021	b9 4f 01 00 00	 mov	 ecx, 335		; 0000014fH
  00026	b8 cc cc cc cc	 mov	 eax, -858993460		; ccccccccH
  0002b	f3 ab		 rep stosd
  0002d	59		 pop	 ecx
  0002e	a1 00 00 00 00	 mov	 eax, DWORD PTR ___security_cookie
  00033	33 c5		 xor	 eax, ebp
  00035	89 45 f0	 mov	 DWORD PTR __$ArrayPad$[ebp], eax
  00038	50		 push	 eax
  00039	8d 45 f4	 lea	 eax, DWORD PTR __$EHRec$[ebp]
  0003c	64 a3 00 00 00
	00		 mov	 DWORD PTR fs:0, eax
  00042	89 4d e8	 mov	 DWORD PTR _this$[ebp], ecx
  00045	b9 00 00 00 00	 mov	 ecx, OFFSET __CBE53D1F_Solution@cpp
  0004a	e8 00 00 00 00	 call	 @__CheckForDebuggerJustMyCode@4

; 75   : 	CString OpenFilter;

  0004f	6a 04		 push	 4
  00051	8d 4d dc	 lea	 ecx, DWORD PTR _OpenFilter$[ebp]
  00054	e8 00 00 00 00	 call	 ?__autoclassinit2@?$CStringT@_WV?$StrTraitMFC@_WV?$ChTraitsCRT@_W@ATL@@@@@ATL@@QAEXI@Z
  00059	8d 4d dc	 lea	 ecx, DWORD PTR _OpenFilter$[ebp]
  0005c	e8 00 00 00 00	 call	 ??0?$CStringT@_WV?$StrTraitMFC@_WV?$ChTraitsCRT@_W@ATL@@@@@ATL@@QAE@XZ ; ATL::CStringT<wchar_t,StrTraitMFC<wchar_t,ATL::ChTraitsCRT<wchar_t> > >::CStringT<wchar_t,StrTraitMFC<wchar_t,ATL::ChTraitsCRT<wchar_t> > >
  00061	83 65 fc 00	 and	 DWORD PTR __$EHRec$[ebp+8], 0

; 76   : 	CString local_File(File);

  00065	6a 04		 push	 4
  00067	8d 4d d0	 lea	 ecx, DWORD PTR _local_File$[ebp]
  0006a	e8 00 00 00 00	 call	 ?__autoclassinit2@?$CStringT@_WV?$StrTraitMFC@_WV?$ChTraitsCRT@_W@ATL@@@@@ATL@@QAEXI@Z
  0006f	ff 75 08	 push	 DWORD PTR _File$[ebp]
  00072	8d 4d d0	 lea	 ecx, DWORD PTR _local_File$[ebp]
  00075	e8 00 00 00 00	 call	 ??0?$CStringT@_WV?$StrTraitMFC@_WV?$ChTraitsCRT@_W@ATL@@@@@ATL@@QAE@PB_W@Z ; ATL::CStringT<wchar_t,StrTraitMFC<wchar_t,ATL::ChTraitsCRT<wchar_t> > >::CStringT<wchar_t,StrTraitMFC<wchar_t,ATL::ChTraitsCRT<wchar_t> > >
  0007a	c6 45 fc 01	 mov	 BYTE PTR __$EHRec$[ebp+8], 1

; 77   : 
; 78   : 	OpenFilter = "Text File (*.txt)|*.txt|";

  0007e	68 00 00 00 00	 push	 OFFSET ??_C@_0BJ@LICJPAK@Text?5File?5?$CI?$CK?4txt?$CJ?$HM?$CK?4txt?$HM@
  00083	8d 4d dc	 lea	 ecx, DWORD PTR _OpenFilter$[ebp]
  00086	e8 00 00 00 00	 call	 ??4?$CStringT@_WV?$StrTraitMFC@_WV?$ChTraitsCRT@_W@ATL@@@@@ATL@@QAEAAV01@PBD@Z ; ATL::CStringT<wchar_t,StrTraitMFC<wchar_t,ATL::ChTraitsCRT<wchar_t> > >::operator=

; 79   : 	OpenFilter += "All Files (*.*)|*.*||";

  0008b	68 00 00 00 00	 push	 OFFSET ??_C@_0BG@FALAGNOM@All?5Files?5?$CI?$CK?4?$CK?$CJ?$HM?$CK?4?$CK?$HM?$HM@
  00090	8d 4d dc	 lea	 ecx, DWORD PTR _OpenFilter$[ebp]
  00093	e8 00 00 00 00	 call	 ??Y?$CStringT@_WV?$StrTraitMFC@_WV?$ChTraitsCRT@_W@ATL@@@@@ATL@@QAEAAV01@PBD@Z ; ATL::CStringT<wchar_t,StrTraitMFC<wchar_t,ATL::ChTraitsCRT<wchar_t> > >::operator+=

; 80   : 
; 81   : 	CFileDialog FileOpenDialog(

  00098	68 e8 04 00 00	 push	 1256			; 000004e8H
  0009d	8d 8d e0 fa ff
	ff		 lea	 ecx, DWORD PTR _FileOpenDialog$[ebp]
  000a3	e8 00 00 00 00	 call	 ?__autoclassinit2@CFileDialog@@QAEXI@Z
  000a8	6a 01		 push	 1
  000aa	6a 00		 push	 0
  000ac	e8 00 00 00 00	 call	 ?AfxGetMainWnd@@YGPAVCWnd@@XZ ; AfxGetMainWnd
  000b1	50		 push	 eax
  000b2	8d 4d dc	 lea	 ecx, DWORD PTR _OpenFilter$[ebp]
  000b5	e8 00 00 00 00	 call	 ??B?$CSimpleStringT@_W$0A@@ATL@@QBEPB_WXZ ; ATL::CSimpleStringT<wchar_t,0>::operator wchar_t const *
  000ba	50		 push	 eax
  000bb	68 04 18 00 00	 push	 6148			; 00001804H
  000c0	8d 4d d0	 lea	 ecx, DWORD PTR _local_File$[ebp]
  000c3	e8 00 00 00 00	 call	 ??B?$CSimpleStringT@_W$0A@@ATL@@QBEPB_WXZ ; ATL::CSimpleStringT<wchar_t,0>::operator wchar_t const *
  000c8	50		 push	 eax
  000c9	6a 00		 push	 0
  000cb	6a 00		 push	 0
  000cd	8d 8d e0 fa ff
	ff		 lea	 ecx, DWORD PTR _FileOpenDialog$[ebp]
  000d3	e8 00 00 00 00	 call	 ??0CFileDialog@@QAE@HPB_W0K0PAVCWnd@@KH@Z ; CFileDialog::CFileDialog
  000d8	c6 45 fc 02	 mov	 BYTE PTR __$EHRec$[ebp+8], 2

; 82   : 		FALSE,
; 83   : 		NULL,
; 84   : 		local_File,
; 85   : 		OFN_FILEMUSTEXIST | OFN_HIDEREADONLY | OFN_PATHMUSTEXIST,
; 86   : 		OpenFilter,                       // filter
; 87   : 		AfxGetMainWnd());               // the parent window 
; 88   : 
; 89   : 	CString result = Current_Dir();

  000dc	6a 04		 push	 4
  000de	8d 8d d4 fa ff
	ff		 lea	 ecx, DWORD PTR _result$[ebp]
  000e4	e8 00 00 00 00	 call	 ?__autoclassinit2@?$CStringT@_WV?$StrTraitMFC@_WV?$ChTraitsCRT@_W@ATL@@@@@ATL@@QAEXI@Z
  000e9	8d 85 d4 fa ff
	ff		 lea	 eax, DWORD PTR _result$[ebp]
  000ef	50		 push	 eax
  000f0	8b 4d e8	 mov	 ecx, DWORD PTR _this$[ebp]
  000f3	e8 00 00 00 00	 call	 ?Current_Dir@Solution@@AAE?AV?$CStringT@_WV?$StrTraitMFC@_WV?$ChTraitsCRT@_W@ATL@@@@@ATL@@XZ ; Solution::Current_Dir
  000f8	c6 45 fc 03	 mov	 BYTE PTR __$EHRec$[ebp+8], 3

; 90   : 
; 91   : 	FileOpenDialog.m_ofn.lpstrInitialDir = result;

  000fc	8d 8d d4 fa ff
	ff		 lea	 ecx, DWORD PTR _result$[ebp]
  00102	e8 00 00 00 00	 call	 ??B?$CSimpleStringT@_W$0A@@ATL@@QBEPB_WXZ ; ATL::CSimpleStringT<wchar_t,0>::operator wchar_t const *
  00107	8b f0		 mov	 esi, eax
  00109	8d 8d e0 fa ff
	ff		 lea	 ecx, DWORD PTR _FileOpenDialog$[ebp]
  0010f	e8 00 00 00 00	 call	 ?GetOFN@CFileDialog@@QAEAAUtagOFNW@@XZ ; CFileDialog::GetOFN
  00114	89 70 2c	 mov	 DWORD PTR [eax+44], esi

; 92   : 
; 93   : 	FileOpenDialog.m_ofn.lpstrTitle = _T("Sudoku File");

  00117	8d 8d e0 fa ff
	ff		 lea	 ecx, DWORD PTR _FileOpenDialog$[ebp]
  0011d	e8 00 00 00 00	 call	 ?GetOFN@CFileDialog@@QAEAAUtagOFNW@@XZ ; CFileDialog::GetOFN
  00122	c7 40 30 00 00
	00 00		 mov	 DWORD PTR [eax+48], OFFSET ??_C@_1BI@LHMMMGAL@?$AAS?$AAu?$AAd?$AAo?$AAk?$AAu?$AA?5?$AAF?$AAi?$AAl?$AAe@

; 94   : 
; 95   : 	if (FileOpenDialog.DoModal() == IDOK)

  00129	8d 8d e0 fa ff
	ff		 lea	 ecx, DWORD PTR _FileOpenDialog$[ebp]
  0012f	e8 00 00 00 00	 call	 ?DoModal@CFileDialog@@UAEHXZ ; CFileDialog::DoModal
  00134	83 f8 01	 cmp	 eax, 1
  00137	75 64		 jne	 SHORT $LN2@Save_File

; 96   : 	{
; 97   : 		pszSource = FileOpenDialog.m_ofn.lpstrFile;

  00139	8d 8d e0 fa ff
	ff		 lea	 ecx, DWORD PTR _FileOpenDialog$[ebp]
  0013f	e8 00 00 00 00	 call	 ?GetOFN@CFileDialog@@QAEAAUtagOFNW@@XZ ; CFileDialog::GetOFN
  00144	ff 70 1c	 push	 DWORD PTR [eax+28]
  00147	8b 4d e8	 mov	 ecx, DWORD PTR _this$[ebp]
  0014a	81 c1 50 01 00
	00		 add	 ecx, 336		; 00000150H
  00150	e8 00 00 00 00	 call	 ??4?$CStringT@_WV?$StrTraitMFC@_WV?$ChTraitsCRT@_W@ATL@@@@@ATL@@QAEAAV01@PB_W@Z ; ATL::CStringT<wchar_t,StrTraitMFC<wchar_t,ATL::ChTraitsCRT<wchar_t> > >::operator=

; 98   : 		return TRUE;

  00155	c7 85 88 f8 ff
	ff 01 00 00 00	 mov	 DWORD PTR $T3[ebp], 1
  0015f	c6 45 fc 02	 mov	 BYTE PTR __$EHRec$[ebp+8], 2
  00163	8d 8d d4 fa ff
	ff		 lea	 ecx, DWORD PTR _result$[ebp]
  00169	e8 00 00 00 00	 call	 ??1?$CStringT@_WV?$StrTraitMFC@_WV?$ChTraitsCRT@_W@ATL@@@@@ATL@@QAE@XZ ; ATL::CStringT<wchar_t,StrTraitMFC<wchar_t,ATL::ChTraitsCRT<wchar_t> > >::~CStringT<wchar_t,StrTraitMFC<wchar_t,ATL::ChTraitsCRT<wchar_t> > >
  0016e	c6 45 fc 01	 mov	 BYTE PTR __$EHRec$[ebp+8], 1
  00172	8d 8d e0 fa ff
	ff		 lea	 ecx, DWORD PTR _FileOpenDialog$[ebp]
  00178	e8 00 00 00 00	 call	 ??1CFileDialog@@UAE@XZ	; CFileDialog::~CFileDialog
  0017d	c6 45 fc 00	 mov	 BYTE PTR __$EHRec$[ebp+8], 0
  00181	8d 4d d0	 lea	 ecx, DWORD PTR _local_File$[ebp]
  00184	e8 00 00 00 00	 call	 ??1?$CStringT@_WV?$StrTraitMFC@_WV?$ChTraitsCRT@_W@ATL@@@@@ATL@@QAE@XZ ; ATL::CStringT<wchar_t,StrTraitMFC<wchar_t,ATL::ChTraitsCRT<wchar_t> > >::~CStringT<wchar_t,StrTraitMFC<wchar_t,ATL::ChTraitsCRT<wchar_t> > >
  00189	83 4d fc ff	 or	 DWORD PTR __$EHRec$[ebp+8], -1
  0018d	8d 4d dc	 lea	 ecx, DWORD PTR _OpenFilter$[ebp]
  00190	e8 00 00 00 00	 call	 ??1?$CStringT@_WV?$StrTraitMFC@_WV?$ChTraitsCRT@_W@ATL@@@@@ATL@@QAE@XZ ; ATL::CStringT<wchar_t,StrTraitMFC<wchar_t,ATL::ChTraitsCRT<wchar_t> > >::~CStringT<wchar_t,StrTraitMFC<wchar_t,ATL::ChTraitsCRT<wchar_t> > >
  00195	8b 85 88 f8 ff
	ff		 mov	 eax, DWORD PTR $T3[ebp]
  0019b	eb 43		 jmp	 SHORT $LN1@Save_File
$LN2@Save_File:

; 99   : 	}
; 100  : 
; 101  : 	return FALSE;

  0019d	83 a5 7c f8 ff
	ff 00		 and	 DWORD PTR $T2[ebp], 0
  001a4	c6 45 fc 02	 mov	 BYTE PTR __$EHRec$[ebp+8], 2
  001a8	8d 8d d4 fa ff
	ff		 lea	 ecx, DWORD PTR _result$[ebp]
  001ae	e8 00 00 00 00	 call	 ??1?$CStringT@_WV?$StrTraitMFC@_WV?$ChTraitsCRT@_W@ATL@@@@@ATL@@QAE@XZ ; ATL::CStringT<wchar_t,StrTraitMFC<wchar_t,ATL::ChTraitsCRT<wchar_t> > >::~CStringT<wchar_t,StrTraitMFC<wchar_t,ATL::ChTraitsCRT<wchar_t> > >
  001b3	c6 45 fc 01	 mov	 BYTE PTR __$EHRec$[ebp+8], 1
  001b7	8d 8d e0 fa ff
	ff		 lea	 ecx, DWORD PTR _FileOpenDialog$[ebp]
  001bd	e8 00 00 00 00	 call	 ??1CFileDialog@@UAE@XZ	; CFileDialog::~CFileDialog
  001c2	c6 45 fc 00	 mov	 BYTE PTR __$EHRec$[ebp+8], 0
  001c6	8d 4d d0	 lea	 ecx, DWORD PTR _local_File$[ebp]
  001c9	e8 00 00 00 00	 call	 ??1?$CStringT@_WV?$StrTraitMFC@_WV?$ChTraitsCRT@_W@ATL@@@@@ATL@@QAE@XZ ; ATL::CStringT<wchar_t,StrTraitMFC<wchar_t,ATL::ChTraitsCRT<wchar_t> > >::~CStringT<wchar_t,StrTraitMFC<wchar_t,ATL::ChTraitsCRT<wchar_t> > >
  001ce	83 4d fc ff	 or	 DWORD PTR __$EHRec$[ebp+8], -1
  001d2	8d 4d dc	 lea	 ecx, DWORD PTR _OpenFilter$[ebp]
  001d5	e8 00 00 00 00	 call	 ??1?$CStringT@_WV?$StrTraitMFC@_WV?$ChTraitsCRT@_W@ATL@@@@@ATL@@QAE@XZ ; ATL::CStringT<wchar_t,StrTraitMFC<wchar_t,ATL::ChTraitsCRT<wchar_t> > >::~CStringT<wchar_t,StrTraitMFC<wchar_t,ATL::ChTraitsCRT<wchar_t> > >
  001da	8b 85 7c f8 ff
	ff		 mov	 eax, DWORD PTR $T2[ebp]
$LN1@Save_File:

; 102  : 
; 103  : }

  001e0	52		 push	 edx
  001e1	8b cd		 mov	 ecx, ebp
  001e3	50		 push	 eax
  001e4	8d 15 00 00 00
	00		 lea	 edx, DWORD PTR $LN14@Save_File
  001ea	e8 00 00 00 00	 call	 @_RTC_CheckStackVars@8
  001ef	58		 pop	 eax
  001f0	5a		 pop	 edx
  001f1	8b 4d f4	 mov	 ecx, DWORD PTR __$EHRec$[ebp]
  001f4	64 89 0d 00 00
	00 00		 mov	 DWORD PTR fs:0, ecx
  001fb	59		 pop	 ecx
  001fc	5f		 pop	 edi
  001fd	5e		 pop	 esi
  001fe	5b		 pop	 ebx
  001ff	8b 4d f0	 mov	 ecx, DWORD PTR __$ArrayPad$[ebp]
  00202	33 cd		 xor	 ecx, ebp
  00204	e8 00 00 00 00	 call	 @__security_check_cookie@4
  00209	81 c4 88 07 00
	00		 add	 esp, 1928		; 00000788H
  0020f	3b ec		 cmp	 ebp, esp
  00211	e8 00 00 00 00	 call	 __RTC_CheckEsp
  00216	c9		 leave
  00217	c2 04 00	 ret	 4
  0021a	66 90		 npad	 2
$LN14@Save_File:
  0021c	04 00 00 00	 DD	 4
  00220	00 00 00 00	 DD	 $LN13@Save_File
$LN13@Save_File:
  00224	dc ff ff ff	 DD	 -36			; ffffffdcH
  00228	04 00 00 00	 DD	 4
  0022c	00 00 00 00	 DD	 $LN8@Save_File
  00230	d0 ff ff ff	 DD	 -48			; ffffffd0H
  00234	04 00 00 00	 DD	 4
  00238	00 00 00 00	 DD	 $LN9@Save_File
  0023c	e0 fa ff ff	 DD	 -1312			; fffffae0H
  00240	e8 04 00 00	 DD	 1256			; 000004e8H
  00244	00 00 00 00	 DD	 $LN10@Save_File
  00248	d4 fa ff ff	 DD	 -1324			; fffffad4H
  0024c	04 00 00 00	 DD	 4
  00250	00 00 00 00	 DD	 $LN11@Save_File
$LN11@Save_File:
  00254	72		 DB	 114			; 00000072H
  00255	65		 DB	 101			; 00000065H
  00256	73		 DB	 115			; 00000073H
  00257	75		 DB	 117			; 00000075H
  00258	6c		 DB	 108			; 0000006cH
  00259	74		 DB	 116			; 00000074H
  0025a	00		 DB	 0
$LN10@Save_File:
  0025b	46		 DB	 70			; 00000046H
  0025c	69		 DB	 105			; 00000069H
  0025d	6c		 DB	 108			; 0000006cH
  0025e	65		 DB	 101			; 00000065H
  0025f	4f		 DB	 79			; 0000004fH
  00260	70		 DB	 112			; 00000070H
  00261	65		 DB	 101			; 00000065H
  00262	6e		 DB	 110			; 0000006eH
  00263	44		 DB	 68			; 00000044H
  00264	69		 DB	 105			; 00000069H
  00265	61		 DB	 97			; 00000061H
  00266	6c		 DB	 108			; 0000006cH
  00267	6f		 DB	 111			; 0000006fH
  00268	67		 DB	 103			; 00000067H
  00269	00		 DB	 0
$LN9@Save_File:
  0026a	6c		 DB	 108			; 0000006cH
  0026b	6f		 DB	 111			; 0000006fH
  0026c	63		 DB	 99			; 00000063H
  0026d	61		 DB	 97			; 00000061H
  0026e	6c		 DB	 108			; 0000006cH
  0026f	5f		 DB	 95			; 0000005fH
  00270	46		 DB	 70			; 00000046H
  00271	69		 DB	 105			; 00000069H
  00272	6c		 DB	 108			; 0000006cH
  00273	65		 DB	 101			; 00000065H
  00274	00		 DB	 0
$LN8@Save_File:
  00275	4f		 DB	 79			; 0000004fH
  00276	70		 DB	 112			; 00000070H
  00277	65		 DB	 101			; 00000065H
  00278	6e		 DB	 110			; 0000006eH
  00279	46		 DB	 70			; 00000046H
  0027a	69		 DB	 105			; 00000069H
  0027b	6c		 DB	 108			; 0000006cH
  0027c	74		 DB	 116			; 00000074H
  0027d	65		 DB	 101			; 00000065H
  0027e	72		 DB	 114			; 00000072H
  0027f	00		 DB	 0
_TEXT	ENDS
;	COMDAT text$x
text$x	SEGMENT
__unwindfunclet$?Save_File@Solution@@AAEHPA_W@Z$0:
  00000	8d 4d dc	 lea	 ecx, DWORD PTR _OpenFilter$[ebp]
  00003	e9 00 00 00 00	 jmp	 ??1?$CStringT@_WV?$StrTraitMFC@_WV?$ChTraitsCRT@_W@ATL@@@@@ATL@@QAE@XZ ; ATL::CStringT<wchar_t,StrTraitMFC<wchar_t,ATL::ChTraitsCRT<wchar_t> > >::~CStringT<wchar_t,StrTraitMFC<wchar_t,ATL::ChTraitsCRT<wchar_t> > >
__unwindfunclet$?Save_File@Solution@@AAEHPA_W@Z$1:
  00008	8d 4d d0	 lea	 ecx, DWORD PTR _local_File$[ebp]
  0000b	e9 00 00 00 00	 jmp	 ??1?$CStringT@_WV?$StrTraitMFC@_WV?$ChTraitsCRT@_W@ATL@@@@@ATL@@QAE@XZ ; ATL::CStringT<wchar_t,StrTraitMFC<wchar_t,ATL::ChTraitsCRT<wchar_t> > >::~CStringT<wchar_t,StrTraitMFC<wchar_t,ATL::ChTraitsCRT<wchar_t> > >
__unwindfunclet$?Save_File@Solution@@AAEHPA_W@Z$2:
  00010	8d 8d e0 fa ff
	ff		 lea	 ecx, DWORD PTR _FileOpenDialog$[ebp]
  00016	e9 00 00 00 00	 jmp	 ??1CFileDialog@@UAE@XZ	; CFileDialog::~CFileDialog
__unwindfunclet$?Save_File@Solution@@AAEHPA_W@Z$3:
  0001b	8d 8d d4 fa ff
	ff		 lea	 ecx, DWORD PTR _result$[ebp]
  00021	e9 00 00 00 00	 jmp	 ??1?$CStringT@_WV?$StrTraitMFC@_WV?$ChTraitsCRT@_W@ATL@@@@@ATL@@QAE@XZ ; ATL::CStringT<wchar_t,StrTraitMFC<wchar_t,ATL::ChTraitsCRT<wchar_t> > >::~CStringT<wchar_t,StrTraitMFC<wchar_t,ATL::ChTraitsCRT<wchar_t> > >
  00026	cc		 int	 3
  00027	cc		 int	 3
  00028	cc		 int	 3
  00029	cc		 int	 3
  0002a	cc		 int	 3
__ehhandler$?Save_File@Solution@@AAEHPA_W@Z:
  0002b	90		 npad	 1
  0002c	90		 npad	 1
  0002d	8b 54 24 08	 mov	 edx, DWORD PTR [esp+8]
  00031	8d 42 0c	 lea	 eax, DWORD PTR [edx+12]
  00034	8b 8a 74 f8 ff
	ff		 mov	 ecx, DWORD PTR [edx-1932]
  0003a	33 c8		 xor	 ecx, eax
  0003c	e8 00 00 00 00	 call	 @__security_check_cookie@4
  00041	8b 4a fc	 mov	 ecx, DWORD PTR [edx-4]
  00044	33 c8		 xor	 ecx, eax
  00046	e8 00 00 00 00	 call	 @__security_check_cookie@4
  0004b	b8 00 00 00 00	 mov	 eax, OFFSET __ehfuncinfo$?Save_File@Solution@@AAEHPA_W@Z
  00050	e9 00 00 00 00	 jmp	 ___CxxFrameHandler3
text$x	ENDS
?Save_File@Solution@@AAEHPA_W@Z ENDP			; Solution::Save_File
; Function compile flags: /Odsp /RTCsu /ZI
; File J:\work\SUDOKU\SUDOKU\SUDOKU\Solution.cpp
;	COMDAT ?Save_Load_Data@Solution@@AAEHXZ
_TEXT	SEGMENT
_pt_Out$1 = -20						; size = 4
_this$ = -8						; size = 4
?Save_Load_Data@Solution@@AAEHXZ PROC			; Solution::Save_Load_Data, COMDAT
; _this$ = ecx

; 345  : {

  00000	55		 push	 ebp
  00001	8b ec		 mov	 ebp, esp
  00003	81 ec d8 00 00
	00		 sub	 esp, 216		; 000000d8H
  00009	53		 push	 ebx
  0000a	56		 push	 esi
  0000b	57		 push	 edi
  0000c	51		 push	 ecx
  0000d	8d 7d e8	 lea	 edi, DWORD PTR [ebp-24]
  00010	6a 06		 push	 6
  00012	59		 pop	 ecx
  00013	b8 cc cc cc cc	 mov	 eax, -858993460		; ccccccccH
  00018	f3 ab		 rep stosd
  0001a	59		 pop	 ecx
  0001b	89 4d f8	 mov	 DWORD PTR _this$[ebp], ecx
  0001e	b9 00 00 00 00	 mov	 ecx, OFFSET __CBE53D1F_Solution@cpp
  00023	e8 00 00 00 00	 call	 @__CheckForDebuggerJustMyCode@4

; 346  : 
; 347  : 	if (Save_File(_T("Sudoku_imput.txt")) == TRUE)

  00028	68 00 00 00 00	 push	 OFFSET ??_C@_1CC@NLMIMJJF@?$AAS?$AAu?$AAd?$AAo?$AAk?$AAu?$AA_?$AAi?$AAm?$AAp?$AAu?$AAt?$AA?4?$AAt?$AAx@
  0002d	8b 4d f8	 mov	 ecx, DWORD PTR _this$[ebp]
  00030	e8 00 00 00 00	 call	 ?Save_File@Solution@@AAEHPA_W@Z ; Solution::Save_File
  00035	83 f8 01	 cmp	 eax, 1
  00038	75 3d		 jne	 SHORT $LN2@Save_Load_

; 348  : 	{
; 349  : 		FILE* pt_Out;
; 350  : 
; 351  : 		pt_Out = _wfopen(pszSource.GetBuffer(), _T("wt"));

  0003a	68 00 00 00 00	 push	 OFFSET ??_C@_15LMEHFEOO@?$AAw?$AAt@
  0003f	8b 4d f8	 mov	 ecx, DWORD PTR _this$[ebp]
  00042	81 c1 50 01 00
	00		 add	 ecx, 336		; 00000150H
  00048	e8 00 00 00 00	 call	 ?GetBuffer@?$CSimpleStringT@_W$0A@@ATL@@QAEPA_WXZ ; ATL::CSimpleStringT<wchar_t,0>::GetBuffer
  0004d	50		 push	 eax
  0004e	e8 00 00 00 00	 call	 __wfopen
  00053	59		 pop	 ecx
  00054	59		 pop	 ecx
  00055	89 45 ec	 mov	 DWORD PTR _pt_Out$1[ebp], eax

; 352  : 		if (pt_Out != 0)

  00058	83 7d ec 00	 cmp	 DWORD PTR _pt_Out$1[ebp], 0
  0005c	74 19		 je	 SHORT $LN2@Save_Load_

; 353  : 		{ 
; 354  : 		 WriteFile(pt_Out);

  0005e	ff 75 ec	 push	 DWORD PTR _pt_Out$1[ebp]
  00061	8b 4d f8	 mov	 ecx, DWORD PTR _this$[ebp]
  00064	e8 00 00 00 00	 call	 ?WriteFile@Solution@@AAEHPAU_iobuf@@@Z ; Solution::WriteFile

; 355  : 		 fclose(pt_Out);

  00069	ff 75 ec	 push	 DWORD PTR _pt_Out$1[ebp]
  0006c	e8 00 00 00 00	 call	 _fclose
  00071	59		 pop	 ecx

; 356  : 		 return (TRUE);

  00072	33 c0		 xor	 eax, eax
  00074	40		 inc	 eax
  00075	eb 02		 jmp	 SHORT $LN1@Save_Load_
$LN2@Save_Load_:

; 357  : 		}
; 358  : 	}
; 359  : 	return (FALSE);

  00077	33 c0		 xor	 eax, eax
$LN1@Save_Load_:

; 360  : }

  00079	5f		 pop	 edi
  0007a	5e		 pop	 esi
  0007b	5b		 pop	 ebx
  0007c	81 c4 d8 00 00
	00		 add	 esp, 216		; 000000d8H
  00082	3b ec		 cmp	 ebp, esp
  00084	e8 00 00 00 00	 call	 __RTC_CheckEsp
  00089	c9		 leave
  0008a	c3		 ret	 0
?Save_Load_Data@Solution@@AAEHXZ ENDP			; Solution::Save_Load_Data
_TEXT	ENDS
; Function compile flags: /Odsp /RTCsu /ZI
; File J:\work\SUDOKU\SUDOKU\SUDOKU\Solution.cpp
;	COMDAT ?Current_Dir@Solution@@AAE?AV?$CStringT@_WV?$StrTraitMFC@_WV?$ChTraitsCRT@_W@ATL@@@@@ATL@@XZ
_TEXT	SEGMENT
$T2 = -240						; size = 4
_Chaine$ = -36						; size = 4
_this$ = -24						; size = 4
__$ArrayPad$ = -16					; size = 4
__$EHRec$ = -12						; size = 12
___$ReturnUdt$ = 8					; size = 4
?Current_Dir@Solution@@AAE?AV?$CStringT@_WV?$StrTraitMFC@_WV?$ChTraitsCRT@_W@ATL@@@@@ATL@@XZ PROC ; Solution::Current_Dir, COMDAT
; _this$ = ecx

; 107  : {

  00000	55		 push	 ebp
  00001	8b ec		 mov	 ebp, esp
  00003	6a ff		 push	 -1
  00005	68 00 00 00 00	 push	 __ehhandler$?Current_Dir@Solution@@AAE?AV?$CStringT@_WV?$StrTraitMFC@_WV?$ChTraitsCRT@_W@ATL@@@@@ATL@@XZ
  0000a	64 a1 00 00 00
	00		 mov	 eax, DWORD PTR fs:0
  00010	50		 push	 eax
  00011	81 ec e8 00 00
	00		 sub	 esp, 232		; 000000e8H
  00017	53		 push	 ebx
  00018	56		 push	 esi
  00019	57		 push	 edi
  0001a	51		 push	 ecx
  0001b	8d 7d cc	 lea	 edi, DWORD PTR [ebp-52]
  0001e	6a 0a		 push	 10			; 0000000aH
  00020	59		 pop	 ecx
  00021	b8 cc cc cc cc	 mov	 eax, -858993460		; ccccccccH
  00026	f3 ab		 rep stosd
  00028	59		 pop	 ecx
  00029	a1 00 00 00 00	 mov	 eax, DWORD PTR ___security_cookie
  0002e	33 c5		 xor	 eax, ebp
  00030	89 45 f0	 mov	 DWORD PTR __$ArrayPad$[ebp], eax
  00033	50		 push	 eax
  00034	8d 45 f4	 lea	 eax, DWORD PTR __$EHRec$[ebp]
  00037	64 a3 00 00 00
	00		 mov	 DWORD PTR fs:0, eax
  0003d	89 4d e8	 mov	 DWORD PTR _this$[ebp], ecx
  00040	83 a5 10 ff ff
	ff 00		 and	 DWORD PTR $T2[ebp], 0
  00047	b9 00 00 00 00	 mov	 ecx, OFFSET __CBE53D1F_Solution@cpp
  0004c	e8 00 00 00 00	 call	 @__CheckForDebuggerJustMyCode@4

; 108  : 	CString Chaine;

  00051	6a 04		 push	 4
  00053	8d 4d dc	 lea	 ecx, DWORD PTR _Chaine$[ebp]
  00056	e8 00 00 00 00	 call	 ?__autoclassinit2@?$CStringT@_WV?$StrTraitMFC@_WV?$ChTraitsCRT@_W@ATL@@@@@ATL@@QAEXI@Z
  0005b	8d 4d dc	 lea	 ecx, DWORD PTR _Chaine$[ebp]
  0005e	e8 00 00 00 00	 call	 ??0?$CStringT@_WV?$StrTraitMFC@_WV?$ChTraitsCRT@_W@ATL@@@@@ATL@@QAE@XZ ; ATL::CStringT<wchar_t,StrTraitMFC<wchar_t,ATL::ChTraitsCRT<wchar_t> > >::CStringT<wchar_t,StrTraitMFC<wchar_t,ATL::ChTraitsCRT<wchar_t> > >
  00063	83 65 fc 00	 and	 DWORD PTR __$EHRec$[ebp+8], 0

; 109  : 
; 110  : 	::GetCurrentDirectory(MAX_PATH, Chaine.GetBuffer(MAX_PATH));

  00067	68 04 01 00 00	 push	 260			; 00000104H
  0006c	8d 4d dc	 lea	 ecx, DWORD PTR _Chaine$[ebp]
  0006f	e8 00 00 00 00	 call	 ?GetBuffer@?$CSimpleStringT@_W$0A@@ATL@@QAEPA_WH@Z ; ATL::CSimpleStringT<wchar_t,0>::GetBuffer
  00074	8b f4		 mov	 esi, esp
  00076	50		 push	 eax
  00077	68 04 01 00 00	 push	 260			; 00000104H
  0007c	ff 15 00 00 00
	00		 call	 DWORD PTR __imp__GetCurrentDirectoryW@8
  00082	3b f4		 cmp	 esi, esp
  00084	e8 00 00 00 00	 call	 __RTC_CheckEsp

; 111  : 	Chaine.ReleaseBuffer();

  00089	6a ff		 push	 -1
  0008b	8d 4d dc	 lea	 ecx, DWORD PTR _Chaine$[ebp]
  0008e	e8 00 00 00 00	 call	 ?ReleaseBuffer@?$CSimpleStringT@_W$0A@@ATL@@QAEXH@Z ; ATL::CSimpleStringT<wchar_t,0>::ReleaseBuffer

; 112  : 	return (Chaine);

  00093	8d 45 dc	 lea	 eax, DWORD PTR _Chaine$[ebp]
  00096	50		 push	 eax
  00097	8b 4d 08	 mov	 ecx, DWORD PTR ___$ReturnUdt$[ebp]
  0009a	e8 00 00 00 00	 call	 ??0?$CStringT@_WV?$StrTraitMFC@_WV?$ChTraitsCRT@_W@ATL@@@@@ATL@@QAE@ABV01@@Z ; ATL::CStringT<wchar_t,StrTraitMFC<wchar_t,ATL::ChTraitsCRT<wchar_t> > >::CStringT<wchar_t,StrTraitMFC<wchar_t,ATL::ChTraitsCRT<wchar_t> > >
  0009f	8b 85 10 ff ff
	ff		 mov	 eax, DWORD PTR $T2[ebp]
  000a5	83 c8 01	 or	 eax, 1
  000a8	89 85 10 ff ff
	ff		 mov	 DWORD PTR $T2[ebp], eax
  000ae	83 4d fc ff	 or	 DWORD PTR __$EHRec$[ebp+8], -1
  000b2	8d 4d dc	 lea	 ecx, DWORD PTR _Chaine$[ebp]
  000b5	e8 00 00 00 00	 call	 ??1?$CStringT@_WV?$StrTraitMFC@_WV?$ChTraitsCRT@_W@ATL@@@@@ATL@@QAE@XZ ; ATL::CStringT<wchar_t,StrTraitMFC<wchar_t,ATL::ChTraitsCRT<wchar_t> > >::~CStringT<wchar_t,StrTraitMFC<wchar_t,ATL::ChTraitsCRT<wchar_t> > >
  000ba	8b 45 08	 mov	 eax, DWORD PTR ___$ReturnUdt$[ebp]

; 113  : 
; 114  : }

  000bd	52		 push	 edx
  000be	8b cd		 mov	 ecx, ebp
  000c0	50		 push	 eax
  000c1	8d 15 00 00 00
	00		 lea	 edx, DWORD PTR $LN9@Current_Di
  000c7	e8 00 00 00 00	 call	 @_RTC_CheckStackVars@8
  000cc	58		 pop	 eax
  000cd	5a		 pop	 edx
  000ce	8b 4d f4	 mov	 ecx, DWORD PTR __$EHRec$[ebp]
  000d1	64 89 0d 00 00
	00 00		 mov	 DWORD PTR fs:0, ecx
  000d8	59		 pop	 ecx
  000d9	5f		 pop	 edi
  000da	5e		 pop	 esi
  000db	5b		 pop	 ebx
  000dc	8b 4d f0	 mov	 ecx, DWORD PTR __$ArrayPad$[ebp]
  000df	33 cd		 xor	 ecx, ebp
  000e1	e8 00 00 00 00	 call	 @__security_check_cookie@4
  000e6	81 c4 f4 00 00
	00		 add	 esp, 244		; 000000f4H
  000ec	3b ec		 cmp	 ebp, esp
  000ee	e8 00 00 00 00	 call	 __RTC_CheckEsp
  000f3	c9		 leave
  000f4	c2 04 00	 ret	 4
  000f7	90		 npad	 1
$LN9@Current_Di:
  000f8	01 00 00 00	 DD	 1
  000fc	00 00 00 00	 DD	 $LN8@Current_Di
$LN8@Current_Di:
  00100	dc ff ff ff	 DD	 -36			; ffffffdcH
  00104	04 00 00 00	 DD	 4
  00108	00 00 00 00	 DD	 $LN6@Current_Di
$LN6@Current_Di:
  0010c	43		 DB	 67			; 00000043H
  0010d	68		 DB	 104			; 00000068H
  0010e	61		 DB	 97			; 00000061H
  0010f	69		 DB	 105			; 00000069H
  00110	6e		 DB	 110			; 0000006eH
  00111	65		 DB	 101			; 00000065H
  00112	00		 DB	 0
_TEXT	ENDS
;	COMDAT text$x
text$x	SEGMENT
__unwindfunclet$?Current_Dir@Solution@@AAE?AV?$CStringT@_WV?$StrTraitMFC@_WV?$ChTraitsCRT@_W@ATL@@@@@ATL@@XZ$0:
  00000	8d 4d dc	 lea	 ecx, DWORD PTR _Chaine$[ebp]
  00003	e9 00 00 00 00	 jmp	 ??1?$CStringT@_WV?$StrTraitMFC@_WV?$ChTraitsCRT@_W@ATL@@@@@ATL@@QAE@XZ ; ATL::CStringT<wchar_t,StrTraitMFC<wchar_t,ATL::ChTraitsCRT<wchar_t> > >::~CStringT<wchar_t,StrTraitMFC<wchar_t,ATL::ChTraitsCRT<wchar_t> > >
  00008	cc		 int	 3
  00009	cc		 int	 3
  0000a	cc		 int	 3
  0000b	cc		 int	 3
  0000c	cc		 int	 3
__ehhandler$?Current_Dir@Solution@@AAE?AV?$CStringT@_WV?$StrTraitMFC@_WV?$ChTraitsCRT@_W@ATL@@@@@ATL@@XZ:
  0000d	90		 npad	 1
  0000e	90		 npad	 1
  0000f	8b 54 24 08	 mov	 edx, DWORD PTR [esp+8]
  00013	8d 42 0c	 lea	 eax, DWORD PTR [edx+12]
  00016	8b 8a 08 ff ff
	ff		 mov	 ecx, DWORD PTR [edx-248]
  0001c	33 c8		 xor	 ecx, eax
  0001e	e8 00 00 00 00	 call	 @__security_check_cookie@4
  00023	8b 4a fc	 mov	 ecx, DWORD PTR [edx-4]
  00026	33 c8		 xor	 ecx, eax
  00028	e8 00 00 00 00	 call	 @__security_check_cookie@4
  0002d	b8 00 00 00 00	 mov	 eax, OFFSET __ehfuncinfo$?Current_Dir@Solution@@AAE?AV?$CStringT@_WV?$StrTraitMFC@_WV?$ChTraitsCRT@_W@ATL@@@@@ATL@@XZ
  00032	e9 00 00 00 00	 jmp	 ___CxxFrameHandler3
text$x	ENDS
?Current_Dir@Solution@@AAE?AV?$CStringT@_WV?$StrTraitMFC@_WV?$ChTraitsCRT@_W@ATL@@@@@ATL@@XZ ENDP ; Solution::Current_Dir
; Function compile flags: /Odsp /RTCsu /ZI
; File J:\work\SUDOKU\SUDOKU\SUDOKU\Solution.cpp
;	COMDAT ?Definition_limite@Solution@@AAEXPAUHWND__@@@Z
_TEXT	SEGMENT
_i$1 = -32						; size = 4
_pt_edit_combo$ = -20					; size = 4
_this$ = -8						; size = 4
_Curent_windows$ = 8					; size = 4
?Definition_limite@Solution@@AAEXPAUHWND__@@@Z PROC	; Solution::Definition_limite, COMDAT
; _this$ = ecx

; 30   : {

  00000	55		 push	 ebp
  00001	8b ec		 mov	 ebp, esp
  00003	81 ec e4 00 00
	00		 sub	 esp, 228		; 000000e4H
  00009	53		 push	 ebx
  0000a	56		 push	 esi
  0000b	57		 push	 edi
  0000c	51		 push	 ecx
  0000d	8d 7d dc	 lea	 edi, DWORD PTR [ebp-36]
  00010	6a 09		 push	 9
  00012	59		 pop	 ecx
  00013	b8 cc cc cc cc	 mov	 eax, -858993460		; ccccccccH
  00018	f3 ab		 rep stosd
  0001a	59		 pop	 ecx
  0001b	89 4d f8	 mov	 DWORD PTR _this$[ebp], ecx
  0001e	b9 00 00 00 00	 mov	 ecx, OFFSET __CBE53D1F_Solution@cpp
  00023	e8 00 00 00 00	 call	 @__CheckForDebuggerJustMyCode@4

; 31   : 	CEdit *pt_edit_combo;
; 32   : 
; 33   : 	for (int i = 0; i <(sizeof(tableau_de_saisie) / sizeof(int)); i++)

  00028	83 65 e0 00	 and	 DWORD PTR _i$1[ebp], 0
  0002c	eb 07		 jmp	 SHORT $LN4@Definition
$LN2@Definition:
  0002e	8b 45 e0	 mov	 eax, DWORD PTR _i$1[ebp]
  00031	40		 inc	 eax
  00032	89 45 e0	 mov	 DWORD PTR _i$1[ebp], eax
$LN4@Definition:
  00035	83 7d e0 51	 cmp	 DWORD PTR _i$1[ebp], 81	; 00000051H
  00039	73 70		 jae	 SHORT $LN1@Definition

; 34   : 	{
; 35   : 		pt_edit_combo = (CEdit *)GetDlgItem(Save_Curent_windows, tableau_de_saisie[i]);

  0003b	8b f4		 mov	 esi, esp
  0003d	8b 45 e0	 mov	 eax, DWORD PTR _i$1[ebp]
  00040	8b 4d f8	 mov	 ecx, DWORD PTR _this$[ebp]
  00043	ff 74 81 04	 push	 DWORD PTR [ecx+eax*4+4]
  00047	8b 45 f8	 mov	 eax, DWORD PTR _this$[ebp]
  0004a	ff b0 48 01 00
	00		 push	 DWORD PTR [eax+328]
  00050	ff 15 00 00 00
	00		 call	 DWORD PTR __imp__GetDlgItem@8
  00056	3b f4		 cmp	 esi, esp
  00058	e8 00 00 00 00	 call	 __RTC_CheckEsp
  0005d	89 45 ec	 mov	 DWORD PTR _pt_edit_combo$[ebp], eax

; 36   : 		ASSERT(IsWindow((HWND)pt_edit_combo) != 0);

  00060	8b f4		 mov	 esi, esp
  00062	ff 75 ec	 push	 DWORD PTR _pt_edit_combo$[ebp]
  00065	ff 15 00 00 00
	00		 call	 DWORD PTR __imp__IsWindow@4
  0006b	3b f4		 cmp	 esi, esp
  0006d	e8 00 00 00 00	 call	 __RTC_CheckEsp
  00072	85 c0		 test	 eax, eax
  00074	75 18		 jne	 SHORT $LN6@Definition
  00076	a1 00 00 00 00	 mov	 eax, DWORD PTR ?__LINE__Var@?0??Definition_limite@Solution@@AAEXPAUHWND__@@@Z@4JA
  0007b	83 c0 06	 add	 eax, 6
  0007e	50		 push	 eax
  0007f	68 00 00 00 00	 push	 OFFSET ??_C@_0CK@JGFDDPMM@J?3?2work?2SUDOKU?2SUDOKU?2SUDOKU?2So@
  00084	e8 00 00 00 00	 call	 ?AfxAssertFailedLine@@YGHPBDH@Z ; AfxAssertFailedLine
  00089	85 c0		 test	 eax, eax
  0008b	74 01		 je	 SHORT $LN6@Definition
  0008d	cc		 int	 3
$LN6@Definition:

; 37   : 		::SendMessage((HWND)pt_edit_combo, EM_SETLIMITTEXT, 1, 0);

  0008e	8b f4		 mov	 esi, esp
  00090	6a 00		 push	 0
  00092	6a 01		 push	 1
  00094	68 c5 00 00 00	 push	 197			; 000000c5H
  00099	ff 75 ec	 push	 DWORD PTR _pt_edit_combo$[ebp]
  0009c	ff 15 00 00 00
	00		 call	 DWORD PTR __imp__SendMessageW@16
  000a2	3b f4		 cmp	 esi, esp
  000a4	e8 00 00 00 00	 call	 __RTC_CheckEsp

; 38   : 	}

  000a9	eb 83		 jmp	 SHORT $LN2@Definition
$LN1@Definition:

; 39   : }

  000ab	5f		 pop	 edi
  000ac	5e		 pop	 esi
  000ad	5b		 pop	 ebx
  000ae	81 c4 e4 00 00
	00		 add	 esp, 228		; 000000e4H
  000b4	3b ec		 cmp	 ebp, esp
  000b6	e8 00 00 00 00	 call	 __RTC_CheckEsp
  000bb	c9		 leave
  000bc	c2 04 00	 ret	 4
?Definition_limite@Solution@@AAEXPAUHWND__@@@Z ENDP	; Solution::Definition_limite
_TEXT	ENDS
; Function compile flags: /Odsp /RTCsu /ZI
; File J:\work\SUDOKU\SUDOKU\SUDOKU\Solution.cpp
;	COMDAT ?Charge_tableau_relation@Solution@@AAEXXZ
_TEXT	SEGMENT
_i$1 = -20						; size = 4
_this$ = -8						; size = 4
?Charge_tableau_relation@Solution@@AAEXXZ PROC		; Solution::Charge_tableau_relation, COMDAT
; _this$ = ecx

; 22   : {

  00000	55		 push	 ebp
  00001	8b ec		 mov	 ebp, esp
  00003	81 ec d8 00 00
	00		 sub	 esp, 216		; 000000d8H
  00009	53		 push	 ebx
  0000a	56		 push	 esi
  0000b	57		 push	 edi
  0000c	51		 push	 ecx
  0000d	8d 7d e8	 lea	 edi, DWORD PTR [ebp-24]
  00010	6a 06		 push	 6
  00012	59		 pop	 ecx
  00013	b8 cc cc cc cc	 mov	 eax, -858993460		; ccccccccH
  00018	f3 ab		 rep stosd
  0001a	59		 pop	 ecx
  0001b	89 4d f8	 mov	 DWORD PTR _this$[ebp], ecx
  0001e	b9 00 00 00 00	 mov	 ecx, OFFSET __CBE53D1F_Solution@cpp
  00023	e8 00 00 00 00	 call	 @__CheckForDebuggerJustMyCode@4

; 23   : 	for (int i = 0; i < (sizeof(tableau_de_saisie) / sizeof(int)); i++)

  00028	83 65 ec 00	 and	 DWORD PTR _i$1[ebp], 0
  0002c	eb 07		 jmp	 SHORT $LN4@Charge_tab
$LN2@Charge_tab:
  0002e	8b 45 ec	 mov	 eax, DWORD PTR _i$1[ebp]
  00031	40		 inc	 eax
  00032	89 45 ec	 mov	 DWORD PTR _i$1[ebp], eax
$LN4@Charge_tab:
  00035	83 7d ec 51	 cmp	 DWORD PTR _i$1[ebp], 81	; 00000051H
  00039	73 14		 jae	 SHORT $LN1@Charge_tab

; 24   : 	{
; 25   : 		tableau_de_saisie[i] = (IDC_EDIT1 + i);

  0003b	8b 45 ec	 mov	 eax, DWORD PTR _i$1[ebp]
  0003e	05 e8 03 00 00	 add	 eax, 1000		; 000003e8H
  00043	8b 4d ec	 mov	 ecx, DWORD PTR _i$1[ebp]
  00046	8b 55 f8	 mov	 edx, DWORD PTR _this$[ebp]
  00049	89 44 8a 04	 mov	 DWORD PTR [edx+ecx*4+4], eax

; 26   : 	}

  0004d	eb df		 jmp	 SHORT $LN2@Charge_tab
$LN1@Charge_tab:

; 27   : }

  0004f	5f		 pop	 edi
  00050	5e		 pop	 esi
  00051	5b		 pop	 ebx
  00052	81 c4 d8 00 00
	00		 add	 esp, 216		; 000000d8H
  00058	3b ec		 cmp	 ebp, esp
  0005a	e8 00 00 00 00	 call	 __RTC_CheckEsp
  0005f	c9		 leave
  00060	c3		 ret	 0
?Charge_tableau_relation@Solution@@AAEXXZ ENDP		; Solution::Charge_tableau_relation
_TEXT	ENDS
; Function compile flags: /Odsp /RTCsu /ZI
; File J:\work\SUDOKU\SUDOKU\SUDOKU\Solution.cpp
;	COMDAT ?Print@Solution@@AAEXXZ
_TEXT	SEGMENT
_col$2 = -60						; size = 4
_row$3 = -48						; size = 4
_chaine$ = -36						; size = 4
_this$ = -24						; size = 4
__$ArrayPad$ = -16					; size = 4
__$EHRec$ = -12						; size = 12
?Print@Solution@@AAEXXZ PROC				; Solution::Print, COMDAT
; _this$ = ecx

; 233  : {

  00000	55		 push	 ebp
  00001	8b ec		 mov	 ebp, esp
  00003	6a ff		 push	 -1
  00005	68 00 00 00 00	 push	 __ehhandler$?Print@Solution@@AAEXXZ
  0000a	64 a1 00 00 00
	00		 mov	 eax, DWORD PTR fs:0
  00010	50		 push	 eax
  00011	81 ec f4 00 00
	00		 sub	 esp, 244		; 000000f4H
  00017	53		 push	 ebx
  00018	56		 push	 esi
  00019	57		 push	 edi
  0001a	51		 push	 ecx
  0001b	8d 7d c0	 lea	 edi, DWORD PTR [ebp-64]
  0001e	6a 0d		 push	 13			; 0000000dH
  00020	59		 pop	 ecx
  00021	b8 cc cc cc cc	 mov	 eax, -858993460		; ccccccccH
  00026	f3 ab		 rep stosd
  00028	59		 pop	 ecx
  00029	a1 00 00 00 00	 mov	 eax, DWORD PTR ___security_cookie
  0002e	33 c5		 xor	 eax, ebp
  00030	89 45 f0	 mov	 DWORD PTR __$ArrayPad$[ebp], eax
  00033	50		 push	 eax
  00034	8d 45 f4	 lea	 eax, DWORD PTR __$EHRec$[ebp]
  00037	64 a3 00 00 00
	00		 mov	 DWORD PTR fs:0, eax
  0003d	89 4d e8	 mov	 DWORD PTR _this$[ebp], ecx
  00040	b9 00 00 00 00	 mov	 ecx, OFFSET __CBE53D1F_Solution@cpp
  00045	e8 00 00 00 00	 call	 @__CheckForDebuggerJustMyCode@4

; 234  : 
; 235  : 	fprintf(pt_fichier, "Nombre d'essais : %d\n\n", g_test_counter);

  0004a	8b 45 e8	 mov	 eax, DWORD PTR _this$[ebp]
  0004d	ff b0 4c 01 00
	00		 push	 DWORD PTR [eax+332]
  00053	68 00 00 00 00	 push	 OFFSET ??_C@_0BH@JLAFPNCO@Nombre?5d?8essais?5?3?5?$CFd?6?6@
  00058	8b 45 e8	 mov	 eax, DWORD PTR _this$[ebp]
  0005b	ff b0 54 01 00
	00		 push	 DWORD PTR [eax+340]
  00061	e8 00 00 00 00	 call	 _fprintf
  00066	83 c4 0c	 add	 esp, 12			; 0000000cH

; 236  : 	CString chaine;

  00069	6a 04		 push	 4
  0006b	8d 4d dc	 lea	 ecx, DWORD PTR _chaine$[ebp]
  0006e	e8 00 00 00 00	 call	 ?__autoclassinit2@?$CStringT@_WV?$StrTraitMFC@_WV?$ChTraitsCRT@_W@ATL@@@@@ATL@@QAEXI@Z
  00073	8d 4d dc	 lea	 ecx, DWORD PTR _chaine$[ebp]
  00076	e8 00 00 00 00	 call	 ??0?$CStringT@_WV?$StrTraitMFC@_WV?$ChTraitsCRT@_W@ATL@@@@@ATL@@QAE@XZ ; ATL::CStringT<wchar_t,StrTraitMFC<wchar_t,ATL::ChTraitsCRT<wchar_t> > >::CStringT<wchar_t,StrTraitMFC<wchar_t,ATL::ChTraitsCRT<wchar_t> > >
  0007b	83 65 fc 00	 and	 DWORD PTR __$EHRec$[ebp+8], 0

; 237  : 	chaine.Format(_T("Nombre d'essais : %d"),g_test_counter);

  0007f	8b 45 e8	 mov	 eax, DWORD PTR _this$[ebp]
  00082	ff b0 4c 01 00
	00		 push	 DWORD PTR [eax+332]
  00088	68 00 00 00 00	 push	 OFFSET ??_C@_1CK@FIOBKKHN@?$AAN?$AAo?$AAm?$AAb?$AAr?$AAe?$AA?5?$AAd?$AA?8?$AAe?$AAs?$AAs?$AAa?$AAi?$AAs@
  0008d	8d 45 dc	 lea	 eax, DWORD PTR _chaine$[ebp]
  00090	50		 push	 eax
  00091	e8 00 00 00 00	 call	 ?Format@?$CStringT@_WV?$StrTraitMFC@_WV?$ChTraitsCRT@_W@ATL@@@@@ATL@@QAAXPB_WZZ ; ATL::CStringT<wchar_t,StrTraitMFC<wchar_t,ATL::ChTraitsCRT<wchar_t> > >::Format
  00096	83 c4 0c	 add	 esp, 12			; 0000000cH

; 238  : 
; 239  : 	// IDC_STATIC
; 240  : 	::SetDlgItemTextW(Save_Curent_windows, IDC_STATIC, (LPWSTR)chaine.GetBuffer()); 

  00099	8d 4d dc	 lea	 ecx, DWORD PTR _chaine$[ebp]
  0009c	e8 00 00 00 00	 call	 ?GetBuffer@?$CSimpleStringT@_W$0A@@ATL@@QAEPA_WXZ ; ATL::CSimpleStringT<wchar_t,0>::GetBuffer
  000a1	8b f4		 mov	 esi, esp
  000a3	50		 push	 eax
  000a4	6a ff		 push	 -1
  000a6	8b 45 e8	 mov	 eax, DWORD PTR _this$[ebp]
  000a9	ff b0 48 01 00
	00		 push	 DWORD PTR [eax+328]
  000af	ff 15 00 00 00
	00		 call	 DWORD PTR __imp__SetDlgItemTextW@12
  000b5	3b f4		 cmp	 esi, esp
  000b7	e8 00 00 00 00	 call	 __RTC_CheckEsp

; 241  : 
; 242  : 	for (int row = 0; row < MAX; row++)

  000bc	83 65 d0 00	 and	 DWORD PTR _row$3[ebp], 0
  000c0	eb 07		 jmp	 SHORT $LN4@Print
$LN2@Print:
  000c2	8b 45 d0	 mov	 eax, DWORD PTR _row$3[ebp]
  000c5	40		 inc	 eax
  000c6	89 45 d0	 mov	 DWORD PTR _row$3[ebp], eax
$LN4@Print:
  000c9	83 7d d0 09	 cmp	 DWORD PTR _row$3[ebp], 9
  000cd	7d 50		 jge	 SHORT $LN3@Print

; 243  : 	{
; 244  : 		for (int col = 0; col < MAX; col++)

  000cf	83 65 c4 00	 and	 DWORD PTR _col$2[ebp], 0
  000d3	eb 07		 jmp	 SHORT $LN7@Print
$LN5@Print:
  000d5	8b 45 c4	 mov	 eax, DWORD PTR _col$2[ebp]
  000d8	40		 inc	 eax
  000d9	89 45 c4	 mov	 DWORD PTR _col$2[ebp], eax
$LN7@Print:
  000dc	83 7d c4 09	 cmp	 DWORD PTR _col$2[ebp], 9
  000e0	7d 26		 jge	 SHORT $LN6@Print

; 245  : 		{
; 246  : 
; 247  : 			fprintf(pt_fichier, "%d ", grid[row][col]);

  000e2	6b 45 d0 24	 imul	 eax, DWORD PTR _row$3[ebp], 36
  000e6	8b 4d c4	 mov	 ecx, DWORD PTR _col$2[ebp]
  000e9	ff b4 88 00 00
	00 00		 push	 DWORD PTR ?grid@@3PAY08HA[eax+ecx*4]
  000f0	68 00 00 00 00	 push	 OFFSET ??_C@_03JDANDILB@?$CFd?5@
  000f5	8b 45 e8	 mov	 eax, DWORD PTR _this$[ebp]
  000f8	ff b0 54 01 00
	00		 push	 DWORD PTR [eax+340]
  000fe	e8 00 00 00 00	 call	 _fprintf
  00103	83 c4 0c	 add	 esp, 12			; 0000000cH

; 248  : 
; 249  : 		}

  00106	eb cd		 jmp	 SHORT $LN5@Print
$LN6@Print:

; 250  : 
; 251  : 		fprintf(pt_fichier, "\n");

  00108	68 00 00 00 00	 push	 OFFSET ??_C@_01EEMJAFIK@?6@
  0010d	8b 45 e8	 mov	 eax, DWORD PTR _this$[ebp]
  00110	ff b0 54 01 00
	00		 push	 DWORD PTR [eax+340]
  00116	e8 00 00 00 00	 call	 _fprintf
  0011b	59		 pop	 ecx
  0011c	59		 pop	 ecx

; 252  : 	}

  0011d	eb a3		 jmp	 SHORT $LN2@Print
$LN3@Print:

; 253  : 
; 254  : 	fprintf(pt_fichier, "\n\n\n");

  0011f	68 00 00 00 00	 push	 OFFSET ??_C@_03EGHOKNNL@?6?6?6@
  00124	8b 45 e8	 mov	 eax, DWORD PTR _this$[ebp]
  00127	ff b0 54 01 00
	00		 push	 DWORD PTR [eax+340]
  0012d	e8 00 00 00 00	 call	 _fprintf
  00132	59		 pop	 ecx
  00133	59		 pop	 ecx

; 255  : }

  00134	83 4d fc ff	 or	 DWORD PTR __$EHRec$[ebp+8], -1
  00138	8d 4d dc	 lea	 ecx, DWORD PTR _chaine$[ebp]
  0013b	e8 00 00 00 00	 call	 ??1?$CStringT@_WV?$StrTraitMFC@_WV?$ChTraitsCRT@_W@ATL@@@@@ATL@@QAE@XZ ; ATL::CStringT<wchar_t,StrTraitMFC<wchar_t,ATL::ChTraitsCRT<wchar_t> > >::~CStringT<wchar_t,StrTraitMFC<wchar_t,ATL::ChTraitsCRT<wchar_t> > >
  00140	52		 push	 edx
  00141	8b cd		 mov	 ecx, ebp
  00143	50		 push	 eax
  00144	8d 15 00 00 00
	00		 lea	 edx, DWORD PTR $LN13@Print
  0014a	e8 00 00 00 00	 call	 @_RTC_CheckStackVars@8
  0014f	58		 pop	 eax
  00150	5a		 pop	 edx
  00151	8b 4d f4	 mov	 ecx, DWORD PTR __$EHRec$[ebp]
  00154	64 89 0d 00 00
	00 00		 mov	 DWORD PTR fs:0, ecx
  0015b	59		 pop	 ecx
  0015c	5f		 pop	 edi
  0015d	5e		 pop	 esi
  0015e	5b		 pop	 ebx
  0015f	8b 4d f0	 mov	 ecx, DWORD PTR __$ArrayPad$[ebp]
  00162	33 cd		 xor	 ecx, ebp
  00164	e8 00 00 00 00	 call	 @__security_check_cookie@4
  00169	81 c4 00 01 00
	00		 add	 esp, 256		; 00000100H
  0016f	3b ec		 cmp	 ebp, esp
  00171	e8 00 00 00 00	 call	 __RTC_CheckEsp
  00176	c9		 leave
  00177	c3		 ret	 0
$LN13@Print:
  00178	01 00 00 00	 DD	 1
  0017c	00 00 00 00	 DD	 $LN12@Print
$LN12@Print:
  00180	dc ff ff ff	 DD	 -36			; ffffffdcH
  00184	04 00 00 00	 DD	 4
  00188	00 00 00 00	 DD	 $LN10@Print
$LN10@Print:
  0018c	63		 DB	 99			; 00000063H
  0018d	68		 DB	 104			; 00000068H
  0018e	61		 DB	 97			; 00000061H
  0018f	69		 DB	 105			; 00000069H
  00190	6e		 DB	 110			; 0000006eH
  00191	65		 DB	 101			; 00000065H
  00192	00		 DB	 0
_TEXT	ENDS
;	COMDAT text$x
text$x	SEGMENT
__unwindfunclet$?Print@Solution@@AAEXXZ$0:
  00000	8d 4d dc	 lea	 ecx, DWORD PTR _chaine$[ebp]
  00003	e9 00 00 00 00	 jmp	 ??1?$CStringT@_WV?$StrTraitMFC@_WV?$ChTraitsCRT@_W@ATL@@@@@ATL@@QAE@XZ ; ATL::CStringT<wchar_t,StrTraitMFC<wchar_t,ATL::ChTraitsCRT<wchar_t> > >::~CStringT<wchar_t,StrTraitMFC<wchar_t,ATL::ChTraitsCRT<wchar_t> > >
  00008	cc		 int	 3
  00009	cc		 int	 3
  0000a	cc		 int	 3
  0000b	cc		 int	 3
  0000c	cc		 int	 3
__ehhandler$?Print@Solution@@AAEXXZ:
  0000d	90		 npad	 1
  0000e	90		 npad	 1
  0000f	8b 54 24 08	 mov	 edx, DWORD PTR [esp+8]
  00013	8d 42 0c	 lea	 eax, DWORD PTR [edx+12]
  00016	8b 8a fc fe ff
	ff		 mov	 ecx, DWORD PTR [edx-260]
  0001c	33 c8		 xor	 ecx, eax
  0001e	e8 00 00 00 00	 call	 @__security_check_cookie@4
  00023	8b 4a fc	 mov	 ecx, DWORD PTR [edx-4]
  00026	33 c8		 xor	 ecx, eax
  00028	e8 00 00 00 00	 call	 @__security_check_cookie@4
  0002d	b8 00 00 00 00	 mov	 eax, OFFSET __ehfuncinfo$?Print@Solution@@AAEXXZ
  00032	e9 00 00 00 00	 jmp	 ___CxxFrameHandler3
text$x	ENDS
?Print@Solution@@AAEXXZ ENDP				; Solution::Print
; Function compile flags: /Odsp /RTCsu /ZI
; File J:\work\SUDOKU\SUDOKU\SUDOKU\Solution.cpp
;	COMDAT ?Display_grille@Solution@@AAEXPAUHWND__@@@Z
_TEXT	SEGMENT
_col$2 = -72						; size = 4
_row$3 = -60						; size = 4
_Chaine$ = -48						; size = 4
_z$ = -36						; size = 4
_this$ = -24						; size = 4
__$ArrayPad$ = -16					; size = 4
__$EHRec$ = -12						; size = 12
_Curent_windows$ = 8					; size = 4
?Display_grille@Solution@@AAEXPAUHWND__@@@Z PROC	; Solution::Display_grille, COMDAT
; _this$ = ecx

; 383  : {	

  00000	55		 push	 ebp
  00001	8b ec		 mov	 ebp, esp
  00003	6a ff		 push	 -1
  00005	68 00 00 00 00	 push	 __ehhandler$?Display_grille@Solution@@AAEXPAUHWND__@@@Z
  0000a	64 a1 00 00 00
	00		 mov	 eax, DWORD PTR fs:0
  00010	50		 push	 eax
  00011	81 ec 00 01 00
	00		 sub	 esp, 256		; 00000100H
  00017	53		 push	 ebx
  00018	56		 push	 esi
  00019	57		 push	 edi
  0001a	51		 push	 ecx
  0001b	8d 7d b4	 lea	 edi, DWORD PTR [ebp-76]
  0001e	6a 10		 push	 16			; 00000010H
  00020	59		 pop	 ecx
  00021	b8 cc cc cc cc	 mov	 eax, -858993460		; ccccccccH
  00026	f3 ab		 rep stosd
  00028	59		 pop	 ecx
  00029	a1 00 00 00 00	 mov	 eax, DWORD PTR ___security_cookie
  0002e	33 c5		 xor	 eax, ebp
  00030	89 45 f0	 mov	 DWORD PTR __$ArrayPad$[ebp], eax
  00033	50		 push	 eax
  00034	8d 45 f4	 lea	 eax, DWORD PTR __$EHRec$[ebp]
  00037	64 a3 00 00 00
	00		 mov	 DWORD PTR fs:0, eax
  0003d	89 4d e8	 mov	 DWORD PTR _this$[ebp], ecx
  00040	b9 00 00 00 00	 mov	 ecx, OFFSET __CBE53D1F_Solution@cpp
  00045	e8 00 00 00 00	 call	 @__CheckForDebuggerJustMyCode@4

; 384  : 	int z = 0;

  0004a	83 65 dc 00	 and	 DWORD PTR _z$[ebp], 0

; 385  : 	CString Chaine;

  0004e	6a 04		 push	 4
  00050	8d 4d d0	 lea	 ecx, DWORD PTR _Chaine$[ebp]
  00053	e8 00 00 00 00	 call	 ?__autoclassinit2@?$CStringT@_WV?$StrTraitMFC@_WV?$ChTraitsCRT@_W@ATL@@@@@ATL@@QAEXI@Z
  00058	8d 4d d0	 lea	 ecx, DWORD PTR _Chaine$[ebp]
  0005b	e8 00 00 00 00	 call	 ??0?$CStringT@_WV?$StrTraitMFC@_WV?$ChTraitsCRT@_W@ATL@@@@@ATL@@QAE@XZ ; ATL::CStringT<wchar_t,StrTraitMFC<wchar_t,ATL::ChTraitsCRT<wchar_t> > >::CStringT<wchar_t,StrTraitMFC<wchar_t,ATL::ChTraitsCRT<wchar_t> > >
  00060	83 65 fc 00	 and	 DWORD PTR __$EHRec$[ebp+8], 0

; 386  : 
; 387  : 	ASSERT(IsWindow(Curent_windows) != 0);

  00064	8b f4		 mov	 esi, esp
  00066	ff 75 08	 push	 DWORD PTR _Curent_windows$[ebp]
  00069	ff 15 00 00 00
	00		 call	 DWORD PTR __imp__IsWindow@4
  0006f	3b f4		 cmp	 esi, esp
  00071	e8 00 00 00 00	 call	 __RTC_CheckEsp
  00076	85 c0		 test	 eax, eax
  00078	75 18		 jne	 SHORT $LN11@Display_gr
  0007a	a1 00 00 00 00	 mov	 eax, DWORD PTR ?__LINE__Var@?0??Display_grille@Solution@@AAEXPAUHWND__@@@Z@4JA
  0007f	83 c0 04	 add	 eax, 4
  00082	50		 push	 eax
  00083	68 00 00 00 00	 push	 OFFSET ??_C@_0CK@JGFDDPMM@J?3?2work?2SUDOKU?2SUDOKU?2SUDOKU?2So@
  00088	e8 00 00 00 00	 call	 ?AfxAssertFailedLine@@YGHPBDH@Z ; AfxAssertFailedLine
  0008d	85 c0		 test	 eax, eax
  0008f	74 01		 je	 SHORT $LN11@Display_gr
  00091	cc		 int	 3
$LN11@Display_gr:

; 388  : 
; 389  : 	for (int row = 0; row < MAX; row++)

  00092	83 65 c4 00	 and	 DWORD PTR _row$3[ebp], 0
  00096	eb 07		 jmp	 SHORT $LN4@Display_gr
$LN2@Display_gr:
  00098	8b 45 c4	 mov	 eax, DWORD PTR _row$3[ebp]
  0009b	40		 inc	 eax
  0009c	89 45 c4	 mov	 DWORD PTR _row$3[ebp], eax
$LN4@Display_gr:
  0009f	83 7d c4 09	 cmp	 DWORD PTR _row$3[ebp], 9
  000a3	0f 8d a0 00 00
	00		 jge	 $LN3@Display_gr

; 390  : 	{
; 391  : 		for (int col = 0; col < MAX; col++)

  000a9	83 65 b8 00	 and	 DWORD PTR _col$2[ebp], 0
  000ad	eb 07		 jmp	 SHORT $LN7@Display_gr
$LN5@Display_gr:
  000af	8b 45 b8	 mov	 eax, DWORD PTR _col$2[ebp]
  000b2	40		 inc	 eax
  000b3	89 45 b8	 mov	 DWORD PTR _col$2[ebp], eax
$LN7@Display_gr:
  000b6	83 7d b8 09	 cmp	 DWORD PTR _col$2[ebp], 9
  000ba	0f 8d 84 00 00
	00		 jge	 $LN6@Display_gr

; 392  : 		{
; 393  : 			Chaine.Format(_T("%d"), grid[row][col]);

  000c0	6b 45 c4 24	 imul	 eax, DWORD PTR _row$3[ebp], 36
  000c4	8b 4d b8	 mov	 ecx, DWORD PTR _col$2[ebp]
  000c7	ff b4 88 00 00
	00 00		 push	 DWORD PTR ?grid@@3PAY08HA[eax+ecx*4]
  000ce	68 00 00 00 00	 push	 OFFSET ??_C@_15KNBIKKIN@?$AA?$CF?$AAd@
  000d3	8d 45 d0	 lea	 eax, DWORD PTR _Chaine$[ebp]
  000d6	50		 push	 eax
  000d7	e8 00 00 00 00	 call	 ?Format@?$CStringT@_WV?$StrTraitMFC@_WV?$ChTraitsCRT@_W@ATL@@@@@ATL@@QAAXPB_WZZ ; ATL::CStringT<wchar_t,StrTraitMFC<wchar_t,ATL::ChTraitsCRT<wchar_t> > >::Format
  000dc	83 c4 0c	 add	 esp, 12			; 0000000cH

; 394  : 			if (grid[row][col] > 0)

  000df	6b 45 c4 24	 imul	 eax, DWORD PTR _row$3[ebp], 36
  000e3	8b 4d b8	 mov	 ecx, DWORD PTR _col$2[ebp]
  000e6	83 bc 88 00 00
	00 00 00	 cmp	 DWORD PTR ?grid@@3PAY08HA[eax+ecx*4], 0
  000ee	7e 27		 jle	 SHORT $LN8@Display_gr

; 395  : 			{		
; 396  : 			 ::SetDlgItemTextW(Curent_windows, tableau_de_saisie[z], (LPWSTR)Chaine.GetBuffer());

  000f0	8d 4d d0	 lea	 ecx, DWORD PTR _Chaine$[ebp]
  000f3	e8 00 00 00 00	 call	 ?GetBuffer@?$CSimpleStringT@_W$0A@@ATL@@QAEPA_WXZ ; ATL::CSimpleStringT<wchar_t,0>::GetBuffer
  000f8	8b f4		 mov	 esi, esp
  000fa	50		 push	 eax
  000fb	8b 45 dc	 mov	 eax, DWORD PTR _z$[ebp]
  000fe	8b 4d e8	 mov	 ecx, DWORD PTR _this$[ebp]
  00101	ff 74 81 04	 push	 DWORD PTR [ecx+eax*4+4]
  00105	ff 75 08	 push	 DWORD PTR _Curent_windows$[ebp]
  00108	ff 15 00 00 00
	00		 call	 DWORD PTR __imp__SetDlgItemTextW@12
  0010e	3b f4		 cmp	 esi, esp
  00110	e8 00 00 00 00	 call	 __RTC_CheckEsp

; 397  : 			}else

  00115	eb 21		 jmp	 SHORT $LN9@Display_gr
$LN8@Display_gr:

; 398  : 			{
; 399  : 			 ::SetDlgItemTextW(Curent_windows, tableau_de_saisie[z],_T(""));

  00117	8b f4		 mov	 esi, esp
  00119	68 00 00 00 00	 push	 OFFSET ??_C@_11LOCGONAA@@
  0011e	8b 45 dc	 mov	 eax, DWORD PTR _z$[ebp]
  00121	8b 4d e8	 mov	 ecx, DWORD PTR _this$[ebp]
  00124	ff 74 81 04	 push	 DWORD PTR [ecx+eax*4+4]
  00128	ff 75 08	 push	 DWORD PTR _Curent_windows$[ebp]
  0012b	ff 15 00 00 00
	00		 call	 DWORD PTR __imp__SetDlgItemTextW@12
  00131	3b f4		 cmp	 esi, esp
  00133	e8 00 00 00 00	 call	 __RTC_CheckEsp
$LN9@Display_gr:

; 400  : 			}
; 401  : 			z++;

  00138	8b 45 dc	 mov	 eax, DWORD PTR _z$[ebp]
  0013b	40		 inc	 eax
  0013c	89 45 dc	 mov	 DWORD PTR _z$[ebp], eax

; 402  : 		}

  0013f	e9 6b ff ff ff	 jmp	 $LN5@Display_gr
$LN6@Display_gr:

; 403  : 	}

  00144	e9 4f ff ff ff	 jmp	 $LN2@Display_gr
$LN3@Display_gr:

; 404  : 
; 405  : }

  00149	83 4d fc ff	 or	 DWORD PTR __$EHRec$[ebp+8], -1
  0014d	8d 4d d0	 lea	 ecx, DWORD PTR _Chaine$[ebp]
  00150	e8 00 00 00 00	 call	 ??1?$CStringT@_WV?$StrTraitMFC@_WV?$ChTraitsCRT@_W@ATL@@@@@ATL@@QAE@XZ ; ATL::CStringT<wchar_t,StrTraitMFC<wchar_t,ATL::ChTraitsCRT<wchar_t> > >::~CStringT<wchar_t,StrTraitMFC<wchar_t,ATL::ChTraitsCRT<wchar_t> > >
  00155	52		 push	 edx
  00156	8b cd		 mov	 ecx, ebp
  00158	50		 push	 eax
  00159	8d 15 00 00 00
	00		 lea	 edx, DWORD PTR $LN16@Display_gr
  0015f	e8 00 00 00 00	 call	 @_RTC_CheckStackVars@8
  00164	58		 pop	 eax
  00165	5a		 pop	 edx
  00166	8b 4d f4	 mov	 ecx, DWORD PTR __$EHRec$[ebp]
  00169	64 89 0d 00 00
	00 00		 mov	 DWORD PTR fs:0, ecx
  00170	59		 pop	 ecx
  00171	5f		 pop	 edi
  00172	5e		 pop	 esi
  00173	5b		 pop	 ebx
  00174	8b 4d f0	 mov	 ecx, DWORD PTR __$ArrayPad$[ebp]
  00177	33 cd		 xor	 ecx, ebp
  00179	e8 00 00 00 00	 call	 @__security_check_cookie@4
  0017e	81 c4 0c 01 00
	00		 add	 esp, 268		; 0000010cH
  00184	3b ec		 cmp	 ebp, esp
  00186	e8 00 00 00 00	 call	 __RTC_CheckEsp
  0018b	c9		 leave
  0018c	c2 04 00	 ret	 4
  0018f	90		 npad	 1
$LN16@Display_gr:
  00190	01 00 00 00	 DD	 1
  00194	00 00 00 00	 DD	 $LN15@Display_gr
$LN15@Display_gr:
  00198	d0 ff ff ff	 DD	 -48			; ffffffd0H
  0019c	04 00 00 00	 DD	 4
  001a0	00 00 00 00	 DD	 $LN13@Display_gr
$LN13@Display_gr:
  001a4	43		 DB	 67			; 00000043H
  001a5	68		 DB	 104			; 00000068H
  001a6	61		 DB	 97			; 00000061H
  001a7	69		 DB	 105			; 00000069H
  001a8	6e		 DB	 110			; 0000006eH
  001a9	65		 DB	 101			; 00000065H
  001aa	00		 DB	 0
_TEXT	ENDS
;	COMDAT text$x
text$x	SEGMENT
__unwindfunclet$?Display_grille@Solution@@AAEXPAUHWND__@@@Z$0:
  00000	8d 4d d0	 lea	 ecx, DWORD PTR _Chaine$[ebp]
  00003	e9 00 00 00 00	 jmp	 ??1?$CStringT@_WV?$StrTraitMFC@_WV?$ChTraitsCRT@_W@ATL@@@@@ATL@@QAE@XZ ; ATL::CStringT<wchar_t,StrTraitMFC<wchar_t,ATL::ChTraitsCRT<wchar_t> > >::~CStringT<wchar_t,StrTraitMFC<wchar_t,ATL::ChTraitsCRT<wchar_t> > >
  00008	cc		 int	 3
  00009	cc		 int	 3
  0000a	cc		 int	 3
  0000b	cc		 int	 3
  0000c	cc		 int	 3
__ehhandler$?Display_grille@Solution@@AAEXPAUHWND__@@@Z:
  0000d	90		 npad	 1
  0000e	90		 npad	 1
  0000f	8b 54 24 08	 mov	 edx, DWORD PTR [esp+8]
  00013	8d 42 0c	 lea	 eax, DWORD PTR [edx+12]
  00016	8b 8a f0 fe ff
	ff		 mov	 ecx, DWORD PTR [edx-272]
  0001c	33 c8		 xor	 ecx, eax
  0001e	e8 00 00 00 00	 call	 @__security_check_cookie@4
  00023	8b 4a fc	 mov	 ecx, DWORD PTR [edx-4]
  00026	33 c8		 xor	 ecx, eax
  00028	e8 00 00 00 00	 call	 @__security_check_cookie@4
  0002d	b8 00 00 00 00	 mov	 eax, OFFSET __ehfuncinfo$?Display_grille@Solution@@AAEXPAUHWND__@@@Z
  00032	e9 00 00 00 00	 jmp	 ___CxxFrameHandler3
text$x	ENDS
?Display_grille@Solution@@AAEXPAUHWND__@@@Z ENDP	; Solution::Display_grille
; Function compile flags: /Odsp /RTCsu /ZI
; File J:\work\SUDOKU\SUDOKU\SUDOKU\Solution.cpp
;	COMDAT ?Finished_grid@Solution@@AAEHXZ
_TEXT	SEGMENT
_col$ = -32						; size = 4
_row$ = -20						; size = 4
_this$ = -8						; size = 4
?Finished_grid@Solution@@AAEHXZ PROC			; Solution::Finished_grid, COMDAT
; _this$ = ecx

; 697  : {

  00000	55		 push	 ebp
  00001	8b ec		 mov	 ebp, esp
  00003	81 ec e4 00 00
	00		 sub	 esp, 228		; 000000e4H
  00009	53		 push	 ebx
  0000a	56		 push	 esi
  0000b	57		 push	 edi
  0000c	51		 push	 ecx
  0000d	8d 7d dc	 lea	 edi, DWORD PTR [ebp-36]
  00010	6a 09		 push	 9
  00012	59		 pop	 ecx
  00013	b8 cc cc cc cc	 mov	 eax, -858993460		; ccccccccH
  00018	f3 ab		 rep stosd
  0001a	59		 pop	 ecx
  0001b	89 4d f8	 mov	 DWORD PTR _this$[ebp], ecx
  0001e	b9 00 00 00 00	 mov	 ecx, OFFSET __CBE53D1F_Solution@cpp
  00023	e8 00 00 00 00	 call	 @__CheckForDebuggerJustMyCode@4

; 698  : 	int row, col = 0;

  00028	83 65 e0 00	 and	 DWORD PTR _col$[ebp], 0

; 699  : 
; 700  : 	for (row = MAX - 1; row >= 0; row--)

  0002c	c7 45 ec 08 00
	00 00		 mov	 DWORD PTR _row$[ebp], 8
  00033	eb 07		 jmp	 SHORT $LN4@Finished_g
$LN2@Finished_g:
  00035	8b 45 ec	 mov	 eax, DWORD PTR _row$[ebp]
  00038	48		 dec	 eax
  00039	89 45 ec	 mov	 DWORD PTR _row$[ebp], eax
$LN4@Finished_g:
  0003c	83 7d ec 00	 cmp	 DWORD PTR _row$[ebp], 0
  00040	7c 2f		 jl	 SHORT $LN3@Finished_g

; 701  : 	{
; 702  : 
; 703  : 		for (col = MAX - 1; col >= 0; col--)

  00042	c7 45 e0 08 00
	00 00		 mov	 DWORD PTR _col$[ebp], 8
  00049	eb 07		 jmp	 SHORT $LN7@Finished_g
$LN5@Finished_g:
  0004b	8b 45 e0	 mov	 eax, DWORD PTR _col$[ebp]
  0004e	48		 dec	 eax
  0004f	89 45 e0	 mov	 DWORD PTR _col$[ebp], eax
$LN7@Finished_g:
  00052	83 7d e0 00	 cmp	 DWORD PTR _col$[ebp], 0
  00056	7c 17		 jl	 SHORT $LN6@Finished_g

; 704  : 		{
; 705  : 
; 706  : 			if (grid[row][col] == 0)

  00058	6b 45 ec 24	 imul	 eax, DWORD PTR _row$[ebp], 36
  0005c	8b 4d e0	 mov	 ecx, DWORD PTR _col$[ebp]
  0005f	83 bc 88 00 00
	00 00 00	 cmp	 DWORD PTR ?grid@@3PAY08HA[eax+ecx*4], 0
  00067	75 04		 jne	 SHORT $LN8@Finished_g

; 707  : 			{
; 708  : 				return FALSE;

  00069	33 c0		 xor	 eax, eax
  0006b	eb 07		 jmp	 SHORT $LN1@Finished_g
$LN8@Finished_g:

; 709  : 			}
; 710  : 
; 711  : 		}/* end for col */

  0006d	eb dc		 jmp	 SHORT $LN5@Finished_g
$LN6@Finished_g:

; 712  : 	}/* end for row */

  0006f	eb c4		 jmp	 SHORT $LN2@Finished_g
$LN3@Finished_g:

; 713  : 
; 714  : 	return TRUE;

  00071	33 c0		 xor	 eax, eax
  00073	40		 inc	 eax
$LN1@Finished_g:

; 715  : }

  00074	5f		 pop	 edi
  00075	5e		 pop	 esi
  00076	5b		 pop	 ebx
  00077	81 c4 e4 00 00
	00		 add	 esp, 228		; 000000e4H
  0007d	3b ec		 cmp	 ebp, esp
  0007f	e8 00 00 00 00	 call	 __RTC_CheckEsp
  00084	c9		 leave
  00085	c3		 ret	 0
?Finished_grid@Solution@@AAEHXZ ENDP			; Solution::Finished_grid
_TEXT	ENDS
; Function compile flags: /Odsp /RTCsu /ZI
; File J:\work\SUDOKU\SUDOKU\SUDOKU\Solution.cpp
;	COMDAT ?Trans_sub_square_of_cell@Solution@@AAEXQADHH@Z
_TEXT	SEGMENT
_k$ = -44						; size = 4
_j$ = -32						; size = 4
_i$ = -20						; size = 4
_this$ = -8						; size = 4
_buffer$ = 8						; size = 4
_row$ = 12						; size = 4
_col$ = 16						; size = 4
?Trans_sub_square_of_cell@Solution@@AAEXQADHH@Z PROC	; Solution::Trans_sub_square_of_cell, COMDAT
; _this$ = ecx

; 672  : {

  00000	55		 push	 ebp
  00001	8b ec		 mov	 ebp, esp
  00003	81 ec f0 00 00
	00		 sub	 esp, 240		; 000000f0H
  00009	53		 push	 ebx
  0000a	56		 push	 esi
  0000b	57		 push	 edi
  0000c	51		 push	 ecx
  0000d	8d 7d d0	 lea	 edi, DWORD PTR [ebp-48]
  00010	6a 0c		 push	 12			; 0000000cH
  00012	59		 pop	 ecx
  00013	b8 cc cc cc cc	 mov	 eax, -858993460		; ccccccccH
  00018	f3 ab		 rep stosd
  0001a	59		 pop	 ecx
  0001b	89 4d f8	 mov	 DWORD PTR _this$[ebp], ecx
  0001e	b9 00 00 00 00	 mov	 ecx, OFFSET __CBE53D1F_Solution@cpp
  00023	e8 00 00 00 00	 call	 @__CheckForDebuggerJustMyCode@4

; 673  : 	int i, j, k = 0;

  00028	83 65 d4 00	 and	 DWORD PTR _k$[ebp], 0
$LN2@Trans_sub_:

; 674  : 
; 675  : 	while ((row % MIN) != 0) row--;

  0002c	8b 45 0c	 mov	 eax, DWORD PTR _row$[ebp]
  0002f	99		 cdq
  00030	6a 03		 push	 3
  00032	59		 pop	 ecx
  00033	f7 f9		 idiv	 ecx
  00035	85 d2		 test	 edx, edx
  00037	74 09		 je	 SHORT $LN4@Trans_sub_
  00039	8b 45 0c	 mov	 eax, DWORD PTR _row$[ebp]
  0003c	48		 dec	 eax
  0003d	89 45 0c	 mov	 DWORD PTR _row$[ebp], eax
  00040	eb ea		 jmp	 SHORT $LN2@Trans_sub_
$LN4@Trans_sub_:

; 676  : 	while ((col % MIN) != 0) col--;

  00042	8b 45 10	 mov	 eax, DWORD PTR _col$[ebp]
  00045	99		 cdq
  00046	6a 03		 push	 3
  00048	59		 pop	 ecx
  00049	f7 f9		 idiv	 ecx
  0004b	85 d2		 test	 edx, edx
  0004d	74 09		 je	 SHORT $LN5@Trans_sub_
  0004f	8b 45 10	 mov	 eax, DWORD PTR _col$[ebp]
  00052	48		 dec	 eax
  00053	89 45 10	 mov	 DWORD PTR _col$[ebp], eax
  00056	eb ea		 jmp	 SHORT $LN4@Trans_sub_
$LN5@Trans_sub_:

; 677  : 
; 678  : 	k = 0;

  00058	83 65 d4 00	 and	 DWORD PTR _k$[ebp], 0

; 679  : 
; 680  : 	for (j = row; j < row + MIN; j++)

  0005c	8b 45 0c	 mov	 eax, DWORD PTR _row$[ebp]
  0005f	89 45 e0	 mov	 DWORD PTR _j$[ebp], eax
  00062	eb 07		 jmp	 SHORT $LN8@Trans_sub_
$LN6@Trans_sub_:
  00064	8b 45 e0	 mov	 eax, DWORD PTR _j$[ebp]
  00067	40		 inc	 eax
  00068	89 45 e0	 mov	 DWORD PTR _j$[ebp], eax
$LN8@Trans_sub_:
  0006b	8b 45 0c	 mov	 eax, DWORD PTR _row$[ebp]
  0006e	83 c0 03	 add	 eax, 3
  00071	39 45 e0	 cmp	 DWORD PTR _j$[ebp], eax
  00074	7d 3b		 jge	 SHORT $LN1@Trans_sub_

; 681  : 	{
; 682  : 
; 683  : 		for (i = col; i < col + MIN; i++)

  00076	8b 45 10	 mov	 eax, DWORD PTR _col$[ebp]
  00079	89 45 ec	 mov	 DWORD PTR _i$[ebp], eax
  0007c	eb 07		 jmp	 SHORT $LN11@Trans_sub_
$LN9@Trans_sub_:
  0007e	8b 45 ec	 mov	 eax, DWORD PTR _i$[ebp]
  00081	40		 inc	 eax
  00082	89 45 ec	 mov	 DWORD PTR _i$[ebp], eax
$LN11@Trans_sub_:
  00085	8b 45 10	 mov	 eax, DWORD PTR _col$[ebp]
  00088	83 c0 03	 add	 eax, 3
  0008b	39 45 ec	 cmp	 DWORD PTR _i$[ebp], eax
  0008e	7d 1f		 jge	 SHORT $LN10@Trans_sub_

; 684  : 		{
; 685  : 
; 686  : 			buffer[++k] = grid[j][i];

  00090	8b 45 d4	 mov	 eax, DWORD PTR _k$[ebp]
  00093	40		 inc	 eax
  00094	89 45 d4	 mov	 DWORD PTR _k$[ebp], eax
  00097	6b 45 e0 24	 imul	 eax, DWORD PTR _j$[ebp], 36
  0009b	8b 4d 08	 mov	 ecx, DWORD PTR _buffer$[ebp]
  0009e	03 4d d4	 add	 ecx, DWORD PTR _k$[ebp]
  000a1	8b 55 ec	 mov	 edx, DWORD PTR _i$[ebp]
  000a4	8a 84 90 00 00
	00 00		 mov	 al, BYTE PTR ?grid@@3PAY08HA[eax+edx*4]
  000ab	88 01		 mov	 BYTE PTR [ecx], al

; 687  : 
; 688  : 		}/* end for i */

  000ad	eb cf		 jmp	 SHORT $LN9@Trans_sub_
$LN10@Trans_sub_:

; 689  : 
; 690  : 	}/* end for j */

  000af	eb b3		 jmp	 SHORT $LN6@Trans_sub_
$LN1@Trans_sub_:

; 691  : 
; 692  : }/* end trans_sub_square_of_cell */

  000b1	5f		 pop	 edi
  000b2	5e		 pop	 esi
  000b3	5b		 pop	 ebx
  000b4	81 c4 f0 00 00
	00		 add	 esp, 240		; 000000f0H
  000ba	3b ec		 cmp	 ebp, esp
  000bc	e8 00 00 00 00	 call	 __RTC_CheckEsp
  000c1	c9		 leave
  000c2	c2 0c 00	 ret	 12			; 0000000cH
?Trans_sub_square_of_cell@Solution@@AAEXQADHH@Z ENDP	; Solution::Trans_sub_square_of_cell
_TEXT	ENDS
; Function compile flags: /Odsp /RTCsu /ZI
; File J:\work\SUDOKU\SUDOKU\SUDOKU\Solution.cpp
;	COMDAT ?Free_cell_for_number@Solution@@AAEHHHH@Z
_TEXT	SEGMENT
_i$ = -64						; size = 4
_buffer$ = -52						; size = 29
_this$ = -12						; size = 4
__$ArrayPad$ = -4					; size = 4
_number$ = 8						; size = 4
_row$ = 12						; size = 4
_col$ = 16						; size = 4
?Free_cell_for_number@Solution@@AAEHHHH@Z PROC		; Solution::Free_cell_for_number, COMDAT
; _this$ = ecx

; 642  : {

  00000	55		 push	 ebp
  00001	8b ec		 mov	 ebp, esp
  00003	81 ec 04 01 00
	00		 sub	 esp, 260		; 00000104H
  00009	53		 push	 ebx
  0000a	56		 push	 esi
  0000b	57		 push	 edi
  0000c	51		 push	 ecx
  0000d	8d 7d bc	 lea	 edi, DWORD PTR [ebp-68]
  00010	6a 11		 push	 17			; 00000011H
  00012	59		 pop	 ecx
  00013	b8 cc cc cc cc	 mov	 eax, -858993460		; ccccccccH
  00018	f3 ab		 rep stosd
  0001a	59		 pop	 ecx
  0001b	a1 00 00 00 00	 mov	 eax, DWORD PTR ___security_cookie
  00020	33 c5		 xor	 eax, ebp
  00022	89 45 fc	 mov	 DWORD PTR __$ArrayPad$[ebp], eax
  00025	89 4d f4	 mov	 DWORD PTR _this$[ebp], ecx
  00028	b9 00 00 00 00	 mov	 ecx, OFFSET __CBE53D1F_Solution@cpp
  0002d	e8 00 00 00 00	 call	 @__CheckForDebuggerJustMyCode@4

; 643  : 	/* Test if the number is already in the line, or the column,
; 644  : 	or the sub-square of 3 X 3 afferent at the cell pointed to by line and column. */
; 645  : 
; 646  : 	char buffer[MAX + 20] = { 0 };

  00032	6a 07		 push	 7
  00034	59		 pop	 ecx
  00035	33 c0		 xor	 eax, eax
  00037	8d 7d cc	 lea	 edi, DWORD PTR _buffer$[ebp]
  0003a	f3 ab		 rep stosd
  0003c	aa		 stosb

; 647  : 	int i= 0;

  0003d	83 65 c0 00	 and	 DWORD PTR _i$[ebp], 0

; 648  : 
; 649  : 	/* If the number is used in the line return FALSE */
; 650  : 	for (i = 0; i < MAX; i++)

  00041	83 65 c0 00	 and	 DWORD PTR _i$[ebp], 0
  00045	eb 07		 jmp	 SHORT $LN4@Free_cell_
$LN2@Free_cell_:
  00047	8b 45 c0	 mov	 eax, DWORD PTR _i$[ebp]
  0004a	40		 inc	 eax
  0004b	89 45 c0	 mov	 DWORD PTR _i$[ebp], eax
$LN4@Free_cell_:
  0004e	83 7d c0 09	 cmp	 DWORD PTR _i$[ebp], 9
  00052	7d 19		 jge	 SHORT $LN3@Free_cell_

; 651  : 
; 652  : 	{
; 653  : 		if (grid[row][i] == number) return(FALSE); /* If the number is used in the column return FALSE */

  00054	6b 45 0c 24	 imul	 eax, DWORD PTR _row$[ebp], 36
  00058	8b 4d c0	 mov	 ecx, DWORD PTR _i$[ebp]
  0005b	8b 84 88 00 00
	00 00		 mov	 eax, DWORD PTR ?grid@@3PAY08HA[eax+ecx*4]
  00062	3b 45 08	 cmp	 eax, DWORD PTR _number$[ebp]
  00065	75 04		 jne	 SHORT $LN11@Free_cell_
  00067	33 c0		 xor	 eax, eax
  00069	eb 69		 jmp	 SHORT $LN1@Free_cell_
$LN11@Free_cell_:

; 654  : 	}

  0006b	eb da		 jmp	 SHORT $LN2@Free_cell_
$LN3@Free_cell_:

; 655  : 
; 656  : 	for (i = 0; i < MAX; i++)

  0006d	83 65 c0 00	 and	 DWORD PTR _i$[ebp], 0
  00071	eb 07		 jmp	 SHORT $LN7@Free_cell_
$LN5@Free_cell_:
  00073	8b 45 c0	 mov	 eax, DWORD PTR _i$[ebp]
  00076	40		 inc	 eax
  00077	89 45 c0	 mov	 DWORD PTR _i$[ebp], eax
$LN7@Free_cell_:
  0007a	83 7d c0 09	 cmp	 DWORD PTR _i$[ebp], 9
  0007e	7d 19		 jge	 SHORT $LN6@Free_cell_

; 657  : 	{
; 658  : 		if (grid[i][col] == number) return(FALSE); /* If the number is used in the sub-square of 3 X 3 return FALSE */

  00080	6b 45 c0 24	 imul	 eax, DWORD PTR _i$[ebp], 36
  00084	8b 4d 10	 mov	 ecx, DWORD PTR _col$[ebp]
  00087	8b 84 88 00 00
	00 00		 mov	 eax, DWORD PTR ?grid@@3PAY08HA[eax+ecx*4]
  0008e	3b 45 08	 cmp	 eax, DWORD PTR _number$[ebp]
  00091	75 04		 jne	 SHORT $LN12@Free_cell_
  00093	33 c0		 xor	 eax, eax
  00095	eb 3d		 jmp	 SHORT $LN1@Free_cell_
$LN12@Free_cell_:

; 659  : 	}

  00097	eb da		 jmp	 SHORT $LN5@Free_cell_
$LN6@Free_cell_:

; 660  : 
; 661  : 	Trans_sub_square_of_cell(buffer, row, col);

  00099	ff 75 10	 push	 DWORD PTR _col$[ebp]
  0009c	ff 75 0c	 push	 DWORD PTR _row$[ebp]
  0009f	8d 45 cc	 lea	 eax, DWORD PTR _buffer$[ebp]
  000a2	50		 push	 eax
  000a3	8b 4d f4	 mov	 ecx, DWORD PTR _this$[ebp]
  000a6	e8 00 00 00 00	 call	 ?Trans_sub_square_of_cell@Solution@@AAEXQADHH@Z ; Solution::Trans_sub_square_of_cell

; 662  : 
; 663  : 	for (i = 0; i < MAX; i++)

  000ab	83 65 c0 00	 and	 DWORD PTR _i$[ebp], 0
  000af	eb 07		 jmp	 SHORT $LN10@Free_cell_
$LN8@Free_cell_:
  000b1	8b 45 c0	 mov	 eax, DWORD PTR _i$[ebp]
  000b4	40		 inc	 eax
  000b5	89 45 c0	 mov	 DWORD PTR _i$[ebp], eax
$LN10@Free_cell_:
  000b8	83 7d c0 09	 cmp	 DWORD PTR _i$[ebp], 9
  000bc	7d 13		 jge	 SHORT $LN9@Free_cell_

; 664  : 	{
; 665  : 		if (buffer[i] == number) return (FALSE);   /* whereby the number is available for the cell, return TRUE. */

  000be	8b 45 c0	 mov	 eax, DWORD PTR _i$[ebp]
  000c1	0f be 44 05 cc	 movsx	 eax, BYTE PTR _buffer$[ebp+eax]
  000c6	3b 45 08	 cmp	 eax, DWORD PTR _number$[ebp]
  000c9	75 04		 jne	 SHORT $LN13@Free_cell_
  000cb	33 c0		 xor	 eax, eax
  000cd	eb 05		 jmp	 SHORT $LN1@Free_cell_
$LN13@Free_cell_:

; 666  : 	}

  000cf	eb e0		 jmp	 SHORT $LN8@Free_cell_
$LN9@Free_cell_:

; 667  : 	return(TRUE);

  000d1	33 c0		 xor	 eax, eax
  000d3	40		 inc	 eax
$LN1@Free_cell_:

; 668  : }

  000d4	52		 push	 edx
  000d5	8b cd		 mov	 ecx, ebp
  000d7	50		 push	 eax
  000d8	8d 15 00 00 00
	00		 lea	 edx, DWORD PTR $LN17@Free_cell_
  000de	e8 00 00 00 00	 call	 @_RTC_CheckStackVars@8
  000e3	58		 pop	 eax
  000e4	5a		 pop	 edx
  000e5	5f		 pop	 edi
  000e6	5e		 pop	 esi
  000e7	5b		 pop	 ebx
  000e8	8b 4d fc	 mov	 ecx, DWORD PTR __$ArrayPad$[ebp]
  000eb	33 cd		 xor	 ecx, ebp
  000ed	e8 00 00 00 00	 call	 @__security_check_cookie@4
  000f2	81 c4 04 01 00
	00		 add	 esp, 260		; 00000104H
  000f8	3b ec		 cmp	 ebp, esp
  000fa	e8 00 00 00 00	 call	 __RTC_CheckEsp
  000ff	c9		 leave
  00100	c2 0c 00	 ret	 12			; 0000000cH
  00103	90		 npad	 1
$LN17@Free_cell_:
  00104	01 00 00 00	 DD	 1
  00108	00 00 00 00	 DD	 $LN16@Free_cell_
$LN16@Free_cell_:
  0010c	cc ff ff ff	 DD	 -52			; ffffffccH
  00110	1d 00 00 00	 DD	 29			; 0000001dH
  00114	00 00 00 00	 DD	 $LN15@Free_cell_
$LN15@Free_cell_:
  00118	62		 DB	 98			; 00000062H
  00119	75		 DB	 117			; 00000075H
  0011a	66		 DB	 102			; 00000066H
  0011b	66		 DB	 102			; 00000066H
  0011c	65		 DB	 101			; 00000065H
  0011d	72		 DB	 114			; 00000072H
  0011e	00		 DB	 0
?Free_cell_for_number@Solution@@AAEHHHH@Z ENDP		; Solution::Free_cell_for_number
_TEXT	ENDS
; Function compile flags: /Odsp /RTCsu /ZI
; File J:\work\SUDOKU\SUDOKU\SUDOKU\Solution.cpp
;	COMDAT ?Resolve@Solution@@AAEXXZ
_TEXT	SEGMENT
_buffer_number$ = -56					; size = 4
_number$ = -44						; size = 4
_col$ = -32						; size = 4
_row$ = -20						; size = 4
_this$ = -8						; size = 4
?Resolve@Solution@@AAEXXZ PROC				; Solution::Resolve, COMDAT
; _this$ = ecx

; 590  : {

  00000	55		 push	 ebp
  00001	8b ec		 mov	 ebp, esp
  00003	81 ec fc 00 00
	00		 sub	 esp, 252		; 000000fcH
  00009	53		 push	 ebx
  0000a	56		 push	 esi
  0000b	57		 push	 edi
  0000c	51		 push	 ecx
  0000d	8d 7d c4	 lea	 edi, DWORD PTR [ebp-60]
  00010	6a 0f		 push	 15			; 0000000fH
  00012	59		 pop	 ecx
  00013	b8 cc cc cc cc	 mov	 eax, -858993460		; ccccccccH
  00018	f3 ab		 rep stosd
  0001a	59		 pop	 ecx
  0001b	89 4d f8	 mov	 DWORD PTR _this$[ebp], ecx
  0001e	b9 00 00 00 00	 mov	 ecx, OFFSET __CBE53D1F_Solution@cpp
  00023	e8 00 00 00 00	 call	 @__CheckForDebuggerJustMyCode@4

; 591  : 	
; 592  : 	/* Attention, recursive function... */
; 593  : 	int row = 0;

  00028	83 65 ec 00	 and	 DWORD PTR _row$[ebp], 0

; 594  : 	int col = 0;

  0002c	83 65 e0 00	 and	 DWORD PTR _col$[ebp], 0

; 595  : 	int number = 0;

  00030	83 65 d4 00	 and	 DWORD PTR _number$[ebp], 0

; 596  : 	int buffer_number = 0 ;

  00034	83 65 c8 00	 and	 DWORD PTR _buffer_number$[ebp], 0

; 597  : 
; 598  : 	for (row = 0; row < MAX; row++)

  00038	83 65 ec 00	 and	 DWORD PTR _row$[ebp], 0
  0003c	eb 07		 jmp	 SHORT $LN4@Resolve
$LN2@Resolve:
  0003e	8b 45 ec	 mov	 eax, DWORD PTR _row$[ebp]
  00041	40		 inc	 eax
  00042	89 45 ec	 mov	 DWORD PTR _row$[ebp], eax
$LN4@Resolve:
  00045	83 7d ec 09	 cmp	 DWORD PTR _row$[ebp], 9
  00049	0f 8d c5 00 00
	00		 jge	 $LN1@Resolve

; 599  : 	{
; 600  : 		for (col = 0; col < MAX; col++)

  0004f	83 65 e0 00	 and	 DWORD PTR _col$[ebp], 0
  00053	eb 07		 jmp	 SHORT $LN7@Resolve
$LN5@Resolve:
  00055	8b 45 e0	 mov	 eax, DWORD PTR _col$[ebp]
  00058	40		 inc	 eax
  00059	89 45 e0	 mov	 DWORD PTR _col$[ebp], eax
$LN7@Resolve:
  0005c	83 7d e0 09	 cmp	 DWORD PTR _col$[ebp], 9
  00060	0f 8d a9 00 00
	00		 jge	 $LN6@Resolve

; 601  : 		{
; 602  : 			if (grid[row][col]) continue;

  00066	6b 45 ec 24	 imul	 eax, DWORD PTR _row$[ebp], 36
  0006a	8b 4d e0	 mov	 ecx, DWORD PTR _col$[ebp]
  0006d	83 bc 88 00 00
	00 00 00	 cmp	 DWORD PTR ?grid@@3PAY08HA[eax+ecx*4], 0
  00075	74 02		 je	 SHORT $LN11@Resolve
  00077	eb dc		 jmp	 SHORT $LN5@Resolve
$LN11@Resolve:

; 603  : 
; 604  : 			for (number = 1; number <= MAX; number++)

  00079	c7 45 d4 01 00
	00 00		 mov	 DWORD PTR _number$[ebp], 1
  00080	eb 07		 jmp	 SHORT $LN10@Resolve
$LN8@Resolve:
  00082	8b 45 d4	 mov	 eax, DWORD PTR _number$[ebp]
  00085	40		 inc	 eax
  00086	89 45 d4	 mov	 DWORD PTR _number$[ebp], eax
$LN10@Resolve:
  00089	83 7d d4 09	 cmp	 DWORD PTR _number$[ebp], 9
  0008d	7f 79		 jg	 SHORT $LN9@Resolve

; 605  : 			{
; 606  : 
; 607  : 				if (!Free_cell_for_number(number, row, col)) continue;

  0008f	ff 75 e0	 push	 DWORD PTR _col$[ebp]
  00092	ff 75 ec	 push	 DWORD PTR _row$[ebp]
  00095	ff 75 d4	 push	 DWORD PTR _number$[ebp]
  00098	8b 4d f8	 mov	 ecx, DWORD PTR _this$[ebp]
  0009b	e8 00 00 00 00	 call	 ?Free_cell_for_number@Solution@@AAEHHHH@Z ; Solution::Free_cell_for_number
  000a0	85 c0		 test	 eax, eax
  000a2	75 02		 jne	 SHORT $LN12@Resolve
  000a4	eb dc		 jmp	 SHORT $LN8@Resolve
$LN12@Resolve:

; 608  : 				buffer_number = grid[row][col]; 

  000a6	6b 45 ec 24	 imul	 eax, DWORD PTR _row$[ebp], 36
  000aa	8b 4d e0	 mov	 ecx, DWORD PTR _col$[ebp]
  000ad	8b 84 88 00 00
	00 00		 mov	 eax, DWORD PTR ?grid@@3PAY08HA[eax+ecx*4]
  000b4	89 45 c8	 mov	 DWORD PTR _buffer_number$[ebp], eax

; 609  : 				g_test_counter++;

  000b7	8b 45 f8	 mov	 eax, DWORD PTR _this$[ebp]
  000ba	8b 80 4c 01 00
	00		 mov	 eax, DWORD PTR [eax+332]
  000c0	40		 inc	 eax
  000c1	8b 4d f8	 mov	 ecx, DWORD PTR _this$[ebp]
  000c4	89 81 4c 01 00
	00		 mov	 DWORD PTR [ecx+332], eax

; 610  : 				grid[row][col] = number;

  000ca	6b 45 ec 24	 imul	 eax, DWORD PTR _row$[ebp], 36
  000ce	8b 4d e0	 mov	 ecx, DWORD PTR _col$[ebp]
  000d1	8b 55 d4	 mov	 edx, DWORD PTR _number$[ebp]
  000d4	89 94 88 00 00
	00 00		 mov	 DWORD PTR ?grid@@3PAY08HA[eax+ecx*4], edx

; 611  : 				Resolve();

  000db	8b 4d f8	 mov	 ecx, DWORD PTR _this$[ebp]
  000de	e8 00 00 00 00	 call	 ?Resolve@Solution@@AAEXXZ ; Solution::Resolve

; 612  : 				if (Finished_grid() == TRUE ) return;

  000e3	8b 4d f8	 mov	 ecx, DWORD PTR _this$[ebp]
  000e6	e8 00 00 00 00	 call	 ?Finished_grid@Solution@@AAEHXZ ; Solution::Finished_grid
  000eb	83 f8 01	 cmp	 eax, 1
  000ee	75 02		 jne	 SHORT $LN13@Resolve
  000f0	eb 22		 jmp	 SHORT $LN1@Resolve
$LN13@Resolve:

; 613  : 				/* To see all the solutions of the grids with multiple solutions,
; 614  : 				switch the line above as a comment and remove the comment command
; 615  : 				of the line below.
; 616  : 				*/
; 617  : 				grid[row][col] = buffer_number;

  000f2	6b 45 ec 24	 imul	 eax, DWORD PTR _row$[ebp], 36
  000f6	8b 4d e0	 mov	 ecx, DWORD PTR _col$[ebp]
  000f9	8b 55 c8	 mov	 edx, DWORD PTR _buffer_number$[ebp]
  000fc	89 94 88 00 00
	00 00		 mov	 DWORD PTR ?grid@@3PAY08HA[eax+ecx*4], edx

; 618  : 
; 619  : 			}/* end for number */

  00103	e9 7a ff ff ff	 jmp	 $LN8@Resolve
$LN9@Resolve:

; 620  : 			return;

  00108	eb 0a		 jmp	 SHORT $LN1@Resolve

; 621  : 
; 622  : 		}/* end for col */

  0010a	e9 46 ff ff ff	 jmp	 $LN5@Resolve
$LN6@Resolve:

; 623  : 	}/* end for row */

  0010f	e9 2a ff ff ff	 jmp	 $LN2@Resolve
$LN1@Resolve:

; 624  : 
; 625  : 	return;
; 626  : 
; 627  : }

  00114	5f		 pop	 edi
  00115	5e		 pop	 esi
  00116	5b		 pop	 ebx
  00117	81 c4 fc 00 00
	00		 add	 esp, 252		; 000000fcH
  0011d	3b ec		 cmp	 ebp, esp
  0011f	e8 00 00 00 00	 call	 __RTC_CheckEsp
  00124	c9		 leave
  00125	c3		 ret	 0
?Resolve@Solution@@AAEXXZ ENDP				; Solution::Resolve
_TEXT	ENDS
; Function compile flags: /Odsp /RTCsu /ZI
; File J:\work\SUDOKU\SUDOKU\SUDOKU\Solution.cpp
;	COMDAT ?Trans_sub_square@Solution@@AAEXQADH@Z
_TEXT	SEGMENT
_z$ = -68						; size = 4
_y$ = -56						; size = 4
_x$ = -44						; size = 4
_j$ = -32						; size = 4
_i$ = -20						; size = 4
_this$ = -8						; size = 4
_buffer$ = 8						; size = 4
_sub_square$ = 12					; size = 4
?Trans_sub_square@Solution@@AAEXQADH@Z PROC		; Solution::Trans_sub_square, COMDAT
; _this$ = ecx

; 554  : {

  00000	55		 push	 ebp
  00001	8b ec		 mov	 ebp, esp
  00003	81 ec 08 01 00
	00		 sub	 esp, 264		; 00000108H
  00009	53		 push	 ebx
  0000a	56		 push	 esi
  0000b	57		 push	 edi
  0000c	51		 push	 ecx
  0000d	8d 7d b8	 lea	 edi, DWORD PTR [ebp-72]
  00010	6a 12		 push	 18			; 00000012H
  00012	59		 pop	 ecx
  00013	b8 cc cc cc cc	 mov	 eax, -858993460		; ccccccccH
  00018	f3 ab		 rep stosd
  0001a	59		 pop	 ecx
  0001b	89 4d f8	 mov	 DWORD PTR _this$[ebp], ecx
  0001e	b9 00 00 00 00	 mov	 ecx, OFFSET __CBE53D1F_Solution@cpp
  00023	e8 00 00 00 00	 call	 @__CheckForDebuggerJustMyCode@4

; 555  : 	/* Transfer the sub-square of 3 x 3 into a one-dimensional array. */
; 556  : 	int i, j, x, y, z;
; 557  : 
; 558  : 	x = (((sub_square) % MIN)*MIN);

  00028	8b 45 0c	 mov	 eax, DWORD PTR _sub_square$[ebp]
  0002b	99		 cdq
  0002c	6a 03		 push	 3
  0002e	59		 pop	 ecx
  0002f	f7 f9		 idiv	 ecx
  00031	6b c2 03	 imul	 eax, edx, 3
  00034	89 45 d4	 mov	 DWORD PTR _x$[ebp], eax

; 559  : 	y = (((sub_square + MIN) / MIN)*MIN) - MIN;

  00037	8b 45 0c	 mov	 eax, DWORD PTR _sub_square$[ebp]
  0003a	83 c0 03	 add	 eax, 3
  0003d	99		 cdq
  0003e	6a 03		 push	 3
  00040	59		 pop	 ecx
  00041	f7 f9		 idiv	 ecx
  00043	6b c0 03	 imul	 eax, eax, 3
  00046	83 e8 03	 sub	 eax, 3
  00049	89 45 c8	 mov	 DWORD PTR _y$[ebp], eax

; 560  : 	z = 0;

  0004c	83 65 bc 00	 and	 DWORD PTR _z$[ebp], 0

; 561  : 
; 562  : 	for (j = y; j < y + MIN; j++)

  00050	8b 45 c8	 mov	 eax, DWORD PTR _y$[ebp]
  00053	89 45 e0	 mov	 DWORD PTR _j$[ebp], eax
  00056	eb 07		 jmp	 SHORT $LN4@Trans_sub_
$LN2@Trans_sub_:
  00058	8b 45 e0	 mov	 eax, DWORD PTR _j$[ebp]
  0005b	40		 inc	 eax
  0005c	89 45 e0	 mov	 DWORD PTR _j$[ebp], eax
$LN4@Trans_sub_:
  0005f	8b 45 c8	 mov	 eax, DWORD PTR _y$[ebp]
  00062	83 c0 03	 add	 eax, 3
  00065	39 45 e0	 cmp	 DWORD PTR _j$[ebp], eax
  00068	7d 3b		 jge	 SHORT $LN1@Trans_sub_

; 563  : 	{
; 564  : 
; 565  : 		for (i = x; i < x + MIN; i++)

  0006a	8b 45 d4	 mov	 eax, DWORD PTR _x$[ebp]
  0006d	89 45 ec	 mov	 DWORD PTR _i$[ebp], eax
  00070	eb 07		 jmp	 SHORT $LN7@Trans_sub_
$LN5@Trans_sub_:
  00072	8b 45 ec	 mov	 eax, DWORD PTR _i$[ebp]
  00075	40		 inc	 eax
  00076	89 45 ec	 mov	 DWORD PTR _i$[ebp], eax
$LN7@Trans_sub_:
  00079	8b 45 d4	 mov	 eax, DWORD PTR _x$[ebp]
  0007c	83 c0 03	 add	 eax, 3
  0007f	39 45 ec	 cmp	 DWORD PTR _i$[ebp], eax
  00082	7d 1f		 jge	 SHORT $LN6@Trans_sub_

; 566  : 		{
; 567  : 
; 568  : 			buffer[z++] = grid[j][i];

  00084	6b 45 e0 24	 imul	 eax, DWORD PTR _j$[ebp], 36
  00088	8b 4d 08	 mov	 ecx, DWORD PTR _buffer$[ebp]
  0008b	03 4d bc	 add	 ecx, DWORD PTR _z$[ebp]
  0008e	8b 55 ec	 mov	 edx, DWORD PTR _i$[ebp]
  00091	8a 84 90 00 00
	00 00		 mov	 al, BYTE PTR ?grid@@3PAY08HA[eax+edx*4]
  00098	88 01		 mov	 BYTE PTR [ecx], al
  0009a	8b 45 bc	 mov	 eax, DWORD PTR _z$[ebp]
  0009d	40		 inc	 eax
  0009e	89 45 bc	 mov	 DWORD PTR _z$[ebp], eax

; 569  : 
; 570  : 		}/* end for i */

  000a1	eb cf		 jmp	 SHORT $LN5@Trans_sub_
$LN6@Trans_sub_:

; 571  : 
; 572  : 	}/* end for j */

  000a3	eb b3		 jmp	 SHORT $LN2@Trans_sub_
$LN1@Trans_sub_:

; 573  : }

  000a5	5f		 pop	 edi
  000a6	5e		 pop	 esi
  000a7	5b		 pop	 ebx
  000a8	81 c4 08 01 00
	00		 add	 esp, 264		; 00000108H
  000ae	3b ec		 cmp	 ebp, esp
  000b0	e8 00 00 00 00	 call	 __RTC_CheckEsp
  000b5	c9		 leave
  000b6	c2 08 00	 ret	 8
?Trans_sub_square@Solution@@AAEXQADH@Z ENDP		; Solution::Trans_sub_square
_TEXT	ENDS
; Function compile flags: /Odsp /RTCsu /ZI
; File J:\work\SUDOKU\SUDOKU\SUDOKU\Solution.cpp
;	COMDAT ?Check_input_a_sub_square@Solution@@AAEHH@Z
_TEXT	SEGMENT
$T2 = -292						; size = 4
_chaine$3 = -88						; size = 4
_j$ = -76						; size = 4
_i$ = -64						; size = 4
_buffer$ = -52						; size = 19
_this$ = -24						; size = 4
__$ArrayPad$ = -16					; size = 4
__$EHRec$ = -12						; size = 12
_sub_square$ = 8					; size = 4
?Check_input_a_sub_square@Solution@@AAEHH@Z PROC	; Solution::Check_input_a_sub_square, COMDAT
; _this$ = ecx

; 526  : {

  00000	55		 push	 ebp
  00001	8b ec		 mov	 ebp, esp
  00003	6a ff		 push	 -1
  00005	68 00 00 00 00	 push	 __ehhandler$?Check_input_a_sub_square@Solution@@AAEHH@Z
  0000a	64 a1 00 00 00
	00		 mov	 eax, DWORD PTR fs:0
  00010	50		 push	 eax
  00011	81 ec 1c 01 00
	00		 sub	 esp, 284		; 0000011cH
  00017	53		 push	 ebx
  00018	56		 push	 esi
  00019	57		 push	 edi
  0001a	51		 push	 ecx
  0001b	8d 7d 98	 lea	 edi, DWORD PTR [ebp-104]
  0001e	6a 17		 push	 23			; 00000017H
  00020	59		 pop	 ecx
  00021	b8 cc cc cc cc	 mov	 eax, -858993460		; ccccccccH
  00026	f3 ab		 rep stosd
  00028	59		 pop	 ecx
  00029	a1 00 00 00 00	 mov	 eax, DWORD PTR ___security_cookie
  0002e	33 c5		 xor	 eax, ebp
  00030	89 45 f0	 mov	 DWORD PTR __$ArrayPad$[ebp], eax
  00033	50		 push	 eax
  00034	8d 45 f4	 lea	 eax, DWORD PTR __$EHRec$[ebp]
  00037	64 a3 00 00 00
	00		 mov	 DWORD PTR fs:0, eax
  0003d	89 4d e8	 mov	 DWORD PTR _this$[ebp], ecx
  00040	b9 00 00 00 00	 mov	 ecx, OFFSET __CBE53D1F_Solution@cpp
  00045	e8 00 00 00 00	 call	 @__CheckForDebuggerJustMyCode@4

; 527  : 	/* Checks if no duplicate into the sub-square of 3 x 3. */
; 528  : 	char buffer[MAX + 10];
; 529  : 	int i, j;
; 530  : 
; 531  : 	Trans_sub_square(buffer, sub_square);

  0004a	ff 75 08	 push	 DWORD PTR _sub_square$[ebp]
  0004d	8d 45 cc	 lea	 eax, DWORD PTR _buffer$[ebp]
  00050	50		 push	 eax
  00051	8b 4d e8	 mov	 ecx, DWORD PTR _this$[ebp]
  00054	e8 00 00 00 00	 call	 ?Trans_sub_square@Solution@@AAEXQADH@Z ; Solution::Trans_sub_square

; 532  : 
; 533  : 	for (i = 0; i < MAX - 1; i++)

  00059	83 65 c0 00	 and	 DWORD PTR _i$[ebp], 0
  0005d	eb 07		 jmp	 SHORT $LN4@Check_inpu
$LN2@Check_inpu:
  0005f	8b 45 c0	 mov	 eax, DWORD PTR _i$[ebp]
  00062	40		 inc	 eax
  00063	89 45 c0	 mov	 DWORD PTR _i$[ebp], eax
$LN4@Check_inpu:
  00066	83 7d c0 08	 cmp	 DWORD PTR _i$[ebp], 8
  0006a	0f 8d 98 00 00
	00		 jge	 $LN3@Check_inpu

; 534  : 	{
; 535  : 		if (buffer[i] == 0) continue;

  00070	8b 45 c0	 mov	 eax, DWORD PTR _i$[ebp]
  00073	0f be 44 05 cc	 movsx	 eax, BYTE PTR _buffer$[ebp+eax]
  00078	85 c0		 test	 eax, eax
  0007a	75 02		 jne	 SHORT $LN8@Check_inpu
  0007c	eb e1		 jmp	 SHORT $LN2@Check_inpu
$LN8@Check_inpu:

; 536  : 
; 537  : 		for (j = i + 1; j < MAX; j++)

  0007e	8b 45 c0	 mov	 eax, DWORD PTR _i$[ebp]
  00081	40		 inc	 eax
  00082	89 45 b4	 mov	 DWORD PTR _j$[ebp], eax
  00085	eb 07		 jmp	 SHORT $LN7@Check_inpu
$LN5@Check_inpu:
  00087	8b 45 b4	 mov	 eax, DWORD PTR _j$[ebp]
  0008a	40		 inc	 eax
  0008b	89 45 b4	 mov	 DWORD PTR _j$[ebp], eax
$LN7@Check_inpu:
  0008e	83 7d b4 09	 cmp	 DWORD PTR _j$[ebp], 9
  00092	7d 6f		 jge	 SHORT $LN6@Check_inpu

; 538  : 		{
; 539  : 			if (buffer[i] == buffer[j])

  00094	8b 45 c0	 mov	 eax, DWORD PTR _i$[ebp]
  00097	0f be 44 05 cc	 movsx	 eax, BYTE PTR _buffer$[ebp+eax]
  0009c	8b 4d b4	 mov	 ecx, DWORD PTR _j$[ebp]
  0009f	0f be 4c 0d cc	 movsx	 ecx, BYTE PTR _buffer$[ebp+ecx]
  000a4	3b c1		 cmp	 eax, ecx
  000a6	75 59		 jne	 SHORT $LN9@Check_inpu

; 540  : 			{
; 541  : 				CString chaine;

  000a8	6a 04		 push	 4
  000aa	8d 4d a8	 lea	 ecx, DWORD PTR _chaine$3[ebp]
  000ad	e8 00 00 00 00	 call	 ?__autoclassinit2@?$CStringT@_WV?$StrTraitMFC@_WV?$ChTraitsCRT@_W@ATL@@@@@ATL@@QAEXI@Z
  000b2	8d 4d a8	 lea	 ecx, DWORD PTR _chaine$3[ebp]
  000b5	e8 00 00 00 00	 call	 ??0?$CStringT@_WV?$StrTraitMFC@_WV?$ChTraitsCRT@_W@ATL@@@@@ATL@@QAE@XZ ; ATL::CStringT<wchar_t,StrTraitMFC<wchar_t,ATL::ChTraitsCRT<wchar_t> > >::CStringT<wchar_t,StrTraitMFC<wchar_t,ATL::ChTraitsCRT<wchar_t> > >
  000ba	83 65 fc 00	 and	 DWORD PTR __$EHRec$[ebp+8], 0

; 542  : 				chaine.Format(_T("Erreur sous carr %d: nombre egaux"), sub_square + 1);

  000be	8b 45 08	 mov	 eax, DWORD PTR _sub_square$[ebp]
  000c1	40		 inc	 eax
  000c2	50		 push	 eax
  000c3	68 00 00 00 00	 push	 OFFSET ??_C@_1EG@ECKKEMMN@?$AAE?$AAr?$AAr?$AAe?$AAu?$AAr?$AA?5?$AAs?$AAo?$AAu?$AAs?$AA?5?$AAc?$AAa?$AAr@
  000c8	8d 45 a8	 lea	 eax, DWORD PTR _chaine$3[ebp]
  000cb	50		 push	 eax
  000cc	e8 00 00 00 00	 call	 ?Format@?$CStringT@_WV?$StrTraitMFC@_WV?$ChTraitsCRT@_W@ATL@@@@@ATL@@QAAXPB_WZZ ; ATL::CStringT<wchar_t,StrTraitMFC<wchar_t,ATL::ChTraitsCRT<wchar_t> > >::Format
  000d1	83 c4 0c	 add	 esp, 12			; 0000000cH

; 543  : 				AfxMessageBox(chaine, MB_OK);

  000d4	6a 00		 push	 0
  000d6	6a 00		 push	 0
  000d8	8d 4d a8	 lea	 ecx, DWORD PTR _chaine$3[ebp]
  000db	e8 00 00 00 00	 call	 ??B?$CSimpleStringT@_W$0A@@ATL@@QBEPB_WXZ ; ATL::CSimpleStringT<wchar_t,0>::operator wchar_t const *
  000e0	50		 push	 eax
  000e1	e8 00 00 00 00	 call	 ?AfxMessageBox@@YGHPB_WII@Z ; AfxMessageBox

; 544  : 				return FALSE;

  000e6	83 a5 dc fe ff
	ff 00		 and	 DWORD PTR $T2[ebp], 0
  000ed	83 4d fc ff	 or	 DWORD PTR __$EHRec$[ebp+8], -1
  000f1	8d 4d a8	 lea	 ecx, DWORD PTR _chaine$3[ebp]
  000f4	e8 00 00 00 00	 call	 ??1?$CStringT@_WV?$StrTraitMFC@_WV?$ChTraitsCRT@_W@ATL@@@@@ATL@@QAE@XZ ; ATL::CStringT<wchar_t,StrTraitMFC<wchar_t,ATL::ChTraitsCRT<wchar_t> > >::~CStringT<wchar_t,StrTraitMFC<wchar_t,ATL::ChTraitsCRT<wchar_t> > >
  000f9	8b 85 dc fe ff
	ff		 mov	 eax, DWORD PTR $T2[ebp]
  000ff	eb 0a		 jmp	 SHORT $LN1@Check_inpu
$LN9@Check_inpu:

; 545  : 
; 546  : 			}/* end if */
; 547  : 		}/* end for j */

  00101	eb 84		 jmp	 SHORT $LN5@Check_inpu
$LN6@Check_inpu:

; 548  : 	}/* end for i */

  00103	e9 57 ff ff ff	 jmp	 $LN2@Check_inpu
$LN3@Check_inpu:

; 549  : 
; 550  : 	return TRUE;

  00108	33 c0		 xor	 eax, eax
  0010a	40		 inc	 eax
$LN1@Check_inpu:

; 551  : }

  0010b	52		 push	 edx
  0010c	8b cd		 mov	 ecx, ebp
  0010e	50		 push	 eax
  0010f	8d 15 00 00 00
	00		 lea	 edx, DWORD PTR $LN16@Check_inpu
  00115	e8 00 00 00 00	 call	 @_RTC_CheckStackVars@8
  0011a	58		 pop	 eax
  0011b	5a		 pop	 edx
  0011c	8b 4d f4	 mov	 ecx, DWORD PTR __$EHRec$[ebp]
  0011f	64 89 0d 00 00
	00 00		 mov	 DWORD PTR fs:0, ecx
  00126	59		 pop	 ecx
  00127	5f		 pop	 edi
  00128	5e		 pop	 esi
  00129	5b		 pop	 ebx
  0012a	8b 4d f0	 mov	 ecx, DWORD PTR __$ArrayPad$[ebp]
  0012d	33 cd		 xor	 ecx, ebp
  0012f	e8 00 00 00 00	 call	 @__security_check_cookie@4
  00134	81 c4 28 01 00
	00		 add	 esp, 296		; 00000128H
  0013a	3b ec		 cmp	 ebp, esp
  0013c	e8 00 00 00 00	 call	 __RTC_CheckEsp
  00141	c9		 leave
  00142	c2 04 00	 ret	 4
  00145	0f 1f 00	 npad	 3
$LN16@Check_inpu:
  00148	02 00 00 00	 DD	 2
  0014c	00 00 00 00	 DD	 $LN15@Check_inpu
$LN15@Check_inpu:
  00150	cc ff ff ff	 DD	 -52			; ffffffccH
  00154	13 00 00 00	 DD	 19			; 00000013H
  00158	00 00 00 00	 DD	 $LN12@Check_inpu
  0015c	a8 ff ff ff	 DD	 -88			; ffffffa8H
  00160	04 00 00 00	 DD	 4
  00164	00 00 00 00	 DD	 $LN13@Check_inpu
$LN13@Check_inpu:
  00168	63		 DB	 99			; 00000063H
  00169	68		 DB	 104			; 00000068H
  0016a	61		 DB	 97			; 00000061H
  0016b	69		 DB	 105			; 00000069H
  0016c	6e		 DB	 110			; 0000006eH
  0016d	65		 DB	 101			; 00000065H
  0016e	00		 DB	 0
$LN12@Check_inpu:
  0016f	62		 DB	 98			; 00000062H
  00170	75		 DB	 117			; 00000075H
  00171	66		 DB	 102			; 00000066H
  00172	66		 DB	 102			; 00000066H
  00173	65		 DB	 101			; 00000065H
  00174	72		 DB	 114			; 00000072H
  00175	00		 DB	 0
_TEXT	ENDS
;	COMDAT text$x
text$x	SEGMENT
__unwindfunclet$?Check_input_a_sub_square@Solution@@AAEHH@Z$0:
  00000	8d 4d a8	 lea	 ecx, DWORD PTR _chaine$3[ebp]
  00003	e9 00 00 00 00	 jmp	 ??1?$CStringT@_WV?$StrTraitMFC@_WV?$ChTraitsCRT@_W@ATL@@@@@ATL@@QAE@XZ ; ATL::CStringT<wchar_t,StrTraitMFC<wchar_t,ATL::ChTraitsCRT<wchar_t> > >::~CStringT<wchar_t,StrTraitMFC<wchar_t,ATL::ChTraitsCRT<wchar_t> > >
  00008	cc		 int	 3
  00009	cc		 int	 3
  0000a	cc		 int	 3
  0000b	cc		 int	 3
  0000c	cc		 int	 3
__ehhandler$?Check_input_a_sub_square@Solution@@AAEHH@Z:
  0000d	90		 npad	 1
  0000e	90		 npad	 1
  0000f	8b 54 24 08	 mov	 edx, DWORD PTR [esp+8]
  00013	8d 42 0c	 lea	 eax, DWORD PTR [edx+12]
  00016	8b 8a d4 fe ff
	ff		 mov	 ecx, DWORD PTR [edx-300]
  0001c	33 c8		 xor	 ecx, eax
  0001e	e8 00 00 00 00	 call	 @__security_check_cookie@4
  00023	8b 4a fc	 mov	 ecx, DWORD PTR [edx-4]
  00026	33 c8		 xor	 ecx, eax
  00028	e8 00 00 00 00	 call	 @__security_check_cookie@4
  0002d	b8 00 00 00 00	 mov	 eax, OFFSET __ehfuncinfo$?Check_input_a_sub_square@Solution@@AAEHH@Z
  00032	e9 00 00 00 00	 jmp	 ___CxxFrameHandler3
text$x	ENDS
?Check_input_a_sub_square@Solution@@AAEHH@Z ENDP	; Solution::Check_input_a_sub_square
; Function compile flags: /Odsp /RTCsu /ZI
; File J:\work\SUDOKU\SUDOKU\SUDOKU\Solution.cpp
;	COMDAT ?Check_input_sub_squares@Solution@@AAEHXZ
_TEXT	SEGMENT
_result$ = -32						; size = 4
_sub_square$ = -20					; size = 4
_this$ = -8						; size = 4
?Check_input_sub_squares@Solution@@AAEHXZ PROC		; Solution::Check_input_sub_squares, COMDAT
; _this$ = ecx

; 508  : {

  00000	55		 push	 ebp
  00001	8b ec		 mov	 ebp, esp
  00003	81 ec e4 00 00
	00		 sub	 esp, 228		; 000000e4H
  00009	53		 push	 ebx
  0000a	56		 push	 esi
  0000b	57		 push	 edi
  0000c	51		 push	 ecx
  0000d	8d 7d dc	 lea	 edi, DWORD PTR [ebp-36]
  00010	6a 09		 push	 9
  00012	59		 pop	 ecx
  00013	b8 cc cc cc cc	 mov	 eax, -858993460		; ccccccccH
  00018	f3 ab		 rep stosd
  0001a	59		 pop	 ecx
  0001b	89 4d f8	 mov	 DWORD PTR _this$[ebp], ecx
  0001e	b9 00 00 00 00	 mov	 ecx, OFFSET __CBE53D1F_Solution@cpp
  00023	e8 00 00 00 00	 call	 @__CheckForDebuggerJustMyCode@4

; 509  : 	/* Checks if no duplicate into the sub-squares of 3 x 3. */
; 510  : 	int sub_square;
; 511  : 	int result = TRUE;

  00028	c7 45 e0 01 00
	00 00		 mov	 DWORD PTR _result$[ebp], 1

; 512  : 
; 513  : 	for (sub_square = 0; sub_square < MAX; sub_square++)

  0002f	83 65 ec 00	 and	 DWORD PTR _sub_square$[ebp], 0
  00033	eb 07		 jmp	 SHORT $LN4@Check_inpu
$LN2@Check_inpu:
  00035	8b 45 ec	 mov	 eax, DWORD PTR _sub_square$[ebp]
  00038	40		 inc	 eax
  00039	89 45 ec	 mov	 DWORD PTR _sub_square$[ebp], eax
$LN4@Check_inpu:
  0003c	83 7d ec 09	 cmp	 DWORD PTR _sub_square$[ebp], 9
  00040	7d 17		 jge	 SHORT $LN3@Check_inpu

; 514  : 	{
; 515  : 
; 516  : 		if (!Check_input_a_sub_square(sub_square))

  00042	ff 75 ec	 push	 DWORD PTR _sub_square$[ebp]
  00045	8b 4d f8	 mov	 ecx, DWORD PTR _this$[ebp]
  00048	e8 00 00 00 00	 call	 ?Check_input_a_sub_square@Solution@@AAEHH@Z ; Solution::Check_input_a_sub_square
  0004d	85 c0		 test	 eax, eax
  0004f	75 06		 jne	 SHORT $LN5@Check_inpu

; 517  : 		{ 
; 518  : 			result = FALSE;

  00051	83 65 e0 00	 and	 DWORD PTR _result$[ebp], 0

; 519  : 			break;

  00055	eb 02		 jmp	 SHORT $LN3@Check_inpu
$LN5@Check_inpu:

; 520  : 		}
; 521  : 	}/* end for */

  00057	eb dc		 jmp	 SHORT $LN2@Check_inpu
$LN3@Check_inpu:

; 522  : 	return result;

  00059	8b 45 e0	 mov	 eax, DWORD PTR _result$[ebp]

; 523  : }

  0005c	5f		 pop	 edi
  0005d	5e		 pop	 esi
  0005e	5b		 pop	 ebx
  0005f	81 c4 e4 00 00
	00		 add	 esp, 228		; 000000e4H
  00065	3b ec		 cmp	 ebp, esp
  00067	e8 00 00 00 00	 call	 __RTC_CheckEsp
  0006c	c9		 leave
  0006d	c3		 ret	 0
?Check_input_sub_squares@Solution@@AAEHXZ ENDP		; Solution::Check_input_sub_squares
_TEXT	ENDS
; Function compile flags: /Odsp /RTCsu /ZI
; File J:\work\SUDOKU\SUDOKU\SUDOKU\Solution.cpp
;	COMDAT ?Check_input_a_column@Solution@@AAEHH@Z
_TEXT	SEGMENT
$T2 = -264						; size = 4
_chaine$3 = -60						; size = 4
_j$ = -48						; size = 4
_i$ = -36						; size = 4
_this$ = -24						; size = 4
__$ArrayPad$ = -16					; size = 4
__$EHRec$ = -12						; size = 12
_col$ = 8						; size = 4
?Check_input_a_column@Solution@@AAEHH@Z PROC		; Solution::Check_input_a_column, COMDAT
; _this$ = ecx

; 482  : {

  00000	55		 push	 ebp
  00001	8b ec		 mov	 ebp, esp
  00003	6a ff		 push	 -1
  00005	68 00 00 00 00	 push	 __ehhandler$?Check_input_a_column@Solution@@AAEHH@Z
  0000a	64 a1 00 00 00
	00		 mov	 eax, DWORD PTR fs:0
  00010	50		 push	 eax
  00011	81 ec 00 01 00
	00		 sub	 esp, 256		; 00000100H
  00017	53		 push	 ebx
  00018	56		 push	 esi
  00019	57		 push	 edi
  0001a	51		 push	 ecx
  0001b	8d 7d b4	 lea	 edi, DWORD PTR [ebp-76]
  0001e	6a 10		 push	 16			; 00000010H
  00020	59		 pop	 ecx
  00021	b8 cc cc cc cc	 mov	 eax, -858993460		; ccccccccH
  00026	f3 ab		 rep stosd
  00028	59		 pop	 ecx
  00029	a1 00 00 00 00	 mov	 eax, DWORD PTR ___security_cookie
  0002e	33 c5		 xor	 eax, ebp
  00030	89 45 f0	 mov	 DWORD PTR __$ArrayPad$[ebp], eax
  00033	50		 push	 eax
  00034	8d 45 f4	 lea	 eax, DWORD PTR __$EHRec$[ebp]
  00037	64 a3 00 00 00
	00		 mov	 DWORD PTR fs:0, eax
  0003d	89 4d e8	 mov	 DWORD PTR _this$[ebp], ecx
  00040	b9 00 00 00 00	 mov	 ecx, OFFSET __CBE53D1F_Solution@cpp
  00045	e8 00 00 00 00	 call	 @__CheckForDebuggerJustMyCode@4

; 483  : 	/* Checks if no duplicate into the column. */
; 484  : 	int i, j;
; 485  : 	for (i = 0; i < MAX - 1; i++)

  0004a	83 65 dc 00	 and	 DWORD PTR _i$[ebp], 0
  0004e	eb 07		 jmp	 SHORT $LN4@Check_inpu
$LN2@Check_inpu:
  00050	8b 45 dc	 mov	 eax, DWORD PTR _i$[ebp]
  00053	40		 inc	 eax
  00054	89 45 dc	 mov	 DWORD PTR _i$[ebp], eax
$LN4@Check_inpu:
  00057	83 7d dc 08	 cmp	 DWORD PTR _i$[ebp], 8
  0005b	0f 8d aa 00 00
	00		 jge	 $LN3@Check_inpu

; 486  : 	{
; 487  : 		if (grid[i][col] == 0) continue;

  00061	6b 45 dc 24	 imul	 eax, DWORD PTR _i$[ebp], 36
  00065	8b 4d 08	 mov	 ecx, DWORD PTR _col$[ebp]
  00068	83 bc 88 00 00
	00 00 00	 cmp	 DWORD PTR ?grid@@3PAY08HA[eax+ecx*4], 0
  00070	75 02		 jne	 SHORT $LN8@Check_inpu
  00072	eb dc		 jmp	 SHORT $LN2@Check_inpu
$LN8@Check_inpu:

; 488  : 
; 489  : 		for (j = i + 1; j < MAX; j++)

  00074	8b 45 dc	 mov	 eax, DWORD PTR _i$[ebp]
  00077	40		 inc	 eax
  00078	89 45 d0	 mov	 DWORD PTR _j$[ebp], eax
  0007b	eb 07		 jmp	 SHORT $LN7@Check_inpu
$LN5@Check_inpu:
  0007d	8b 45 d0	 mov	 eax, DWORD PTR _j$[ebp]
  00080	40		 inc	 eax
  00081	89 45 d0	 mov	 DWORD PTR _j$[ebp], eax
$LN7@Check_inpu:
  00084	83 7d d0 09	 cmp	 DWORD PTR _j$[ebp], 9
  00088	7d 7c		 jge	 SHORT $LN6@Check_inpu

; 490  : 		{
; 491  : 
; 492  : 			if (grid[i][col] == grid[j][col])

  0008a	6b 45 dc 24	 imul	 eax, DWORD PTR _i$[ebp], 36
  0008e	6b 4d d0 24	 imul	 ecx, DWORD PTR _j$[ebp], 36
  00092	8b 55 08	 mov	 edx, DWORD PTR _col$[ebp]
  00095	8b 75 08	 mov	 esi, DWORD PTR _col$[ebp]
  00098	8b 84 90 00 00
	00 00		 mov	 eax, DWORD PTR ?grid@@3PAY08HA[eax+edx*4]
  0009f	3b 84 b1 00 00
	00 00		 cmp	 eax, DWORD PTR ?grid@@3PAY08HA[ecx+esi*4]
  000a6	75 59		 jne	 SHORT $LN9@Check_inpu

; 493  : 			{
; 494  : 
; 495  : 				CString chaine;

  000a8	6a 04		 push	 4
  000aa	8d 4d c4	 lea	 ecx, DWORD PTR _chaine$3[ebp]
  000ad	e8 00 00 00 00	 call	 ?__autoclassinit2@?$CStringT@_WV?$StrTraitMFC@_WV?$ChTraitsCRT@_W@ATL@@@@@ATL@@QAEXI@Z
  000b2	8d 4d c4	 lea	 ecx, DWORD PTR _chaine$3[ebp]
  000b5	e8 00 00 00 00	 call	 ??0?$CStringT@_WV?$StrTraitMFC@_WV?$ChTraitsCRT@_W@ATL@@@@@ATL@@QAE@XZ ; ATL::CStringT<wchar_t,StrTraitMFC<wchar_t,ATL::ChTraitsCRT<wchar_t> > >::CStringT<wchar_t,StrTraitMFC<wchar_t,ATL::ChTraitsCRT<wchar_t> > >
  000ba	83 65 fc 00	 and	 DWORD PTR __$EHRec$[ebp+8], 0

; 496  : 				chaine.Format(_T("Erreur colonne %d: nombre egaux"),col + 1);

  000be	8b 45 08	 mov	 eax, DWORD PTR _col$[ebp]
  000c1	40		 inc	 eax
  000c2	50		 push	 eax
  000c3	68 00 00 00 00	 push	 OFFSET ??_C@_1EA@OLIANHL@?$AAE?$AAr?$AAr?$AAe?$AAu?$AAr?$AA?5?$AAc?$AAo?$AAl?$AAo?$AAn?$AAn?$AAe?$AA?5@
  000c8	8d 45 c4	 lea	 eax, DWORD PTR _chaine$3[ebp]
  000cb	50		 push	 eax
  000cc	e8 00 00 00 00	 call	 ?Format@?$CStringT@_WV?$StrTraitMFC@_WV?$ChTraitsCRT@_W@ATL@@@@@ATL@@QAAXPB_WZZ ; ATL::CStringT<wchar_t,StrTraitMFC<wchar_t,ATL::ChTraitsCRT<wchar_t> > >::Format
  000d1	83 c4 0c	 add	 esp, 12			; 0000000cH

; 497  : 				AfxMessageBox(chaine, MB_OK);

  000d4	6a 00		 push	 0
  000d6	6a 00		 push	 0
  000d8	8d 4d c4	 lea	 ecx, DWORD PTR _chaine$3[ebp]
  000db	e8 00 00 00 00	 call	 ??B?$CSimpleStringT@_W$0A@@ATL@@QBEPB_WXZ ; ATL::CSimpleStringT<wchar_t,0>::operator wchar_t const *
  000e0	50		 push	 eax
  000e1	e8 00 00 00 00	 call	 ?AfxMessageBox@@YGHPB_WII@Z ; AfxMessageBox

; 498  : 				return FALSE;

  000e6	83 a5 f8 fe ff
	ff 00		 and	 DWORD PTR $T2[ebp], 0
  000ed	83 4d fc ff	 or	 DWORD PTR __$EHRec$[ebp+8], -1
  000f1	8d 4d c4	 lea	 ecx, DWORD PTR _chaine$3[ebp]
  000f4	e8 00 00 00 00	 call	 ??1?$CStringT@_WV?$StrTraitMFC@_WV?$ChTraitsCRT@_W@ATL@@@@@ATL@@QAE@XZ ; ATL::CStringT<wchar_t,StrTraitMFC<wchar_t,ATL::ChTraitsCRT<wchar_t> > >::~CStringT<wchar_t,StrTraitMFC<wchar_t,ATL::ChTraitsCRT<wchar_t> > >
  000f9	8b 85 f8 fe ff
	ff		 mov	 eax, DWORD PTR $T2[ebp]
  000ff	eb 0d		 jmp	 SHORT $LN1@Check_inpu
$LN9@Check_inpu:

; 499  : 
; 500  : 			}/* end if */
; 501  : 		}/* end for j */

  00101	e9 77 ff ff ff	 jmp	 $LN5@Check_inpu
$LN6@Check_inpu:

; 502  : 	}/* end for i */

  00106	e9 45 ff ff ff	 jmp	 $LN2@Check_inpu
$LN3@Check_inpu:

; 503  : 
; 504  : 	return TRUE;

  0010b	33 c0		 xor	 eax, eax
  0010d	40		 inc	 eax
$LN1@Check_inpu:

; 505  : }

  0010e	52		 push	 edx
  0010f	8b cd		 mov	 ecx, ebp
  00111	50		 push	 eax
  00112	8d 15 00 00 00
	00		 lea	 edx, DWORD PTR $LN15@Check_inpu
  00118	e8 00 00 00 00	 call	 @_RTC_CheckStackVars@8
  0011d	58		 pop	 eax
  0011e	5a		 pop	 edx
  0011f	8b 4d f4	 mov	 ecx, DWORD PTR __$EHRec$[ebp]
  00122	64 89 0d 00 00
	00 00		 mov	 DWORD PTR fs:0, ecx
  00129	59		 pop	 ecx
  0012a	5f		 pop	 edi
  0012b	5e		 pop	 esi
  0012c	5b		 pop	 ebx
  0012d	8b 4d f0	 mov	 ecx, DWORD PTR __$ArrayPad$[ebp]
  00130	33 cd		 xor	 ecx, ebp
  00132	e8 00 00 00 00	 call	 @__security_check_cookie@4
  00137	81 c4 0c 01 00
	00		 add	 esp, 268		; 0000010cH
  0013d	3b ec		 cmp	 ebp, esp
  0013f	e8 00 00 00 00	 call	 __RTC_CheckEsp
  00144	c9		 leave
  00145	c2 04 00	 ret	 4
$LN15@Check_inpu:
  00148	01 00 00 00	 DD	 1
  0014c	00 00 00 00	 DD	 $LN14@Check_inpu
$LN14@Check_inpu:
  00150	c4 ff ff ff	 DD	 -60			; ffffffc4H
  00154	04 00 00 00	 DD	 4
  00158	00 00 00 00	 DD	 $LN12@Check_inpu
$LN12@Check_inpu:
  0015c	63		 DB	 99			; 00000063H
  0015d	68		 DB	 104			; 00000068H
  0015e	61		 DB	 97			; 00000061H
  0015f	69		 DB	 105			; 00000069H
  00160	6e		 DB	 110			; 0000006eH
  00161	65		 DB	 101			; 00000065H
  00162	00		 DB	 0
_TEXT	ENDS
;	COMDAT text$x
text$x	SEGMENT
__unwindfunclet$?Check_input_a_column@Solution@@AAEHH@Z$0:
  00000	8d 4d c4	 lea	 ecx, DWORD PTR _chaine$3[ebp]
  00003	e9 00 00 00 00	 jmp	 ??1?$CStringT@_WV?$StrTraitMFC@_WV?$ChTraitsCRT@_W@ATL@@@@@ATL@@QAE@XZ ; ATL::CStringT<wchar_t,StrTraitMFC<wchar_t,ATL::ChTraitsCRT<wchar_t> > >::~CStringT<wchar_t,StrTraitMFC<wchar_t,ATL::ChTraitsCRT<wchar_t> > >
  00008	cc		 int	 3
  00009	cc		 int	 3
  0000a	cc		 int	 3
  0000b	cc		 int	 3
  0000c	cc		 int	 3
__ehhandler$?Check_input_a_column@Solution@@AAEHH@Z:
  0000d	90		 npad	 1
  0000e	90		 npad	 1
  0000f	8b 54 24 08	 mov	 edx, DWORD PTR [esp+8]
  00013	8d 42 0c	 lea	 eax, DWORD PTR [edx+12]
  00016	8b 8a f0 fe ff
	ff		 mov	 ecx, DWORD PTR [edx-272]
  0001c	33 c8		 xor	 ecx, eax
  0001e	e8 00 00 00 00	 call	 @__security_check_cookie@4
  00023	8b 4a fc	 mov	 ecx, DWORD PTR [edx-4]
  00026	33 c8		 xor	 ecx, eax
  00028	e8 00 00 00 00	 call	 @__security_check_cookie@4
  0002d	b8 00 00 00 00	 mov	 eax, OFFSET __ehfuncinfo$?Check_input_a_column@Solution@@AAEHH@Z
  00032	e9 00 00 00 00	 jmp	 ___CxxFrameHandler3
text$x	ENDS
?Check_input_a_column@Solution@@AAEHH@Z ENDP		; Solution::Check_input_a_column
; Function compile flags: /Odsp /RTCsu /ZI
; File J:\work\SUDOKU\SUDOKU\SUDOKU\Solution.cpp
;	COMDAT ?Check_input_columns@Solution@@AAEHXZ
_TEXT	SEGMENT
_result$ = -32						; size = 4
_col$ = -20						; size = 4
_this$ = -8						; size = 4
?Check_input_columns@Solution@@AAEHXZ PROC		; Solution::Check_input_columns, COMDAT
; _this$ = ecx

; 462  : {

  00000	55		 push	 ebp
  00001	8b ec		 mov	 ebp, esp
  00003	81 ec e4 00 00
	00		 sub	 esp, 228		; 000000e4H
  00009	53		 push	 ebx
  0000a	56		 push	 esi
  0000b	57		 push	 edi
  0000c	51		 push	 ecx
  0000d	8d 7d dc	 lea	 edi, DWORD PTR [ebp-36]
  00010	6a 09		 push	 9
  00012	59		 pop	 ecx
  00013	b8 cc cc cc cc	 mov	 eax, -858993460		; ccccccccH
  00018	f3 ab		 rep stosd
  0001a	59		 pop	 ecx
  0001b	89 4d f8	 mov	 DWORD PTR _this$[ebp], ecx
  0001e	b9 00 00 00 00	 mov	 ecx, OFFSET __CBE53D1F_Solution@cpp
  00023	e8 00 00 00 00	 call	 @__CheckForDebuggerJustMyCode@4

; 463  : 	/* Checks if no duplicate into the columns. */
; 464  : 	int col;
; 465  : 	int result = TRUE;

  00028	c7 45 e0 01 00
	00 00		 mov	 DWORD PTR _result$[ebp], 1

; 466  : 
; 467  : 	for (col = 0; col < MAX; col++)

  0002f	83 65 ec 00	 and	 DWORD PTR _col$[ebp], 0
  00033	eb 07		 jmp	 SHORT $LN4@Check_inpu
$LN2@Check_inpu:
  00035	8b 45 ec	 mov	 eax, DWORD PTR _col$[ebp]
  00038	40		 inc	 eax
  00039	89 45 ec	 mov	 DWORD PTR _col$[ebp], eax
$LN4@Check_inpu:
  0003c	83 7d ec 09	 cmp	 DWORD PTR _col$[ebp], 9
  00040	7d 17		 jge	 SHORT $LN3@Check_inpu

; 468  : 	{
; 469  : 
; 470  : 		if (!Check_input_a_column(col))

  00042	ff 75 ec	 push	 DWORD PTR _col$[ebp]
  00045	8b 4d f8	 mov	 ecx, DWORD PTR _this$[ebp]
  00048	e8 00 00 00 00	 call	 ?Check_input_a_column@Solution@@AAEHH@Z ; Solution::Check_input_a_column
  0004d	85 c0		 test	 eax, eax
  0004f	75 06		 jne	 SHORT $LN5@Check_inpu

; 471  : 		{
; 472  : 			result = FALSE;

  00051	83 65 e0 00	 and	 DWORD PTR _result$[ebp], 0

; 473  : 			break;

  00055	eb 02		 jmp	 SHORT $LN3@Check_inpu
$LN5@Check_inpu:

; 474  : 		}
; 475  : 
; 476  : 	}/* end for */

  00057	eb dc		 jmp	 SHORT $LN2@Check_inpu
$LN3@Check_inpu:

; 477  : 
; 478  : 	return result;

  00059	8b 45 e0	 mov	 eax, DWORD PTR _result$[ebp]

; 479  : }

  0005c	5f		 pop	 edi
  0005d	5e		 pop	 esi
  0005e	5b		 pop	 ebx
  0005f	81 c4 e4 00 00
	00		 add	 esp, 228		; 000000e4H
  00065	3b ec		 cmp	 ebp, esp
  00067	e8 00 00 00 00	 call	 __RTC_CheckEsp
  0006c	c9		 leave
  0006d	c3		 ret	 0
?Check_input_columns@Solution@@AAEHXZ ENDP		; Solution::Check_input_columns
_TEXT	ENDS
; Function compile flags: /Odsp /RTCsu /ZI
; File J:\work\SUDOKU\SUDOKU\SUDOKU\Solution.cpp
;	COMDAT ?Check_input_a_row@Solution@@AAEHH@Z
_TEXT	SEGMENT
$T2 = -264						; size = 4
_chaine$3 = -60						; size = 4
_j$ = -48						; size = 4
_i$ = -36						; size = 4
_this$ = -24						; size = 4
__$ArrayPad$ = -16					; size = 4
__$EHRec$ = -12						; size = 12
_row$ = 8						; size = 4
?Check_input_a_row@Solution@@AAEHH@Z PROC		; Solution::Check_input_a_row, COMDAT
; _this$ = ecx

; 438  : {

  00000	55		 push	 ebp
  00001	8b ec		 mov	 ebp, esp
  00003	6a ff		 push	 -1
  00005	68 00 00 00 00	 push	 __ehhandler$?Check_input_a_row@Solution@@AAEHH@Z
  0000a	64 a1 00 00 00
	00		 mov	 eax, DWORD PTR fs:0
  00010	50		 push	 eax
  00011	81 ec 00 01 00
	00		 sub	 esp, 256		; 00000100H
  00017	53		 push	 ebx
  00018	56		 push	 esi
  00019	57		 push	 edi
  0001a	51		 push	 ecx
  0001b	8d 7d b4	 lea	 edi, DWORD PTR [ebp-76]
  0001e	6a 10		 push	 16			; 00000010H
  00020	59		 pop	 ecx
  00021	b8 cc cc cc cc	 mov	 eax, -858993460		; ccccccccH
  00026	f3 ab		 rep stosd
  00028	59		 pop	 ecx
  00029	a1 00 00 00 00	 mov	 eax, DWORD PTR ___security_cookie
  0002e	33 c5		 xor	 eax, ebp
  00030	89 45 f0	 mov	 DWORD PTR __$ArrayPad$[ebp], eax
  00033	50		 push	 eax
  00034	8d 45 f4	 lea	 eax, DWORD PTR __$EHRec$[ebp]
  00037	64 a3 00 00 00
	00		 mov	 DWORD PTR fs:0, eax
  0003d	89 4d e8	 mov	 DWORD PTR _this$[ebp], ecx
  00040	b9 00 00 00 00	 mov	 ecx, OFFSET __CBE53D1F_Solution@cpp
  00045	e8 00 00 00 00	 call	 @__CheckForDebuggerJustMyCode@4

; 439  : 	/* Checks if no duplicate into the row. */
; 440  : 	int i, j;
; 441  : 
; 442  : 	for (i = 0; i < MAX - 1; i++)

  0004a	83 65 dc 00	 and	 DWORD PTR _i$[ebp], 0
  0004e	eb 07		 jmp	 SHORT $LN4@Check_inpu
$LN2@Check_inpu:
  00050	8b 45 dc	 mov	 eax, DWORD PTR _i$[ebp]
  00053	40		 inc	 eax
  00054	89 45 dc	 mov	 DWORD PTR _i$[ebp], eax
$LN4@Check_inpu:
  00057	83 7d dc 08	 cmp	 DWORD PTR _i$[ebp], 8
  0005b	0f 8d aa 00 00
	00		 jge	 $LN3@Check_inpu

; 443  : 	{
; 444  : 		if (grid[row][i] == 0) continue;

  00061	6b 45 08 24	 imul	 eax, DWORD PTR _row$[ebp], 36
  00065	8b 4d dc	 mov	 ecx, DWORD PTR _i$[ebp]
  00068	83 bc 88 00 00
	00 00 00	 cmp	 DWORD PTR ?grid@@3PAY08HA[eax+ecx*4], 0
  00070	75 02		 jne	 SHORT $LN8@Check_inpu
  00072	eb dc		 jmp	 SHORT $LN2@Check_inpu
$LN8@Check_inpu:

; 445  : 		for (j = i + 1; j < MAX; j++) {

  00074	8b 45 dc	 mov	 eax, DWORD PTR _i$[ebp]
  00077	40		 inc	 eax
  00078	89 45 d0	 mov	 DWORD PTR _j$[ebp], eax
  0007b	eb 07		 jmp	 SHORT $LN7@Check_inpu
$LN5@Check_inpu:
  0007d	8b 45 d0	 mov	 eax, DWORD PTR _j$[ebp]
  00080	40		 inc	 eax
  00081	89 45 d0	 mov	 DWORD PTR _j$[ebp], eax
$LN7@Check_inpu:
  00084	83 7d d0 09	 cmp	 DWORD PTR _j$[ebp], 9
  00088	7d 7c		 jge	 SHORT $LN6@Check_inpu

; 446  : 			if (grid[row][i] == grid[row][j])

  0008a	6b 45 08 24	 imul	 eax, DWORD PTR _row$[ebp], 36
  0008e	6b 4d 08 24	 imul	 ecx, DWORD PTR _row$[ebp], 36
  00092	8b 55 dc	 mov	 edx, DWORD PTR _i$[ebp]
  00095	8b 75 d0	 mov	 esi, DWORD PTR _j$[ebp]
  00098	8b 84 90 00 00
	00 00		 mov	 eax, DWORD PTR ?grid@@3PAY08HA[eax+edx*4]
  0009f	3b 84 b1 00 00
	00 00		 cmp	 eax, DWORD PTR ?grid@@3PAY08HA[ecx+esi*4]
  000a6	75 59		 jne	 SHORT $LN9@Check_inpu

; 447  : 			{
; 448  : 
; 449  : 				CString chaine;

  000a8	6a 04		 push	 4
  000aa	8d 4d c4	 lea	 ecx, DWORD PTR _chaine$3[ebp]
  000ad	e8 00 00 00 00	 call	 ?__autoclassinit2@?$CStringT@_WV?$StrTraitMFC@_WV?$ChTraitsCRT@_W@ATL@@@@@ATL@@QAEXI@Z
  000b2	8d 4d c4	 lea	 ecx, DWORD PTR _chaine$3[ebp]
  000b5	e8 00 00 00 00	 call	 ??0?$CStringT@_WV?$StrTraitMFC@_WV?$ChTraitsCRT@_W@ATL@@@@@ATL@@QAE@XZ ; ATL::CStringT<wchar_t,StrTraitMFC<wchar_t,ATL::ChTraitsCRT<wchar_t> > >::CStringT<wchar_t,StrTraitMFC<wchar_t,ATL::ChTraitsCRT<wchar_t> > >
  000ba	83 65 fc 00	 and	 DWORD PTR __$EHRec$[ebp+8], 0

; 450  : 				chaine.Format(_T("Erreur ligne %d: nombre egaux"), row + 1);

  000be	8b 45 08	 mov	 eax, DWORD PTR _row$[ebp]
  000c1	40		 inc	 eax
  000c2	50		 push	 eax
  000c3	68 00 00 00 00	 push	 OFFSET ??_C@_1DM@DDLFPJCI@?$AAE?$AAr?$AAr?$AAe?$AAu?$AAr?$AA?5?$AAl?$AAi?$AAg?$AAn?$AAe?$AA?5?$AA?$CF?$AAd@
  000c8	8d 45 c4	 lea	 eax, DWORD PTR _chaine$3[ebp]
  000cb	50		 push	 eax
  000cc	e8 00 00 00 00	 call	 ?Format@?$CStringT@_WV?$StrTraitMFC@_WV?$ChTraitsCRT@_W@ATL@@@@@ATL@@QAAXPB_WZZ ; ATL::CStringT<wchar_t,StrTraitMFC<wchar_t,ATL::ChTraitsCRT<wchar_t> > >::Format
  000d1	83 c4 0c	 add	 esp, 12			; 0000000cH

; 451  : 				AfxMessageBox(chaine,MB_OK);

  000d4	6a 00		 push	 0
  000d6	6a 00		 push	 0
  000d8	8d 4d c4	 lea	 ecx, DWORD PTR _chaine$3[ebp]
  000db	e8 00 00 00 00	 call	 ??B?$CSimpleStringT@_W$0A@@ATL@@QBEPB_WXZ ; ATL::CSimpleStringT<wchar_t,0>::operator wchar_t const *
  000e0	50		 push	 eax
  000e1	e8 00 00 00 00	 call	 ?AfxMessageBox@@YGHPB_WII@Z ; AfxMessageBox

; 452  : 				return FALSE;

  000e6	83 a5 f8 fe ff
	ff 00		 and	 DWORD PTR $T2[ebp], 0
  000ed	83 4d fc ff	 or	 DWORD PTR __$EHRec$[ebp+8], -1
  000f1	8d 4d c4	 lea	 ecx, DWORD PTR _chaine$3[ebp]
  000f4	e8 00 00 00 00	 call	 ??1?$CStringT@_WV?$StrTraitMFC@_WV?$ChTraitsCRT@_W@ATL@@@@@ATL@@QAE@XZ ; ATL::CStringT<wchar_t,StrTraitMFC<wchar_t,ATL::ChTraitsCRT<wchar_t> > >::~CStringT<wchar_t,StrTraitMFC<wchar_t,ATL::ChTraitsCRT<wchar_t> > >
  000f9	8b 85 f8 fe ff
	ff		 mov	 eax, DWORD PTR $T2[ebp]
  000ff	eb 0d		 jmp	 SHORT $LN1@Check_inpu
$LN9@Check_inpu:

; 453  : 
; 454  : 			}/* end if */
; 455  : 		}/* end for j */

  00101	e9 77 ff ff ff	 jmp	 $LN5@Check_inpu
$LN6@Check_inpu:

; 456  : 	}/* end for i */

  00106	e9 45 ff ff ff	 jmp	 $LN2@Check_inpu
$LN3@Check_inpu:

; 457  : 
; 458  : 	return TRUE;

  0010b	33 c0		 xor	 eax, eax
  0010d	40		 inc	 eax
$LN1@Check_inpu:

; 459  : }

  0010e	52		 push	 edx
  0010f	8b cd		 mov	 ecx, ebp
  00111	50		 push	 eax
  00112	8d 15 00 00 00
	00		 lea	 edx, DWORD PTR $LN15@Check_inpu
  00118	e8 00 00 00 00	 call	 @_RTC_CheckStackVars@8
  0011d	58		 pop	 eax
  0011e	5a		 pop	 edx
  0011f	8b 4d f4	 mov	 ecx, DWORD PTR __$EHRec$[ebp]
  00122	64 89 0d 00 00
	00 00		 mov	 DWORD PTR fs:0, ecx
  00129	59		 pop	 ecx
  0012a	5f		 pop	 edi
  0012b	5e		 pop	 esi
  0012c	5b		 pop	 ebx
  0012d	8b 4d f0	 mov	 ecx, DWORD PTR __$ArrayPad$[ebp]
  00130	33 cd		 xor	 ecx, ebp
  00132	e8 00 00 00 00	 call	 @__security_check_cookie@4
  00137	81 c4 0c 01 00
	00		 add	 esp, 268		; 0000010cH
  0013d	3b ec		 cmp	 ebp, esp
  0013f	e8 00 00 00 00	 call	 __RTC_CheckEsp
  00144	c9		 leave
  00145	c2 04 00	 ret	 4
$LN15@Check_inpu:
  00148	01 00 00 00	 DD	 1
  0014c	00 00 00 00	 DD	 $LN14@Check_inpu
$LN14@Check_inpu:
  00150	c4 ff ff ff	 DD	 -60			; ffffffc4H
  00154	04 00 00 00	 DD	 4
  00158	00 00 00 00	 DD	 $LN12@Check_inpu
$LN12@Check_inpu:
  0015c	63		 DB	 99			; 00000063H
  0015d	68		 DB	 104			; 00000068H
  0015e	61		 DB	 97			; 00000061H
  0015f	69		 DB	 105			; 00000069H
  00160	6e		 DB	 110			; 0000006eH
  00161	65		 DB	 101			; 00000065H
  00162	00		 DB	 0
_TEXT	ENDS
;	COMDAT text$x
text$x	SEGMENT
__unwindfunclet$?Check_input_a_row@Solution@@AAEHH@Z$0:
  00000	8d 4d c4	 lea	 ecx, DWORD PTR _chaine$3[ebp]
  00003	e9 00 00 00 00	 jmp	 ??1?$CStringT@_WV?$StrTraitMFC@_WV?$ChTraitsCRT@_W@ATL@@@@@ATL@@QAE@XZ ; ATL::CStringT<wchar_t,StrTraitMFC<wchar_t,ATL::ChTraitsCRT<wchar_t> > >::~CStringT<wchar_t,StrTraitMFC<wchar_t,ATL::ChTraitsCRT<wchar_t> > >
  00008	cc		 int	 3
  00009	cc		 int	 3
  0000a	cc		 int	 3
  0000b	cc		 int	 3
  0000c	cc		 int	 3
__ehhandler$?Check_input_a_row@Solution@@AAEHH@Z:
  0000d	90		 npad	 1
  0000e	90		 npad	 1
  0000f	8b 54 24 08	 mov	 edx, DWORD PTR [esp+8]
  00013	8d 42 0c	 lea	 eax, DWORD PTR [edx+12]
  00016	8b 8a f0 fe ff
	ff		 mov	 ecx, DWORD PTR [edx-272]
  0001c	33 c8		 xor	 ecx, eax
  0001e	e8 00 00 00 00	 call	 @__security_check_cookie@4
  00023	8b 4a fc	 mov	 ecx, DWORD PTR [edx-4]
  00026	33 c8		 xor	 ecx, eax
  00028	e8 00 00 00 00	 call	 @__security_check_cookie@4
  0002d	b8 00 00 00 00	 mov	 eax, OFFSET __ehfuncinfo$?Check_input_a_row@Solution@@AAEHH@Z
  00032	e9 00 00 00 00	 jmp	 ___CxxFrameHandler3
text$x	ENDS
?Check_input_a_row@Solution@@AAEHH@Z ENDP		; Solution::Check_input_a_row
; Function compile flags: /Odsp /RTCsu /ZI
; File J:\work\SUDOKU\SUDOKU\SUDOKU\Solution.cpp
;	COMDAT ?Check_input_rows@Solution@@AAEHXZ
_TEXT	SEGMENT
_result$ = -32						; size = 4
_row$ = -20						; size = 4
_this$ = -8						; size = 4
?Check_input_rows@Solution@@AAEHXZ PROC			; Solution::Check_input_rows, COMDAT
; _this$ = ecx

; 420  : {

  00000	55		 push	 ebp
  00001	8b ec		 mov	 ebp, esp
  00003	81 ec e4 00 00
	00		 sub	 esp, 228		; 000000e4H
  00009	53		 push	 ebx
  0000a	56		 push	 esi
  0000b	57		 push	 edi
  0000c	51		 push	 ecx
  0000d	8d 7d dc	 lea	 edi, DWORD PTR [ebp-36]
  00010	6a 09		 push	 9
  00012	59		 pop	 ecx
  00013	b8 cc cc cc cc	 mov	 eax, -858993460		; ccccccccH
  00018	f3 ab		 rep stosd
  0001a	59		 pop	 ecx
  0001b	89 4d f8	 mov	 DWORD PTR _this$[ebp], ecx
  0001e	b9 00 00 00 00	 mov	 ecx, OFFSET __CBE53D1F_Solution@cpp
  00023	e8 00 00 00 00	 call	 @__CheckForDebuggerJustMyCode@4

; 421  : 	/* Checks if no duplicate into the rows. */
; 422  : 	int row;
; 423  : 
; 424  : 	int result = TRUE;

  00028	c7 45 e0 01 00
	00 00		 mov	 DWORD PTR _result$[ebp], 1

; 425  : 	for (row = 0; row < MAX; row++)

  0002f	83 65 ec 00	 and	 DWORD PTR _row$[ebp], 0
  00033	eb 07		 jmp	 SHORT $LN4@Check_inpu
$LN2@Check_inpu:
  00035	8b 45 ec	 mov	 eax, DWORD PTR _row$[ebp]
  00038	40		 inc	 eax
  00039	89 45 ec	 mov	 DWORD PTR _row$[ebp], eax
$LN4@Check_inpu:
  0003c	83 7d ec 09	 cmp	 DWORD PTR _row$[ebp], 9
  00040	7d 17		 jge	 SHORT $LN3@Check_inpu

; 426  : 	{
; 427  : 		if (!Check_input_a_row(row))

  00042	ff 75 ec	 push	 DWORD PTR _row$[ebp]
  00045	8b 4d f8	 mov	 ecx, DWORD PTR _this$[ebp]
  00048	e8 00 00 00 00	 call	 ?Check_input_a_row@Solution@@AAEHH@Z ; Solution::Check_input_a_row
  0004d	85 c0		 test	 eax, eax
  0004f	75 06		 jne	 SHORT $LN5@Check_inpu

; 428  : 		{
; 429  : 			result = FALSE;

  00051	83 65 e0 00	 and	 DWORD PTR _result$[ebp], 0

; 430  : 			break;

  00055	eb 02		 jmp	 SHORT $LN3@Check_inpu
$LN5@Check_inpu:

; 431  : 		}
; 432  : 	}/* end for */

  00057	eb dc		 jmp	 SHORT $LN2@Check_inpu
$LN3@Check_inpu:

; 433  : 
; 434  : 	return result;

  00059	8b 45 e0	 mov	 eax, DWORD PTR _result$[ebp]

; 435  : }

  0005c	5f		 pop	 edi
  0005d	5e		 pop	 esi
  0005e	5b		 pop	 ebx
  0005f	81 c4 e4 00 00
	00		 add	 esp, 228		; 000000e4H
  00065	3b ec		 cmp	 ebp, esp
  00067	e8 00 00 00 00	 call	 __RTC_CheckEsp
  0006c	c9		 leave
  0006d	c3		 ret	 0
?Check_input_rows@Solution@@AAEHXZ ENDP			; Solution::Check_input_rows
_TEXT	ENDS
; Function compile flags: /Odsp /RTCsu /ZI
; File J:\work\SUDOKU\SUDOKU\SUDOKU\Solution.cpp
;	COMDAT ?Check_input_grid@Solution@@AAEHXZ
_TEXT	SEGMENT
_result$ = -20						; size = 4
_this$ = -8						; size = 4
?Check_input_grid@Solution@@AAEHXZ PROC			; Solution::Check_input_grid, COMDAT
; _this$ = ecx

; 408  : {

  00000	55		 push	 ebp
  00001	8b ec		 mov	 ebp, esp
  00003	81 ec d8 00 00
	00		 sub	 esp, 216		; 000000d8H
  00009	53		 push	 ebx
  0000a	56		 push	 esi
  0000b	57		 push	 edi
  0000c	51		 push	 ecx
  0000d	8d 7d e8	 lea	 edi, DWORD PTR [ebp-24]
  00010	6a 06		 push	 6
  00012	59		 pop	 ecx
  00013	b8 cc cc cc cc	 mov	 eax, -858993460		; ccccccccH
  00018	f3 ab		 rep stosd
  0001a	59		 pop	 ecx
  0001b	89 4d f8	 mov	 DWORD PTR _this$[ebp], ecx
  0001e	b9 00 00 00 00	 mov	 ecx, OFFSET __CBE53D1F_Solution@cpp
  00023	e8 00 00 00 00	 call	 @__CheckForDebuggerJustMyCode@4

; 409  : 	/* Check whether any duplicate throughout the grid. */
; 410  : 	int result = TRUE;

  00028	c7 45 ec 01 00
	00 00		 mov	 DWORD PTR _result$[ebp], 1

; 411  : 
; 412  : 	if (!Check_input_rows()) result = FALSE;

  0002f	8b 4d f8	 mov	 ecx, DWORD PTR _this$[ebp]
  00032	e8 00 00 00 00	 call	 ?Check_input_rows@Solution@@AAEHXZ ; Solution::Check_input_rows
  00037	85 c0		 test	 eax, eax
  00039	75 04		 jne	 SHORT $LN2@Check_inpu
  0003b	83 65 ec 00	 and	 DWORD PTR _result$[ebp], 0
$LN2@Check_inpu:

; 413  : 	if (!Check_input_columns()) result = FALSE;

  0003f	8b 4d f8	 mov	 ecx, DWORD PTR _this$[ebp]
  00042	e8 00 00 00 00	 call	 ?Check_input_columns@Solution@@AAEHXZ ; Solution::Check_input_columns
  00047	85 c0		 test	 eax, eax
  00049	75 04		 jne	 SHORT $LN3@Check_inpu
  0004b	83 65 ec 00	 and	 DWORD PTR _result$[ebp], 0
$LN3@Check_inpu:

; 414  : 	if (!Check_input_sub_squares()) result = FALSE;

  0004f	8b 4d f8	 mov	 ecx, DWORD PTR _this$[ebp]
  00052	e8 00 00 00 00	 call	 ?Check_input_sub_squares@Solution@@AAEHXZ ; Solution::Check_input_sub_squares
  00057	85 c0		 test	 eax, eax
  00059	75 04		 jne	 SHORT $LN4@Check_inpu
  0005b	83 65 ec 00	 and	 DWORD PTR _result$[ebp], 0
$LN4@Check_inpu:

; 415  : 
; 416  : 	return result;

  0005f	8b 45 ec	 mov	 eax, DWORD PTR _result$[ebp]

; 417  : }

  00062	5f		 pop	 edi
  00063	5e		 pop	 esi
  00064	5b		 pop	 ebx
  00065	81 c4 d8 00 00
	00		 add	 esp, 216		; 000000d8H
  0006b	3b ec		 cmp	 ebp, esp
  0006d	e8 00 00 00 00	 call	 __RTC_CheckEsp
  00072	c9		 leave
  00073	c3		 ret	 0
?Check_input_grid@Solution@@AAEHXZ ENDP			; Solution::Check_input_grid
_TEXT	ENDS
; Function compile flags: /Odsp /RTCsu /ZI
; File J:\work\SUDOKU\SUDOKU\SUDOKU\Solution.cpp
;	COMDAT ?Raz@Solution@@AAEXXZ
_TEXT	SEGMENT
_col$1 = -32						; size = 4
_row$2 = -20						; size = 4
_this$ = -8						; size = 4
?Raz@Solution@@AAEXXZ PROC				; Solution::Raz, COMDAT
; _this$ = ecx

; 576  : {

  00000	55		 push	 ebp
  00001	8b ec		 mov	 ebp, esp
  00003	81 ec e4 00 00
	00		 sub	 esp, 228		; 000000e4H
  00009	53		 push	 ebx
  0000a	56		 push	 esi
  0000b	57		 push	 edi
  0000c	51		 push	 ecx
  0000d	8d 7d dc	 lea	 edi, DWORD PTR [ebp-36]
  00010	6a 09		 push	 9
  00012	59		 pop	 ecx
  00013	b8 cc cc cc cc	 mov	 eax, -858993460		; ccccccccH
  00018	f3 ab		 rep stosd
  0001a	59		 pop	 ecx
  0001b	89 4d f8	 mov	 DWORD PTR _this$[ebp], ecx
  0001e	b9 00 00 00 00	 mov	 ecx, OFFSET __CBE53D1F_Solution@cpp
  00023	e8 00 00 00 00	 call	 @__CheckForDebuggerJustMyCode@4

; 577  : 
; 578  :   // Mise  zro de la grille
; 579  :   for (int row = 0; row < MAX; row++)

  00028	83 65 ec 00	 and	 DWORD PTR _row$2[ebp], 0
  0002c	eb 07		 jmp	 SHORT $LN4@Raz
$LN2@Raz:
  0002e	8b 45 ec	 mov	 eax, DWORD PTR _row$2[ebp]
  00031	40		 inc	 eax
  00032	89 45 ec	 mov	 DWORD PTR _row$2[ebp], eax
$LN4@Raz:
  00035	83 7d ec 09	 cmp	 DWORD PTR _row$2[ebp], 9
  00039	7d 26		 jge	 SHORT $LN3@Raz

; 580  :   {
; 581  : 	  for (int col = 0; col < MAX; col++)

  0003b	83 65 e0 00	 and	 DWORD PTR _col$1[ebp], 0
  0003f	eb 07		 jmp	 SHORT $LN7@Raz
$LN5@Raz:
  00041	8b 45 e0	 mov	 eax, DWORD PTR _col$1[ebp]
  00044	40		 inc	 eax
  00045	89 45 e0	 mov	 DWORD PTR _col$1[ebp], eax
$LN7@Raz:
  00048	83 7d e0 09	 cmp	 DWORD PTR _col$1[ebp], 9
  0004c	7d 11		 jge	 SHORT $LN6@Raz

; 582  : 	  {
; 583  : 		  grid[row][col] = 0;

  0004e	6b 45 ec 24	 imul	 eax, DWORD PTR _row$2[ebp], 36
  00052	8b 4d e0	 mov	 ecx, DWORD PTR _col$1[ebp]
  00055	83 a4 88 00 00
	00 00 00	 and	 DWORD PTR ?grid@@3PAY08HA[eax+ecx*4], 0

; 584  : 	  }

  0005d	eb e2		 jmp	 SHORT $LN5@Raz
$LN6@Raz:

; 585  :   }

  0005f	eb cd		 jmp	 SHORT $LN2@Raz
$LN3@Raz:

; 586  :   ::SetDlgItemTextW(Save_Curent_windows, IDC_STATIC, _T(""));

  00061	8b f4		 mov	 esi, esp
  00063	68 00 00 00 00	 push	 OFFSET ??_C@_11LOCGONAA@@
  00068	6a ff		 push	 -1
  0006a	8b 45 f8	 mov	 eax, DWORD PTR _this$[ebp]
  0006d	ff b0 48 01 00
	00		 push	 DWORD PTR [eax+328]
  00073	ff 15 00 00 00
	00		 call	 DWORD PTR __imp__SetDlgItemTextW@12
  00079	3b f4		 cmp	 esi, esp
  0007b	e8 00 00 00 00	 call	 __RTC_CheckEsp

; 587  : }

  00080	5f		 pop	 edi
  00081	5e		 pop	 esi
  00082	5b		 pop	 ebx
  00083	81 c4 e4 00 00
	00		 add	 esp, 228		; 000000e4H
  00089	3b ec		 cmp	 ebp, esp
  0008b	e8 00 00 00 00	 call	 __RTC_CheckEsp
  00090	c9		 leave
  00091	c3		 ret	 0
?Raz@Solution@@AAEXXZ ENDP				; Solution::Raz
_TEXT	ENDS
; Function compile flags: /Odsp /RTCsu /ZI
; File J:\work\SUDOKU\SUDOKU\SUDOKU\Solution.cpp
;	COMDAT ?Charger_From_a_File@Solution@@QAEHPAUHWND__@@@Z
_TEXT	SEGMENT
_data$1 = -340						; size = 4
_row$2 = -328						; size = 4
_buffer$ = -316						; size = 260
_pt_fichier$ = -48					; size = 4
_valeur$ = -36						; size = 4
_result$ = -24						; size = 4
_this$ = -12						; size = 4
__$ArrayPad$ = -4					; size = 4
_Curent_windows$ = 8					; size = 4
?Charger_From_a_File@Solution@@QAEHPAUHWND__@@@Z PROC	; Solution::Charger_From_a_File, COMDAT
; _this$ = ecx

; 117  : {

  00000	55		 push	 ebp
  00001	8b ec		 mov	 ebp, esp
  00003	81 ec 18 02 00
	00		 sub	 esp, 536		; 00000218H
  00009	53		 push	 ebx
  0000a	56		 push	 esi
  0000b	57		 push	 edi
  0000c	51		 push	 ecx
  0000d	8d bd a8 fe ff
	ff		 lea	 edi, DWORD PTR [ebp-344]
  00013	6a 56		 push	 86			; 00000056H
  00015	59		 pop	 ecx
  00016	b8 cc cc cc cc	 mov	 eax, -858993460		; ccccccccH
  0001b	f3 ab		 rep stosd
  0001d	59		 pop	 ecx
  0001e	a1 00 00 00 00	 mov	 eax, DWORD PTR ___security_cookie
  00023	33 c5		 xor	 eax, ebp
  00025	89 45 fc	 mov	 DWORD PTR __$ArrayPad$[ebp], eax
  00028	89 4d f4	 mov	 DWORD PTR _this$[ebp], ecx
  0002b	b9 00 00 00 00	 mov	 ecx, OFFSET __CBE53D1F_Solution@cpp
  00030	e8 00 00 00 00	 call	 @__CheckForDebuggerJustMyCode@4

; 118  : 	int result = TRUE;

  00035	c7 45 e8 01 00
	00 00		 mov	 DWORD PTR _result$[ebp], 1

; 119  : 	int valeur = 0;

  0003c	83 65 dc 00	 and	 DWORD PTR _valeur$[ebp], 0

; 120  : 	FILE *pt_fichier;
; 121  : 	char buffer[MAX_PATH];
; 122  : 
; 123  : 	// mise  zro de la grille d'origine
; 124  : 	Raz();

  00040	8b 4d f4	 mov	 ecx, DWORD PTR _this$[ebp]
  00043	e8 00 00 00 00	 call	 ?Raz@Solution@@AAEXXZ	; Solution::Raz

; 125  : 	Charge_tableau_relation();

  00048	8b 4d f4	 mov	 ecx, DWORD PTR _this$[ebp]
  0004b	e8 00 00 00 00	 call	 ?Charge_tableau_relation@Solution@@AAEXXZ ; Solution::Charge_tableau_relation

; 126  : 	Definition_limite(Curent_windows);

  00050	ff 75 08	 push	 DWORD PTR _Curent_windows$[ebp]
  00053	8b 4d f4	 mov	 ecx, DWORD PTR _this$[ebp]
  00056	e8 00 00 00 00	 call	 ?Definition_limite@Solution@@AAEXPAUHWND__@@@Z ; Solution::Definition_limite

; 127  : 
; 128  : 	if (Open_File(_T("Sudoku_input.txt")) == TRUE)

  0005b	68 00 00 00 00	 push	 OFFSET ??_C@_1CC@DBEOBEPH@?$AAS?$AAu?$AAd?$AAo?$AAk?$AAu?$AA_?$AAi?$AAn?$AAp?$AAu?$AAt?$AA?4?$AAt?$AAx@
  00060	8b 4d f4	 mov	 ecx, DWORD PTR _this$[ebp]
  00063	e8 00 00 00 00	 call	 ?Open_File@Solution@@AAEHPA_W@Z ; Solution::Open_File
  00068	83 f8 01	 cmp	 eax, 1
  0006b	0f 85 e9 00 00
	00		 jne	 $LN8@Charger_Fr

; 129  : 	{
; 130  : 
; 131  : 	 pt_fichier = _wfopen(pszSource.GetBuffer(), _T("rt"));

  00071	68 00 00 00 00	 push	 OFFSET ??_C@_15OMIKMFFN@?$AAr?$AAt@
  00076	8b 4d f4	 mov	 ecx, DWORD PTR _this$[ebp]
  00079	81 c1 50 01 00
	00		 add	 ecx, 336		; 00000150H
  0007f	e8 00 00 00 00	 call	 ?GetBuffer@?$CSimpleStringT@_W$0A@@ATL@@QAEPA_WXZ ; ATL::CSimpleStringT<wchar_t,0>::GetBuffer
  00084	50		 push	 eax
  00085	e8 00 00 00 00	 call	 __wfopen
  0008a	59		 pop	 ecx
  0008b	59		 pop	 ecx
  0008c	89 45 d0	 mov	 DWORD PTR _pt_fichier$[ebp], eax

; 132  : 
; 133  : 	 if (pt_fichier != 0)

  0008f	83 7d d0 00	 cmp	 DWORD PTR _pt_fichier$[ebp], 0
  00093	0f 84 bd 00 00
	00		 je	 $LN9@Charger_Fr

; 134  : 	  {
; 135  : 	
; 136  : 	   for (int row = 0; row < MAX; row++)

  00099	83 a5 b8 fe ff
	ff 00		 and	 DWORD PTR _row$2[ebp], 0
  000a0	eb 0d		 jmp	 SHORT $LN4@Charger_Fr
$LN2@Charger_Fr:
  000a2	8b 85 b8 fe ff
	ff		 mov	 eax, DWORD PTR _row$2[ebp]
  000a8	40		 inc	 eax
  000a9	89 85 b8 fe ff
	ff		 mov	 DWORD PTR _row$2[ebp], eax
$LN4@Charger_Fr:
  000af	83 bd b8 fe ff
	ff 09		 cmp	 DWORD PTR _row$2[ebp], 9
  000b6	0f 8d 8f 00 00
	00		 jge	 $LN3@Charger_Fr

; 137  : 	    {
; 138  : 
; 139  : 		fgets(&buffer[0], MAX_PATH, pt_fichier);

  000bc	ff 75 d0	 push	 DWORD PTR _pt_fichier$[ebp]
  000bf	68 04 01 00 00	 push	 260			; 00000104H
  000c4	33 c0		 xor	 eax, eax
  000c6	40		 inc	 eax
  000c7	6b c0 00	 imul	 eax, eax, 0
  000ca	8d 84 05 c4 fe
	ff ff		 lea	 eax, DWORD PTR _buffer$[ebp+eax]
  000d1	50		 push	 eax
  000d2	e8 00 00 00 00	 call	 _fgets
  000d7	83 c4 0c	 add	 esp, 12			; 0000000cH

; 140  : 
; 141  : 		for (int data = 0; data < MAX; data++)

  000da	83 a5 ac fe ff
	ff 00		 and	 DWORD PTR _data$1[ebp], 0
  000e1	eb 0d		 jmp	 SHORT $LN7@Charger_Fr
$LN5@Charger_Fr:
  000e3	8b 85 ac fe ff
	ff		 mov	 eax, DWORD PTR _data$1[ebp]
  000e9	40		 inc	 eax
  000ea	89 85 ac fe ff
	ff		 mov	 DWORD PTR _data$1[ebp], eax
$LN7@Charger_Fr:
  000f0	83 bd ac fe ff
	ff 09		 cmp	 DWORD PTR _data$1[ebp], 9
  000f7	7d 4d		 jge	 SHORT $LN6@Charger_Fr

; 142  : 		  {
; 143  : 			
; 144  : 			valeur = atoi(&buffer[data * 2]);

  000f9	8b 85 ac fe ff
	ff		 mov	 eax, DWORD PTR _data$1[ebp]
  000ff	8d 84 45 c4 fe
	ff ff		 lea	 eax, DWORD PTR _buffer$[ebp+eax*2]
  00106	50		 push	 eax
  00107	e8 00 00 00 00	 call	 _atoi
  0010c	59		 pop	 ecx
  0010d	89 45 dc	 mov	 DWORD PTR _valeur$[ebp], eax

; 145  : 			if (valeur > 0)

  00110	83 7d dc 00	 cmp	 DWORD PTR _valeur$[ebp], 0
  00114	7e 19		 jle	 SHORT $LN11@Charger_Fr

; 146  : 			{
; 147  : 			grid[row][data] = valeur;

  00116	6b 85 b8 fe ff
	ff 24		 imul	 eax, DWORD PTR _row$2[ebp], 36
  0011d	8b 8d ac fe ff
	ff		 mov	 ecx, DWORD PTR _data$1[ebp]
  00123	8b 55 dc	 mov	 edx, DWORD PTR _valeur$[ebp]
  00126	89 94 88 00 00
	00 00		 mov	 DWORD PTR ?grid@@3PAY08HA[eax+ecx*4], edx

; 148  : 			}

  0012d	eb 15		 jmp	 SHORT $LN12@Charger_Fr
$LN11@Charger_Fr:

; 149  : 			else
; 150  : 			{
; 151  : 			 grid[row][data] = 0;

  0012f	6b 85 b8 fe ff
	ff 24		 imul	 eax, DWORD PTR _row$2[ebp], 36
  00136	8b 8d ac fe ff
	ff		 mov	 ecx, DWORD PTR _data$1[ebp]
  0013c	83 a4 88 00 00
	00 00 00	 and	 DWORD PTR ?grid@@3PAY08HA[eax+ecx*4], 0
$LN12@Charger_Fr:

; 152  : 			}
; 153  : 		  }

  00144	eb 9d		 jmp	 SHORT $LN5@Charger_Fr
$LN6@Charger_Fr:

; 154  : 
; 155  : 	    }

  00146	e9 57 ff ff ff	 jmp	 $LN2@Charger_Fr
$LN3@Charger_Fr:

; 156  : 
; 157  : 	   fclose(pt_fichier);

  0014b	ff 75 d0	 push	 DWORD PTR _pt_fichier$[ebp]
  0014e	e8 00 00 00 00	 call	 _fclose
  00153	59		 pop	 ecx

; 158  : 
; 159  : 	  }

  00154	eb 04		 jmp	 SHORT $LN8@Charger_Fr
$LN9@Charger_Fr:

; 160  : 	 else
; 161  : 	 {
; 162  : 		 result = FALSE;

  00156	83 65 e8 00	 and	 DWORD PTR _result$[ebp], 0
$LN8@Charger_Fr:

; 163  : 	 }
; 164  : 
; 165  : 	}
; 166  : 
; 167  : 	// On vrifie le grille 
; 168  : 	if (!Check_input_grid())

  0015a	8b 4d f4	 mov	 ecx, DWORD PTR _this$[ebp]
  0015d	e8 00 00 00 00	 call	 ?Check_input_grid@Solution@@AAEHXZ ; Solution::Check_input_grid
  00162	85 c0		 test	 eax, eax
  00164	75 04		 jne	 SHORT $LN13@Charger_Fr

; 169  : 	{
; 170  : 		result = FALSE;

  00166	83 65 e8 00	 and	 DWORD PTR _result$[ebp], 0
$LN13@Charger_Fr:

; 171  : 	}
; 172  : 
; 173  : 	::SetDlgItemTextW(Save_Curent_windows, IDC_STATIC, _T(""));

  0016a	8b f4		 mov	 esi, esp
  0016c	68 00 00 00 00	 push	 OFFSET ??_C@_11LOCGONAA@@
  00171	6a ff		 push	 -1
  00173	8b 45 f4	 mov	 eax, DWORD PTR _this$[ebp]
  00176	ff b0 48 01 00
	00		 push	 DWORD PTR [eax+328]
  0017c	ff 15 00 00 00
	00		 call	 DWORD PTR __imp__SetDlgItemTextW@12
  00182	3b f4		 cmp	 esi, esp
  00184	e8 00 00 00 00	 call	 __RTC_CheckEsp

; 174  : 	// Et on Affiche
; 175  : 	Display_grille(Curent_windows);

  00189	ff 75 08	 push	 DWORD PTR _Curent_windows$[ebp]
  0018c	8b 4d f4	 mov	 ecx, DWORD PTR _this$[ebp]
  0018f	e8 00 00 00 00	 call	 ?Display_grille@Solution@@AAEXPAUHWND__@@@Z ; Solution::Display_grille

; 176  : 	
; 177  : 	return result;

  00194	8b 45 e8	 mov	 eax, DWORD PTR _result$[ebp]

; 178  : 
; 179  : }

  00197	52		 push	 edx
  00198	8b cd		 mov	 ecx, ebp
  0019a	50		 push	 eax
  0019b	8d 15 00 00 00
	00		 lea	 edx, DWORD PTR $LN17@Charger_Fr
  001a1	e8 00 00 00 00	 call	 @_RTC_CheckStackVars@8
  001a6	58		 pop	 eax
  001a7	5a		 pop	 edx
  001a8	5f		 pop	 edi
  001a9	5e		 pop	 esi
  001aa	5b		 pop	 ebx
  001ab	8b 4d fc	 mov	 ecx, DWORD PTR __$ArrayPad$[ebp]
  001ae	33 cd		 xor	 ecx, ebp
  001b0	e8 00 00 00 00	 call	 @__security_check_cookie@4
  001b5	81 c4 18 02 00
	00		 add	 esp, 536		; 00000218H
  001bb	3b ec		 cmp	 ebp, esp
  001bd	e8 00 00 00 00	 call	 __RTC_CheckEsp
  001c2	c9		 leave
  001c3	c2 04 00	 ret	 4
  001c6	66 90		 npad	 2
$LN17@Charger_Fr:
  001c8	01 00 00 00	 DD	 1
  001cc	00 00 00 00	 DD	 $LN16@Charger_Fr
$LN16@Charger_Fr:
  001d0	c4 fe ff ff	 DD	 -316			; fffffec4H
  001d4	04 01 00 00	 DD	 260			; 00000104H
  001d8	00 00 00 00	 DD	 $LN15@Charger_Fr
$LN15@Charger_Fr:
  001dc	62		 DB	 98			; 00000062H
  001dd	75		 DB	 117			; 00000075H
  001de	66		 DB	 102			; 00000066H
  001df	66		 DB	 102			; 00000066H
  001e0	65		 DB	 101			; 00000065H
  001e1	72		 DB	 114			; 00000072H
  001e2	00		 DB	 0
?Charger_From_a_File@Solution@@QAEHPAUHWND__@@@Z ENDP	; Solution::Charger_From_a_File
_TEXT	ENDS
; Function compile flags: /Odsp /RTCsu /ZI
; File J:\work\SUDOKU\SUDOKU\SUDOKU\Solution.cpp
;	COMDAT ?Charger_valeur_saisie@Solution@@QAEHPAUHWND__@@@Z
_TEXT	SEGMENT
$T2 = -312						; size = 4
_col$3 = -108						; size = 4
_row$4 = -96						; size = 4
_Valeur$ = -84						; size = 4
_Car_courr$ = -69					; size = 1
_valeur_lue$ = -60					; size = 4
_z$ = -48						; size = 4
_result$ = -36						; size = 4
_this$ = -24						; size = 4
__$ArrayPad$ = -16					; size = 4
__$EHRec$ = -12						; size = 12
_Curent_windows$ = 8					; size = 4
?Charger_valeur_saisie@Solution@@QAEHPAUHWND__@@@Z PROC	; Solution::Charger_valeur_saisie, COMDAT
; _this$ = ecx

; 287  : {

  00000	55		 push	 ebp
  00001	8b ec		 mov	 ebp, esp
  00003	6a ff		 push	 -1
  00005	68 00 00 00 00	 push	 __ehhandler$?Charger_valeur_saisie@Solution@@QAEHPAUHWND__@@@Z
  0000a	64 a1 00 00 00
	00		 mov	 eax, DWORD PTR fs:0
  00010	50		 push	 eax
  00011	81 ec 30 01 00
	00		 sub	 esp, 304		; 00000130H
  00017	53		 push	 ebx
  00018	56		 push	 esi
  00019	57		 push	 edi
  0001a	51		 push	 ecx
  0001b	8d 7d 84	 lea	 edi, DWORD PTR [ebp-124]
  0001e	6a 1c		 push	 28			; 0000001cH
  00020	59		 pop	 ecx
  00021	b8 cc cc cc cc	 mov	 eax, -858993460		; ccccccccH
  00026	f3 ab		 rep stosd
  00028	59		 pop	 ecx
  00029	a1 00 00 00 00	 mov	 eax, DWORD PTR ___security_cookie
  0002e	33 c5		 xor	 eax, ebp
  00030	89 45 f0	 mov	 DWORD PTR __$ArrayPad$[ebp], eax
  00033	50		 push	 eax
  00034	8d 45 f4	 lea	 eax, DWORD PTR __$EHRec$[ebp]
  00037	64 a3 00 00 00
	00		 mov	 DWORD PTR fs:0, eax
  0003d	89 4d e8	 mov	 DWORD PTR _this$[ebp], ecx
  00040	b9 00 00 00 00	 mov	 ecx, OFFSET __CBE53D1F_Solution@cpp
  00045	e8 00 00 00 00	 call	 @__CheckForDebuggerJustMyCode@4

; 288  : 	BOOL result = TRUE;

  0004a	c7 45 dc 01 00
	00 00		 mov	 DWORD PTR _result$[ebp], 1

; 289  : 	int  z = 0;

  00051	83 65 d0 00	 and	 DWORD PTR _z$[ebp], 0

; 290  : 	int valeur_lue= 0;

  00055	83 65 c4 00	 and	 DWORD PTR _valeur_lue$[ebp], 0

; 291  : 	char Car_courr = 0x00;

  00059	c6 45 bb 00	 mov	 BYTE PTR _Car_courr$[ebp], 0

; 292  : 	CString Valeur;

  0005d	6a 04		 push	 4
  0005f	8d 4d ac	 lea	 ecx, DWORD PTR _Valeur$[ebp]
  00062	e8 00 00 00 00	 call	 ?__autoclassinit2@?$CStringT@_WV?$StrTraitMFC@_WV?$ChTraitsCRT@_W@ATL@@@@@ATL@@QAEXI@Z
  00067	8d 4d ac	 lea	 ecx, DWORD PTR _Valeur$[ebp]
  0006a	e8 00 00 00 00	 call	 ??0?$CStringT@_WV?$StrTraitMFC@_WV?$ChTraitsCRT@_W@ATL@@@@@ATL@@QAE@XZ ; ATL::CStringT<wchar_t,StrTraitMFC<wchar_t,ATL::ChTraitsCRT<wchar_t> > >::CStringT<wchar_t,StrTraitMFC<wchar_t,ATL::ChTraitsCRT<wchar_t> > >
  0006f	83 65 fc 00	 and	 DWORD PTR __$EHRec$[ebp+8], 0

; 293  : 
; 294  : 	ASSERT(IsWindow(Curent_windows) != 0);

  00073	8b f4		 mov	 esi, esp
  00075	ff 75 08	 push	 DWORD PTR _Curent_windows$[ebp]
  00078	ff 15 00 00 00
	00		 call	 DWORD PTR __imp__IsWindow@4
  0007e	3b f4		 cmp	 esi, esp
  00080	e8 00 00 00 00	 call	 __RTC_CheckEsp
  00085	85 c0		 test	 eax, eax
  00087	75 18		 jne	 SHORT $LN12@Charger_va
  00089	a1 00 00 00 00	 mov	 eax, DWORD PTR ?__LINE__Var@?0??Charger_valeur_saisie@Solution@@QAEHPAUHWND__@@@Z@4JA
  0008e	83 c0 07	 add	 eax, 7
  00091	50		 push	 eax
  00092	68 00 00 00 00	 push	 OFFSET ??_C@_0CK@JGFDDPMM@J?3?2work?2SUDOKU?2SUDOKU?2SUDOKU?2So@
  00097	e8 00 00 00 00	 call	 ?AfxAssertFailedLine@@YGHPBDH@Z ; AfxAssertFailedLine
  0009c	85 c0		 test	 eax, eax
  0009e	74 01		 je	 SHORT $LN12@Charger_va
  000a0	cc		 int	 3
$LN12@Charger_va:

; 295  : 
; 296  : 	// mise  zro de la grille d'origine
; 297  : 	Raz();

  000a1	8b 4d e8	 mov	 ecx, DWORD PTR _this$[ebp]
  000a4	e8 00 00 00 00	 call	 ?Raz@Solution@@AAEXXZ	; Solution::Raz

; 298  : 
; 299  : 	for (int row = 0; row < MAX; row++)

  000a9	83 65 a0 00	 and	 DWORD PTR _row$4[ebp], 0
  000ad	eb 07		 jmp	 SHORT $LN4@Charger_va
$LN2@Charger_va:
  000af	8b 45 a0	 mov	 eax, DWORD PTR _row$4[ebp]
  000b2	40		 inc	 eax
  000b3	89 45 a0	 mov	 DWORD PTR _row$4[ebp], eax
$LN4@Charger_va:
  000b6	83 7d a0 09	 cmp	 DWORD PTR _row$4[ebp], 9
  000ba	0f 8d a5 00 00
	00		 jge	 $LN3@Charger_va

; 300  : 	{
; 301  : 		for (int col = 0; col < MAX; col++)

  000c0	83 65 94 00	 and	 DWORD PTR _col$3[ebp], 0
  000c4	eb 07		 jmp	 SHORT $LN7@Charger_va
$LN5@Charger_va:
  000c6	8b 45 94	 mov	 eax, DWORD PTR _col$3[ebp]
  000c9	40		 inc	 eax
  000ca	89 45 94	 mov	 DWORD PTR _col$3[ebp], eax
$LN7@Charger_va:
  000cd	83 7d 94 09	 cmp	 DWORD PTR _col$3[ebp], 9
  000d1	0f 8d 89 00 00
	00		 jge	 $LN6@Charger_va

; 302  : 		{
; 303  : 		  ::GetDlgItemTextW(Curent_windows,tableau_de_saisie[z], (LPWSTR)Valeur.GetBuffer(255),255);

  000d7	8b f4		 mov	 esi, esp
  000d9	68 ff 00 00 00	 push	 255			; 000000ffH
  000de	68 ff 00 00 00	 push	 255			; 000000ffH
  000e3	8d 4d ac	 lea	 ecx, DWORD PTR _Valeur$[ebp]
  000e6	e8 00 00 00 00	 call	 ?GetBuffer@?$CSimpleStringT@_W$0A@@ATL@@QAEPA_WH@Z ; ATL::CSimpleStringT<wchar_t,0>::GetBuffer
  000eb	50		 push	 eax
  000ec	8b 45 d0	 mov	 eax, DWORD PTR _z$[ebp]
  000ef	8b 4d e8	 mov	 ecx, DWORD PTR _this$[ebp]
  000f2	ff 74 81 04	 push	 DWORD PTR [ecx+eax*4+4]
  000f6	ff 75 08	 push	 DWORD PTR _Curent_windows$[ebp]
  000f9	ff 15 00 00 00
	00		 call	 DWORD PTR __imp__GetDlgItemTextW@16
  000ff	3b f4		 cmp	 esi, esp
  00101	e8 00 00 00 00	 call	 __RTC_CheckEsp

; 304  : 		  Valeur.ReleaseBuffer();

  00106	6a ff		 push	 -1
  00108	8d 4d ac	 lea	 ecx, DWORD PTR _Valeur$[ebp]
  0010b	e8 00 00 00 00	 call	 ?ReleaseBuffer@?$CSimpleStringT@_W$0A@@ATL@@QAEXH@Z ; ATL::CSimpleStringT<wchar_t,0>::ReleaseBuffer

; 305  : 		  valeur_lue = 0;

  00110	83 65 c4 00	 and	 DWORD PTR _valeur_lue$[ebp], 0

; 306  : 		  valeur_lue = atoi((char *)Valeur.GetBuffer());	

  00114	8d 4d ac	 lea	 ecx, DWORD PTR _Valeur$[ebp]
  00117	e8 00 00 00 00	 call	 ?GetBuffer@?$CSimpleStringT@_W$0A@@ATL@@QAEPA_WXZ ; ATL::CSimpleStringT<wchar_t,0>::GetBuffer
  0011c	50		 push	 eax
  0011d	e8 00 00 00 00	 call	 _atoi
  00122	59		 pop	 ecx
  00123	89 45 c4	 mov	 DWORD PTR _valeur_lue$[ebp], eax

; 307  : 		  z++;

  00126	8b 45 d0	 mov	 eax, DWORD PTR _z$[ebp]
  00129	40		 inc	 eax
  0012a	89 45 d0	 mov	 DWORD PTR _z$[ebp], eax

; 308  : 		  if ( (valeur_lue >= 1) && (valeur_lue < 10 )   )

  0012d	83 7d c4 01	 cmp	 DWORD PTR _valeur_lue$[ebp], 1
  00131	7c 19		 jl	 SHORT $LN8@Charger_va
  00133	83 7d c4 0a	 cmp	 DWORD PTR _valeur_lue$[ebp], 10 ; 0000000aH
  00137	7d 13		 jge	 SHORT $LN8@Charger_va

; 309  : 		  {
; 310  : 
; 311  : 		    grid[row][col] = valeur_lue;

  00139	6b 45 a0 24	 imul	 eax, DWORD PTR _row$4[ebp], 36
  0013d	8b 4d 94	 mov	 ecx, DWORD PTR _col$3[ebp]
  00140	8b 55 c4	 mov	 edx, DWORD PTR _valeur_lue$[ebp]
  00143	89 94 88 00 00
	00 00		 mov	 DWORD PTR ?grid@@3PAY08HA[eax+ecx*4], edx

; 312  : 
; 313  : 		  }

  0014a	eb 0f		 jmp	 SHORT $LN9@Charger_va
$LN8@Charger_va:

; 314  : 		  else
; 315  : 		  {
; 316  : 			  grid[row][col] = 0;

  0014c	6b 45 a0 24	 imul	 eax, DWORD PTR _row$4[ebp], 36
  00150	8b 4d 94	 mov	 ecx, DWORD PTR _col$3[ebp]
  00153	83 a4 88 00 00
	00 00 00	 and	 DWORD PTR ?grid@@3PAY08HA[eax+ecx*4], 0
$LN9@Charger_va:

; 317  : 
; 318  : 		  }
; 319  : 		}

  0015b	e9 66 ff ff ff	 jmp	 $LN5@Charger_va
$LN6@Charger_va:

; 320  : 	}

  00160	e9 4a ff ff ff	 jmp	 $LN2@Charger_va
$LN3@Charger_va:

; 321  : 
; 322  : 	// Savegarde de la configuration d'origine
; 323  : 	// 
; 324  : 	Save_Load_Data();

  00165	8b 4d e8	 mov	 ecx, DWORD PTR _this$[ebp]
  00168	e8 00 00 00 00	 call	 ?Save_Load_Data@Solution@@AAEHXZ ; Solution::Save_Load_Data

; 325  : 
; 326  : 	// On vrifie le grille 
; 327  : 	 if (!Check_input_grid())

  0016d	8b 4d e8	 mov	 ecx, DWORD PTR _this$[ebp]
  00170	e8 00 00 00 00	 call	 ?Check_input_grid@Solution@@AAEHXZ ; Solution::Check_input_grid
  00175	85 c0		 test	 eax, eax
  00177	75 04		 jne	 SHORT $LN10@Charger_va

; 328  : 	 {
; 329  : 		result = FALSE;

  00179	83 65 dc 00	 and	 DWORD PTR _result$[ebp], 0
$LN10@Charger_va:

; 330  : 	  }
; 331  : 	
; 332  : 	 // Allez on bosse dur
; 333  : 	 Dur_Dur();

  0017d	8b 4d e8	 mov	 ecx, DWORD PTR _this$[ebp]
  00180	e8 00 00 00 00	 call	 ?Dur_Dur@Solution@@AAEXXZ ; Solution::Dur_Dur

; 334  : 
; 335  : 	 Print();

  00185	8b 4d e8	 mov	 ecx, DWORD PTR _this$[ebp]
  00188	e8 00 00 00 00	 call	 ?Print@Solution@@AAEXXZ	; Solution::Print

; 336  : 
; 337  : 	// Et on Affiche
; 338  : 	 Display_grille(Curent_windows);

  0018d	ff 75 08	 push	 DWORD PTR _Curent_windows$[ebp]
  00190	8b 4d e8	 mov	 ecx, DWORD PTR _this$[ebp]
  00193	e8 00 00 00 00	 call	 ?Display_grille@Solution@@AAEXPAUHWND__@@@Z ; Solution::Display_grille

; 339  : 
; 340  : 	 return result;

  00198	8b 45 dc	 mov	 eax, DWORD PTR _result$[ebp]
  0019b	89 85 c8 fe ff
	ff		 mov	 DWORD PTR $T2[ebp], eax
  001a1	83 4d fc ff	 or	 DWORD PTR __$EHRec$[ebp+8], -1
  001a5	8d 4d ac	 lea	 ecx, DWORD PTR _Valeur$[ebp]
  001a8	e8 00 00 00 00	 call	 ??1?$CStringT@_WV?$StrTraitMFC@_WV?$ChTraitsCRT@_W@ATL@@@@@ATL@@QAE@XZ ; ATL::CStringT<wchar_t,StrTraitMFC<wchar_t,ATL::ChTraitsCRT<wchar_t> > >::~CStringT<wchar_t,StrTraitMFC<wchar_t,ATL::ChTraitsCRT<wchar_t> > >
  001ad	8b 85 c8 fe ff
	ff		 mov	 eax, DWORD PTR $T2[ebp]

; 341  : }

  001b3	52		 push	 edx
  001b4	8b cd		 mov	 ecx, ebp
  001b6	50		 push	 eax
  001b7	8d 15 00 00 00
	00		 lea	 edx, DWORD PTR $LN17@Charger_va
  001bd	e8 00 00 00 00	 call	 @_RTC_CheckStackVars@8
  001c2	58		 pop	 eax
  001c3	5a		 pop	 edx
  001c4	8b 4d f4	 mov	 ecx, DWORD PTR __$EHRec$[ebp]
  001c7	64 89 0d 00 00
	00 00		 mov	 DWORD PTR fs:0, ecx
  001ce	59		 pop	 ecx
  001cf	5f		 pop	 edi
  001d0	5e		 pop	 esi
  001d1	5b		 pop	 ebx
  001d2	8b 4d f0	 mov	 ecx, DWORD PTR __$ArrayPad$[ebp]
  001d5	33 cd		 xor	 ecx, ebp
  001d7	e8 00 00 00 00	 call	 @__security_check_cookie@4
  001dc	81 c4 3c 01 00
	00		 add	 esp, 316		; 0000013cH
  001e2	3b ec		 cmp	 ebp, esp
  001e4	e8 00 00 00 00	 call	 __RTC_CheckEsp
  001e9	c9		 leave
  001ea	c2 04 00	 ret	 4
  001ed	0f 1f 00	 npad	 3
$LN17@Charger_va:
  001f0	01 00 00 00	 DD	 1
  001f4	00 00 00 00	 DD	 $LN16@Charger_va
$LN16@Charger_va:
  001f8	ac ff ff ff	 DD	 -84			; ffffffacH
  001fc	04 00 00 00	 DD	 4
  00200	00 00 00 00	 DD	 $LN14@Charger_va
$LN14@Charger_va:
  00204	56		 DB	 86			; 00000056H
  00205	61		 DB	 97			; 00000061H
  00206	6c		 DB	 108			; 0000006cH
  00207	65		 DB	 101			; 00000065H
  00208	75		 DB	 117			; 00000075H
  00209	72		 DB	 114			; 00000072H
  0020a	00		 DB	 0
_TEXT	ENDS
;	COMDAT text$x
text$x	SEGMENT
__unwindfunclet$?Charger_valeur_saisie@Solution@@QAEHPAUHWND__@@@Z$0:
  00000	8d 4d ac	 lea	 ecx, DWORD PTR _Valeur$[ebp]
  00003	e9 00 00 00 00	 jmp	 ??1?$CStringT@_WV?$StrTraitMFC@_WV?$ChTraitsCRT@_W@ATL@@@@@ATL@@QAE@XZ ; ATL::CStringT<wchar_t,StrTraitMFC<wchar_t,ATL::ChTraitsCRT<wchar_t> > >::~CStringT<wchar_t,StrTraitMFC<wchar_t,ATL::ChTraitsCRT<wchar_t> > >
  00008	cc		 int	 3
  00009	cc		 int	 3
  0000a	cc		 int	 3
  0000b	cc		 int	 3
  0000c	cc		 int	 3
__ehhandler$?Charger_valeur_saisie@Solution@@QAEHPAUHWND__@@@Z:
  0000d	90		 npad	 1
  0000e	90		 npad	 1
  0000f	8b 54 24 08	 mov	 edx, DWORD PTR [esp+8]
  00013	8d 42 0c	 lea	 eax, DWORD PTR [edx+12]
  00016	8b 8a c0 fe ff
	ff		 mov	 ecx, DWORD PTR [edx-320]
  0001c	33 c8		 xor	 ecx, eax
  0001e	e8 00 00 00 00	 call	 @__security_check_cookie@4
  00023	8b 4a fc	 mov	 ecx, DWORD PTR [edx-4]
  00026	33 c8		 xor	 ecx, eax
  00028	e8 00 00 00 00	 call	 @__security_check_cookie@4
  0002d	b8 00 00 00 00	 mov	 eax, OFFSET __ehfuncinfo$?Charger_valeur_saisie@Solution@@QAEHPAUHWND__@@@Z
  00032	e9 00 00 00 00	 jmp	 ___CxxFrameHandler3
text$x	ENDS
?Charger_valeur_saisie@Solution@@QAEHPAUHWND__@@@Z ENDP	; Solution::Charger_valeur_saisie
; Function compile flags: /Odsp /RTCsu /ZI
; File J:\work\SUDOKU\SUDOKU\SUDOKU\Solution.cpp
;	COMDAT ??1Solution@@UAE@XZ
_TEXT	SEGMENT
_this$ = -8						; size = 4
??1Solution@@UAE@XZ PROC				; Solution::~Solution, COMDAT
; _this$ = ecx

; 280  : {

  00000	55		 push	 ebp
  00001	8b ec		 mov	 ebp, esp
  00003	81 ec cc 00 00
	00		 sub	 esp, 204		; 000000ccH
  00009	53		 push	 ebx
  0000a	56		 push	 esi
  0000b	57		 push	 edi
  0000c	51		 push	 ecx
  0000d	8d 7d f4	 lea	 edi, DWORD PTR [ebp-12]
  00010	6a 03		 push	 3
  00012	59		 pop	 ecx
  00013	b8 cc cc cc cc	 mov	 eax, -858993460		; ccccccccH
  00018	f3 ab		 rep stosd
  0001a	59		 pop	 ecx
  0001b	89 4d f8	 mov	 DWORD PTR _this$[ebp], ecx
  0001e	b9 00 00 00 00	 mov	 ecx, OFFSET __CBE53D1F_Solution@cpp
  00023	e8 00 00 00 00	 call	 @__CheckForDebuggerJustMyCode@4
  00028	8b 45 f8	 mov	 eax, DWORD PTR _this$[ebp]
  0002b	c7 00 00 00 00
	00		 mov	 DWORD PTR [eax], OFFSET ??_7Solution@@6B@

; 281  : 
; 282  : 	fclose(pt_fichier);

  00031	8b 45 f8	 mov	 eax, DWORD PTR _this$[ebp]
  00034	ff b0 54 01 00
	00		 push	 DWORD PTR [eax+340]
  0003a	e8 00 00 00 00	 call	 _fclose
  0003f	59		 pop	 ecx

; 283  : 
; 284  : }

  00040	8b 4d f8	 mov	 ecx, DWORD PTR _this$[ebp]
  00043	81 c1 5c 01 00
	00		 add	 ecx, 348		; 0000015cH
  00049	e8 00 00 00 00	 call	 ??1?$CStringT@_WV?$StrTraitMFC@_WV?$ChTraitsCRT@_W@ATL@@@@@ATL@@QAE@XZ ; ATL::CStringT<wchar_t,StrTraitMFC<wchar_t,ATL::ChTraitsCRT<wchar_t> > >::~CStringT<wchar_t,StrTraitMFC<wchar_t,ATL::ChTraitsCRT<wchar_t> > >
  0004e	8b 4d f8	 mov	 ecx, DWORD PTR _this$[ebp]
  00051	81 c1 58 01 00
	00		 add	 ecx, 344		; 00000158H
  00057	e8 00 00 00 00	 call	 ??1?$CStringT@_WV?$StrTraitMFC@_WV?$ChTraitsCRT@_W@ATL@@@@@ATL@@QAE@XZ ; ATL::CStringT<wchar_t,StrTraitMFC<wchar_t,ATL::ChTraitsCRT<wchar_t> > >::~CStringT<wchar_t,StrTraitMFC<wchar_t,ATL::ChTraitsCRT<wchar_t> > >
  0005c	8b 4d f8	 mov	 ecx, DWORD PTR _this$[ebp]
  0005f	81 c1 50 01 00
	00		 add	 ecx, 336		; 00000150H
  00065	e8 00 00 00 00	 call	 ??1?$CStringT@_WV?$StrTraitMFC@_WV?$ChTraitsCRT@_W@ATL@@@@@ATL@@QAE@XZ ; ATL::CStringT<wchar_t,StrTraitMFC<wchar_t,ATL::ChTraitsCRT<wchar_t> > >::~CStringT<wchar_t,StrTraitMFC<wchar_t,ATL::ChTraitsCRT<wchar_t> > >
  0006a	5f		 pop	 edi
  0006b	5e		 pop	 esi
  0006c	5b		 pop	 ebx
  0006d	81 c4 cc 00 00
	00		 add	 esp, 204		; 000000ccH
  00073	3b ec		 cmp	 ebp, esp
  00075	e8 00 00 00 00	 call	 __RTC_CheckEsp
  0007a	c9		 leave
  0007b	c3		 ret	 0
??1Solution@@UAE@XZ ENDP				; Solution::~Solution
_TEXT	ENDS
; Function compile flags: /Odsp /RTCsu /ZI
; File J:\work\SUDOKU\SUDOKU\SUDOKU\Solution.cpp
; File J:\work\SUDOKU\SUDOKU\SUDOKU\Solution.h
; File J:\work\SUDOKU\SUDOKU\SUDOKU\Solution.cpp
;	COMDAT ??0Solution@@QAE@PAUHWND__@@@Z
_TEXT	SEGMENT
tv179 = -284						; size = 4
tv82 = -280						; size = 4
tv177 = -276						; size = 4
tv131 = -272						; size = 4
$T2 = -264						; size = 4
$T3 = -252						; size = 4
$T4 = -240						; size = 4
_Out_dir$ = -36						; size = 4
_this$ = -24						; size = 4
__$ArrayPad$ = -16					; size = 4
__$EHRec$ = -12						; size = 12
_Curent_windows$ = 8					; size = 4
??0Solution@@QAE@PAUHWND__@@@Z PROC			; Solution::Solution, COMDAT
; _this$ = ecx

; 260  : {		

  00000	55		 push	 ebp
  00001	8b ec		 mov	 ebp, esp
  00003	6a ff		 push	 -1
  00005	68 00 00 00 00	 push	 __ehhandler$??0Solution@@QAE@PAUHWND__@@@Z
  0000a	64 a1 00 00 00
	00		 mov	 eax, DWORD PTR fs:0
  00010	50		 push	 eax
  00011	81 ec 10 01 00
	00		 sub	 esp, 272		; 00000110H
  00017	53		 push	 ebx
  00018	56		 push	 esi
  00019	57		 push	 edi
  0001a	51		 push	 ecx
  0001b	8d 7d a4	 lea	 edi, DWORD PTR [ebp-92]
  0001e	6a 14		 push	 20			; 00000014H
  00020	59		 pop	 ecx
  00021	b8 cc cc cc cc	 mov	 eax, -858993460		; ccccccccH
  00026	f3 ab		 rep stosd
  00028	59		 pop	 ecx
  00029	a1 00 00 00 00	 mov	 eax, DWORD PTR ___security_cookie
  0002e	33 c5		 xor	 eax, ebp
  00030	89 45 f0	 mov	 DWORD PTR __$ArrayPad$[ebp], eax
  00033	50		 push	 eax
  00034	8d 45 f4	 lea	 eax, DWORD PTR __$EHRec$[ebp]
  00037	64 a3 00 00 00
	00		 mov	 DWORD PTR fs:0, eax
  0003d	89 4d e8	 mov	 DWORD PTR _this$[ebp], ecx
  00040	b9 00 00 00 00	 mov	 ecx, OFFSET __CBE53D1F_Solution@cpp
  00045	e8 00 00 00 00	 call	 @__CheckForDebuggerJustMyCode@4
  0004a	8b 45 e8	 mov	 eax, DWORD PTR _this$[ebp]
  0004d	c7 00 00 00 00
	00		 mov	 DWORD PTR [eax], OFFSET ??_7Solution@@6B@
; File J:\work\SUDOKU\SUDOKU\SUDOKU\Solution.h

; 48   : 	int   tableau_de_saisie[81] = { 0 };

  00053	68 44 01 00 00	 push	 324			; 00000144H
  00058	6a 00		 push	 0
  0005a	8b 45 e8	 mov	 eax, DWORD PTR _this$[ebp]
  0005d	83 c0 04	 add	 eax, 4
  00060	50		 push	 eax
  00061	e8 00 00 00 00	 call	 _memset
  00066	83 c4 0c	 add	 esp, 12			; 0000000cH
; File J:\work\SUDOKU\SUDOKU\SUDOKU\Solution.cpp

; 260  : {		

  00069	8b 4d e8	 mov	 ecx, DWORD PTR _this$[ebp]
  0006c	81 c1 50 01 00
	00		 add	 ecx, 336		; 00000150H
  00072	e8 00 00 00 00	 call	 ??0?$CStringT@_WV?$StrTraitMFC@_WV?$ChTraitsCRT@_W@ATL@@@@@ATL@@QAE@XZ ; ATL::CStringT<wchar_t,StrTraitMFC<wchar_t,ATL::ChTraitsCRT<wchar_t> > >::CStringT<wchar_t,StrTraitMFC<wchar_t,ATL::ChTraitsCRT<wchar_t> > >
  00077	83 65 fc 00	 and	 DWORD PTR __$EHRec$[ebp+8], 0
  0007b	8b 4d e8	 mov	 ecx, DWORD PTR _this$[ebp]
  0007e	81 c1 58 01 00
	00		 add	 ecx, 344		; 00000158H
  00084	e8 00 00 00 00	 call	 ??0?$CStringT@_WV?$StrTraitMFC@_WV?$ChTraitsCRT@_W@ATL@@@@@ATL@@QAE@XZ ; ATL::CStringT<wchar_t,StrTraitMFC<wchar_t,ATL::ChTraitsCRT<wchar_t> > >::CStringT<wchar_t,StrTraitMFC<wchar_t,ATL::ChTraitsCRT<wchar_t> > >
  00089	c6 45 fc 01	 mov	 BYTE PTR __$EHRec$[ebp+8], 1
  0008d	8b 4d e8	 mov	 ecx, DWORD PTR _this$[ebp]
  00090	81 c1 5c 01 00
	00		 add	 ecx, 348		; 0000015cH
  00096	e8 00 00 00 00	 call	 ??0?$CStringT@_WV?$StrTraitMFC@_WV?$ChTraitsCRT@_W@ATL@@@@@ATL@@QAE@XZ ; ATL::CStringT<wchar_t,StrTraitMFC<wchar_t,ATL::ChTraitsCRT<wchar_t> > >::CStringT<wchar_t,StrTraitMFC<wchar_t,ATL::ChTraitsCRT<wchar_t> > >
  0009b	c6 45 fc 02	 mov	 BYTE PTR __$EHRec$[ebp+8], 2

; 261  : 
; 262  : 	// Sauvegarde de la fentre d'appel
; 263  : 	Save_Curent_windows = Curent_windows;

  0009f	8b 45 e8	 mov	 eax, DWORD PTR _this$[ebp]
  000a2	8b 4d 08	 mov	 ecx, DWORD PTR _Curent_windows$[ebp]
  000a5	89 88 48 01 00
	00		 mov	 DWORD PTR [eax+328], ecx

; 264  : 	ASSERT(Curent_windows != 0);

  000ab	83 7d 08 00	 cmp	 DWORD PTR _Curent_windows$[ebp], 0
  000af	75 18		 jne	 SHORT $LN3@Solution
  000b1	a1 00 00 00 00	 mov	 eax, DWORD PTR ?__LINE__Var@?0???0Solution@@QAE@PAUHWND__@@@Z@4JA
  000b6	83 c0 04	 add	 eax, 4
  000b9	50		 push	 eax
  000ba	68 00 00 00 00	 push	 OFFSET ??_C@_0CK@JGFDDPMM@J?3?2work?2SUDOKU?2SUDOKU?2SUDOKU?2So@
  000bf	e8 00 00 00 00	 call	 ?AfxAssertFailedLine@@YGHPBDH@Z ; AfxAssertFailedLine
  000c4	85 c0		 test	 eax, eax
  000c6	74 01		 je	 SHORT $LN3@Solution
  000c8	cc		 int	 3
$LN3@Solution:

; 265  : 
; 266  : 	CString Out_dir = Folder() + "resultat_grille_Sudoku.txt"; // l l

  000c9	6a 04		 push	 4
  000cb	8d 4d dc	 lea	 ecx, DWORD PTR _Out_dir$[ebp]
  000ce	e8 00 00 00 00	 call	 ?__autoclassinit2@?$CStringT@_WV?$StrTraitMFC@_WV?$ChTraitsCRT@_W@ATL@@@@@ATL@@QAEXI@Z
  000d3	68 00 00 00 00	 push	 OFFSET ??_C@_0BL@JGGBKHK@resultat_grille_Sudoku?4txt@
  000d8	8d 8d 10 ff ff
	ff		 lea	 ecx, DWORD PTR $T4[ebp]
  000de	e8 00 00 00 00	 call	 ??0_bstr_t@@QAE@PBD@Z	; _bstr_t::_bstr_t
  000e3	c6 45 fc 03	 mov	 BYTE PTR __$EHRec$[ebp+8], 3
  000e7	8d 85 10 ff ff
	ff		 lea	 eax, DWORD PTR $T4[ebp]
  000ed	50		 push	 eax
  000ee	8d 85 04 ff ff
	ff		 lea	 eax, DWORD PTR $T3[ebp]
  000f4	50		 push	 eax
  000f5	8b 4d e8	 mov	 ecx, DWORD PTR _this$[ebp]
  000f8	e8 00 00 00 00	 call	 ?Folder@Solution@@AAE?AV?$CStringT@_WV?$StrTraitMFC@_WV?$ChTraitsCRT@_W@ATL@@@@@ATL@@XZ ; Solution::Folder
  000fd	89 85 f0 fe ff
	ff		 mov	 DWORD PTR tv131[ebp], eax
  00103	8b 85 f0 fe ff
	ff		 mov	 eax, DWORD PTR tv131[ebp]
  00109	89 85 ec fe ff
	ff		 mov	 DWORD PTR tv177[ebp], eax
  0010f	c6 45 fc 04	 mov	 BYTE PTR __$EHRec$[ebp+8], 4
  00113	8b 8d ec fe ff
	ff		 mov	 ecx, DWORD PTR tv177[ebp]
  00119	e8 00 00 00 00	 call	 ??B?$CSimpleStringT@_W$0A@@ATL@@QBEPB_WXZ ; ATL::CSimpleStringT<wchar_t,0>::operator wchar_t const *
  0011e	50		 push	 eax
  0011f	8d 85 f8 fe ff
	ff		 lea	 eax, DWORD PTR $T2[ebp]
  00125	50		 push	 eax
  00126	e8 00 00 00 00	 call	 ??H@YA?AV_bstr_t@@PB_WABV0@@Z ; operator+
  0012b	83 c4 0c	 add	 esp, 12			; 0000000cH
  0012e	89 85 e8 fe ff
	ff		 mov	 DWORD PTR tv82[ebp], eax
  00134	8b 85 e8 fe ff
	ff		 mov	 eax, DWORD PTR tv82[ebp]
  0013a	89 85 e4 fe ff
	ff		 mov	 DWORD PTR tv179[ebp], eax
  00140	c6 45 fc 05	 mov	 BYTE PTR __$EHRec$[ebp+8], 5
  00144	8b 8d e4 fe ff
	ff		 mov	 ecx, DWORD PTR tv179[ebp]
  0014a	e8 00 00 00 00	 call	 ??B_bstr_t@@QBEPB_WXZ	; _bstr_t::operator wchar_t const *
  0014f	50		 push	 eax
  00150	8d 4d dc	 lea	 ecx, DWORD PTR _Out_dir$[ebp]
  00153	e8 00 00 00 00	 call	 ??0?$CStringT@_WV?$StrTraitMFC@_WV?$ChTraitsCRT@_W@ATL@@@@@ATL@@QAE@PB_W@Z ; ATL::CStringT<wchar_t,StrTraitMFC<wchar_t,ATL::ChTraitsCRT<wchar_t> > >::CStringT<wchar_t,StrTraitMFC<wchar_t,ATL::ChTraitsCRT<wchar_t> > >
  00158	c6 45 fc 07	 mov	 BYTE PTR __$EHRec$[ebp+8], 7
  0015c	8d 8d f8 fe ff
	ff		 lea	 ecx, DWORD PTR $T2[ebp]
  00162	e8 00 00 00 00	 call	 ??1_bstr_t@@QAE@XZ	; _bstr_t::~_bstr_t
  00167	c6 45 fc 08	 mov	 BYTE PTR __$EHRec$[ebp+8], 8
  0016b	8d 8d 04 ff ff
	ff		 lea	 ecx, DWORD PTR $T3[ebp]
  00171	e8 00 00 00 00	 call	 ??1?$CStringT@_WV?$StrTraitMFC@_WV?$ChTraitsCRT@_W@ATL@@@@@ATL@@QAE@XZ ; ATL::CStringT<wchar_t,StrTraitMFC<wchar_t,ATL::ChTraitsCRT<wchar_t> > >::~CStringT<wchar_t,StrTraitMFC<wchar_t,ATL::ChTraitsCRT<wchar_t> > >
  00176	c6 45 fc 09	 mov	 BYTE PTR __$EHRec$[ebp+8], 9
  0017a	8d 8d 10 ff ff
	ff		 lea	 ecx, DWORD PTR $T4[ebp]
  00180	e8 00 00 00 00	 call	 ??1_bstr_t@@QAE@XZ	; _bstr_t::~_bstr_t

; 267  : 	pt_fichier = _wfopen(Out_dir, _T("w+t"));

  00185	68 00 00 00 00	 push	 OFFSET ??_C@_17LFHOHKCB@?$AAw?$AA?$CL?$AAt@
  0018a	8d 4d dc	 lea	 ecx, DWORD PTR _Out_dir$[ebp]
  0018d	e8 00 00 00 00	 call	 ??B?$CSimpleStringT@_W$0A@@ATL@@QBEPB_WXZ ; ATL::CSimpleStringT<wchar_t,0>::operator wchar_t const *
  00192	50		 push	 eax
  00193	e8 00 00 00 00	 call	 __wfopen
  00198	59		 pop	 ecx
  00199	59		 pop	 ecx
  0019a	8b 4d e8	 mov	 ecx, DWORD PTR _this$[ebp]
  0019d	89 81 54 01 00
	00		 mov	 DWORD PTR [ecx+340], eax

; 268  : 
; 269  : 	// Charge le tableau de relation 
; 270  : 	Charge_tableau_relation();

  001a3	8b 4d e8	 mov	 ecx, DWORD PTR _this$[ebp]
  001a6	e8 00 00 00 00	 call	 ?Charge_tableau_relation@Solution@@AAEXXZ ; Solution::Charge_tableau_relation

; 271  : 	
; 272  : 	// Dfinition des limtes etc...
; 273  : 	Definition_limite(Curent_windows);

  001ab	ff 75 08	 push	 DWORD PTR _Curent_windows$[ebp]
  001ae	8b 4d e8	 mov	 ecx, DWORD PTR _this$[ebp]
  001b1	e8 00 00 00 00	 call	 ?Definition_limite@Solution@@AAEXPAUHWND__@@@Z ; Solution::Definition_limite

; 274  : 	g_test_counter = 0;

  001b6	8b 45 e8	 mov	 eax, DWORD PTR _this$[ebp]
  001b9	83 a0 4c 01 00
	00 00		 and	 DWORD PTR [eax+332], 0

; 275  : 
; 276  : 
; 277  : }

  001c0	c6 45 fc 02	 mov	 BYTE PTR __$EHRec$[ebp+8], 2
  001c4	8d 4d dc	 lea	 ecx, DWORD PTR _Out_dir$[ebp]
  001c7	e8 00 00 00 00	 call	 ??1?$CStringT@_WV?$StrTraitMFC@_WV?$ChTraitsCRT@_W@ATL@@@@@ATL@@QAE@XZ ; ATL::CStringT<wchar_t,StrTraitMFC<wchar_t,ATL::ChTraitsCRT<wchar_t> > >::~CStringT<wchar_t,StrTraitMFC<wchar_t,ATL::ChTraitsCRT<wchar_t> > >
  001cc	83 4d fc ff	 or	 DWORD PTR __$EHRec$[ebp+8], -1
  001d0	8b 45 e8	 mov	 eax, DWORD PTR _this$[ebp]
  001d3	52		 push	 edx
  001d4	8b cd		 mov	 ecx, ebp
  001d6	50		 push	 eax
  001d7	8d 15 00 00 00
	00		 lea	 edx, DWORD PTR $LN14@Solution
  001dd	e8 00 00 00 00	 call	 @_RTC_CheckStackVars@8
  001e2	58		 pop	 eax
  001e3	5a		 pop	 edx
  001e4	8b 4d f4	 mov	 ecx, DWORD PTR __$EHRec$[ebp]
  001e7	64 89 0d 00 00
	00 00		 mov	 DWORD PTR fs:0, ecx
  001ee	59		 pop	 ecx
  001ef	5f		 pop	 edi
  001f0	5e		 pop	 esi
  001f1	5b		 pop	 ebx
  001f2	8b 4d f0	 mov	 ecx, DWORD PTR __$ArrayPad$[ebp]
  001f5	33 cd		 xor	 ecx, ebp
  001f7	e8 00 00 00 00	 call	 @__security_check_cookie@4
  001fc	81 c4 1c 01 00
	00		 add	 esp, 284		; 0000011cH
  00202	3b ec		 cmp	 ebp, esp
  00204	e8 00 00 00 00	 call	 __RTC_CheckEsp
  00209	c9		 leave
  0020a	c2 04 00	 ret	 4
  0020d	0f 1f 00	 npad	 3
$LN14@Solution:
  00210	01 00 00 00	 DD	 1
  00214	00 00 00 00	 DD	 $LN13@Solution
$LN13@Solution:
  00218	dc ff ff ff	 DD	 -36			; ffffffdcH
  0021c	04 00 00 00	 DD	 4
  00220	00 00 00 00	 DD	 $LN11@Solution
$LN11@Solution:
  00224	4f		 DB	 79			; 0000004fH
  00225	75		 DB	 117			; 00000075H
  00226	74		 DB	 116			; 00000074H
  00227	5f		 DB	 95			; 0000005fH
  00228	64		 DB	 100			; 00000064H
  00229	69		 DB	 105			; 00000069H
  0022a	72		 DB	 114			; 00000072H
  0022b	00		 DB	 0
_TEXT	ENDS
;	COMDAT text$x
text$x	SEGMENT
__unwindfunclet$??0Solution@@QAE@PAUHWND__@@@Z$0:
  00000	8b 4d e8	 mov	 ecx, DWORD PTR _this$[ebp]
  00003	81 c1 50 01 00
	00		 add	 ecx, 336		; 00000150H
  00009	e9 00 00 00 00	 jmp	 ??1?$CStringT@_WV?$StrTraitMFC@_WV?$ChTraitsCRT@_W@ATL@@@@@ATL@@QAE@XZ ; ATL::CStringT<wchar_t,StrTraitMFC<wchar_t,ATL::ChTraitsCRT<wchar_t> > >::~CStringT<wchar_t,StrTraitMFC<wchar_t,ATL::ChTraitsCRT<wchar_t> > >
__unwindfunclet$??0Solution@@QAE@PAUHWND__@@@Z$1:
  0000e	8b 4d e8	 mov	 ecx, DWORD PTR _this$[ebp]
  00011	81 c1 58 01 00
	00		 add	 ecx, 344		; 00000158H
  00017	e9 00 00 00 00	 jmp	 ??1?$CStringT@_WV?$StrTraitMFC@_WV?$ChTraitsCRT@_W@ATL@@@@@ATL@@QAE@XZ ; ATL::CStringT<wchar_t,StrTraitMFC<wchar_t,ATL::ChTraitsCRT<wchar_t> > >::~CStringT<wchar_t,StrTraitMFC<wchar_t,ATL::ChTraitsCRT<wchar_t> > >
__unwindfunclet$??0Solution@@QAE@PAUHWND__@@@Z$2:
  0001c	8b 4d e8	 mov	 ecx, DWORD PTR _this$[ebp]
  0001f	81 c1 5c 01 00
	00		 add	 ecx, 348		; 0000015cH
  00025	e9 00 00 00 00	 jmp	 ??1?$CStringT@_WV?$StrTraitMFC@_WV?$ChTraitsCRT@_W@ATL@@@@@ATL@@QAE@XZ ; ATL::CStringT<wchar_t,StrTraitMFC<wchar_t,ATL::ChTraitsCRT<wchar_t> > >::~CStringT<wchar_t,StrTraitMFC<wchar_t,ATL::ChTraitsCRT<wchar_t> > >
__unwindfunclet$??0Solution@@QAE@PAUHWND__@@@Z$3:
  0002a	8d 8d 10 ff ff
	ff		 lea	 ecx, DWORD PTR $T4[ebp]
  00030	e9 00 00 00 00	 jmp	 ??1_bstr_t@@QAE@XZ	; _bstr_t::~_bstr_t
__unwindfunclet$??0Solution@@QAE@PAUHWND__@@@Z$4:
  00035	8d 8d 04 ff ff
	ff		 lea	 ecx, DWORD PTR $T3[ebp]
  0003b	e9 00 00 00 00	 jmp	 ??1?$CStringT@_WV?$StrTraitMFC@_WV?$ChTraitsCRT@_W@ATL@@@@@ATL@@QAE@XZ ; ATL::CStringT<wchar_t,StrTraitMFC<wchar_t,ATL::ChTraitsCRT<wchar_t> > >::~CStringT<wchar_t,StrTraitMFC<wchar_t,ATL::ChTraitsCRT<wchar_t> > >
__unwindfunclet$??0Solution@@QAE@PAUHWND__@@@Z$5:
  00040	8d 8d f8 fe ff
	ff		 lea	 ecx, DWORD PTR $T2[ebp]
  00046	e9 00 00 00 00	 jmp	 ??1_bstr_t@@QAE@XZ	; _bstr_t::~_bstr_t
__unwindfunclet$??0Solution@@QAE@PAUHWND__@@@Z$6:
  0004b	8d 4d dc	 lea	 ecx, DWORD PTR _Out_dir$[ebp]
  0004e	e9 00 00 00 00	 jmp	 ??1?$CStringT@_WV?$StrTraitMFC@_WV?$ChTraitsCRT@_W@ATL@@@@@ATL@@QAE@XZ ; ATL::CStringT<wchar_t,StrTraitMFC<wchar_t,ATL::ChTraitsCRT<wchar_t> > >::~CStringT<wchar_t,StrTraitMFC<wchar_t,ATL::ChTraitsCRT<wchar_t> > >
  00053	cc		 int	 3
  00054	cc		 int	 3
  00055	cc		 int	 3
  00056	cc		 int	 3
  00057	cc		 int	 3
__ehhandler$??0Solution@@QAE@PAUHWND__@@@Z:
  00058	90		 npad	 1
  00059	90		 npad	 1
  0005a	8b 54 24 08	 mov	 edx, DWORD PTR [esp+8]
  0005e	8d 42 0c	 lea	 eax, DWORD PTR [edx+12]
  00061	8b 8a e0 fe ff
	ff		 mov	 ecx, DWORD PTR [edx-288]
  00067	33 c8		 xor	 ecx, eax
  00069	e8 00 00 00 00	 call	 @__security_check_cookie@4
  0006e	8b 4a fc	 mov	 ecx, DWORD PTR [edx-4]
  00071	33 c8		 xor	 ecx, eax
  00073	e8 00 00 00 00	 call	 @__security_check_cookie@4
  00078	b8 00 00 00 00	 mov	 eax, OFFSET __ehfuncinfo$??0Solution@@QAE@PAUHWND__@@@Z
  0007d	e9 00 00 00 00	 jmp	 ___CxxFrameHandler3
text$x	ENDS
??0Solution@@QAE@PAUHWND__@@@Z ENDP			; Solution::Solution
; Function compile flags: /Odsp /RTCsu /ZI
; File J:\work\SUDOKU\SUDOKU\SUDOKU\Solution.cpp
; File J:\work\SUDOKU\SUDOKU\SUDOKU\Solution.h
; File J:\work\SUDOKU\SUDOKU\SUDOKU\Solution.cpp
;	COMDAT ??0Solution@@QAE@XZ
_TEXT	SEGMENT
_this$ = -8						; size = 4
??0Solution@@QAE@XZ PROC				; Solution::Solution, COMDAT
; _this$ = ecx

; 18   : {

  00000	55		 push	 ebp
  00001	8b ec		 mov	 ebp, esp
  00003	81 ec cc 00 00
	00		 sub	 esp, 204		; 000000ccH
  00009	53		 push	 ebx
  0000a	56		 push	 esi
  0000b	57		 push	 edi
  0000c	51		 push	 ecx
  0000d	8d 7d f4	 lea	 edi, DWORD PTR [ebp-12]
  00010	6a 03		 push	 3
  00012	59		 pop	 ecx
  00013	b8 cc cc cc cc	 mov	 eax, -858993460		; ccccccccH
  00018	f3 ab		 rep stosd
  0001a	59		 pop	 ecx
  0001b	89 4d f8	 mov	 DWORD PTR _this$[ebp], ecx
  0001e	b9 00 00 00 00	 mov	 ecx, OFFSET __CBE53D1F_Solution@cpp
  00023	e8 00 00 00 00	 call	 @__CheckForDebuggerJustMyCode@4
  00028	8b 45 f8	 mov	 eax, DWORD PTR _this$[ebp]
  0002b	c7 00 00 00 00
	00		 mov	 DWORD PTR [eax], OFFSET ??_7Solution@@6B@
; File J:\work\SUDOKU\SUDOKU\SUDOKU\Solution.h

; 48   : 	int   tableau_de_saisie[81] = { 0 };

  00031	68 44 01 00 00	 push	 324			; 00000144H
  00036	6a 00		 push	 0
  00038	8b 45 f8	 mov	 eax, DWORD PTR _this$[ebp]
  0003b	83 c0 04	 add	 eax, 4
  0003e	50		 push	 eax
  0003f	e8 00 00 00 00	 call	 _memset
  00044	83 c4 0c	 add	 esp, 12			; 0000000cH
; File J:\work\SUDOKU\SUDOKU\SUDOKU\Solution.cpp

; 18   : {

  00047	8b 4d f8	 mov	 ecx, DWORD PTR _this$[ebp]
  0004a	81 c1 50 01 00
	00		 add	 ecx, 336		; 00000150H
  00050	e8 00 00 00 00	 call	 ??0?$CStringT@_WV?$StrTraitMFC@_WV?$ChTraitsCRT@_W@ATL@@@@@ATL@@QAE@XZ ; ATL::CStringT<wchar_t,StrTraitMFC<wchar_t,ATL::ChTraitsCRT<wchar_t> > >::CStringT<wchar_t,StrTraitMFC<wchar_t,ATL::ChTraitsCRT<wchar_t> > >
  00055	8b 4d f8	 mov	 ecx, DWORD PTR _this$[ebp]
  00058	81 c1 58 01 00
	00		 add	 ecx, 344		; 00000158H
  0005e	e8 00 00 00 00	 call	 ??0?$CStringT@_WV?$StrTraitMFC@_WV?$ChTraitsCRT@_W@ATL@@@@@ATL@@QAE@XZ ; ATL::CStringT<wchar_t,StrTraitMFC<wchar_t,ATL::ChTraitsCRT<wchar_t> > >::CStringT<wchar_t,StrTraitMFC<wchar_t,ATL::ChTraitsCRT<wchar_t> > >
  00063	8b 4d f8	 mov	 ecx, DWORD PTR _this$[ebp]
  00066	81 c1 5c 01 00
	00		 add	 ecx, 348		; 0000015cH
  0006c	e8 00 00 00 00	 call	 ??0?$CStringT@_WV?$StrTraitMFC@_WV?$ChTraitsCRT@_W@ATL@@@@@ATL@@QAE@XZ ; ATL::CStringT<wchar_t,StrTraitMFC<wchar_t,ATL::ChTraitsCRT<wchar_t> > >::CStringT<wchar_t,StrTraitMFC<wchar_t,ATL::ChTraitsCRT<wchar_t> > >

; 19   : }

  00071	8b 45 f8	 mov	 eax, DWORD PTR _this$[ebp]
  00074	5f		 pop	 edi
  00075	5e		 pop	 esi
  00076	5b		 pop	 ebx
  00077	81 c4 cc 00 00
	00		 add	 esp, 204		; 000000ccH
  0007d	3b ec		 cmp	 ebp, esp
  0007f	e8 00 00 00 00	 call	 __RTC_CheckEsp
  00084	c9		 leave
  00085	c3		 ret	 0
??0Solution@@QAE@XZ ENDP				; Solution::Solution
_TEXT	ENDS
; Function compile flags: /Odsp /RTCsu /ZI
;	COMDAT ??_GCalcul_temps@@QAEPAXI@Z
_TEXT	SEGMENT
_this$ = -8						; size = 4
___flags$ = 8						; size = 4
??_GCalcul_temps@@QAEPAXI@Z PROC			; Calcul_temps::`scalar deleting destructor', COMDAT
; _this$ = ecx
  00000	55		 push	 ebp
  00001	8b ec		 mov	 ebp, esp
  00003	81 ec cc 00 00
	00		 sub	 esp, 204		; 000000ccH
  00009	53		 push	 ebx
  0000a	56		 push	 esi
  0000b	57		 push	 edi
  0000c	51		 push	 ecx
  0000d	8d 7d f4	 lea	 edi, DWORD PTR [ebp-12]
  00010	6a 03		 push	 3
  00012	59		 pop	 ecx
  00013	b8 cc cc cc cc	 mov	 eax, -858993460		; ccccccccH
  00018	f3 ab		 rep stosd
  0001a	59		 pop	 ecx
  0001b	89 4d f8	 mov	 DWORD PTR _this$[ebp], ecx
  0001e	8b 4d f8	 mov	 ecx, DWORD PTR _this$[ebp]
  00021	e8 00 00 00 00	 call	 ??1Calcul_temps@@QAE@XZ	; Calcul_temps::~Calcul_temps
  00026	8b 45 08	 mov	 eax, DWORD PTR ___flags$[ebp]
  00029	83 e0 01	 and	 eax, 1
  0002c	74 0c		 je	 SHORT $LN2@scalar
  0002e	6a 10		 push	 16			; 00000010H
  00030	ff 75 f8	 push	 DWORD PTR _this$[ebp]
  00033	e8 00 00 00 00	 call	 ??3@YAXPAXI@Z		; operator delete
  00038	59		 pop	 ecx
  00039	59		 pop	 ecx
$LN2@scalar:
  0003a	8b 45 f8	 mov	 eax, DWORD PTR _this$[ebp]
  0003d	5f		 pop	 edi
  0003e	5e		 pop	 esi
  0003f	5b		 pop	 ebx
  00040	81 c4 cc 00 00
	00		 add	 esp, 204		; 000000ccH
  00046	3b ec		 cmp	 ebp, esp
  00048	e8 00 00 00 00	 call	 __RTC_CheckEsp
  0004d	c9		 leave
  0004e	c2 04 00	 ret	 4
??_GCalcul_temps@@QAEPAXI@Z ENDP			; Calcul_temps::`scalar deleting destructor'
_TEXT	ENDS
; Function compile flags: /Odsp /RTCsu /ZI
;	COMDAT ?__autoclassinit2@_bstr_t@@QAEXI@Z
_TEXT	SEGMENT
_this$ = -8						; size = 4
_classSize$ = 8						; size = 4
?__autoclassinit2@_bstr_t@@QAEXI@Z PROC			; _bstr_t::__autoclassinit2, COMDAT
; _this$ = ecx
  00000	55		 push	 ebp
  00001	8b ec		 mov	 ebp, esp
  00003	81 ec cc 00 00
	00		 sub	 esp, 204		; 000000ccH
  00009	53		 push	 ebx
  0000a	56		 push	 esi
  0000b	57		 push	 edi
  0000c	51		 push	 ecx
  0000d	8d 7d f4	 lea	 edi, DWORD PTR [ebp-12]
  00010	6a 03		 push	 3
  00012	59		 pop	 ecx
  00013	b8 cc cc cc cc	 mov	 eax, -858993460		; ccccccccH
  00018	f3 ab		 rep stosd
  0001a	59		 pop	 ecx
  0001b	89 4d f8	 mov	 DWORD PTR _this$[ebp], ecx
  0001e	ff 75 08	 push	 DWORD PTR _classSize$[ebp]
  00021	6a 00		 push	 0
  00023	ff 75 f8	 push	 DWORD PTR _this$[ebp]
  00026	e8 00 00 00 00	 call	 _memset
  0002b	83 c4 0c	 add	 esp, 12			; 0000000cH
  0002e	5f		 pop	 edi
  0002f	5e		 pop	 esi
  00030	5b		 pop	 ebx
  00031	81 c4 cc 00 00
	00		 add	 esp, 204		; 000000ccH
  00037	3b ec		 cmp	 ebp, esp
  00039	e8 00 00 00 00	 call	 __RTC_CheckEsp
  0003e	c9		 leave
  0003f	c2 04 00	 ret	 4
?__autoclassinit2@_bstr_t@@QAEXI@Z ENDP			; _bstr_t::__autoclassinit2
_TEXT	ENDS
; Function compile flags: /Odsp /RTCsu /ZI
; File C:\Program Files\Microsoft Visual Studio\2022\Enterprise\VC\Tools\MSVC\14.34.31933\include\comutil.h
;	COMDAT ?_Free@_bstr_t@@AAEXXZ
_TEXT	SEGMENT
_this$ = -8						; size = 4
?_Free@_bstr_t@@AAEXXZ PROC				; _bstr_t::_Free, COMDAT
; _this$ = ecx

; 636  : {

  00000	55		 push	 ebp
  00001	8b ec		 mov	 ebp, esp
  00003	81 ec cc 00 00
	00		 sub	 esp, 204		; 000000ccH
  00009	53		 push	 ebx
  0000a	56		 push	 esi
  0000b	57		 push	 edi
  0000c	51		 push	 ecx
  0000d	8d 7d f4	 lea	 edi, DWORD PTR [ebp-12]
  00010	6a 03		 push	 3
  00012	59		 pop	 ecx
  00013	b8 cc cc cc cc	 mov	 eax, -858993460		; ccccccccH
  00018	f3 ab		 rep stosd
  0001a	59		 pop	 ecx
  0001b	89 4d f8	 mov	 DWORD PTR _this$[ebp], ecx
  0001e	b9 00 00 00 00	 mov	 ecx, OFFSET __3E101F51_comutil@h
  00023	e8 00 00 00 00	 call	 @__CheckForDebuggerJustMyCode@4

; 637  :     if (m_Data != NULL) {

  00028	8b 45 f8	 mov	 eax, DWORD PTR _this$[ebp]
  0002b	83 38 00	 cmp	 DWORD PTR [eax], 0
  0002e	74 10		 je	 SHORT $LN1@Free

; 638  :         m_Data->Release();

  00030	8b 45 f8	 mov	 eax, DWORD PTR _this$[ebp]
  00033	8b 08		 mov	 ecx, DWORD PTR [eax]
  00035	e8 00 00 00 00	 call	 ?Release@Data_t@_bstr_t@@QAEKXZ ; _bstr_t::Data_t::Release

; 639  :         m_Data = NULL;

  0003a	8b 45 f8	 mov	 eax, DWORD PTR _this$[ebp]
  0003d	83 20 00	 and	 DWORD PTR [eax], 0
$LN1@Free:

; 640  :     }
; 641  : }

  00040	5f		 pop	 edi
  00041	5e		 pop	 esi
  00042	5b		 pop	 ebx
  00043	81 c4 cc 00 00
	00		 add	 esp, 204		; 000000ccH
  00049	3b ec		 cmp	 ebp, esp
  0004b	e8 00 00 00 00	 call	 __RTC_CheckEsp
  00050	c9		 leave
  00051	c3		 ret	 0
?_Free@_bstr_t@@AAEXXZ ENDP				; _bstr_t::_Free
_TEXT	ENDS
; Function compile flags: /Odsp /RTCsu /ZI
; File C:\Program Files\Microsoft Visual Studio\2022\Enterprise\VC\Tools\MSVC\14.34.31933\include\comutil.h
;	COMDAT ?_AddRef@_bstr_t@@AAEXXZ
_TEXT	SEGMENT
_this$ = -8						; size = 4
?_AddRef@_bstr_t@@AAEXXZ PROC				; _bstr_t::_AddRef, COMDAT
; _this$ = ecx

; 627  : {

  00000	55		 push	 ebp
  00001	8b ec		 mov	 ebp, esp
  00003	81 ec cc 00 00
	00		 sub	 esp, 204		; 000000ccH
  00009	53		 push	 ebx
  0000a	56		 push	 esi
  0000b	57		 push	 edi
  0000c	51		 push	 ecx
  0000d	8d 7d f4	 lea	 edi, DWORD PTR [ebp-12]
  00010	6a 03		 push	 3
  00012	59		 pop	 ecx
  00013	b8 cc cc cc cc	 mov	 eax, -858993460		; ccccccccH
  00018	f3 ab		 rep stosd
  0001a	59		 pop	 ecx
  0001b	89 4d f8	 mov	 DWORD PTR _this$[ebp], ecx
  0001e	b9 00 00 00 00	 mov	 ecx, OFFSET __3E101F51_comutil@h
  00023	e8 00 00 00 00	 call	 @__CheckForDebuggerJustMyCode@4

; 628  :     if (m_Data != NULL) {

  00028	8b 45 f8	 mov	 eax, DWORD PTR _this$[ebp]
  0002b	83 38 00	 cmp	 DWORD PTR [eax], 0
  0002e	74 0a		 je	 SHORT $LN1@AddRef

; 629  :         m_Data->AddRef();

  00030	8b 45 f8	 mov	 eax, DWORD PTR _this$[ebp]
  00033	8b 08		 mov	 ecx, DWORD PTR [eax]
  00035	e8 00 00 00 00	 call	 ?AddRef@Data_t@_bstr_t@@QAEKXZ ; _bstr_t::Data_t::AddRef
$LN1@AddRef:

; 630  :     }
; 631  : }

  0003a	5f		 pop	 edi
  0003b	5e		 pop	 esi
  0003c	5b		 pop	 ebx
  0003d	81 c4 cc 00 00
	00		 add	 esp, 204		; 000000ccH
  00043	3b ec		 cmp	 ebp, esp
  00045	e8 00 00 00 00	 call	 __RTC_CheckEsp
  0004a	c9		 leave
  0004b	c3		 ret	 0
?_AddRef@_bstr_t@@AAEXXZ ENDP				; _bstr_t::_AddRef
_TEXT	ENDS
; Function compile flags: /Odsp /RTCsu /ZI
;	COMDAT ??_GData_t@_bstr_t@@AAEPAXI@Z
_TEXT	SEGMENT
_this$ = -8						; size = 4
___flags$ = 8						; size = 4
??_GData_t@_bstr_t@@AAEPAXI@Z PROC			; _bstr_t::Data_t::`scalar deleting destructor', COMDAT
; _this$ = ecx
  00000	55		 push	 ebp
  00001	8b ec		 mov	 ebp, esp
  00003	81 ec cc 00 00
	00		 sub	 esp, 204		; 000000ccH
  00009	53		 push	 ebx
  0000a	56		 push	 esi
  0000b	57		 push	 edi
  0000c	51		 push	 ecx
  0000d	8d 7d f4	 lea	 edi, DWORD PTR [ebp-12]
  00010	6a 03		 push	 3
  00012	59		 pop	 ecx
  00013	b8 cc cc cc cc	 mov	 eax, -858993460		; ccccccccH
  00018	f3 ab		 rep stosd
  0001a	59		 pop	 ecx
  0001b	89 4d f8	 mov	 DWORD PTR _this$[ebp], ecx
  0001e	8b 4d f8	 mov	 ecx, DWORD PTR _this$[ebp]
  00021	e8 00 00 00 00	 call	 ??1Data_t@_bstr_t@@AAE@XZ ; _bstr_t::Data_t::~Data_t
  00026	8b 45 08	 mov	 eax, DWORD PTR ___flags$[ebp]
  00029	83 e0 01	 and	 eax, 1
  0002c	74 0c		 je	 SHORT $LN2@scalar
  0002e	6a 0c		 push	 12			; 0000000cH
  00030	ff 75 f8	 push	 DWORD PTR _this$[ebp]
  00033	e8 00 00 00 00	 call	 ??3@YAXPAXI@Z		; operator delete
  00038	59		 pop	 ecx
  00039	59		 pop	 ecx
$LN2@scalar:
  0003a	8b 45 f8	 mov	 eax, DWORD PTR _this$[ebp]
  0003d	5f		 pop	 edi
  0003e	5e		 pop	 esi
  0003f	5b		 pop	 ebx
  00040	81 c4 cc 00 00
	00		 add	 esp, 204		; 000000ccH
  00046	3b ec		 cmp	 ebp, esp
  00048	e8 00 00 00 00	 call	 __RTC_CheckEsp
  0004d	c9		 leave
  0004e	c2 04 00	 ret	 4
??_GData_t@_bstr_t@@AAEPAXI@Z ENDP			; _bstr_t::Data_t::`scalar deleting destructor'
_TEXT	ENDS
; Function compile flags: /Odsp /RTCsu /ZI
;	COMDAT ?__autoclassinit2@Data_t@_bstr_t@@QAEXI@Z
_TEXT	SEGMENT
_this$ = -8						; size = 4
_classSize$ = 8						; size = 4
?__autoclassinit2@Data_t@_bstr_t@@QAEXI@Z PROC		; _bstr_t::Data_t::__autoclassinit2, COMDAT
; _this$ = ecx
  00000	55		 push	 ebp
  00001	8b ec		 mov	 ebp, esp
  00003	81 ec cc 00 00
	00		 sub	 esp, 204		; 000000ccH
  00009	53		 push	 ebx
  0000a	56		 push	 esi
  0000b	57		 push	 edi
  0000c	51		 push	 ecx
  0000d	8d 7d f4	 lea	 edi, DWORD PTR [ebp-12]
  00010	6a 03		 push	 3
  00012	59		 pop	 ecx
  00013	b8 cc cc cc cc	 mov	 eax, -858993460		; ccccccccH
  00018	f3 ab		 rep stosd
  0001a	59		 pop	 ecx
  0001b	89 4d f8	 mov	 DWORD PTR _this$[ebp], ecx
  0001e	ff 75 08	 push	 DWORD PTR _classSize$[ebp]
  00021	6a 00		 push	 0
  00023	ff 75 f8	 push	 DWORD PTR _this$[ebp]
  00026	e8 00 00 00 00	 call	 _memset
  0002b	83 c4 0c	 add	 esp, 12			; 0000000cH
  0002e	5f		 pop	 edi
  0002f	5e		 pop	 esi
  00030	5b		 pop	 ebx
  00031	81 c4 cc 00 00
	00		 add	 esp, 204		; 000000ccH
  00037	3b ec		 cmp	 ebp, esp
  00039	e8 00 00 00 00	 call	 __RTC_CheckEsp
  0003e	c9		 leave
  0003f	c2 04 00	 ret	 4
?__autoclassinit2@Data_t@_bstr_t@@QAEXI@Z ENDP		; _bstr_t::Data_t::__autoclassinit2
_TEXT	ENDS
; Function compile flags: /Odsp /RTCsu /ZI
; File C:\Program Files\Microsoft Visual Studio\2022\Enterprise\VC\Tools\MSVC\14.34.31933\include\comutil.h
;	COMDAT ?_Free@Data_t@_bstr_t@@AAEXXZ
_TEXT	SEGMENT
$T1 = -212						; size = 4
_this$ = -8						; size = 4
?_Free@Data_t@_bstr_t@@AAEXXZ PROC			; _bstr_t::Data_t::_Free, COMDAT
; _this$ = ecx

; 930  : {

  00000	55		 push	 ebp
  00001	8b ec		 mov	 ebp, esp
  00003	81 ec d8 00 00
	00		 sub	 esp, 216		; 000000d8H
  00009	53		 push	 ebx
  0000a	56		 push	 esi
  0000b	57		 push	 edi
  0000c	51		 push	 ecx
  0000d	8d 7d e8	 lea	 edi, DWORD PTR [ebp-24]
  00010	6a 06		 push	 6
  00012	59		 pop	 ecx
  00013	b8 cc cc cc cc	 mov	 eax, -858993460		; ccccccccH
  00018	f3 ab		 rep stosd
  0001a	59		 pop	 ecx
  0001b	89 4d f8	 mov	 DWORD PTR _this$[ebp], ecx
  0001e	b9 00 00 00 00	 mov	 ecx, OFFSET __3E101F51_comutil@h
  00023	e8 00 00 00 00	 call	 @__CheckForDebuggerJustMyCode@4

; 931  :     if (m_wstr != NULL) {

  00028	8b 45 f8	 mov	 eax, DWORD PTR _this$[ebp]
  0002b	83 38 00	 cmp	 DWORD PTR [eax], 0
  0002e	74 1a		 je	 SHORT $LN2@Free

; 932  :         ::SysFreeString(m_wstr);

  00030	8b f4		 mov	 esi, esp
  00032	8b 45 f8	 mov	 eax, DWORD PTR _this$[ebp]
  00035	ff 30		 push	 DWORD PTR [eax]
  00037	ff 15 00 00 00
	00		 call	 DWORD PTR __imp__SysFreeString@4
  0003d	3b f4		 cmp	 esi, esp
  0003f	e8 00 00 00 00	 call	 __RTC_CheckEsp

; 933  :         m_wstr = NULL;

  00044	8b 45 f8	 mov	 eax, DWORD PTR _this$[ebp]
  00047	83 20 00	 and	 DWORD PTR [eax], 0
$LN2@Free:

; 934  :     }
; 935  : 
; 936  :     if (m_str != NULL) {

  0004a	8b 45 f8	 mov	 eax, DWORD PTR _this$[ebp]
  0004d	83 78 04 00	 cmp	 DWORD PTR [eax+4], 0
  00051	74 1f		 je	 SHORT $LN1@Free

; 937  :         delete [] m_str;

  00053	8b 45 f8	 mov	 eax, DWORD PTR _this$[ebp]
  00056	8b 40 04	 mov	 eax, DWORD PTR [eax+4]
  00059	89 85 2c ff ff
	ff		 mov	 DWORD PTR $T1[ebp], eax
  0005f	ff b5 2c ff ff
	ff		 push	 DWORD PTR $T1[ebp]
  00065	e8 00 00 00 00	 call	 ??_V@YAXPAX@Z		; operator delete[]
  0006a	59		 pop	 ecx

; 938  :         m_str = NULL;

  0006b	8b 45 f8	 mov	 eax, DWORD PTR _this$[ebp]
  0006e	83 60 04 00	 and	 DWORD PTR [eax+4], 0
$LN1@Free:

; 939  :     }
; 940  : }

  00072	5f		 pop	 edi
  00073	5e		 pop	 esi
  00074	5b		 pop	 ebx
  00075	81 c4 d8 00 00
	00		 add	 esp, 216		; 000000d8H
  0007b	3b ec		 cmp	 ebp, esp
  0007d	e8 00 00 00 00	 call	 __RTC_CheckEsp
  00082	c9		 leave
  00083	c3		 ret	 0
?_Free@Data_t@_bstr_t@@AAEXXZ ENDP			; _bstr_t::Data_t::_Free
_TEXT	ENDS
; Function compile flags: /Odsp /RTCsu /ZI
; File C:\Program Files\Microsoft Visual Studio\2022\Enterprise\VC\Tools\MSVC\14.34.31933\include\comutil.h
;	COMDAT ??1Data_t@_bstr_t@@AAE@XZ
_TEXT	SEGMENT
_this$ = -8						; size = 4
??1Data_t@_bstr_t@@AAE@XZ PROC				; _bstr_t::Data_t::~Data_t, COMDAT
; _this$ = ecx

; 923  : {

  00000	55		 push	 ebp
  00001	8b ec		 mov	 ebp, esp
  00003	81 ec cc 00 00
	00		 sub	 esp, 204		; 000000ccH
  00009	53		 push	 ebx
  0000a	56		 push	 esi
  0000b	57		 push	 edi
  0000c	51		 push	 ecx
  0000d	8d 7d f4	 lea	 edi, DWORD PTR [ebp-12]
  00010	6a 03		 push	 3
  00012	59		 pop	 ecx
  00013	b8 cc cc cc cc	 mov	 eax, -858993460		; ccccccccH
  00018	f3 ab		 rep stosd
  0001a	59		 pop	 ecx
  0001b	89 4d f8	 mov	 DWORD PTR _this$[ebp], ecx
  0001e	b9 00 00 00 00	 mov	 ecx, OFFSET __3E101F51_comutil@h
  00023	e8 00 00 00 00	 call	 @__CheckForDebuggerJustMyCode@4

; 924  :     _Free();

  00028	8b 4d f8	 mov	 ecx, DWORD PTR _this$[ebp]
  0002b	e8 00 00 00 00	 call	 ?_Free@Data_t@_bstr_t@@AAEXXZ ; _bstr_t::Data_t::_Free

; 925  : }

  00030	5f		 pop	 edi
  00031	5e		 pop	 esi
  00032	5b		 pop	 ebx
  00033	81 c4 cc 00 00
	00		 add	 esp, 204		; 000000ccH
  00039	3b ec		 cmp	 ebp, esp
  0003b	e8 00 00 00 00	 call	 __RTC_CheckEsp
  00040	c9		 leave
  00041	c3		 ret	 0
??1Data_t@_bstr_t@@AAE@XZ ENDP				; _bstr_t::Data_t::~Data_t
_TEXT	ENDS
; Function compile flags: /Odsp /RTCsu /ZI
; File C:\Program Files\Microsoft Visual Studio\2022\Enterprise\VC\Tools\MSVC\14.34.31933\include\comutil.h
;	COMDAT ??2Data_t@_bstr_t@@SAPAXI@Z
_TEXT	SEGMENT
_sz$ = 8						; size = 4
??2Data_t@_bstr_t@@SAPAXI@Z PROC			; _bstr_t::Data_t::operator new, COMDAT

; 915  : {

  00000	55		 push	 ebp
  00001	8b ec		 mov	 ebp, esp
  00003	81 ec c0 00 00
	00		 sub	 esp, 192		; 000000c0H
  00009	53		 push	 ebx
  0000a	56		 push	 esi
  0000b	57		 push	 edi
  0000c	8b fd		 mov	 edi, ebp
  0000e	33 c9		 xor	 ecx, ecx
  00010	b8 cc cc cc cc	 mov	 eax, -858993460		; ccccccccH
  00015	f3 ab		 rep stosd
  00017	b9 00 00 00 00	 mov	 ecx, OFFSET __3E101F51_comutil@h
  0001c	e8 00 00 00 00	 call	 @__CheckForDebuggerJustMyCode@4

; 916  :     return ::operator new(sz);

  00021	ff 75 08	 push	 DWORD PTR _sz$[ebp]
  00024	e8 00 00 00 00	 call	 ??2@YAPAXI@Z		; operator new
  00029	59		 pop	 ecx

; 917  : }

  0002a	5f		 pop	 edi
  0002b	5e		 pop	 esi
  0002c	5b		 pop	 ebx
  0002d	81 c4 c0 00 00
	00		 add	 esp, 192		; 000000c0H
  00033	3b ec		 cmp	 ebp, esp
  00035	e8 00 00 00 00	 call	 __RTC_CheckEsp
  0003a	c9		 leave
  0003b	c3		 ret	 0
??2Data_t@_bstr_t@@SAPAXI@Z ENDP			; _bstr_t::Data_t::operator new
_TEXT	ENDS
; Function compile flags: /Odsp /RTCsu /ZI
; File C:\Program Files\Microsoft Visual Studio\2022\Enterprise\VC\Tools\MSVC\14.34.31933\include\comutil.h
;	COMDAT ?Length@Data_t@_bstr_t@@QBEIXZ
_TEXT	SEGMENT
tv69 = -208						; size = 4
_this$ = -8						; size = 4
?Length@Data_t@_bstr_t@@QBEIXZ PROC			; _bstr_t::Data_t::Length, COMDAT
; _this$ = ecx

; 871  : {

  00000	55		 push	 ebp
  00001	8b ec		 mov	 ebp, esp
  00003	81 ec d0 00 00
	00		 sub	 esp, 208		; 000000d0H
  00009	53		 push	 ebx
  0000a	56		 push	 esi
  0000b	57		 push	 edi
  0000c	51		 push	 ecx
  0000d	8d 7d f0	 lea	 edi, DWORD PTR [ebp-16]
  00010	6a 04		 push	 4
  00012	59		 pop	 ecx
  00013	b8 cc cc cc cc	 mov	 eax, -858993460		; ccccccccH
  00018	f3 ab		 rep stosd
  0001a	59		 pop	 ecx
  0001b	89 4d f8	 mov	 DWORD PTR _this$[ebp], ecx
  0001e	b9 00 00 00 00	 mov	 ecx, OFFSET __3E101F51_comutil@h
  00023	e8 00 00 00 00	 call	 @__CheckForDebuggerJustMyCode@4

; 872  :     return m_wstr ? ::SysStringLen(m_wstr) : 0;

  00028	8b 45 f8	 mov	 eax, DWORD PTR _this$[ebp]
  0002b	83 38 00	 cmp	 DWORD PTR [eax], 0
  0002e	74 1c		 je	 SHORT $LN3@Length
  00030	8b f4		 mov	 esi, esp
  00032	8b 45 f8	 mov	 eax, DWORD PTR _this$[ebp]
  00035	ff 30		 push	 DWORD PTR [eax]
  00037	ff 15 00 00 00
	00		 call	 DWORD PTR __imp__SysStringLen@4
  0003d	3b f4		 cmp	 esi, esp
  0003f	e8 00 00 00 00	 call	 __RTC_CheckEsp
  00044	89 85 30 ff ff
	ff		 mov	 DWORD PTR tv69[ebp], eax
  0004a	eb 07		 jmp	 SHORT $LN4@Length
$LN3@Length:
  0004c	83 a5 30 ff ff
	ff 00		 and	 DWORD PTR tv69[ebp], 0
$LN4@Length:
  00053	8b 85 30 ff ff
	ff		 mov	 eax, DWORD PTR tv69[ebp]

; 873  : }

  00059	5f		 pop	 edi
  0005a	5e		 pop	 esi
  0005b	5b		 pop	 ebx
  0005c	81 c4 d0 00 00
	00		 add	 esp, 208		; 000000d0H
  00062	3b ec		 cmp	 ebp, esp
  00064	e8 00 00 00 00	 call	 __RTC_CheckEsp
  00069	c9		 leave
  0006a	c3		 ret	 0
?Length@Data_t@_bstr_t@@QBEIXZ ENDP			; _bstr_t::Data_t::Length
_TEXT	ENDS
; Function compile flags: /Odsp /RTCsu /ZI
; File C:\Program Files\Microsoft Visual Studio\2022\Enterprise\VC\Tools\MSVC\14.34.31933\include\comutil.h
;	COMDAT ?GetWString@Data_t@_bstr_t@@QAEAAPA_WXZ
_TEXT	SEGMENT
_this$ = -8						; size = 4
?GetWString@Data_t@_bstr_t@@QAEAAPA_WXZ PROC		; _bstr_t::Data_t::GetWString, COMDAT
; _this$ = ecx

; 819  : {

  00000	55		 push	 ebp
  00001	8b ec		 mov	 ebp, esp
  00003	81 ec cc 00 00
	00		 sub	 esp, 204		; 000000ccH
  00009	53		 push	 ebx
  0000a	56		 push	 esi
  0000b	57		 push	 edi
  0000c	51		 push	 ecx
  0000d	8d 7d f4	 lea	 edi, DWORD PTR [ebp-12]
  00010	6a 03		 push	 3
  00012	59		 pop	 ecx
  00013	b8 cc cc cc cc	 mov	 eax, -858993460		; ccccccccH
  00018	f3 ab		 rep stosd
  0001a	59		 pop	 ecx
  0001b	89 4d f8	 mov	 DWORD PTR _this$[ebp], ecx
  0001e	b9 00 00 00 00	 mov	 ecx, OFFSET __3E101F51_comutil@h
  00023	e8 00 00 00 00	 call	 @__CheckForDebuggerJustMyCode@4

; 820  :     return m_wstr;

  00028	8b 45 f8	 mov	 eax, DWORD PTR _this$[ebp]

; 821  : }

  0002b	5f		 pop	 edi
  0002c	5e		 pop	 esi
  0002d	5b		 pop	 ebx
  0002e	81 c4 cc 00 00
	00		 add	 esp, 204		; 000000ccH
  00034	3b ec		 cmp	 ebp, esp
  00036	e8 00 00 00 00	 call	 __RTC_CheckEsp
  0003b	c9		 leave
  0003c	c3		 ret	 0
?GetWString@Data_t@_bstr_t@@QAEAAPA_WXZ ENDP		; _bstr_t::Data_t::GetWString
_TEXT	ENDS
; Function compile flags: /Odsp /RTCsu /ZI
; File C:\Program Files\Microsoft Visual Studio\2022\Enterprise\VC\Tools\MSVC\14.34.31933\include\comutil.h
;	COMDAT ?Release@Data_t@_bstr_t@@QAEKXZ
_TEXT	SEGMENT
tv72 = -232						; size = 4
$T1 = -224						; size = 4
_cRef$ = -20						; size = 4
_this$ = -8						; size = 4
?Release@Data_t@_bstr_t@@QAEKXZ PROC			; _bstr_t::Data_t::Release, COMDAT
; _this$ = ecx

; 772  : {

  00000	55		 push	 ebp
  00001	8b ec		 mov	 ebp, esp
  00003	81 ec e8 00 00
	00		 sub	 esp, 232		; 000000e8H
  00009	53		 push	 ebx
  0000a	56		 push	 esi
  0000b	57		 push	 edi
  0000c	51		 push	 ecx
  0000d	8d 7d d8	 lea	 edi, DWORD PTR [ebp-40]
  00010	6a 0a		 push	 10			; 0000000aH
  00012	59		 pop	 ecx
  00013	b8 cc cc cc cc	 mov	 eax, -858993460		; ccccccccH
  00018	f3 ab		 rep stosd
  0001a	59		 pop	 ecx
  0001b	89 4d f8	 mov	 DWORD PTR _this$[ebp], ecx
  0001e	b9 00 00 00 00	 mov	 ecx, OFFSET __3E101F51_comutil@h
  00023	e8 00 00 00 00	 call	 @__CheckForDebuggerJustMyCode@4

; 773  :     unsigned long cRef = static_cast<unsigned long>(

  00028	8b 45 f8	 mov	 eax, DWORD PTR _this$[ebp]
  0002b	83 c0 08	 add	 eax, 8
  0002e	83 c9 ff	 or	 ecx, -1
  00031	f0 0f c1 08	 lock	  xadd	 DWORD PTR [eax], ecx
  00035	49		 dec	 ecx
  00036	89 4d ec	 mov	 DWORD PTR _cRef$[ebp], ecx

; 774  :         InterlockedDecrement(reinterpret_cast<long*>(&m_RefCount)));
; 775  :     if (cRef == 0) {

  00039	75 2e		 jne	 SHORT $LN2@Release

; 776  :         delete this;

  0003b	8b 45 f8	 mov	 eax, DWORD PTR _this$[ebp]
  0003e	89 85 20 ff ff
	ff		 mov	 DWORD PTR $T1[ebp], eax
  00044	83 bd 20 ff ff
	ff 00		 cmp	 DWORD PTR $T1[ebp], 0
  0004b	74 15		 je	 SHORT $LN4@Release
  0004d	6a 01		 push	 1
  0004f	8b 8d 20 ff ff
	ff		 mov	 ecx, DWORD PTR $T1[ebp]
  00055	e8 00 00 00 00	 call	 ??_GData_t@_bstr_t@@AAEPAXI@Z
  0005a	89 85 18 ff ff
	ff		 mov	 DWORD PTR tv72[ebp], eax
  00060	eb 07		 jmp	 SHORT $LN2@Release
$LN4@Release:
  00062	83 a5 18 ff ff
	ff 00		 and	 DWORD PTR tv72[ebp], 0
$LN2@Release:

; 777  :     }
; 778  : 
; 779  :     return cRef;

  00069	8b 45 ec	 mov	 eax, DWORD PTR _cRef$[ebp]

; 780  : }

  0006c	5f		 pop	 edi
  0006d	5e		 pop	 esi
  0006e	5b		 pop	 ebx
  0006f	81 c4 e8 00 00
	00		 add	 esp, 232		; 000000e8H
  00075	3b ec		 cmp	 ebp, esp
  00077	e8 00 00 00 00	 call	 __RTC_CheckEsp
  0007c	c9		 leave
  0007d	c3		 ret	 0
?Release@Data_t@_bstr_t@@QAEKXZ ENDP			; _bstr_t::Data_t::Release
_TEXT	ENDS
; Function compile flags: /Odsp /RTCsu /ZI
; File C:\Program Files\Microsoft Visual Studio\2022\Enterprise\VC\Tools\MSVC\14.34.31933\include\comutil.h
;	COMDAT ?AddRef@Data_t@_bstr_t@@QAEKXZ
_TEXT	SEGMENT
_this$ = -8						; size = 4
?AddRef@Data_t@_bstr_t@@QAEKXZ PROC			; _bstr_t::Data_t::AddRef, COMDAT
; _this$ = ecx

; 766  : {

  00000	55		 push	 ebp
  00001	8b ec		 mov	 ebp, esp
  00003	81 ec cc 00 00
	00		 sub	 esp, 204		; 000000ccH
  00009	53		 push	 ebx
  0000a	56		 push	 esi
  0000b	57		 push	 edi
  0000c	51		 push	 ecx
  0000d	8d 7d f4	 lea	 edi, DWORD PTR [ebp-12]
  00010	6a 03		 push	 3
  00012	59		 pop	 ecx
  00013	b8 cc cc cc cc	 mov	 eax, -858993460		; ccccccccH
  00018	f3 ab		 rep stosd
  0001a	59		 pop	 ecx
  0001b	89 4d f8	 mov	 DWORD PTR _this$[ebp], ecx
  0001e	b9 00 00 00 00	 mov	 ecx, OFFSET __3E101F51_comutil@h
  00023	e8 00 00 00 00	 call	 @__CheckForDebuggerJustMyCode@4

; 767  :     InterlockedIncrement(reinterpret_cast<long*>(&m_RefCount));

  00028	8b 45 f8	 mov	 eax, DWORD PTR _this$[ebp]
  0002b	83 c0 08	 add	 eax, 8
  0002e	f0 ff 00	 lock	  inc	 DWORD PTR [eax]

; 768  :     return m_RefCount;

  00031	8b 45 f8	 mov	 eax, DWORD PTR _this$[ebp]
  00034	8b 40 08	 mov	 eax, DWORD PTR [eax+8]

; 769  : }

  00037	5f		 pop	 edi
  00038	5e		 pop	 esi
  00039	5b		 pop	 ebx
  0003a	81 c4 cc 00 00
	00		 add	 esp, 204		; 000000ccH
  00040	3b ec		 cmp	 ebp, esp
  00042	e8 00 00 00 00	 call	 __RTC_CheckEsp
  00047	c9		 leave
  00048	c3		 ret	 0
?AddRef@Data_t@_bstr_t@@QAEKXZ ENDP			; _bstr_t::Data_t::AddRef
_TEXT	ENDS
; Function compile flags: /Odsp /RTCsu /ZI
; File C:\Program Files\Microsoft Visual Studio\2022\Enterprise\VC\Tools\MSVC\14.34.31933\include\comutil.h
;	COMDAT ??0Data_t@_bstr_t@@QAE@ABV1@0@Z
_TEXT	SEGMENT
_wstr2$ = -72						; size = 4
_wstr1$ = -60						; size = 4
_l3$ = -48						; size = 4
_l2$ = -36						; size = 4
_l1$ = -24						; size = 4
_this$ = -12						; size = 4
__$ArrayPad$ = -4					; size = 4
_s1$ = 8						; size = 4
_s2$ = 12						; size = 4
??0Data_t@_bstr_t@@QAE@ABV1@0@Z PROC			; _bstr_t::Data_t::Data_t, COMDAT
; _this$ = ecx

; 721  : {

  00000	55		 push	 ebp
  00001	8b ec		 mov	 ebp, esp
  00003	81 ec 0c 01 00
	00		 sub	 esp, 268		; 0000010cH
  00009	53		 push	 ebx
  0000a	56		 push	 esi
  0000b	57		 push	 edi
  0000c	51		 push	 ecx
  0000d	8d 7d b4	 lea	 edi, DWORD PTR [ebp-76]
  00010	6a 13		 push	 19			; 00000013H
  00012	59		 pop	 ecx
  00013	b8 cc cc cc cc	 mov	 eax, -858993460		; ccccccccH
  00018	f3 ab		 rep stosd
  0001a	59		 pop	 ecx
  0001b	a1 00 00 00 00	 mov	 eax, DWORD PTR ___security_cookie
  00020	33 c5		 xor	 eax, ebp
  00022	89 45 fc	 mov	 DWORD PTR __$ArrayPad$[ebp], eax
  00025	89 4d f4	 mov	 DWORD PTR _this$[ebp], ecx
  00028	b9 00 00 00 00	 mov	 ecx, OFFSET __3E101F51_comutil@h
  0002d	e8 00 00 00 00	 call	 @__CheckForDebuggerJustMyCode@4

; 720  :     : m_str(NULL), m_RefCount(1)

  00032	8b 45 f4	 mov	 eax, DWORD PTR _this$[ebp]
  00035	83 60 04 00	 and	 DWORD PTR [eax+4], 0
  00039	8b 45 f4	 mov	 eax, DWORD PTR _this$[ebp]
  0003c	c7 40 08 01 00
	00 00		 mov	 DWORD PTR [eax+8], 1

; 722  :     const unsigned int l1 = s1.length();

  00043	8b 4d 08	 mov	 ecx, DWORD PTR _s1$[ebp]
  00046	e8 00 00 00 00	 call	 ?length@_bstr_t@@QBEIXZ	; _bstr_t::length
  0004b	89 45 e8	 mov	 DWORD PTR _l1$[ebp], eax

; 723  :     const unsigned int l2 = s2.length();

  0004e	8b 4d 0c	 mov	 ecx, DWORD PTR _s2$[ebp]
  00051	e8 00 00 00 00	 call	 ?length@_bstr_t@@QBEIXZ	; _bstr_t::length
  00056	89 45 dc	 mov	 DWORD PTR _l2$[ebp], eax

; 724  :     unsigned int l3;
; 725  : 
; 726  :     if (FAILED(_com_util::UIntAdd(l1, l2, &l3)) ||

  00059	8d 45 d0	 lea	 eax, DWORD PTR _l3$[ebp]
  0005c	50		 push	 eax
  0005d	ff 75 dc	 push	 DWORD PTR _l2$[ebp]
  00060	ff 75 e8	 push	 DWORD PTR _l1$[ebp]
  00063	e8 00 00 00 00	 call	 ?UIntAdd@_com_util@@YAJIIPAI@Z ; _com_util::UIntAdd
  00068	83 c4 0c	 add	 esp, 12			; 0000000cH
  0006b	85 c0		 test	 eax, eax
  0006d	7c 15		 jl	 SHORT $LN3@Data_t
  0006f	8d 45 d0	 lea	 eax, DWORD PTR _l3$[ebp]
  00072	50		 push	 eax
  00073	6a 02		 push	 2
  00075	ff 75 d0	 push	 DWORD PTR _l3$[ebp]
  00078	e8 00 00 00 00	 call	 ?UIntMult@_com_util@@YAJIIPAI@Z ; _com_util::UIntMult
  0007d	83 c4 0c	 add	 esp, 12			; 0000000cH
  00080	85 c0		 test	 eax, eax
  00082	7d 0f		 jge	 SHORT $LN2@Data_t
$LN3@Data_t:

; 727  :         FAILED(_com_util::UIntMult(l3, sizeof(wchar_t), &l3)))
; 728  :     {
; 729  :         _com_issue_error(E_OUTOFMEMORY);

  00084	68 0e 00 07 80	 push	 -2147024882		; 8007000eH
  00089	e8 00 00 00 00	 call	 ?_com_issue_error@@YGXJ@Z ; _com_issue_error

; 730  :         return;

  0008e	e9 a9 00 00 00	 jmp	 $LN1@Data_t
$LN2@Data_t:

; 731  :     }
; 732  : 
; 733  :     m_wstr = ::SysAllocStringByteLen(NULL, (l1 + l2) * sizeof(wchar_t));

  00093	8b 45 e8	 mov	 eax, DWORD PTR _l1$[ebp]
  00096	03 45 dc	 add	 eax, DWORD PTR _l2$[ebp]
  00099	d1 e0		 shl	 eax, 1
  0009b	8b f4		 mov	 esi, esp
  0009d	50		 push	 eax
  0009e	6a 00		 push	 0
  000a0	ff 15 00 00 00
	00		 call	 DWORD PTR __imp__SysAllocStringByteLen@8
  000a6	3b f4		 cmp	 esi, esp
  000a8	e8 00 00 00 00	 call	 __RTC_CheckEsp
  000ad	8b 4d f4	 mov	 ecx, DWORD PTR _this$[ebp]
  000b0	89 01		 mov	 DWORD PTR [ecx], eax

; 734  :     if (m_wstr == NULL)

  000b2	8b 45 f4	 mov	 eax, DWORD PTR _this$[ebp]
  000b5	83 38 00	 cmp	 DWORD PTR [eax], 0
  000b8	75 16		 jne	 SHORT $LN4@Data_t

; 735  :     {
; 736  :         if (l1 + l2 == 0)

  000ba	8b 45 e8	 mov	 eax, DWORD PTR _l1$[ebp]
  000bd	03 45 dc	 add	 eax, DWORD PTR _l2$[ebp]
  000c0	75 02		 jne	 SHORT $LN5@Data_t

; 737  :         {
; 738  :             return;

  000c2	eb 78		 jmp	 SHORT $LN1@Data_t
$LN5@Data_t:

; 739  :         }
; 740  :         _com_issue_error(E_OUTOFMEMORY);

  000c4	68 0e 00 07 80	 push	 -2147024882		; 8007000eH
  000c9	e8 00 00 00 00	 call	 ?_com_issue_error@@YGXJ@Z ; _com_issue_error

; 741  :         return;

  000ce	eb 6c		 jmp	 SHORT $LN1@Data_t
$LN4@Data_t:

; 742  :     }
; 743  : 
; 744  :     const wchar_t* wstr1 = static_cast<const wchar_t*>(s1);

  000d0	8b 4d 08	 mov	 ecx, DWORD PTR _s1$[ebp]
  000d3	e8 00 00 00 00	 call	 ??B_bstr_t@@QBEPB_WXZ	; _bstr_t::operator wchar_t const *
  000d8	89 45 c4	 mov	 DWORD PTR _wstr1$[ebp], eax

; 745  : 
; 746  :     if (wstr1 != NULL)

  000db	83 7d c4 00	 cmp	 DWORD PTR _wstr1$[ebp], 0
  000df	74 23		 je	 SHORT $LN6@Data_t

; 747  :     {
; 748  :         _COM_MEMCPY_S(m_wstr, (l1 + l2 + 1) * sizeof(wchar_t), wstr1, (l1 + 1) * sizeof(wchar_t));

  000e1	8b 45 e8	 mov	 eax, DWORD PTR _l1$[ebp]
  000e4	8d 44 00 02	 lea	 eax, DWORD PTR [eax+eax+2]
  000e8	50		 push	 eax
  000e9	ff 75 c4	 push	 DWORD PTR _wstr1$[ebp]
  000ec	8b 45 e8	 mov	 eax, DWORD PTR _l1$[ebp]
  000ef	03 45 dc	 add	 eax, DWORD PTR _l2$[ebp]
  000f2	8d 44 00 02	 lea	 eax, DWORD PTR [eax+eax+2]
  000f6	50		 push	 eax
  000f7	8b 45 f4	 mov	 eax, DWORD PTR _this$[ebp]
  000fa	ff 30		 push	 DWORD PTR [eax]
  000fc	e8 00 00 00 00	 call	 _memcpy_s
  00101	83 c4 10	 add	 esp, 16			; 00000010H
$LN6@Data_t:

; 749  :     }
; 750  : 
; 751  :     const wchar_t* wstr2 = static_cast<const wchar_t*>(s2);

  00104	8b 4d 0c	 mov	 ecx, DWORD PTR _s2$[ebp]
  00107	e8 00 00 00 00	 call	 ??B_bstr_t@@QBEPB_WXZ	; _bstr_t::operator wchar_t const *
  0010c	89 45 b8	 mov	 DWORD PTR _wstr2$[ebp], eax

; 752  : 
; 753  :     if (wstr2 != NULL)

  0010f	83 7d b8 00	 cmp	 DWORD PTR _wstr2$[ebp], 0
  00113	74 27		 je	 SHORT $LN1@Data_t

; 754  :     {
; 755  :         _COM_MEMCPY_S(m_wstr + l1, (l2 + 1) * sizeof(wchar_t), wstr2, (l2 + 1) * sizeof(wchar_t));

  00115	8b 45 dc	 mov	 eax, DWORD PTR _l2$[ebp]
  00118	8d 44 00 02	 lea	 eax, DWORD PTR [eax+eax+2]
  0011c	50		 push	 eax
  0011d	ff 75 b8	 push	 DWORD PTR _wstr2$[ebp]
  00120	8b 45 dc	 mov	 eax, DWORD PTR _l2$[ebp]
  00123	8d 44 00 02	 lea	 eax, DWORD PTR [eax+eax+2]
  00127	50		 push	 eax
  00128	8b 45 f4	 mov	 eax, DWORD PTR _this$[ebp]
  0012b	8b 00		 mov	 eax, DWORD PTR [eax]
  0012d	8b 4d e8	 mov	 ecx, DWORD PTR _l1$[ebp]
  00130	8d 04 48	 lea	 eax, DWORD PTR [eax+ecx*2]
  00133	50		 push	 eax
  00134	e8 00 00 00 00	 call	 _memcpy_s
  00139	83 c4 10	 add	 esp, 16			; 00000010H
$LN1@Data_t:

; 756  :     }
; 757  : }

  0013c	8b 45 f4	 mov	 eax, DWORD PTR _this$[ebp]
$LN8@Data_t:
  0013f	52		 push	 edx
  00140	8b cd		 mov	 ecx, ebp
  00142	50		 push	 eax
  00143	8d 15 00 00 00
	00		 lea	 edx, DWORD PTR $LN11@Data_t
  00149	e8 00 00 00 00	 call	 @_RTC_CheckStackVars@8
  0014e	58		 pop	 eax
  0014f	5a		 pop	 edx
  00150	5f		 pop	 edi
  00151	5e		 pop	 esi
  00152	5b		 pop	 ebx
  00153	8b 4d fc	 mov	 ecx, DWORD PTR __$ArrayPad$[ebp]
  00156	33 cd		 xor	 ecx, ebp
  00158	e8 00 00 00 00	 call	 @__security_check_cookie@4
  0015d	81 c4 0c 01 00
	00		 add	 esp, 268		; 0000010cH
  00163	3b ec		 cmp	 ebp, esp
  00165	e8 00 00 00 00	 call	 __RTC_CheckEsp
  0016a	c9		 leave
  0016b	c2 08 00	 ret	 8
  0016e	66 90		 npad	 2
$LN11@Data_t:
  00170	01 00 00 00	 DD	 1
  00174	00 00 00 00	 DD	 $LN10@Data_t
$LN10@Data_t:
  00178	d0 ff ff ff	 DD	 -48			; ffffffd0H
  0017c	04 00 00 00	 DD	 4
  00180	00 00 00 00	 DD	 $LN9@Data_t
$LN9@Data_t:
  00184	6c		 DB	 108			; 0000006cH
  00185	33		 DB	 51			; 00000033H
  00186	00		 DB	 0
??0Data_t@_bstr_t@@QAE@ABV1@0@Z ENDP			; _bstr_t::Data_t::Data_t
_TEXT	ENDS
; Function compile flags: /Odsp /RTCsu /ZI
; File C:\Program Files\Microsoft Visual Studio\2022\Enterprise\VC\Tools\MSVC\14.34.31933\include\comutil.h
;	COMDAT ??0Data_t@_bstr_t@@QAE@PB_W@Z
_TEXT	SEGMENT
_this$ = -8						; size = 4
_s$ = 8							; size = 4
??0Data_t@_bstr_t@@QAE@PB_W@Z PROC			; _bstr_t::Data_t::Data_t, COMDAT
; _this$ = ecx

; 690  : {

  00000	55		 push	 ebp
  00001	8b ec		 mov	 ebp, esp
  00003	81 ec cc 00 00
	00		 sub	 esp, 204		; 000000ccH
  00009	53		 push	 ebx
  0000a	56		 push	 esi
  0000b	57		 push	 edi
  0000c	51		 push	 ecx
  0000d	8d 7d f4	 lea	 edi, DWORD PTR [ebp-12]
  00010	6a 03		 push	 3
  00012	59		 pop	 ecx
  00013	b8 cc cc cc cc	 mov	 eax, -858993460		; ccccccccH
  00018	f3 ab		 rep stosd
  0001a	59		 pop	 ecx
  0001b	89 4d f8	 mov	 DWORD PTR _this$[ebp], ecx
  0001e	b9 00 00 00 00	 mov	 ecx, OFFSET __3E101F51_comutil@h
  00023	e8 00 00 00 00	 call	 @__CheckForDebuggerJustMyCode@4

; 689  :     : m_str(NULL), m_RefCount(1)

  00028	8b 45 f8	 mov	 eax, DWORD PTR _this$[ebp]
  0002b	83 60 04 00	 and	 DWORD PTR [eax+4], 0
  0002f	8b 45 f8	 mov	 eax, DWORD PTR _this$[ebp]
  00032	c7 40 08 01 00
	00 00		 mov	 DWORD PTR [eax+8], 1

; 691  :     m_wstr = ::SysAllocString(s);

  00039	8b f4		 mov	 esi, esp
  0003b	ff 75 08	 push	 DWORD PTR _s$[ebp]
  0003e	ff 15 00 00 00
	00		 call	 DWORD PTR __imp__SysAllocString@4
  00044	3b f4		 cmp	 esi, esp
  00046	e8 00 00 00 00	 call	 __RTC_CheckEsp
  0004b	8b 4d f8	 mov	 ecx, DWORD PTR _this$[ebp]
  0004e	89 01		 mov	 DWORD PTR [ecx], eax

; 692  : 
; 693  :     if (m_wstr == NULL && s != NULL) {

  00050	8b 45 f8	 mov	 eax, DWORD PTR _this$[ebp]
  00053	83 38 00	 cmp	 DWORD PTR [eax], 0
  00056	75 10		 jne	 SHORT $LN1@Data_t
  00058	83 7d 08 00	 cmp	 DWORD PTR _s$[ebp], 0
  0005c	74 0a		 je	 SHORT $LN1@Data_t

; 694  :         _com_issue_error(E_OUTOFMEMORY);

  0005e	68 0e 00 07 80	 push	 -2147024882		; 8007000eH
  00063	e8 00 00 00 00	 call	 ?_com_issue_error@@YGXJ@Z ; _com_issue_error
$LN1@Data_t:

; 695  :     }
; 696  : }

  00068	8b 45 f8	 mov	 eax, DWORD PTR _this$[ebp]
$LN3@Data_t:
  0006b	5f		 pop	 edi
  0006c	5e		 pop	 esi
  0006d	5b		 pop	 ebx
  0006e	81 c4 cc 00 00
	00		 add	 esp, 204		; 000000ccH
  00074	3b ec		 cmp	 ebp, esp
  00076	e8 00 00 00 00	 call	 __RTC_CheckEsp
  0007b	c9		 leave
  0007c	c2 04 00	 ret	 4
??0Data_t@_bstr_t@@QAE@PB_W@Z ENDP			; _bstr_t::Data_t::Data_t
_TEXT	ENDS
; Function compile flags: /Odsp /RTCsu /ZI
; File C:\Program Files\Microsoft Visual Studio\2022\Enterprise\VC\Tools\MSVC\14.34.31933\include\comutil.h
;	COMDAT ??0Data_t@_bstr_t@@QAE@PBD@Z
_TEXT	SEGMENT
_this$ = -8						; size = 4
_s$ = 8							; size = 4
??0Data_t@_bstr_t@@QAE@PBD@Z PROC			; _bstr_t::Data_t::Data_t, COMDAT
; _this$ = ecx

; 682  : {

  00000	55		 push	 ebp
  00001	8b ec		 mov	 ebp, esp
  00003	81 ec cc 00 00
	00		 sub	 esp, 204		; 000000ccH
  00009	53		 push	 ebx
  0000a	56		 push	 esi
  0000b	57		 push	 edi
  0000c	51		 push	 ecx
  0000d	8d 7d f4	 lea	 edi, DWORD PTR [ebp-12]
  00010	6a 03		 push	 3
  00012	59		 pop	 ecx
  00013	b8 cc cc cc cc	 mov	 eax, -858993460		; ccccccccH
  00018	f3 ab		 rep stosd
  0001a	59		 pop	 ecx
  0001b	89 4d f8	 mov	 DWORD PTR _this$[ebp], ecx
  0001e	b9 00 00 00 00	 mov	 ecx, OFFSET __3E101F51_comutil@h
  00023	e8 00 00 00 00	 call	 @__CheckForDebuggerJustMyCode@4

; 681  :     : m_str(NULL), m_RefCount(1)

  00028	8b 45 f8	 mov	 eax, DWORD PTR _this$[ebp]
  0002b	83 60 04 00	 and	 DWORD PTR [eax+4], 0
  0002f	8b 45 f8	 mov	 eax, DWORD PTR _this$[ebp]
  00032	c7 40 08 01 00
	00 00		 mov	 DWORD PTR [eax+8], 1

; 683  :     m_wstr = _com_util::ConvertStringToBSTR(s);

  00039	ff 75 08	 push	 DWORD PTR _s$[ebp]
  0003c	e8 00 00 00 00	 call	 ?ConvertStringToBSTR@_com_util@@YGPA_WPBD@Z ; _com_util::ConvertStringToBSTR
  00041	8b 4d f8	 mov	 ecx, DWORD PTR _this$[ebp]
  00044	89 01		 mov	 DWORD PTR [ecx], eax

; 684  : }

  00046	8b 45 f8	 mov	 eax, DWORD PTR _this$[ebp]
  00049	5f		 pop	 edi
  0004a	5e		 pop	 esi
  0004b	5b		 pop	 ebx
  0004c	81 c4 cc 00 00
	00		 add	 esp, 204		; 000000ccH
  00052	3b ec		 cmp	 ebp, esp
  00054	e8 00 00 00 00	 call	 __RTC_CheckEsp
  00059	c9		 leave
  0005a	c2 04 00	 ret	 4
??0Data_t@_bstr_t@@QAE@PBD@Z ENDP			; _bstr_t::Data_t::Data_t
_TEXT	ENDS
; Function compile flags: /Odsp /RTCsu /ZI
; File C:\Program Files\Microsoft Visual Studio\2022\Enterprise\VC\Tools\MSVC\14.34.31933\include\comutil.h
;	COMDAT ?length@_bstr_t@@QBEIXZ
_TEXT	SEGMENT
tv69 = -208						; size = 4
_this$ = -8						; size = 4
?length@_bstr_t@@QBEIXZ PROC				; _bstr_t::length, COMDAT
; _this$ = ecx

; 553  : {

  00000	55		 push	 ebp
  00001	8b ec		 mov	 ebp, esp
  00003	81 ec d0 00 00
	00		 sub	 esp, 208		; 000000d0H
  00009	53		 push	 ebx
  0000a	56		 push	 esi
  0000b	57		 push	 edi
  0000c	51		 push	 ecx
  0000d	8d 7d f0	 lea	 edi, DWORD PTR [ebp-16]
  00010	6a 04		 push	 4
  00012	59		 pop	 ecx
  00013	b8 cc cc cc cc	 mov	 eax, -858993460		; ccccccccH
  00018	f3 ab		 rep stosd
  0001a	59		 pop	 ecx
  0001b	89 4d f8	 mov	 DWORD PTR _this$[ebp], ecx
  0001e	b9 00 00 00 00	 mov	 ecx, OFFSET __3E101F51_comutil@h
  00023	e8 00 00 00 00	 call	 @__CheckForDebuggerJustMyCode@4

; 554  :     return (m_Data != NULL) ? m_Data->Length() : 0;

  00028	8b 45 f8	 mov	 eax, DWORD PTR _this$[ebp]
  0002b	83 38 00	 cmp	 DWORD PTR [eax], 0
  0002e	74 12		 je	 SHORT $LN3@length
  00030	8b 45 f8	 mov	 eax, DWORD PTR _this$[ebp]
  00033	8b 08		 mov	 ecx, DWORD PTR [eax]
  00035	e8 00 00 00 00	 call	 ?Length@Data_t@_bstr_t@@QBEIXZ ; _bstr_t::Data_t::Length
  0003a	89 85 30 ff ff
	ff		 mov	 DWORD PTR tv69[ebp], eax
  00040	eb 07		 jmp	 SHORT $LN4@length
$LN3@length:
  00042	83 a5 30 ff ff
	ff 00		 and	 DWORD PTR tv69[ebp], 0
$LN4@length:
  00049	8b 85 30 ff ff
	ff		 mov	 eax, DWORD PTR tv69[ebp]

; 555  : }

  0004f	5f		 pop	 edi
  00050	5e		 pop	 esi
  00051	5b		 pop	 ebx
  00052	81 c4 d0 00 00
	00		 add	 esp, 208		; 000000d0H
  00058	3b ec		 cmp	 ebp, esp
  0005a	e8 00 00 00 00	 call	 __RTC_CheckEsp
  0005f	c9		 leave
  00060	c3		 ret	 0
?length@_bstr_t@@QBEIXZ ENDP				; _bstr_t::length
_TEXT	ENDS
; Function compile flags: /Odsp /RTCsu /ZI
; File C:\Program Files\Microsoft Visual Studio\2022\Enterprise\VC\Tools\MSVC\14.34.31933\include\comutil.h
;	COMDAT ??B_bstr_t@@QBEPB_WXZ
_TEXT	SEGMENT
tv69 = -208						; size = 4
_this$ = -8						; size = 4
??B_bstr_t@@QBEPB_WXZ PROC				; _bstr_t::operator wchar_t const *, COMDAT
; _this$ = ecx

; 471  : {

  00000	55		 push	 ebp
  00001	8b ec		 mov	 ebp, esp
  00003	81 ec d0 00 00
	00		 sub	 esp, 208		; 000000d0H
  00009	53		 push	 ebx
  0000a	56		 push	 esi
  0000b	57		 push	 edi
  0000c	51		 push	 ecx
  0000d	8d 7d f0	 lea	 edi, DWORD PTR [ebp-16]
  00010	6a 04		 push	 4
  00012	59		 pop	 ecx
  00013	b8 cc cc cc cc	 mov	 eax, -858993460		; ccccccccH
  00018	f3 ab		 rep stosd
  0001a	59		 pop	 ecx
  0001b	89 4d f8	 mov	 DWORD PTR _this$[ebp], ecx
  0001e	b9 00 00 00 00	 mov	 ecx, OFFSET __3E101F51_comutil@h
  00023	e8 00 00 00 00	 call	 @__CheckForDebuggerJustMyCode@4

; 472  :     return (m_Data != NULL) ? m_Data->GetWString() : NULL;

  00028	8b 45 f8	 mov	 eax, DWORD PTR _this$[ebp]
  0002b	83 38 00	 cmp	 DWORD PTR [eax], 0
  0002e	74 14		 je	 SHORT $LN3@operator
  00030	8b 45 f8	 mov	 eax, DWORD PTR _this$[ebp]
  00033	8b 08		 mov	 ecx, DWORD PTR [eax]
  00035	e8 00 00 00 00	 call	 ?GetWString@Data_t@_bstr_t@@QAEAAPA_WXZ ; _bstr_t::Data_t::GetWString
  0003a	8b 00		 mov	 eax, DWORD PTR [eax]
  0003c	89 85 30 ff ff
	ff		 mov	 DWORD PTR tv69[ebp], eax
  00042	eb 07		 jmp	 SHORT $LN4@operator
$LN3@operator:
  00044	83 a5 30 ff ff
	ff 00		 and	 DWORD PTR tv69[ebp], 0
$LN4@operator:
  0004b	8b 85 30 ff ff
	ff		 mov	 eax, DWORD PTR tv69[ebp]

; 473  : }

  00051	5f		 pop	 edi
  00052	5e		 pop	 esi
  00053	5b		 pop	 ebx
  00054	81 c4 d0 00 00
	00		 add	 esp, 208		; 000000d0H
  0005a	3b ec		 cmp	 ebp, esp
  0005c	e8 00 00 00 00	 call	 __RTC_CheckEsp
  00061	c9		 leave
  00062	c3		 ret	 0
??B_bstr_t@@QBEPB_WXZ ENDP				; _bstr_t::operator wchar_t const *
_TEXT	ENDS
; Function compile flags: /Odsp /RTCsu /ZI
; File C:\Program Files\Microsoft Visual Studio\2022\Enterprise\VC\Tools\MSVC\14.34.31933\include\comutil.h
;	COMDAT ??H@YA?AV_bstr_t@@PB_WABV0@@Z
_TEXT	SEGMENT
$T2 = -228						; size = 4
_b$ = -24						; size = 4
__$ArrayPad$ = -16					; size = 4
__$EHRec$ = -12						; size = 12
___$ReturnUdt$ = 8					; size = 4
_s1$ = 12						; size = 4
_s2$ = 16						; size = 4
??H@YA?AV_bstr_t@@PB_WABV0@@Z PROC			; operator+, COMDAT

; 455  : {

  00000	55		 push	 ebp
  00001	8b ec		 mov	 ebp, esp
  00003	6a ff		 push	 -1
  00005	68 00 00 00 00	 push	 __ehhandler$??H@YA?AV_bstr_t@@PB_WABV0@@Z
  0000a	64 a1 00 00 00
	00		 mov	 eax, DWORD PTR fs:0
  00010	50		 push	 eax
  00011	81 ec dc 00 00
	00		 sub	 esp, 220		; 000000dcH
  00017	53		 push	 ebx
  00018	56		 push	 esi
  00019	57		 push	 edi
  0001a	8d 7d d8	 lea	 edi, DWORD PTR [ebp-40]
  0001d	6a 07		 push	 7
  0001f	59		 pop	 ecx
  00020	b8 cc cc cc cc	 mov	 eax, -858993460		; ccccccccH
  00025	f3 ab		 rep stosd
  00027	a1 00 00 00 00	 mov	 eax, DWORD PTR ___security_cookie
  0002c	33 c5		 xor	 eax, ebp
  0002e	89 45 f0	 mov	 DWORD PTR __$ArrayPad$[ebp], eax
  00031	50		 push	 eax
  00032	8d 45 f4	 lea	 eax, DWORD PTR __$EHRec$[ebp]
  00035	64 a3 00 00 00
	00		 mov	 DWORD PTR fs:0, eax
  0003b	83 a5 1c ff ff
	ff 00		 and	 DWORD PTR $T2[ebp], 0
  00042	b9 00 00 00 00	 mov	 ecx, OFFSET __3E101F51_comutil@h
  00047	e8 00 00 00 00	 call	 @__CheckForDebuggerJustMyCode@4

; 456  :     _bstr_t b = s1;

  0004c	6a 04		 push	 4
  0004e	8d 4d e8	 lea	 ecx, DWORD PTR _b$[ebp]
  00051	e8 00 00 00 00	 call	 ?__autoclassinit2@_bstr_t@@QAEXI@Z
  00056	ff 75 0c	 push	 DWORD PTR _s1$[ebp]
  00059	8d 4d e8	 lea	 ecx, DWORD PTR _b$[ebp]
  0005c	e8 00 00 00 00	 call	 ??0_bstr_t@@QAE@PB_W@Z	; _bstr_t::_bstr_t
  00061	83 65 fc 00	 and	 DWORD PTR __$EHRec$[ebp+8], 0

; 457  :     b += s2;

  00065	ff 75 10	 push	 DWORD PTR _s2$[ebp]
  00068	8d 4d e8	 lea	 ecx, DWORD PTR _b$[ebp]
  0006b	e8 00 00 00 00	 call	 ??Y_bstr_t@@QAEAAV0@ABV0@@Z ; _bstr_t::operator+=

; 458  : 
; 459  :     return b;

  00070	8d 45 e8	 lea	 eax, DWORD PTR _b$[ebp]
  00073	50		 push	 eax
  00074	8b 4d 08	 mov	 ecx, DWORD PTR ___$ReturnUdt$[ebp]
  00077	e8 00 00 00 00	 call	 ??0_bstr_t@@QAE@ABV0@@Z	; _bstr_t::_bstr_t
  0007c	8b 85 1c ff ff
	ff		 mov	 eax, DWORD PTR $T2[ebp]
  00082	83 c8 01	 or	 eax, 1
  00085	89 85 1c ff ff
	ff		 mov	 DWORD PTR $T2[ebp], eax
  0008b	83 4d fc ff	 or	 DWORD PTR __$EHRec$[ebp+8], -1
  0008f	8d 4d e8	 lea	 ecx, DWORD PTR _b$[ebp]
  00092	e8 00 00 00 00	 call	 ??1_bstr_t@@QAE@XZ	; _bstr_t::~_bstr_t
  00097	8b 45 08	 mov	 eax, DWORD PTR ___$ReturnUdt$[ebp]

; 460  : }

  0009a	52		 push	 edx
  0009b	8b cd		 mov	 ecx, ebp
  0009d	50		 push	 eax
  0009e	8d 15 00 00 00
	00		 lea	 edx, DWORD PTR $LN9@operator
  000a4	e8 00 00 00 00	 call	 @_RTC_CheckStackVars@8
  000a9	58		 pop	 eax
  000aa	5a		 pop	 edx
  000ab	8b 4d f4	 mov	 ecx, DWORD PTR __$EHRec$[ebp]
  000ae	64 89 0d 00 00
	00 00		 mov	 DWORD PTR fs:0, ecx
  000b5	59		 pop	 ecx
  000b6	5f		 pop	 edi
  000b7	5e		 pop	 esi
  000b8	5b		 pop	 ebx
  000b9	8b 4d f0	 mov	 ecx, DWORD PTR __$ArrayPad$[ebp]
  000bc	33 cd		 xor	 ecx, ebp
  000be	e8 00 00 00 00	 call	 @__security_check_cookie@4
  000c3	81 c4 e8 00 00
	00		 add	 esp, 232		; 000000e8H
  000c9	3b ec		 cmp	 ebp, esp
  000cb	e8 00 00 00 00	 call	 __RTC_CheckEsp
  000d0	c9		 leave
  000d1	c3		 ret	 0
  000d2	66 90		 npad	 2
$LN9@operator:
  000d4	01 00 00 00	 DD	 1
  000d8	00 00 00 00	 DD	 $LN8@operator
$LN8@operator:
  000dc	e8 ff ff ff	 DD	 -24			; ffffffe8H
  000e0	04 00 00 00	 DD	 4
  000e4	00 00 00 00	 DD	 $LN6@operator
$LN6@operator:
  000e8	62		 DB	 98			; 00000062H
  000e9	00		 DB	 0
_TEXT	ENDS
;	COMDAT text$x
text$x	SEGMENT
__unwindfunclet$??H@YA?AV_bstr_t@@PB_WABV0@@Z$0:
  00000	8d 4d e8	 lea	 ecx, DWORD PTR _b$[ebp]
  00003	e9 00 00 00 00	 jmp	 ??1_bstr_t@@QAE@XZ	; _bstr_t::~_bstr_t
  00008	cc		 int	 3
  00009	cc		 int	 3
  0000a	cc		 int	 3
  0000b	cc		 int	 3
  0000c	cc		 int	 3
__ehhandler$??H@YA?AV_bstr_t@@PB_WABV0@@Z:
  0000d	90		 npad	 1
  0000e	90		 npad	 1
  0000f	8b 54 24 08	 mov	 edx, DWORD PTR [esp+8]
  00013	8d 42 0c	 lea	 eax, DWORD PTR [edx+12]
  00016	8b 8a 14 ff ff
	ff		 mov	 ecx, DWORD PTR [edx-236]
  0001c	33 c8		 xor	 ecx, eax
  0001e	e8 00 00 00 00	 call	 @__security_check_cookie@4
  00023	8b 4a fc	 mov	 ecx, DWORD PTR [edx-4]
  00026	33 c8		 xor	 ecx, eax
  00028	e8 00 00 00 00	 call	 @__security_check_cookie@4
  0002d	b8 00 00 00 00	 mov	 eax, OFFSET __ehfuncinfo$??H@YA?AV_bstr_t@@PB_WABV0@@Z
  00032	e9 00 00 00 00	 jmp	 ___CxxFrameHandler3
text$x	ENDS
??H@YA?AV_bstr_t@@PB_WABV0@@Z ENDP			; operator+
; Function compile flags: /Odsp /RTCsu /ZI
; File C:\Program Files\Microsoft Visual Studio\2022\Enterprise\VC\Tools\MSVC\14.34.31933\include\comutil.h
;	COMDAT ??Y_bstr_t@@QAEAAV0@ABV0@@Z
_TEXT	SEGMENT
tv79 = -256						; size = 4
$T2 = -248						; size = 4
$T3 = -236						; size = 4
_newData$ = -32						; size = 4
_this$ = -20						; size = 4
__$EHRec$ = -12						; size = 12
_s$ = 8							; size = 4
??Y_bstr_t@@QAEAAV0@ABV0@@Z PROC			; _bstr_t::operator+=, COMDAT
; _this$ = ecx

; 413  : {

  00000	55		 push	 ebp
  00001	8b ec		 mov	 ebp, esp
  00003	6a ff		 push	 -1
  00005	68 00 00 00 00	 push	 __ehhandler$??Y_bstr_t@@QAEAAV0@ABV0@@Z
  0000a	64 a1 00 00 00
	00		 mov	 eax, DWORD PTR fs:0
  00010	50		 push	 eax
  00011	81 ec f4 00 00
	00		 sub	 esp, 244		; 000000f4H
  00017	53		 push	 ebx
  00018	56		 push	 esi
  00019	57		 push	 edi
  0001a	51		 push	 ecx
  0001b	8d 7d c0	 lea	 edi, DWORD PTR [ebp-64]
  0001e	6a 0d		 push	 13			; 0000000dH
  00020	59		 pop	 ecx
  00021	b8 cc cc cc cc	 mov	 eax, -858993460		; ccccccccH
  00026	f3 ab		 rep stosd
  00028	59		 pop	 ecx
  00029	a1 00 00 00 00	 mov	 eax, DWORD PTR ___security_cookie
  0002e	33 c5		 xor	 eax, ebp
  00030	50		 push	 eax
  00031	8d 45 f4	 lea	 eax, DWORD PTR __$EHRec$[ebp]
  00034	64 a3 00 00 00
	00		 mov	 DWORD PTR fs:0, eax
  0003a	89 4d ec	 mov	 DWORD PTR _this$[ebp], ecx
  0003d	b9 00 00 00 00	 mov	 ecx, OFFSET __3E101F51_comutil@h
  00042	e8 00 00 00 00	 call	 @__CheckForDebuggerJustMyCode@4

; 414  :     Data_t* newData = new Data_t(*this, s);

  00047	6a 0c		 push	 12			; 0000000cH
  00049	e8 00 00 00 00	 call	 ??2Data_t@_bstr_t@@SAPAXI@Z ; _bstr_t::Data_t::operator new
  0004e	59		 pop	 ecx
  0004f	89 85 08 ff ff
	ff		 mov	 DWORD PTR $T2[ebp], eax
  00055	83 65 fc 00	 and	 DWORD PTR __$EHRec$[ebp+8], 0
  00059	83 bd 08 ff ff
	ff 00		 cmp	 DWORD PTR $T2[ebp], 0
  00060	74 26		 je	 SHORT $LN5@operator
  00062	6a 0c		 push	 12			; 0000000cH
  00064	8b 8d 08 ff ff
	ff		 mov	 ecx, DWORD PTR $T2[ebp]
  0006a	e8 00 00 00 00	 call	 ?__autoclassinit2@Data_t@_bstr_t@@QAEXI@Z
  0006f	ff 75 08	 push	 DWORD PTR _s$[ebp]
  00072	ff 75 ec	 push	 DWORD PTR _this$[ebp]
  00075	8b 8d 08 ff ff
	ff		 mov	 ecx, DWORD PTR $T2[ebp]
  0007b	e8 00 00 00 00	 call	 ??0Data_t@_bstr_t@@QAE@ABV1@0@Z ; _bstr_t::Data_t::Data_t
  00080	89 85 00 ff ff
	ff		 mov	 DWORD PTR tv79[ebp], eax
  00086	eb 07		 jmp	 SHORT $LN6@operator
$LN5@operator:
  00088	83 a5 00 ff ff
	ff 00		 and	 DWORD PTR tv79[ebp], 0
$LN6@operator:
  0008f	8b 85 00 ff ff
	ff		 mov	 eax, DWORD PTR tv79[ebp]
  00095	89 85 14 ff ff
	ff		 mov	 DWORD PTR $T3[ebp], eax
  0009b	83 4d fc ff	 or	 DWORD PTR __$EHRec$[ebp+8], -1
  0009f	8b 85 14 ff ff
	ff		 mov	 eax, DWORD PTR $T3[ebp]
  000a5	89 45 e0	 mov	 DWORD PTR _newData$[ebp], eax

; 415  :     if (newData == NULL) {

  000a8	83 7d e0 00	 cmp	 DWORD PTR _newData$[ebp], 0
  000ac	75 0c		 jne	 SHORT $LN2@operator

; 416  :         _com_issue_error(E_OUTOFMEMORY);

  000ae	68 0e 00 07 80	 push	 -2147024882		; 8007000eH
  000b3	e8 00 00 00 00	 call	 ?_com_issue_error@@YGXJ@Z ; _com_issue_error

; 417  :     }

  000b8	eb 10		 jmp	 SHORT $LN3@operator
$LN2@operator:

; 418  :     else {
; 419  :         _Free();

  000ba	8b 4d ec	 mov	 ecx, DWORD PTR _this$[ebp]
  000bd	e8 00 00 00 00	 call	 ?_Free@_bstr_t@@AAEXXZ	; _bstr_t::_Free

; 420  :         m_Data = newData;

  000c2	8b 45 ec	 mov	 eax, DWORD PTR _this$[ebp]
  000c5	8b 4d e0	 mov	 ecx, DWORD PTR _newData$[ebp]
  000c8	89 08		 mov	 DWORD PTR [eax], ecx
$LN3@operator:

; 421  :     }
; 422  : 
; 423  :     return *this;

  000ca	8b 45 ec	 mov	 eax, DWORD PTR _this$[ebp]
$LN4@operator:

; 424  : }

  000cd	8b 4d f4	 mov	 ecx, DWORD PTR __$EHRec$[ebp]
  000d0	64 89 0d 00 00
	00 00		 mov	 DWORD PTR fs:0, ecx
  000d7	59		 pop	 ecx
  000d8	5f		 pop	 edi
  000d9	5e		 pop	 esi
  000da	5b		 pop	 ebx
  000db	81 c4 00 01 00
	00		 add	 esp, 256		; 00000100H
  000e1	3b ec		 cmp	 ebp, esp
  000e3	e8 00 00 00 00	 call	 __RTC_CheckEsp
  000e8	c9		 leave
  000e9	c2 04 00	 ret	 4
_TEXT	ENDS
;	COMDAT text$x
text$x	SEGMENT
__unwindfunclet$??Y_bstr_t@@QAEAAV0@ABV0@@Z$0:
  00000	6a 0c		 push	 12			; 0000000cH
  00002	ff b5 08 ff ff
	ff		 push	 DWORD PTR $T2[ebp]
  00008	e8 00 00 00 00	 call	 ??3@YAXPAXI@Z		; operator delete
  0000d	59		 pop	 ecx
  0000e	59		 pop	 ecx
  0000f	c3		 ret	 0
  00010	cc		 int	 3
  00011	cc		 int	 3
  00012	cc		 int	 3
  00013	cc		 int	 3
  00014	cc		 int	 3
__ehhandler$??Y_bstr_t@@QAEAAV0@ABV0@@Z:
  00015	90		 npad	 1
  00016	90		 npad	 1
  00017	8b 54 24 08	 mov	 edx, DWORD PTR [esp+8]
  0001b	8d 42 0c	 lea	 eax, DWORD PTR [edx+12]
  0001e	8b 8a fc fe ff
	ff		 mov	 ecx, DWORD PTR [edx-260]
  00024	33 c8		 xor	 ecx, eax
  00026	e8 00 00 00 00	 call	 @__security_check_cookie@4
  0002b	b8 00 00 00 00	 mov	 eax, OFFSET __ehfuncinfo$??Y_bstr_t@@QAEAAV0@ABV0@@Z
  00030	e9 00 00 00 00	 jmp	 ___CxxFrameHandler3
text$x	ENDS
??Y_bstr_t@@QAEAAV0@ABV0@@Z ENDP			; _bstr_t::operator+=
; Function compile flags: /Odsp /RTCsu /ZI
; File C:\Program Files\Microsoft Visual Studio\2022\Enterprise\VC\Tools\MSVC\14.34.31933\include\comutil.h
;	COMDAT ??1_bstr_t@@QAE@XZ
_TEXT	SEGMENT
_this$ = -8						; size = 4
??1_bstr_t@@QAE@XZ PROC					; _bstr_t::~_bstr_t, COMDAT
; _this$ = ecx

; 342  : {

  00000	55		 push	 ebp
  00001	8b ec		 mov	 ebp, esp
  00003	81 ec cc 00 00
	00		 sub	 esp, 204		; 000000ccH
  00009	53		 push	 ebx
  0000a	56		 push	 esi
  0000b	57		 push	 edi
  0000c	51		 push	 ecx
  0000d	8d 7d f4	 lea	 edi, DWORD PTR [ebp-12]
  00010	6a 03		 push	 3
  00012	59		 pop	 ecx
  00013	b8 cc cc cc cc	 mov	 eax, -858993460		; ccccccccH
  00018	f3 ab		 rep stosd
  0001a	59		 pop	 ecx
  0001b	89 4d f8	 mov	 DWORD PTR _this$[ebp], ecx
  0001e	b9 00 00 00 00	 mov	 ecx, OFFSET __3E101F51_comutil@h
  00023	e8 00 00 00 00	 call	 @__CheckForDebuggerJustMyCode@4

; 343  :     _Free();

  00028	8b 4d f8	 mov	 ecx, DWORD PTR _this$[ebp]
  0002b	e8 00 00 00 00	 call	 ?_Free@_bstr_t@@AAEXXZ	; _bstr_t::_Free

; 344  : }

  00030	5f		 pop	 edi
  00031	5e		 pop	 esi
  00032	5b		 pop	 ebx
  00033	81 c4 cc 00 00
	00		 add	 esp, 204		; 000000ccH
  00039	3b ec		 cmp	 ebp, esp
  0003b	e8 00 00 00 00	 call	 __RTC_CheckEsp
  00040	c9		 leave
  00041	c3		 ret	 0
??1_bstr_t@@QAE@XZ ENDP					; _bstr_t::~_bstr_t
_TEXT	ENDS
; Function compile flags: /Odsp /RTCsu /ZI
; File C:\Program Files\Microsoft Visual Studio\2022\Enterprise\VC\Tools\MSVC\14.34.31933\include\comutil.h
;	COMDAT ??0_bstr_t@@QAE@PB_W@Z
_TEXT	SEGMENT
tv79 = -244						; size = 4
$T2 = -236						; size = 4
$T3 = -224						; size = 4
_this$ = -20						; size = 4
__$EHRec$ = -12						; size = 12
_s$ = 8							; size = 4
??0_bstr_t@@QAE@PB_W@Z PROC				; _bstr_t::_bstr_t, COMDAT
; _this$ = ecx

; 322  : {

  00000	55		 push	 ebp
  00001	8b ec		 mov	 ebp, esp
  00003	6a ff		 push	 -1
  00005	68 00 00 00 00	 push	 __ehhandler$??0_bstr_t@@QAE@PB_W@Z
  0000a	64 a1 00 00 00
	00		 mov	 eax, DWORD PTR fs:0
  00010	50		 push	 eax
  00011	81 ec e8 00 00
	00		 sub	 esp, 232		; 000000e8H
  00017	53		 push	 ebx
  00018	56		 push	 esi
  00019	57		 push	 edi
  0001a	51		 push	 ecx
  0001b	8d 7d cc	 lea	 edi, DWORD PTR [ebp-52]
  0001e	6a 0a		 push	 10			; 0000000aH
  00020	59		 pop	 ecx
  00021	b8 cc cc cc cc	 mov	 eax, -858993460		; ccccccccH
  00026	f3 ab		 rep stosd
  00028	59		 pop	 ecx
  00029	a1 00 00 00 00	 mov	 eax, DWORD PTR ___security_cookie
  0002e	33 c5		 xor	 eax, ebp
  00030	50		 push	 eax
  00031	8d 45 f4	 lea	 eax, DWORD PTR __$EHRec$[ebp]
  00034	64 a3 00 00 00
	00		 mov	 DWORD PTR fs:0, eax
  0003a	89 4d ec	 mov	 DWORD PTR _this$[ebp], ecx
  0003d	b9 00 00 00 00	 mov	 ecx, OFFSET __3E101F51_comutil@h
  00042	e8 00 00 00 00	 call	 @__CheckForDebuggerJustMyCode@4

; 321  :     : m_Data(new Data_t(s))

  00047	6a 0c		 push	 12			; 0000000cH
  00049	e8 00 00 00 00	 call	 ??2Data_t@_bstr_t@@SAPAXI@Z ; _bstr_t::Data_t::operator new
  0004e	59		 pop	 ecx
  0004f	89 85 14 ff ff
	ff		 mov	 DWORD PTR $T2[ebp], eax
  00055	83 65 fc 00	 and	 DWORD PTR __$EHRec$[ebp+8], 0
  00059	83 bd 14 ff ff
	ff 00		 cmp	 DWORD PTR $T2[ebp], 0
  00060	74 23		 je	 SHORT $LN4@bstr_t
  00062	6a 0c		 push	 12			; 0000000cH
  00064	8b 8d 14 ff ff
	ff		 mov	 ecx, DWORD PTR $T2[ebp]
  0006a	e8 00 00 00 00	 call	 ?__autoclassinit2@Data_t@_bstr_t@@QAEXI@Z
  0006f	ff 75 08	 push	 DWORD PTR _s$[ebp]
  00072	8b 8d 14 ff ff
	ff		 mov	 ecx, DWORD PTR $T2[ebp]
  00078	e8 00 00 00 00	 call	 ??0Data_t@_bstr_t@@QAE@PB_W@Z ; _bstr_t::Data_t::Data_t
  0007d	89 85 0c ff ff
	ff		 mov	 DWORD PTR tv79[ebp], eax
  00083	eb 07		 jmp	 SHORT $LN5@bstr_t
$LN4@bstr_t:
  00085	83 a5 0c ff ff
	ff 00		 and	 DWORD PTR tv79[ebp], 0
$LN5@bstr_t:
  0008c	8b 85 0c ff ff
	ff		 mov	 eax, DWORD PTR tv79[ebp]
  00092	89 85 20 ff ff
	ff		 mov	 DWORD PTR $T3[ebp], eax
  00098	83 4d fc ff	 or	 DWORD PTR __$EHRec$[ebp+8], -1
  0009c	8b 45 ec	 mov	 eax, DWORD PTR _this$[ebp]
  0009f	8b 8d 20 ff ff
	ff		 mov	 ecx, DWORD PTR $T3[ebp]
  000a5	89 08		 mov	 DWORD PTR [eax], ecx

; 323  :     if (m_Data == NULL) {

  000a7	8b 45 ec	 mov	 eax, DWORD PTR _this$[ebp]
  000aa	83 38 00	 cmp	 DWORD PTR [eax], 0
  000ad	75 0a		 jne	 SHORT $LN1@bstr_t

; 324  :         _com_issue_error(E_OUTOFMEMORY);

  000af	68 0e 00 07 80	 push	 -2147024882		; 8007000eH
  000b4	e8 00 00 00 00	 call	 ?_com_issue_error@@YGXJ@Z ; _com_issue_error
$LN1@bstr_t:

; 325  :     }
; 326  : }

  000b9	8b 45 ec	 mov	 eax, DWORD PTR _this$[ebp]
$LN3@bstr_t:
  000bc	8b 4d f4	 mov	 ecx, DWORD PTR __$EHRec$[ebp]
  000bf	64 89 0d 00 00
	00 00		 mov	 DWORD PTR fs:0, ecx
  000c6	59		 pop	 ecx
  000c7	5f		 pop	 edi
  000c8	5e		 pop	 esi
  000c9	5b		 pop	 ebx
  000ca	81 c4 f4 00 00
	00		 add	 esp, 244		; 000000f4H
  000d0	3b ec		 cmp	 ebp, esp
  000d2	e8 00 00 00 00	 call	 __RTC_CheckEsp
  000d7	c9		 leave
  000d8	c2 04 00	 ret	 4
_TEXT	ENDS
;	COMDAT text$x
text$x	SEGMENT
__unwindfunclet$??0_bstr_t@@QAE@PB_W@Z$0:
  00000	6a 0c		 push	 12			; 0000000cH
  00002	ff b5 14 ff ff
	ff		 push	 DWORD PTR $T2[ebp]
  00008	e8 00 00 00 00	 call	 ??3@YAXPAXI@Z		; operator delete
  0000d	59		 pop	 ecx
  0000e	59		 pop	 ecx
  0000f	c3		 ret	 0
  00010	cc		 int	 3
  00011	cc		 int	 3
  00012	cc		 int	 3
  00013	cc		 int	 3
  00014	cc		 int	 3
__ehhandler$??0_bstr_t@@QAE@PB_W@Z:
  00015	90		 npad	 1
  00016	90		 npad	 1
  00017	8b 54 24 08	 mov	 edx, DWORD PTR [esp+8]
  0001b	8d 42 0c	 lea	 eax, DWORD PTR [edx+12]
  0001e	8b 8a 08 ff ff
	ff		 mov	 ecx, DWORD PTR [edx-248]
  00024	33 c8		 xor	 ecx, eax
  00026	e8 00 00 00 00	 call	 @__security_check_cookie@4
  0002b	b8 00 00 00 00	 mov	 eax, OFFSET __ehfuncinfo$??0_bstr_t@@QAE@PB_W@Z
  00030	e9 00 00 00 00	 jmp	 ___CxxFrameHandler3
text$x	ENDS
??0_bstr_t@@QAE@PB_W@Z ENDP				; _bstr_t::_bstr_t
; Function compile flags: /Odsp /RTCsu /ZI
; File C:\Program Files\Microsoft Visual Studio\2022\Enterprise\VC\Tools\MSVC\14.34.31933\include\comutil.h
;	COMDAT ??0_bstr_t@@QAE@PBD@Z
_TEXT	SEGMENT
tv79 = -244						; size = 4
$T2 = -236						; size = 4
$T3 = -224						; size = 4
_this$ = -20						; size = 4
__$EHRec$ = -12						; size = 12
_s$ = 8							; size = 4
??0_bstr_t@@QAE@PBD@Z PROC				; _bstr_t::_bstr_t, COMDAT
; _this$ = ecx

; 312  : {

  00000	55		 push	 ebp
  00001	8b ec		 mov	 ebp, esp
  00003	6a ff		 push	 -1
  00005	68 00 00 00 00	 push	 __ehhandler$??0_bstr_t@@QAE@PBD@Z
  0000a	64 a1 00 00 00
	00		 mov	 eax, DWORD PTR fs:0
  00010	50		 push	 eax
  00011	81 ec e8 00 00
	00		 sub	 esp, 232		; 000000e8H
  00017	53		 push	 ebx
  00018	56		 push	 esi
  00019	57		 push	 edi
  0001a	51		 push	 ecx
  0001b	8d 7d cc	 lea	 edi, DWORD PTR [ebp-52]
  0001e	6a 0a		 push	 10			; 0000000aH
  00020	59		 pop	 ecx
  00021	b8 cc cc cc cc	 mov	 eax, -858993460		; ccccccccH
  00026	f3 ab		 rep stosd
  00028	59		 pop	 ecx
  00029	a1 00 00 00 00	 mov	 eax, DWORD PTR ___security_cookie
  0002e	33 c5		 xor	 eax, ebp
  00030	50		 push	 eax
  00031	8d 45 f4	 lea	 eax, DWORD PTR __$EHRec$[ebp]
  00034	64 a3 00 00 00
	00		 mov	 DWORD PTR fs:0, eax
  0003a	89 4d ec	 mov	 DWORD PTR _this$[ebp], ecx
  0003d	b9 00 00 00 00	 mov	 ecx, OFFSET __3E101F51_comutil@h
  00042	e8 00 00 00 00	 call	 @__CheckForDebuggerJustMyCode@4

; 311  :     : m_Data(new Data_t(s))

  00047	6a 0c		 push	 12			; 0000000cH
  00049	e8 00 00 00 00	 call	 ??2Data_t@_bstr_t@@SAPAXI@Z ; _bstr_t::Data_t::operator new
  0004e	59		 pop	 ecx
  0004f	89 85 14 ff ff
	ff		 mov	 DWORD PTR $T2[ebp], eax
  00055	83 65 fc 00	 and	 DWORD PTR __$EHRec$[ebp+8], 0
  00059	83 bd 14 ff ff
	ff 00		 cmp	 DWORD PTR $T2[ebp], 0
  00060	74 23		 je	 SHORT $LN4@bstr_t
  00062	6a 0c		 push	 12			; 0000000cH
  00064	8b 8d 14 ff ff
	ff		 mov	 ecx, DWORD PTR $T2[ebp]
  0006a	e8 00 00 00 00	 call	 ?__autoclassinit2@Data_t@_bstr_t@@QAEXI@Z
  0006f	ff 75 08	 push	 DWORD PTR _s$[ebp]
  00072	8b 8d 14 ff ff
	ff		 mov	 ecx, DWORD PTR $T2[ebp]
  00078	e8 00 00 00 00	 call	 ??0Data_t@_bstr_t@@QAE@PBD@Z ; _bstr_t::Data_t::Data_t
  0007d	89 85 0c ff ff
	ff		 mov	 DWORD PTR tv79[ebp], eax
  00083	eb 07		 jmp	 SHORT $LN5@bstr_t
$LN4@bstr_t:
  00085	83 a5 0c ff ff
	ff 00		 and	 DWORD PTR tv79[ebp], 0
$LN5@bstr_t:
  0008c	8b 85 0c ff ff
	ff		 mov	 eax, DWORD PTR tv79[ebp]
  00092	89 85 20 ff ff
	ff		 mov	 DWORD PTR $T3[ebp], eax
  00098	83 4d fc ff	 or	 DWORD PTR __$EHRec$[ebp+8], -1
  0009c	8b 45 ec	 mov	 eax, DWORD PTR _this$[ebp]
  0009f	8b 8d 20 ff ff
	ff		 mov	 ecx, DWORD PTR $T3[ebp]
  000a5	89 08		 mov	 DWORD PTR [eax], ecx

; 313  :     if (m_Data == NULL) {

  000a7	8b 45 ec	 mov	 eax, DWORD PTR _this$[ebp]
  000aa	83 38 00	 cmp	 DWORD PTR [eax], 0
  000ad	75 0a		 jne	 SHORT $LN1@bstr_t

; 314  :         _com_issue_error(E_OUTOFMEMORY);

  000af	68 0e 00 07 80	 push	 -2147024882		; 8007000eH
  000b4	e8 00 00 00 00	 call	 ?_com_issue_error@@YGXJ@Z ; _com_issue_error
$LN1@bstr_t:

; 315  :     }
; 316  : }

  000b9	8b 45 ec	 mov	 eax, DWORD PTR _this$[ebp]
$LN3@bstr_t:
  000bc	8b 4d f4	 mov	 ecx, DWORD PTR __$EHRec$[ebp]
  000bf	64 89 0d 00 00
	00 00		 mov	 DWORD PTR fs:0, ecx
  000c6	59		 pop	 ecx
  000c7	5f		 pop	 edi
  000c8	5e		 pop	 esi
  000c9	5b		 pop	 ebx
  000ca	81 c4 f4 00 00
	00		 add	 esp, 244		; 000000f4H
  000d0	3b ec		 cmp	 ebp, esp
  000d2	e8 00 00 00 00	 call	 __RTC_CheckEsp
  000d7	c9		 leave
  000d8	c2 04 00	 ret	 4
_TEXT	ENDS
;	COMDAT text$x
text$x	SEGMENT
__unwindfunclet$??0_bstr_t@@QAE@PBD@Z$0:
  00000	6a 0c		 push	 12			; 0000000cH
  00002	ff b5 14 ff ff
	ff		 push	 DWORD PTR $T2[ebp]
  00008	e8 00 00 00 00	 call	 ??3@YAXPAXI@Z		; operator delete
  0000d	59		 pop	 ecx
  0000e	59		 pop	 ecx
  0000f	c3		 ret	 0
  00010	cc		 int	 3
  00011	cc		 int	 3
  00012	cc		 int	 3
  00013	cc		 int	 3
  00014	cc		 int	 3
__ehhandler$??0_bstr_t@@QAE@PBD@Z:
  00015	90		 npad	 1
  00016	90		 npad	 1
  00017	8b 54 24 08	 mov	 edx, DWORD PTR [esp+8]
  0001b	8d 42 0c	 lea	 eax, DWORD PTR [edx+12]
  0001e	8b 8a 08 ff ff
	ff		 mov	 ecx, DWORD PTR [edx-248]
  00024	33 c8		 xor	 ecx, eax
  00026	e8 00 00 00 00	 call	 @__security_check_cookie@4
  0002b	b8 00 00 00 00	 mov	 eax, OFFSET __ehfuncinfo$??0_bstr_t@@QAE@PBD@Z
  00030	e9 00 00 00 00	 jmp	 ___CxxFrameHandler3
text$x	ENDS
??0_bstr_t@@QAE@PBD@Z ENDP				; _bstr_t::_bstr_t
; Function compile flags: /Odsp /RTCsu /ZI
; File C:\Program Files\Microsoft Visual Studio\2022\Enterprise\VC\Tools\MSVC\14.34.31933\include\comutil.h
;	COMDAT ??0_bstr_t@@QAE@ABV0@@Z
_TEXT	SEGMENT
_this$ = -8						; size = 4
_s$ = 8							; size = 4
??0_bstr_t@@QAE@ABV0@@Z PROC				; _bstr_t::_bstr_t, COMDAT
; _this$ = ecx

; 304  : {

  00000	55		 push	 ebp
  00001	8b ec		 mov	 ebp, esp
  00003	81 ec cc 00 00
	00		 sub	 esp, 204		; 000000ccH
  00009	53		 push	 ebx
  0000a	56		 push	 esi
  0000b	57		 push	 edi
  0000c	51		 push	 ecx
  0000d	8d 7d f4	 lea	 edi, DWORD PTR [ebp-12]
  00010	6a 03		 push	 3
  00012	59		 pop	 ecx
  00013	b8 cc cc cc cc	 mov	 eax, -858993460		; ccccccccH
  00018	f3 ab		 rep stosd
  0001a	59		 pop	 ecx
  0001b	89 4d f8	 mov	 DWORD PTR _this$[ebp], ecx
  0001e	b9 00 00 00 00	 mov	 ecx, OFFSET __3E101F51_comutil@h
  00023	e8 00 00 00 00	 call	 @__CheckForDebuggerJustMyCode@4

; 303  :     : m_Data(s.m_Data)

  00028	8b 45 f8	 mov	 eax, DWORD PTR _this$[ebp]
  0002b	8b 4d 08	 mov	 ecx, DWORD PTR _s$[ebp]
  0002e	8b 09		 mov	 ecx, DWORD PTR [ecx]
  00030	89 08		 mov	 DWORD PTR [eax], ecx

; 305  :     _AddRef();

  00032	8b 4d f8	 mov	 ecx, DWORD PTR _this$[ebp]
  00035	e8 00 00 00 00	 call	 ?_AddRef@_bstr_t@@AAEXXZ ; _bstr_t::_AddRef

; 306  : }

  0003a	8b 45 f8	 mov	 eax, DWORD PTR _this$[ebp]
  0003d	5f		 pop	 edi
  0003e	5e		 pop	 esi
  0003f	5b		 pop	 ebx
  00040	81 c4 cc 00 00
	00		 add	 esp, 204		; 000000ccH
  00046	3b ec		 cmp	 ebp, esp
  00048	e8 00 00 00 00	 call	 __RTC_CheckEsp
  0004d	c9		 leave
  0004e	c2 04 00	 ret	 4
??0_bstr_t@@QAE@ABV0@@Z ENDP				; _bstr_t::_bstr_t
_TEXT	ENDS
; Function compile flags: /Odsp /RTCsu /ZI
; File C:\Program Files\Microsoft Visual Studio\2022\Enterprise\VC\Tools\MSVC\14.34.31933\include\comutil.h
;	COMDAT ?UIntMult@_com_util@@YAJIIPAI@Z
_TEXT	SEGMENT
_ull64Result$ = -12					; size = 8
_uMultiplicand$ = 8					; size = 4
_uMultiplier$ = 12					; size = 4
_puResult$ = 16						; size = 4
?UIntMult@_com_util@@YAJIIPAI@Z PROC			; _com_util::UIntMult, COMDAT

; 111  :     {

  00000	55		 push	 ebp
  00001	8b ec		 mov	 ebp, esp
  00003	81 ec d0 00 00
	00		 sub	 esp, 208		; 000000d0H
  00009	53		 push	 ebx
  0000a	56		 push	 esi
  0000b	57		 push	 edi
  0000c	8d 7d f0	 lea	 edi, DWORD PTR [ebp-16]
  0000f	6a 04		 push	 4
  00011	59		 pop	 ecx
  00012	b8 cc cc cc cc	 mov	 eax, -858993460		; ccccccccH
  00017	f3 ab		 rep stosd
  00019	b9 00 00 00 00	 mov	 ecx, OFFSET __3E101F51_comutil@h
  0001e	e8 00 00 00 00	 call	 @__CheckForDebuggerJustMyCode@4

; 112  :         ULONGLONG ull64Result = UInt32x32To64(uMultiplicand, uMultiplier);

  00023	8b 45 08	 mov	 eax, DWORD PTR _uMultiplicand$[ebp]
  00026	f7 65 0c	 mul	 DWORD PTR _uMultiplier$[ebp]
  00029	89 45 f4	 mov	 DWORD PTR _ull64Result$[ebp], eax
  0002c	89 55 f8	 mov	 DWORD PTR _ull64Result$[ebp+4], edx

; 113  :         if(ull64Result <= INTSAFE_UINT_MAX)

  0002f	83 7d f8 00	 cmp	 DWORD PTR _ull64Result$[ebp+4], 0
  00033	77 14		 ja	 SHORT $LN2@UIntMult
  00035	72 06		 jb	 SHORT $LN4@UIntMult
  00037	83 7d f4 ff	 cmp	 DWORD PTR _ull64Result$[ebp], -1
  0003b	77 0c		 ja	 SHORT $LN2@UIntMult
$LN4@UIntMult:

; 114  :         {
; 115  :             *puResult = (UINT)ull64Result;

  0003d	8b 45 f4	 mov	 eax, DWORD PTR _ull64Result$[ebp]
  00040	8b 4d 10	 mov	 ecx, DWORD PTR _puResult$[ebp]
  00043	89 01		 mov	 DWORD PTR [ecx], eax

; 116  :             return S_OK;

  00045	33 c0		 xor	 eax, eax
  00047	eb 05		 jmp	 SHORT $LN1@UIntMult
$LN2@UIntMult:

; 117  :         }
; 118  :         return INTSAFE_E_ARITHMETIC_OVERFLOW;

  00049	b8 16 02 07 80	 mov	 eax, -2147024362	; 80070216H
$LN1@UIntMult:

; 119  :     }

  0004e	5f		 pop	 edi
  0004f	5e		 pop	 esi
  00050	5b		 pop	 ebx
  00051	81 c4 d0 00 00
	00		 add	 esp, 208		; 000000d0H
  00057	3b ec		 cmp	 ebp, esp
  00059	e8 00 00 00 00	 call	 __RTC_CheckEsp
  0005e	c9		 leave
  0005f	c3		 ret	 0
?UIntMult@_com_util@@YAJIIPAI@Z ENDP			; _com_util::UIntMult
_TEXT	ENDS
; Function compile flags: /Odsp /RTCsu /ZI
; File C:\Program Files\Microsoft Visual Studio\2022\Enterprise\VC\Tools\MSVC\14.34.31933\include\comutil.h
;	COMDAT ?UIntAdd@_com_util@@YAJIIPAI@Z
_TEXT	SEGMENT
_uAugend$ = 8						; size = 4
_uAddend$ = 12						; size = 4
_puResult$ = 16						; size = 4
?UIntAdd@_com_util@@YAJIIPAI@Z PROC			; _com_util::UIntAdd, COMDAT

; 101  :     {

  00000	55		 push	 ebp
  00001	8b ec		 mov	 ebp, esp
  00003	81 ec c0 00 00
	00		 sub	 esp, 192		; 000000c0H
  00009	53		 push	 ebx
  0000a	56		 push	 esi
  0000b	57		 push	 edi
  0000c	8b fd		 mov	 edi, ebp
  0000e	33 c9		 xor	 ecx, ecx
  00010	b8 cc cc cc cc	 mov	 eax, -858993460		; ccccccccH
  00015	f3 ab		 rep stosd
  00017	b9 00 00 00 00	 mov	 ecx, OFFSET __3E101F51_comutil@h
  0001c	e8 00 00 00 00	 call	 @__CheckForDebuggerJustMyCode@4

; 102  :         if((uAugend + uAddend) < uAddend)

  00021	8b 45 08	 mov	 eax, DWORD PTR _uAugend$[ebp]
  00024	03 45 0c	 add	 eax, DWORD PTR _uAddend$[ebp]
  00027	3b 45 0c	 cmp	 eax, DWORD PTR _uAddend$[ebp]
  0002a	73 07		 jae	 SHORT $LN2@UIntAdd

; 103  :         {
; 104  :             return INTSAFE_E_ARITHMETIC_OVERFLOW;

  0002c	b8 16 02 07 80	 mov	 eax, -2147024362	; 80070216H
  00031	eb 0d		 jmp	 SHORT $LN1@UIntAdd
$LN2@UIntAdd:

; 105  :         }
; 106  :         *puResult = uAugend + uAddend;

  00033	8b 45 08	 mov	 eax, DWORD PTR _uAugend$[ebp]
  00036	03 45 0c	 add	 eax, DWORD PTR _uAddend$[ebp]
  00039	8b 4d 10	 mov	 ecx, DWORD PTR _puResult$[ebp]
  0003c	89 01		 mov	 DWORD PTR [ecx], eax

; 107  :         return S_OK;

  0003e	33 c0		 xor	 eax, eax
$LN1@UIntAdd:

; 108  :     }

  00040	5f		 pop	 edi
  00041	5e		 pop	 esi
  00042	5b		 pop	 ebx
  00043	81 c4 c0 00 00
	00		 add	 esp, 192		; 000000c0H
  00049	3b ec		 cmp	 ebp, esp
  0004b	e8 00 00 00 00	 call	 __RTC_CheckEsp
  00050	c9		 leave
  00051	c3		 ret	 0
?UIntAdd@_com_util@@YAJIIPAI@Z ENDP			; _com_util::UIntAdd
_TEXT	ENDS
; Function compile flags: /Odsp /RTCsu /ZI
;	COMDAT ?__autoclassinit2@CFileDialog@@QAEXI@Z
_TEXT	SEGMENT
_this$ = -8						; size = 4
_classSize$ = 8						; size = 4
?__autoclassinit2@CFileDialog@@QAEXI@Z PROC		; CFileDialog::__autoclassinit2, COMDAT
; _this$ = ecx
  00000	55		 push	 ebp
  00001	8b ec		 mov	 ebp, esp
  00003	81 ec cc 00 00
	00		 sub	 esp, 204		; 000000ccH
  00009	53		 push	 ebx
  0000a	56		 push	 esi
  0000b	57		 push	 edi
  0000c	51		 push	 ecx
  0000d	8d 7d f4	 lea	 edi, DWORD PTR [ebp-12]
  00010	6a 03		 push	 3
  00012	59		 pop	 ecx
  00013	b8 cc cc cc cc	 mov	 eax, -858993460		; ccccccccH
  00018	f3 ab		 rep stosd
  0001a	59		 pop	 ecx
  0001b	89 4d f8	 mov	 DWORD PTR _this$[ebp], ecx
  0001e	ff 75 08	 push	 DWORD PTR _classSize$[ebp]
  00021	6a 00		 push	 0
  00023	ff 75 f8	 push	 DWORD PTR _this$[ebp]
  00026	e8 00 00 00 00	 call	 _memset
  0002b	83 c4 0c	 add	 esp, 12			; 0000000cH
  0002e	5f		 pop	 edi
  0002f	5e		 pop	 esi
  00030	5b		 pop	 ebx
  00031	81 c4 cc 00 00
	00		 add	 esp, 204		; 000000ccH
  00037	3b ec		 cmp	 ebp, esp
  00039	e8 00 00 00 00	 call	 __RTC_CheckEsp
  0003e	c9		 leave
  0003f	c2 04 00	 ret	 4
?__autoclassinit2@CFileDialog@@QAEXI@Z ENDP		; CFileDialog::__autoclassinit2
_TEXT	ENDS
; Function compile flags: /Odsp /RTCsu /ZI
; File C:\Program Files\Microsoft Visual Studio\2022\Enterprise\VC\Tools\MSVC\14.34.31933\atlmfc\include\afxstr.h
;	COMDAT ?GetDefaultManager@?$StrTraitMFC@_WV?$ChTraitsCRT@_W@ATL@@@@SAPAUIAtlStringMgr@ATL@@XZ
_TEXT	SEGMENT
?GetDefaultManager@?$StrTraitMFC@_WV?$ChTraitsCRT@_W@ATL@@@@SAPAUIAtlStringMgr@ATL@@XZ PROC ; StrTraitMFC<wchar_t,ATL::ChTraitsCRT<wchar_t> >::GetDefaultManager, COMDAT

; 51   : 	{

  00000	55		 push	 ebp
  00001	8b ec		 mov	 ebp, esp
  00003	81 ec c0 00 00
	00		 sub	 esp, 192		; 000000c0H
  00009	53		 push	 ebx
  0000a	56		 push	 esi
  0000b	57		 push	 edi
  0000c	8b fd		 mov	 edi, ebp
  0000e	33 c9		 xor	 ecx, ecx
  00010	b8 cc cc cc cc	 mov	 eax, -858993460		; ccccccccH
  00015	f3 ab		 rep stosd
  00017	b9 00 00 00 00	 mov	 ecx, OFFSET __5DCF1DCC_afxstr@h
  0001c	e8 00 00 00 00	 call	 @__CheckForDebuggerJustMyCode@4

; 52   : 		return( AfxGetStringManager() );

  00021	e8 00 00 00 00	 call	 ?AfxGetStringManager@@YGPAUIAtlStringMgr@ATL@@XZ ; AfxGetStringManager

; 53   : 	}

  00026	5f		 pop	 edi
  00027	5e		 pop	 esi
  00028	5b		 pop	 ebx
  00029	81 c4 c0 00 00
	00		 add	 esp, 192		; 000000c0H
  0002f	3b ec		 cmp	 ebp, esp
  00031	e8 00 00 00 00	 call	 __RTC_CheckEsp
  00036	c9		 leave
  00037	c3		 ret	 0
?GetDefaultManager@?$StrTraitMFC@_WV?$ChTraitsCRT@_W@ATL@@@@SAPAUIAtlStringMgr@ATL@@XZ ENDP ; StrTraitMFC<wchar_t,ATL::ChTraitsCRT<wchar_t> >::GetDefaultManager
_TEXT	ENDS
; Function compile flags: /Odsp /RTCsu /ZI
; File C:\Program Files\Microsoft Visual Studio\2022\Enterprise\VC\Tools\MSVC\14.34.31933\atlmfc\include\afxstr.h
;	COMDAT ?FindStringResourceInstance@?$StrTraitMFC@_WV?$ChTraitsCRT@_W@ATL@@@@SAPAUHINSTANCE__@@I@Z
_TEXT	SEGMENT
_nID$ = 8						; size = 4
?FindStringResourceInstance@?$StrTraitMFC@_WV?$ChTraitsCRT@_W@ATL@@@@SAPAUHINSTANCE__@@I@Z PROC ; StrTraitMFC<wchar_t,ATL::ChTraitsCRT<wchar_t> >::FindStringResourceInstance, COMDAT

; 46   : 	{

  00000	55		 push	 ebp
  00001	8b ec		 mov	 ebp, esp
  00003	81 ec c0 00 00
	00		 sub	 esp, 192		; 000000c0H
  00009	53		 push	 ebx
  0000a	56		 push	 esi
  0000b	57		 push	 edi
  0000c	8b fd		 mov	 edi, ebp
  0000e	33 c9		 xor	 ecx, ecx
  00010	b8 cc cc cc cc	 mov	 eax, -858993460		; ccccccccH
  00015	f3 ab		 rep stosd
  00017	b9 00 00 00 00	 mov	 ecx, OFFSET __5DCF1DCC_afxstr@h
  0001c	e8 00 00 00 00	 call	 @__CheckForDebuggerJustMyCode@4

; 47   : 		return( AfxFindStringResourceHandle( nID ) );

  00021	ff 75 08	 push	 DWORD PTR _nID$[ebp]
  00024	e8 00 00 00 00	 call	 ?AfxFindStringResourceHandle@@YGPAUHINSTANCE__@@I@Z ; AfxFindStringResourceHandle

; 48   : 	}

  00029	5f		 pop	 edi
  0002a	5e		 pop	 esi
  0002b	5b		 pop	 ebx
  0002c	81 c4 c0 00 00
	00		 add	 esp, 192		; 000000c0H
  00032	3b ec		 cmp	 ebp, esp
  00034	e8 00 00 00 00	 call	 __RTC_CheckEsp
  00039	c9		 leave
  0003a	c3		 ret	 0
?FindStringResourceInstance@?$StrTraitMFC@_WV?$ChTraitsCRT@_W@ATL@@@@SAPAUHINSTANCE__@@I@Z ENDP ; StrTraitMFC<wchar_t,ATL::ChTraitsCRT<wchar_t> >::FindStringResourceInstance
_TEXT	ENDS
; Function compile flags: /Odsp /RTCsu /ZI
;	COMDAT ?__autoclassinit2@?$CStringT@_WV?$StrTraitMFC@_WV?$ChTraitsCRT@_W@ATL@@@@@ATL@@QAEXI@Z
_TEXT	SEGMENT
_this$ = -8						; size = 4
_classSize$ = 8						; size = 4
?__autoclassinit2@?$CStringT@_WV?$StrTraitMFC@_WV?$ChTraitsCRT@_W@ATL@@@@@ATL@@QAEXI@Z PROC ; ATL::CStringT<wchar_t,StrTraitMFC<wchar_t,ATL::ChTraitsCRT<wchar_t> > >::__autoclassinit2, COMDAT
; _this$ = ecx
  00000	55		 push	 ebp
  00001	8b ec		 mov	 ebp, esp
  00003	81 ec cc 00 00
	00		 sub	 esp, 204		; 000000ccH
  00009	53		 push	 ebx
  0000a	56		 push	 esi
  0000b	57		 push	 edi
  0000c	51		 push	 ecx
  0000d	8d 7d f4	 lea	 edi, DWORD PTR [ebp-12]
  00010	6a 03		 push	 3
  00012	59		 pop	 ecx
  00013	b8 cc cc cc cc	 mov	 eax, -858993460		; ccccccccH
  00018	f3 ab		 rep stosd
  0001a	59		 pop	 ecx
  0001b	89 4d f8	 mov	 DWORD PTR _this$[ebp], ecx
  0001e	ff 75 08	 push	 DWORD PTR _classSize$[ebp]
  00021	6a 00		 push	 0
  00023	ff 75 f8	 push	 DWORD PTR _this$[ebp]
  00026	e8 00 00 00 00	 call	 _memset
  0002b	83 c4 0c	 add	 esp, 12			; 0000000cH
  0002e	5f		 pop	 edi
  0002f	5e		 pop	 esi
  00030	5b		 pop	 ebx
  00031	81 c4 cc 00 00
	00		 add	 esp, 204		; 000000ccH
  00037	3b ec		 cmp	 ebp, esp
  00039	e8 00 00 00 00	 call	 __RTC_CheckEsp
  0003e	c9		 leave
  0003f	c2 04 00	 ret	 4
?__autoclassinit2@?$CStringT@_WV?$StrTraitMFC@_WV?$ChTraitsCRT@_W@ATL@@@@@ATL@@QAEXI@Z ENDP ; ATL::CStringT<wchar_t,StrTraitMFC<wchar_t,ATL::ChTraitsCRT<wchar_t> > >::__autoclassinit2
_TEXT	ENDS
; Function compile flags: /Odsp /RTCsu /ZI
; File C:\Program Files\Microsoft Visual Studio\2022\Enterprise\VC\Tools\MSVC\14.34.31933\atlmfc\include\cstringt.h
;	COMDAT ?CheckImplicitLoad@?$CStringT@_WV?$StrTraitMFC@_WV?$ChTraitsCRT@_W@ATL@@@@@ATL@@AAE_NPBX@Z
_TEXT	SEGMENT
$T1 = -240						; size = 8
_nID$2 = -32						; size = 4
_bRet$ = -17						; size = 1
_this$ = -8						; size = 4
_pv$ = 8						; size = 4
?CheckImplicitLoad@?$CStringT@_WV?$StrTraitMFC@_WV?$ChTraitsCRT@_W@ATL@@@@@ATL@@AAE_NPBX@Z PROC ; ATL::CStringT<wchar_t,StrTraitMFC<wchar_t,ATL::ChTraitsCRT<wchar_t> > >::CheckImplicitLoad, COMDAT
; _this$ = ecx

; 2705 : 	{

  00000	55		 push	 ebp
  00001	8b ec		 mov	 ebp, esp
  00003	81 ec f4 00 00
	00		 sub	 esp, 244		; 000000f4H
  00009	53		 push	 ebx
  0000a	56		 push	 esi
  0000b	57		 push	 edi
  0000c	51		 push	 ecx
  0000d	8d 7d cc	 lea	 edi, DWORD PTR [ebp-52]
  00010	6a 0d		 push	 13			; 0000000dH
  00012	59		 pop	 ecx
  00013	b8 cc cc cc cc	 mov	 eax, -858993460		; ccccccccH
  00018	f3 ab		 rep stosd
  0001a	59		 pop	 ecx
  0001b	89 4d f8	 mov	 DWORD PTR _this$[ebp], ecx
  0001e	b9 00 00 00 00	 mov	 ecx, OFFSET __B625A68F_cstringt@h
  00023	e8 00 00 00 00	 call	 @__CheckForDebuggerJustMyCode@4

; 2706 : 		bool bRet = false;

  00028	c6 45 ef 00	 mov	 BYTE PTR _bRet$[ebp], 0

; 2707 : 
; 2708 : 		if( (pv != NULL) && IS_INTRESOURCE( pv ) )

  0002c	83 7d 08 00	 cmp	 DWORD PTR _pv$[ebp], 0
  00030	74 5e		 je	 SHORT $LN2@CheckImpli
  00032	8b 45 08	 mov	 eax, DWORD PTR _pv$[ebp]
  00035	c1 e8 10	 shr	 eax, 16			; 00000010H
  00038	85 c0		 test	 eax, eax
  0003a	75 54		 jne	 SHORT $LN2@CheckImpli

; 2709 : 		{
; 2710 : 			UINT nID = LOWORD( reinterpret_cast< DWORD_PTR >( pv ) );

  0003c	8b 45 08	 mov	 eax, DWORD PTR _pv$[ebp]
  0003f	25 ff ff 00 00	 and	 eax, 65535		; 0000ffffH
  00044	0f b7 c0	 movzx	 eax, ax
  00047	89 45 e0	 mov	 DWORD PTR _nID$2[ebp], eax

; 2711 : 			(nID);
; 2712 : #ifdef _ATL_USE_WINAPI_FAMILY_DESKTOP_APP
; 2713 : 			if( !LoadString( nID ) )

  0004a	ff 75 e0	 push	 DWORD PTR _nID$2[ebp]
  0004d	8b 4d f8	 mov	 ecx, DWORD PTR _this$[ebp]
  00050	e8 00 00 00 00	 call	 ?LoadStringW@?$CStringT@_WV?$StrTraitMFC@_WV?$ChTraitsCRT@_W@ATL@@@@@ATL@@QAEHI@Z ; ATL::CStringT<wchar_t,StrTraitMFC<wchar_t,ATL::ChTraitsCRT<wchar_t> > >::LoadStringW
  00055	85 c0		 test	 eax, eax
  00057	75 33		 jne	 SHORT $LN3@CheckImpli

; 2714 : 			{
; 2715 : 				ATLTRACE( atlTraceString, 2, _T( "Warning: implicit LoadString(%u) failed\n" ), nID );

  00059	ff 75 e0	 push	 DWORD PTR _nID$2[ebp]
  0005c	68 00 00 00 00	 push	 OFFSET ??_C@_1FC@BMOLDHIO@?$AAW?$AAa?$AAr?$AAn?$AAi?$AAn?$AAg?$AA?3?$AA?5?$AAi?$AAm?$AAp?$AAl?$AAi?$AAc@
  00061	6a 02		 push	 2
  00063	b9 00 00 00 00	 mov	 ecx, OFFSET ?atlTraceString@ATL@@3V?$CTraceCategoryEx@$0CAAAA@$0A@@1@A ; ATL::atlTraceString
  00068	e8 00 00 00 00	 call	 ??B?$CTraceCategoryEx@$0CAAAA@$0A@@ATL@@QAEIXZ ; ATL::CTraceCategoryEx<131072,0>::operator unsigned int
  0006d	50		 push	 eax
  0006e	68 9b 0a 00 00	 push	 2715			; 00000a9bH
  00073	68 00 00 00 00	 push	 OFFSET ??_C@_0GN@HEPHHEDO@C?3?2Program?5Files?2Microsoft?5Visu@
  00078	8d 8d 10 ff ff
	ff		 lea	 ecx, DWORD PTR $T1[ebp]
  0007e	e8 00 00 00 00	 call	 ??0CTraceFileAndLineInfo@ATL@@QAE@PBDH@Z ; ATL::CTraceFileAndLineInfo::CTraceFileAndLineInfo
  00083	50		 push	 eax
  00084	e8 00 00 00 00	 call	 ??RCTraceFileAndLineInfo@ATL@@QBAXHIPB_WZZ ; ATL::CTraceFileAndLineInfo::operator()
  00089	83 c4 14	 add	 esp, 20			; 00000014H
$LN3@CheckImpli:

; 2716 : 			}
; 2717 : 			bRet = true;

  0008c	c6 45 ef 01	 mov	 BYTE PTR _bRet$[ebp], 1
$LN2@CheckImpli:

; 2718 : #else
; 2719 : 			ATLTRACE( atlTraceString, 2, _T( "Warning: LoadString(%u) not supported under the current WINAPI_FAMILY.\n" ), nID );
; 2720 : #endif
; 2721 : 		}
; 2722 : 
; 2723 : 		return( bRet );

  00090	8a 45 ef	 mov	 al, BYTE PTR _bRet$[ebp]

; 2724 : 	}

  00093	5f		 pop	 edi
  00094	5e		 pop	 esi
  00095	5b		 pop	 ebx
  00096	81 c4 f4 00 00
	00		 add	 esp, 244		; 000000f4H
  0009c	3b ec		 cmp	 ebp, esp
  0009e	e8 00 00 00 00	 call	 __RTC_CheckEsp
  000a3	c9		 leave
  000a4	c2 04 00	 ret	 4
?CheckImplicitLoad@?$CStringT@_WV?$StrTraitMFC@_WV?$ChTraitsCRT@_W@ATL@@@@@ATL@@AAE_NPBX@Z ENDP ; ATL::CStringT<wchar_t,StrTraitMFC<wchar_t,ATL::ChTraitsCRT<wchar_t> > >::CheckImplicitLoad
_TEXT	ENDS
; Function compile flags: /Odsp /RTCsu /ZI
; File C:\Program Files\Microsoft Visual Studio\2022\Enterprise\VC\Tools\MSVC\14.34.31933\atlmfc\include\cstringt.h
;	COMDAT ??HATL@@YA?AV?$CStringT@_WV?$StrTraitMFC@_WV?$ChTraitsCRT@_W@ATL@@@@@0@ABV10@0@Z
_TEXT	SEGMENT
$T2 = -228						; size = 4
_strResult$ = -24					; size = 4
__$ArrayPad$ = -16					; size = 4
__$EHRec$ = -12						; size = 12
___$ReturnUdt$ = 8					; size = 4
_str1$ = 12						; size = 4
_str2$ = 16						; size = 4
??HATL@@YA?AV?$CStringT@_WV?$StrTraitMFC@_WV?$ChTraitsCRT@_W@ATL@@@@@0@ABV10@0@Z PROC ; ATL::operator+, COMDAT

; 2389 : 	{

  00000	55		 push	 ebp
  00001	8b ec		 mov	 ebp, esp
  00003	6a ff		 push	 -1
  00005	68 00 00 00 00	 push	 __ehhandler$??HATL@@YA?AV?$CStringT@_WV?$StrTraitMFC@_WV?$ChTraitsCRT@_W@ATL@@@@@0@ABV10@0@Z
  0000a	64 a1 00 00 00
	00		 mov	 eax, DWORD PTR fs:0
  00010	50		 push	 eax
  00011	81 ec dc 00 00
	00		 sub	 esp, 220		; 000000dcH
  00017	53		 push	 ebx
  00018	56		 push	 esi
  00019	57		 push	 edi
  0001a	8d 7d d8	 lea	 edi, DWORD PTR [ebp-40]
  0001d	6a 07		 push	 7
  0001f	59		 pop	 ecx
  00020	b8 cc cc cc cc	 mov	 eax, -858993460		; ccccccccH
  00025	f3 ab		 rep stosd
  00027	a1 00 00 00 00	 mov	 eax, DWORD PTR ___security_cookie
  0002c	33 c5		 xor	 eax, ebp
  0002e	89 45 f0	 mov	 DWORD PTR __$ArrayPad$[ebp], eax
  00031	50		 push	 eax
  00032	8d 45 f4	 lea	 eax, DWORD PTR __$EHRec$[ebp]
  00035	64 a3 00 00 00
	00		 mov	 DWORD PTR fs:0, eax
  0003b	83 a5 1c ff ff
	ff 00		 and	 DWORD PTR $T2[ebp], 0
  00042	b9 00 00 00 00	 mov	 ecx, OFFSET __B625A68F_cstringt@h
  00047	e8 00 00 00 00	 call	 @__CheckForDebuggerJustMyCode@4

; 2390 : 		CStringT strResult( str1.GetManager() );

  0004c	6a 04		 push	 4
  0004e	8d 4d e8	 lea	 ecx, DWORD PTR _strResult$[ebp]
  00051	e8 00 00 00 00	 call	 ?__autoclassinit2@?$CStringT@_WV?$StrTraitMFC@_WV?$ChTraitsCRT@_W@ATL@@@@@ATL@@QAEXI@Z
  00056	8b 4d 0c	 mov	 ecx, DWORD PTR _str1$[ebp]
  00059	e8 00 00 00 00	 call	 ?GetManager@?$CStringT@_WV?$StrTraitMFC@_WV?$ChTraitsCRT@_W@ATL@@@@@ATL@@QBEPAUIAtlStringMgr@2@XZ ; ATL::CStringT<wchar_t,StrTraitMFC<wchar_t,ATL::ChTraitsCRT<wchar_t> > >::GetManager
  0005e	50		 push	 eax
  0005f	8d 4d e8	 lea	 ecx, DWORD PTR _strResult$[ebp]
  00062	e8 00 00 00 00	 call	 ??0?$CStringT@_WV?$StrTraitMFC@_WV?$ChTraitsCRT@_W@ATL@@@@@ATL@@QAE@PAUIAtlStringMgr@1@@Z ; ATL::CStringT<wchar_t,StrTraitMFC<wchar_t,ATL::ChTraitsCRT<wchar_t> > >::CStringT<wchar_t,StrTraitMFC<wchar_t,ATL::ChTraitsCRT<wchar_t> > >
  00067	83 65 fc 00	 and	 DWORD PTR __$EHRec$[ebp+8], 0

; 2391 : 
; 2392 : 		CThisSimpleString::Concatenate( strResult, str1, str1.GetLength(), str2, str2.GetLength() );

  0006b	8b 4d 10	 mov	 ecx, DWORD PTR _str2$[ebp]
  0006e	e8 00 00 00 00	 call	 ?GetLength@?$CSimpleStringT@_W$0A@@ATL@@QBEHXZ ; ATL::CSimpleStringT<wchar_t,0>::GetLength
  00073	50		 push	 eax
  00074	8b 4d 10	 mov	 ecx, DWORD PTR _str2$[ebp]
  00077	e8 00 00 00 00	 call	 ??B?$CSimpleStringT@_W$0A@@ATL@@QBEPB_WXZ ; ATL::CSimpleStringT<wchar_t,0>::operator wchar_t const *
  0007c	50		 push	 eax
  0007d	8b 4d 0c	 mov	 ecx, DWORD PTR _str1$[ebp]
  00080	e8 00 00 00 00	 call	 ?GetLength@?$CSimpleStringT@_W$0A@@ATL@@QBEHXZ ; ATL::CSimpleStringT<wchar_t,0>::GetLength
  00085	50		 push	 eax
  00086	8b 4d 0c	 mov	 ecx, DWORD PTR _str1$[ebp]
  00089	e8 00 00 00 00	 call	 ??B?$CSimpleStringT@_W$0A@@ATL@@QBEPB_WXZ ; ATL::CSimpleStringT<wchar_t,0>::operator wchar_t const *
  0008e	50		 push	 eax
  0008f	8d 45 e8	 lea	 eax, DWORD PTR _strResult$[ebp]
  00092	50		 push	 eax
  00093	e8 00 00 00 00	 call	 ?Concatenate@?$CSimpleStringT@_W$0A@@ATL@@KAXAAV12@PB_WH1H@Z ; ATL::CSimpleStringT<wchar_t,0>::Concatenate
  00098	83 c4 14	 add	 esp, 20			; 00000014H

; 2393 : 
; 2394 : 		return( strResult );

  0009b	8d 45 e8	 lea	 eax, DWORD PTR _strResult$[ebp]
  0009e	50		 push	 eax
  0009f	8b 4d 08	 mov	 ecx, DWORD PTR ___$ReturnUdt$[ebp]
  000a2	e8 00 00 00 00	 call	 ??0?$CStringT@_WV?$StrTraitMFC@_WV?$ChTraitsCRT@_W@ATL@@@@@ATL@@QAE@ABV01@@Z ; ATL::CStringT<wchar_t,StrTraitMFC<wchar_t,ATL::ChTraitsCRT<wchar_t> > >::CStringT<wchar_t,StrTraitMFC<wchar_t,ATL::ChTraitsCRT<wchar_t> > >
  000a7	8b 85 1c ff ff
	ff		 mov	 eax, DWORD PTR $T2[ebp]
  000ad	83 c8 01	 or	 eax, 1
  000b0	89 85 1c ff ff
	ff		 mov	 DWORD PTR $T2[ebp], eax
  000b6	83 4d fc ff	 or	 DWORD PTR __$EHRec$[ebp+8], -1
  000ba	8d 4d e8	 lea	 ecx, DWORD PTR _strResult$[ebp]
  000bd	e8 00 00 00 00	 call	 ??1?$CStringT@_WV?$StrTraitMFC@_WV?$ChTraitsCRT@_W@ATL@@@@@ATL@@QAE@XZ ; ATL::CStringT<wchar_t,StrTraitMFC<wchar_t,ATL::ChTraitsCRT<wchar_t> > >::~CStringT<wchar_t,StrTraitMFC<wchar_t,ATL::ChTraitsCRT<wchar_t> > >
  000c2	8b 45 08	 mov	 eax, DWORD PTR ___$ReturnUdt$[ebp]

; 2395 : 	}

  000c5	52		 push	 edx
  000c6	8b cd		 mov	 ecx, ebp
  000c8	50		 push	 eax
  000c9	8d 15 00 00 00
	00		 lea	 edx, DWORD PTR $LN9@operator
  000cf	e8 00 00 00 00	 call	 @_RTC_CheckStackVars@8
  000d4	58		 pop	 eax
  000d5	5a		 pop	 edx
  000d6	8b 4d f4	 mov	 ecx, DWORD PTR __$EHRec$[ebp]
  000d9	64 89 0d 00 00
	00 00		 mov	 DWORD PTR fs:0, ecx
  000e0	59		 pop	 ecx
  000e1	5f		 pop	 edi
  000e2	5e		 pop	 esi
  000e3	5b		 pop	 ebx
  000e4	8b 4d f0	 mov	 ecx, DWORD PTR __$ArrayPad$[ebp]
  000e7	33 cd		 xor	 ecx, ebp
  000e9	e8 00 00 00 00	 call	 @__security_check_cookie@4
  000ee	81 c4 e8 00 00
	00		 add	 esp, 232		; 000000e8H
  000f4	3b ec		 cmp	 ebp, esp
  000f6	e8 00 00 00 00	 call	 __RTC_CheckEsp
  000fb	c9		 leave
  000fc	c3		 ret	 0
  000fd	0f 1f 00	 npad	 3
$LN9@operator:
  00100	01 00 00 00	 DD	 1
  00104	00 00 00 00	 DD	 $LN8@operator
$LN8@operator:
  00108	e8 ff ff ff	 DD	 -24			; ffffffe8H
  0010c	04 00 00 00	 DD	 4
  00110	00 00 00 00	 DD	 $LN6@operator
$LN6@operator:
  00114	73		 DB	 115			; 00000073H
  00115	74		 DB	 116			; 00000074H
  00116	72		 DB	 114			; 00000072H
  00117	52		 DB	 82			; 00000052H
  00118	65		 DB	 101			; 00000065H
  00119	73		 DB	 115			; 00000073H
  0011a	75		 DB	 117			; 00000075H
  0011b	6c		 DB	 108			; 0000006cH
  0011c	74		 DB	 116			; 00000074H
  0011d	00		 DB	 0
_TEXT	ENDS
;	COMDAT text$x
text$x	SEGMENT
__unwindfunclet$??HATL@@YA?AV?$CStringT@_WV?$StrTraitMFC@_WV?$ChTraitsCRT@_W@ATL@@@@@0@ABV10@0@Z$0:
  00000	8d 4d e8	 lea	 ecx, DWORD PTR _strResult$[ebp]
  00003	e9 00 00 00 00	 jmp	 ??1?$CStringT@_WV?$StrTraitMFC@_WV?$ChTraitsCRT@_W@ATL@@@@@ATL@@QAE@XZ ; ATL::CStringT<wchar_t,StrTraitMFC<wchar_t,ATL::ChTraitsCRT<wchar_t> > >::~CStringT<wchar_t,StrTraitMFC<wchar_t,ATL::ChTraitsCRT<wchar_t> > >
  00008	cc		 int	 3
  00009	cc		 int	 3
  0000a	cc		 int	 3
  0000b	cc		 int	 3
  0000c	cc		 int	 3
__ehhandler$??HATL@@YA?AV?$CStringT@_WV?$StrTraitMFC@_WV?$ChTraitsCRT@_W@ATL@@@@@0@ABV10@0@Z:
  0000d	90		 npad	 1
  0000e	90		 npad	 1
  0000f	8b 54 24 08	 mov	 edx, DWORD PTR [esp+8]
  00013	8d 42 0c	 lea	 eax, DWORD PTR [edx+12]
  00016	8b 8a 14 ff ff
	ff		 mov	 ecx, DWORD PTR [edx-236]
  0001c	33 c8		 xor	 ecx, eax
  0001e	e8 00 00 00 00	 call	 @__security_check_cookie@4
  00023	8b 4a fc	 mov	 ecx, DWORD PTR [edx-4]
  00026	33 c8		 xor	 ecx, eax
  00028	e8 00 00 00 00	 call	 @__security_check_cookie@4
  0002d	b8 00 00 00 00	 mov	 eax, OFFSET __ehfuncinfo$??HATL@@YA?AV?$CStringT@_WV?$StrTraitMFC@_WV?$ChTraitsCRT@_W@ATL@@@@@0@ABV10@0@Z
  00032	e9 00 00 00 00	 jmp	 ___CxxFrameHandler3
text$x	ENDS
??HATL@@YA?AV?$CStringT@_WV?$StrTraitMFC@_WV?$ChTraitsCRT@_W@ATL@@@@@0@ABV10@0@Z ENDP ; ATL::operator+
; Function compile flags: /Odsp /RTCsu /ZI
; File C:\Program Files\Microsoft Visual Studio\2022\Enterprise\VC\Tools\MSVC\14.34.31933\atlmfc\include\cstringt.h
;	COMDAT ?LoadStringW@?$CStringT@_WV?$StrTraitMFC@_WV?$ChTraitsCRT@_W@ATL@@@@@ATL@@QAEHPAUHINSTANCE__@@I@Z
_TEXT	SEGMENT
_pszBuffer$ = -44					; size = 4
_nLength$ = -32						; size = 4
_pImage$ = -20						; size = 4
_this$ = -8						; size = 4
_hInstance$ = 8						; size = 4
_nID$ = 12						; size = 4
?LoadStringW@?$CStringT@_WV?$StrTraitMFC@_WV?$ChTraitsCRT@_W@ATL@@@@@ATL@@QAEHPAUHINSTANCE__@@I@Z PROC ; ATL::CStringT<wchar_t,StrTraitMFC<wchar_t,ATL::ChTraitsCRT<wchar_t> > >::LoadStringW, COMDAT
; _this$ = ecx

; 2350 : 	{

  00000	55		 push	 ebp
  00001	8b ec		 mov	 ebp, esp
  00003	81 ec f0 00 00
	00		 sub	 esp, 240		; 000000f0H
  00009	53		 push	 ebx
  0000a	56		 push	 esi
  0000b	57		 push	 edi
  0000c	51		 push	 ecx
  0000d	8d 7d d0	 lea	 edi, DWORD PTR [ebp-48]
  00010	6a 0c		 push	 12			; 0000000cH
  00012	59		 pop	 ecx
  00013	b8 cc cc cc cc	 mov	 eax, -858993460		; ccccccccH
  00018	f3 ab		 rep stosd
  0001a	59		 pop	 ecx
  0001b	89 4d f8	 mov	 DWORD PTR _this$[ebp], ecx
  0001e	b9 00 00 00 00	 mov	 ecx, OFFSET __B625A68F_cstringt@h
  00023	e8 00 00 00 00	 call	 @__CheckForDebuggerJustMyCode@4

; 2351 : 		const ATLSTRINGRESOURCEIMAGE* pImage = AtlGetStringResourceImage( hInstance, nID );

  00028	ff 75 0c	 push	 DWORD PTR _nID$[ebp]
  0002b	ff 75 08	 push	 DWORD PTR _hInstance$[ebp]
  0002e	e8 00 00 00 00	 call	 ?AtlGetStringResourceImage@ATL@@YAPBUATLSTRINGRESOURCEIMAGE@1@PAUHINSTANCE__@@I@Z ; ATL::AtlGetStringResourceImage
  00033	59		 pop	 ecx
  00034	59		 pop	 ecx
  00035	89 45 ec	 mov	 DWORD PTR _pImage$[ebp], eax

; 2352 : 		if( pImage == NULL )

  00038	83 7d ec 00	 cmp	 DWORD PTR _pImage$[ebp], 0
  0003c	75 04		 jne	 SHORT $LN2@LoadString

; 2353 : 		{
; 2354 : 			return( FALSE );

  0003e	33 c0		 xor	 eax, eax
  00040	eb 4e		 jmp	 SHORT $LN1@LoadString
$LN2@LoadString:

; 2355 : 		}
; 2356 : 
; 2357 : 		int nLength = StringTraits::GetBaseTypeLength( pImage->achString, pImage->nLength );

  00042	8b 45 ec	 mov	 eax, DWORD PTR _pImage$[ebp]
  00045	0f b7 00	 movzx	 eax, WORD PTR [eax]
  00048	50		 push	 eax
  00049	8b 45 ec	 mov	 eax, DWORD PTR _pImage$[ebp]
  0004c	40		 inc	 eax
  0004d	40		 inc	 eax
  0004e	50		 push	 eax
  0004f	e8 00 00 00 00	 call	 ?GetBaseTypeLength@?$ChTraitsCRT@_W@ATL@@SAHPB_WH@Z ; ATL::ChTraitsCRT<wchar_t>::GetBaseTypeLength
  00054	59		 pop	 ecx
  00055	59		 pop	 ecx
  00056	89 45 e0	 mov	 DWORD PTR _nLength$[ebp], eax

; 2358 : 		PXSTR pszBuffer = this->GetBuffer( nLength );

  00059	ff 75 e0	 push	 DWORD PTR _nLength$[ebp]
  0005c	8b 4d f8	 mov	 ecx, DWORD PTR _this$[ebp]
  0005f	e8 00 00 00 00	 call	 ?GetBuffer@?$CSimpleStringT@_W$0A@@ATL@@QAEPA_WH@Z ; ATL::CSimpleStringT<wchar_t,0>::GetBuffer
  00064	89 45 d4	 mov	 DWORD PTR _pszBuffer$[ebp], eax

; 2359 : 		StringTraits::ConvertToBaseType( pszBuffer, nLength, pImage->achString, pImage->nLength );

  00067	8b 45 ec	 mov	 eax, DWORD PTR _pImage$[ebp]
  0006a	0f b7 00	 movzx	 eax, WORD PTR [eax]
  0006d	50		 push	 eax
  0006e	8b 45 ec	 mov	 eax, DWORD PTR _pImage$[ebp]
  00071	40		 inc	 eax
  00072	40		 inc	 eax
  00073	50		 push	 eax
  00074	ff 75 e0	 push	 DWORD PTR _nLength$[ebp]
  00077	ff 75 d4	 push	 DWORD PTR _pszBuffer$[ebp]
  0007a	e8 00 00 00 00	 call	 ?ConvertToBaseType@?$ChTraitsCRT@_W@ATL@@SAXPA_WHPB_WH@Z ; ATL::ChTraitsCRT<wchar_t>::ConvertToBaseType
  0007f	83 c4 10	 add	 esp, 16			; 00000010H

; 2360 : 		this->ReleaseBufferSetLength( nLength );

  00082	ff 75 e0	 push	 DWORD PTR _nLength$[ebp]
  00085	8b 4d f8	 mov	 ecx, DWORD PTR _this$[ebp]
  00088	e8 00 00 00 00	 call	 ?ReleaseBufferSetLength@?$CSimpleStringT@_W$0A@@ATL@@QAEXH@Z ; ATL::CSimpleStringT<wchar_t,0>::ReleaseBufferSetLength

; 2361 : 
; 2362 : 		return( TRUE );

  0008d	33 c0		 xor	 eax, eax
  0008f	40		 inc	 eax
$LN1@LoadString:

; 2363 : 	}

  00090	5f		 pop	 edi
  00091	5e		 pop	 esi
  00092	5b		 pop	 ebx
  00093	81 c4 f0 00 00
	00		 add	 esp, 240		; 000000f0H
  00099	3b ec		 cmp	 ebp, esp
  0009b	e8 00 00 00 00	 call	 __RTC_CheckEsp
  000a0	c9		 leave
  000a1	c2 08 00	 ret	 8
?LoadStringW@?$CStringT@_WV?$StrTraitMFC@_WV?$ChTraitsCRT@_W@ATL@@@@@ATL@@QAEHPAUHINSTANCE__@@I@Z ENDP ; ATL::CStringT<wchar_t,StrTraitMFC<wchar_t,ATL::ChTraitsCRT<wchar_t> > >::LoadStringW
_TEXT	ENDS
; Function compile flags: /Odsp /RTCsu /ZI
; File C:\Program Files\Microsoft Visual Studio\2022\Enterprise\VC\Tools\MSVC\14.34.31933\atlmfc\include\cstringt.h
;	COMDAT ?LoadStringW@?$CStringT@_WV?$StrTraitMFC@_WV?$ChTraitsCRT@_W@ATL@@@@@ATL@@QAEHI@Z
_TEXT	SEGMENT
_hInstance$ = -20					; size = 4
_this$ = -8						; size = 4
_nID$ = 8						; size = 4
?LoadStringW@?$CStringT@_WV?$StrTraitMFC@_WV?$ChTraitsCRT@_W@ATL@@@@@ATL@@QAEHI@Z PROC ; ATL::CStringT<wchar_t,StrTraitMFC<wchar_t,ATL::ChTraitsCRT<wchar_t> > >::LoadStringW, COMDAT
; _this$ = ecx

; 2336 : 	{

  00000	55		 push	 ebp
  00001	8b ec		 mov	 ebp, esp
  00003	81 ec d8 00 00
	00		 sub	 esp, 216		; 000000d8H
  00009	53		 push	 ebx
  0000a	56		 push	 esi
  0000b	57		 push	 edi
  0000c	51		 push	 ecx
  0000d	8d 7d e8	 lea	 edi, DWORD PTR [ebp-24]
  00010	6a 06		 push	 6
  00012	59		 pop	 ecx
  00013	b8 cc cc cc cc	 mov	 eax, -858993460		; ccccccccH
  00018	f3 ab		 rep stosd
  0001a	59		 pop	 ecx
  0001b	89 4d f8	 mov	 DWORD PTR _this$[ebp], ecx
  0001e	b9 00 00 00 00	 mov	 ecx, OFFSET __B625A68F_cstringt@h
  00023	e8 00 00 00 00	 call	 @__CheckForDebuggerJustMyCode@4

; 2337 : 		HINSTANCE hInstance = StringTraits::FindStringResourceInstance( nID );

  00028	ff 75 08	 push	 DWORD PTR _nID$[ebp]
  0002b	e8 00 00 00 00	 call	 ?FindStringResourceInstance@?$StrTraitMFC@_WV?$ChTraitsCRT@_W@ATL@@@@SAPAUHINSTANCE__@@I@Z ; StrTraitMFC<wchar_t,ATL::ChTraitsCRT<wchar_t> >::FindStringResourceInstance
  00030	59		 pop	 ecx
  00031	89 45 ec	 mov	 DWORD PTR _hInstance$[ebp], eax

; 2338 : 		if( hInstance == NULL )

  00034	83 7d ec 00	 cmp	 DWORD PTR _hInstance$[ebp], 0
  00038	75 04		 jne	 SHORT $LN2@LoadString

; 2339 : 		{
; 2340 : 			return( FALSE );

  0003a	33 c0		 xor	 eax, eax
  0003c	eb 0e		 jmp	 SHORT $LN1@LoadString
$LN2@LoadString:

; 2341 : 		}
; 2342 : 
; 2343 : 		return( LoadString( hInstance, nID ) );

  0003e	ff 75 08	 push	 DWORD PTR _nID$[ebp]
  00041	ff 75 ec	 push	 DWORD PTR _hInstance$[ebp]
  00044	8b 4d f8	 mov	 ecx, DWORD PTR _this$[ebp]
  00047	e8 00 00 00 00	 call	 ?LoadStringW@?$CStringT@_WV?$StrTraitMFC@_WV?$ChTraitsCRT@_W@ATL@@@@@ATL@@QAEHPAUHINSTANCE__@@I@Z ; ATL::CStringT<wchar_t,StrTraitMFC<wchar_t,ATL::ChTraitsCRT<wchar_t> > >::LoadStringW
$LN1@LoadString:

; 2344 : 	}

  0004c	5f		 pop	 edi
  0004d	5e		 pop	 esi
  0004e	5b		 pop	 ebx
  0004f	81 c4 d8 00 00
	00		 add	 esp, 216		; 000000d8H
  00055	3b ec		 cmp	 ebp, esp
  00057	e8 00 00 00 00	 call	 __RTC_CheckEsp
  0005c	c9		 leave
  0005d	c2 04 00	 ret	 4
?LoadStringW@?$CStringT@_WV?$StrTraitMFC@_WV?$ChTraitsCRT@_W@ATL@@@@@ATL@@QAEHI@Z ENDP ; ATL::CStringT<wchar_t,StrTraitMFC<wchar_t,ATL::ChTraitsCRT<wchar_t> > >::LoadStringW
_TEXT	ENDS
; Function compile flags: /Odsp /RTCsu /ZI
; File C:\Program Files\Microsoft Visual Studio\2022\Enterprise\VC\Tools\MSVC\14.34.31933\atlmfc\include\cstringt.h
;	COMDAT ?FormatV@?$CStringT@_WV?$StrTraitMFC@_WV?$ChTraitsCRT@_W@ATL@@@@@ATL@@QAEXPB_WPAD@Z
_TEXT	SEGMENT
_pszBuffer$ = -60					; size = 4
_temp$ = -48						; size = 4
_nLength$ = -36						; size = 4
_this$ = -24						; size = 4
__$ArrayPad$ = -16					; size = 4
__$EHRec$ = -12						; size = 12
_pszFormat$ = 8						; size = 4
_args$ = 12						; size = 4
?FormatV@?$CStringT@_WV?$StrTraitMFC@_WV?$ChTraitsCRT@_W@ATL@@@@@ATL@@QAEXPB_WPAD@Z PROC ; ATL::CStringT<wchar_t,StrTraitMFC<wchar_t,ATL::ChTraitsCRT<wchar_t> > >::FormatV, COMDAT
; _this$ = ecx

; 2221 : 	{

  00000	55		 push	 ebp
  00001	8b ec		 mov	 ebp, esp
  00003	6a ff		 push	 -1
  00005	68 00 00 00 00	 push	 __ehhandler$?FormatV@?$CStringT@_WV?$StrTraitMFC@_WV?$ChTraitsCRT@_W@ATL@@@@@ATL@@QAEXPB_WPAD@Z
  0000a	64 a1 00 00 00
	00		 mov	 eax, DWORD PTR fs:0
  00010	50		 push	 eax
  00011	81 ec f4 00 00
	00		 sub	 esp, 244		; 000000f4H
  00017	53		 push	 ebx
  00018	56		 push	 esi
  00019	57		 push	 edi
  0001a	51		 push	 ecx
  0001b	8d 7d c0	 lea	 edi, DWORD PTR [ebp-64]
  0001e	6a 0d		 push	 13			; 0000000dH
  00020	59		 pop	 ecx
  00021	b8 cc cc cc cc	 mov	 eax, -858993460		; ccccccccH
  00026	f3 ab		 rep stosd
  00028	59		 pop	 ecx
  00029	a1 00 00 00 00	 mov	 eax, DWORD PTR ___security_cookie
  0002e	33 c5		 xor	 eax, ebp
  00030	89 45 f0	 mov	 DWORD PTR __$ArrayPad$[ebp], eax
  00033	50		 push	 eax
  00034	8d 45 f4	 lea	 eax, DWORD PTR __$EHRec$[ebp]
  00037	64 a3 00 00 00
	00		 mov	 DWORD PTR fs:0, eax
  0003d	89 4d e8	 mov	 DWORD PTR _this$[ebp], ecx
  00040	b9 00 00 00 00	 mov	 ecx, OFFSET __B625A68F_cstringt@h
  00045	e8 00 00 00 00	 call	 @__CheckForDebuggerJustMyCode@4

; 2222 : 		ATLASSERT( AtlIsValidString( pszFormat ) );

  0004a	68 ff ff ff 7f	 push	 2147483647		; 7fffffffH
  0004f	ff 75 08	 push	 DWORD PTR _pszFormat$[ebp]
  00052	e8 00 00 00 00	 call	 ?AtlIsValidString@ATL@@YAHPB_WI@Z ; ATL::AtlIsValidString
  00057	59		 pop	 ecx
  00058	59		 pop	 ecx
  00059	85 c0		 test	 eax, eax
  0005b	75 26		 jne	 SHORT $LN5@FormatV
  0005d	68 00 00 00 00	 push	 OFFSET ??_C@_1DM@KPGCKOJB@?$AAA?$AAt?$AAl?$AAI?$AAs?$AAV?$AAa?$AAl?$AAi?$AAd?$AAS?$AAt?$AAr?$AAi?$AAn@
  00062	68 00 00 00 00	 push	 OFFSET ??_C@_17CNPHIMPH@?$AA?$CF?$AAl?$AAs@
  00067	6a 00		 push	 0
  00069	68 ae 08 00 00	 push	 2222			; 000008aeH
  0006e	68 00 00 00 00	 push	 OFFSET ??_C@_1NK@KGCDDCJB@?$AAC?$AA?3?$AA?2?$AAP?$AAr?$AAo?$AAg?$AAr?$AAa?$AAm?$AA?5?$AAF?$AAi?$AAl?$AAe@
  00073	6a 02		 push	 2
  00075	e8 00 00 00 00	 call	 __CrtDbgReportW
  0007a	83 c4 18	 add	 esp, 24			; 00000018H
  0007d	83 f8 01	 cmp	 eax, 1
  00080	75 01		 jne	 SHORT $LN5@FormatV
  00082	cc		 int	 3
$LN5@FormatV:

; 2223 : 		if(pszFormat == NULL)

  00083	83 7d 08 00	 cmp	 DWORD PTR _pszFormat$[ebp], 0
  00087	75 0a		 jne	 SHORT $LN2@FormatV

; 2224 : 			AtlThrow(E_INVALIDARG);

  00089	68 57 00 07 80	 push	 -2147024809		; 80070057H
  0008e	e8 00 00 00 00	 call	 ?AtlThrowImpl@ATL@@YGXJ@Z ; ATL::AtlThrowImpl
$LN2@FormatV:

; 2225 : 
; 2226 : 		int nLength = StringTraits::GetFormattedLength( pszFormat, args );

  00093	ff 75 0c	 push	 DWORD PTR _args$[ebp]
  00096	ff 75 08	 push	 DWORD PTR _pszFormat$[ebp]
  00099	e8 00 00 00 00	 call	 ?GetFormattedLength@?$ChTraitsCRT@_W@ATL@@SAHPB_WPAD@Z ; ATL::ChTraitsCRT<wchar_t>::GetFormattedLength
  0009e	59		 pop	 ecx
  0009f	59		 pop	 ecx
  000a0	89 45 dc	 mov	 DWORD PTR _nLength$[ebp], eax

; 2227 : 
; 2228 : 		if (nLength < 0)

  000a3	83 7d dc 00	 cmp	 DWORD PTR _nLength$[ebp], 0
  000a7	7d 0a		 jge	 SHORT $LN3@FormatV

; 2229 : 			AtlThrow(E_FAIL);

  000a9	68 05 40 00 80	 push	 -2147467259		; 80004005H
  000ae	e8 00 00 00 00	 call	 ?AtlThrowImpl@ATL@@YGXJ@Z ; ATL::AtlThrowImpl
$LN3@FormatV:

; 2230 : 
; 2231 : 		CStringT temp(pszFormat, this->GetManager());

  000b3	6a 04		 push	 4
  000b5	8d 4d d0	 lea	 ecx, DWORD PTR _temp$[ebp]
  000b8	e8 00 00 00 00	 call	 ?__autoclassinit2@?$CStringT@_WV?$StrTraitMFC@_WV?$ChTraitsCRT@_W@ATL@@@@@ATL@@QAEXI@Z
  000bd	8b 4d e8	 mov	 ecx, DWORD PTR _this$[ebp]
  000c0	e8 00 00 00 00	 call	 ?GetManager@?$CStringT@_WV?$StrTraitMFC@_WV?$ChTraitsCRT@_W@ATL@@@@@ATL@@QBEPAUIAtlStringMgr@2@XZ ; ATL::CStringT<wchar_t,StrTraitMFC<wchar_t,ATL::ChTraitsCRT<wchar_t> > >::GetManager
  000c5	50		 push	 eax
  000c6	ff 75 08	 push	 DWORD PTR _pszFormat$[ebp]
  000c9	8d 4d d0	 lea	 ecx, DWORD PTR _temp$[ebp]
  000cc	e8 00 00 00 00	 call	 ??0?$CStringT@_WV?$StrTraitMFC@_WV?$ChTraitsCRT@_W@ATL@@@@@ATL@@QAE@PB_WPAUIAtlStringMgr@1@@Z ; ATL::CStringT<wchar_t,StrTraitMFC<wchar_t,ATL::ChTraitsCRT<wchar_t> > >::CStringT<wchar_t,StrTraitMFC<wchar_t,ATL::ChTraitsCRT<wchar_t> > >
  000d1	83 65 fc 00	 and	 DWORD PTR __$EHRec$[ebp+8], 0

; 2232 : 		PXSTR pszBuffer = this->GetBuffer( nLength );

  000d5	ff 75 dc	 push	 DWORD PTR _nLength$[ebp]
  000d8	8b 4d e8	 mov	 ecx, DWORD PTR _this$[ebp]
  000db	e8 00 00 00 00	 call	 ?GetBuffer@?$CSimpleStringT@_W$0A@@ATL@@QAEPA_WH@Z ; ATL::CSimpleStringT<wchar_t,0>::GetBuffer
  000e0	89 45 c4	 mov	 DWORD PTR _pszBuffer$[ebp], eax

; 2233 : 		StringTraits::Format( pszBuffer, nLength+1, temp, args );

  000e3	ff 75 0c	 push	 DWORD PTR _args$[ebp]
  000e6	8d 4d d0	 lea	 ecx, DWORD PTR _temp$[ebp]
  000e9	e8 00 00 00 00	 call	 ??B?$CSimpleStringT@_W$0A@@ATL@@QBEPB_WXZ ; ATL::CSimpleStringT<wchar_t,0>::operator wchar_t const *
  000ee	50		 push	 eax
  000ef	8b 45 dc	 mov	 eax, DWORD PTR _nLength$[ebp]
  000f2	40		 inc	 eax
  000f3	50		 push	 eax
  000f4	ff 75 c4	 push	 DWORD PTR _pszBuffer$[ebp]
  000f7	e8 00 00 00 00	 call	 ?Format@?$ChTraitsCRT@_W@ATL@@SAHPA_WIPB_WPAD@Z ; ATL::ChTraitsCRT<wchar_t>::Format
  000fc	83 c4 10	 add	 esp, 16			; 00000010H

; 2234 : 		this->ReleaseBufferSetLength( nLength );

  000ff	ff 75 dc	 push	 DWORD PTR _nLength$[ebp]
  00102	8b 4d e8	 mov	 ecx, DWORD PTR _this$[ebp]
  00105	e8 00 00 00 00	 call	 ?ReleaseBufferSetLength@?$CSimpleStringT@_W$0A@@ATL@@QAEXH@Z ; ATL::CSimpleStringT<wchar_t,0>::ReleaseBufferSetLength

; 2235 : 	}

  0010a	83 4d fc ff	 or	 DWORD PTR __$EHRec$[ebp+8], -1
  0010e	8d 4d d0	 lea	 ecx, DWORD PTR _temp$[ebp]
  00111	e8 00 00 00 00	 call	 ??1?$CStringT@_WV?$StrTraitMFC@_WV?$ChTraitsCRT@_W@ATL@@@@@ATL@@QAE@XZ ; ATL::CStringT<wchar_t,StrTraitMFC<wchar_t,ATL::ChTraitsCRT<wchar_t> > >::~CStringT<wchar_t,StrTraitMFC<wchar_t,ATL::ChTraitsCRT<wchar_t> > >
$LN4@FormatV:
  00116	52		 push	 edx
  00117	8b cd		 mov	 ecx, ebp
  00119	50		 push	 eax
  0011a	8d 15 00 00 00
	00		 lea	 edx, DWORD PTR $LN10@FormatV
  00120	e8 00 00 00 00	 call	 @_RTC_CheckStackVars@8
  00125	58		 pop	 eax
  00126	5a		 pop	 edx
  00127	8b 4d f4	 mov	 ecx, DWORD PTR __$EHRec$[ebp]
  0012a	64 89 0d 00 00
	00 00		 mov	 DWORD PTR fs:0, ecx
  00131	59		 pop	 ecx
  00132	5f		 pop	 edi
  00133	5e		 pop	 esi
  00134	5b		 pop	 ebx
  00135	8b 4d f0	 mov	 ecx, DWORD PTR __$ArrayPad$[ebp]
  00138	33 cd		 xor	 ecx, ebp
  0013a	e8 00 00 00 00	 call	 @__security_check_cookie@4
  0013f	81 c4 00 01 00
	00		 add	 esp, 256		; 00000100H
  00145	3b ec		 cmp	 ebp, esp
  00147	e8 00 00 00 00	 call	 __RTC_CheckEsp
  0014c	c9		 leave
  0014d	c2 08 00	 ret	 8
$LN10@FormatV:
  00150	01 00 00 00	 DD	 1
  00154	00 00 00 00	 DD	 $LN9@FormatV
$LN9@FormatV:
  00158	d0 ff ff ff	 DD	 -48			; ffffffd0H
  0015c	04 00 00 00	 DD	 4
  00160	00 00 00 00	 DD	 $LN7@FormatV
$LN7@FormatV:
  00164	74		 DB	 116			; 00000074H
  00165	65		 DB	 101			; 00000065H
  00166	6d		 DB	 109			; 0000006dH
  00167	70		 DB	 112			; 00000070H
  00168	00		 DB	 0
_TEXT	ENDS
;	COMDAT text$x
text$x	SEGMENT
__unwindfunclet$?FormatV@?$CStringT@_WV?$StrTraitMFC@_WV?$ChTraitsCRT@_W@ATL@@@@@ATL@@QAEXPB_WPAD@Z$0:
  00000	8d 4d d0	 lea	 ecx, DWORD PTR _temp$[ebp]
  00003	e9 00 00 00 00	 jmp	 ??1?$CStringT@_WV?$StrTraitMFC@_WV?$ChTraitsCRT@_W@ATL@@@@@ATL@@QAE@XZ ; ATL::CStringT<wchar_t,StrTraitMFC<wchar_t,ATL::ChTraitsCRT<wchar_t> > >::~CStringT<wchar_t,StrTraitMFC<wchar_t,ATL::ChTraitsCRT<wchar_t> > >
  00008	cc		 int	 3
  00009	cc		 int	 3
  0000a	cc		 int	 3
  0000b	cc		 int	 3
  0000c	cc		 int	 3
__ehhandler$?FormatV@?$CStringT@_WV?$StrTraitMFC@_WV?$ChTraitsCRT@_W@ATL@@@@@ATL@@QAEXPB_WPAD@Z:
  0000d	90		 npad	 1
  0000e	90		 npad	 1
  0000f	8b 54 24 08	 mov	 edx, DWORD PTR [esp+8]
  00013	8d 42 0c	 lea	 eax, DWORD PTR [edx+12]
  00016	8b 8a fc fe ff
	ff		 mov	 ecx, DWORD PTR [edx-260]
  0001c	33 c8		 xor	 ecx, eax
  0001e	e8 00 00 00 00	 call	 @__security_check_cookie@4
  00023	8b 4a fc	 mov	 ecx, DWORD PTR [edx-4]
  00026	33 c8		 xor	 ecx, eax
  00028	e8 00 00 00 00	 call	 @__security_check_cookie@4
  0002d	b8 00 00 00 00	 mov	 eax, OFFSET __ehfuncinfo$?FormatV@?$CStringT@_WV?$StrTraitMFC@_WV?$ChTraitsCRT@_W@ATL@@@@@ATL@@QAEXPB_WPAD@Z
  00032	e9 00 00 00 00	 jmp	 ___CxxFrameHandler3
text$x	ENDS
?FormatV@?$CStringT@_WV?$StrTraitMFC@_WV?$ChTraitsCRT@_W@ATL@@@@@ATL@@QAEXPB_WPAD@Z ENDP ; ATL::CStringT<wchar_t,StrTraitMFC<wchar_t,ATL::ChTraitsCRT<wchar_t> > >::FormatV
; Function compile flags: /Odsp /RTCsu /ZI
; File C:\Program Files\Microsoft Visual Studio\2022\Enterprise\VC\Tools\MSVC\14.34.31933\atlmfc\include\cstringt.h
;	COMDAT ?Format@?$CStringT@_WV?$StrTraitMFC@_WV?$ChTraitsCRT@_W@ATL@@@@@ATL@@QAAXPB_WZZ
_TEXT	SEGMENT
_argList$ = -8						; size = 4
_this$ = 8						; size = 4
_pszFormat$ = 12					; size = 4
?Format@?$CStringT@_WV?$StrTraitMFC@_WV?$ChTraitsCRT@_W@ATL@@@@@ATL@@QAAXPB_WZZ PROC ; ATL::CStringT<wchar_t,StrTraitMFC<wchar_t,ATL::ChTraitsCRT<wchar_t> > >::Format, COMDAT

; 2741 : {

  00000	55		 push	 ebp
  00001	8b ec		 mov	 ebp, esp
  00003	81 ec d8 00 00
	00		 sub	 esp, 216		; 000000d8H
  00009	53		 push	 ebx
  0000a	56		 push	 esi
  0000b	57		 push	 edi
  0000c	8d 7d e8	 lea	 edi, DWORD PTR [ebp-24]
  0000f	6a 06		 push	 6
  00011	59		 pop	 ecx
  00012	b8 cc cc cc cc	 mov	 eax, -858993460		; ccccccccH
  00017	f3 ab		 rep stosd
  00019	b9 00 00 00 00	 mov	 ecx, OFFSET __B625A68F_cstringt@h
  0001e	e8 00 00 00 00	 call	 @__CheckForDebuggerJustMyCode@4

; 2742 : 	ATLASSERT( AtlIsValidString( pszFormat ) );

  00023	68 ff ff ff 7f	 push	 2147483647		; 7fffffffH
  00028	ff 75 0c	 push	 DWORD PTR _pszFormat$[ebp]
  0002b	e8 00 00 00 00	 call	 ?AtlIsValidString@ATL@@YAHPB_WI@Z ; ATL::AtlIsValidString
  00030	59		 pop	 ecx
  00031	59		 pop	 ecx
  00032	85 c0		 test	 eax, eax
  00034	75 26		 jne	 SHORT $LN3@Format
  00036	68 00 00 00 00	 push	 OFFSET ??_C@_1DM@KPGCKOJB@?$AAA?$AAt?$AAl?$AAI?$AAs?$AAV?$AAa?$AAl?$AAi?$AAd?$AAS?$AAt?$AAr?$AAi?$AAn@
  0003b	68 00 00 00 00	 push	 OFFSET ??_C@_17CNPHIMPH@?$AA?$CF?$AAl?$AAs@
  00040	6a 00		 push	 0
  00042	68 b6 0a 00 00	 push	 2742			; 00000ab6H
  00047	68 00 00 00 00	 push	 OFFSET ??_C@_1NK@KGCDDCJB@?$AAC?$AA?3?$AA?2?$AAP?$AAr?$AAo?$AAg?$AAr?$AAa?$AAm?$AA?5?$AAF?$AAi?$AAl?$AAe@
  0004c	6a 02		 push	 2
  0004e	e8 00 00 00 00	 call	 __CrtDbgReportW
  00053	83 c4 18	 add	 esp, 24			; 00000018H
  00056	83 f8 01	 cmp	 eax, 1
  00059	75 01		 jne	 SHORT $LN3@Format
  0005b	cc		 int	 3
$LN3@Format:

; 2743 : 
; 2744 : 	va_list argList;
; 2745 : 	va_start( argList, pszFormat );

  0005c	8d 45 10	 lea	 eax, DWORD PTR _pszFormat$[ebp+4]
  0005f	89 45 f8	 mov	 DWORD PTR _argList$[ebp], eax

; 2746 : 	FormatV( pszFormat, argList );

  00062	ff 75 f8	 push	 DWORD PTR _argList$[ebp]
  00065	ff 75 0c	 push	 DWORD PTR _pszFormat$[ebp]
  00068	8b 4d 08	 mov	 ecx, DWORD PTR _this$[ebp]
  0006b	e8 00 00 00 00	 call	 ?FormatV@?$CStringT@_WV?$StrTraitMFC@_WV?$ChTraitsCRT@_W@ATL@@@@@ATL@@QAEXPB_WPAD@Z ; ATL::CStringT<wchar_t,StrTraitMFC<wchar_t,ATL::ChTraitsCRT<wchar_t> > >::FormatV

; 2747 : 	va_end( argList );

  00070	83 65 f8 00	 and	 DWORD PTR _argList$[ebp], 0

; 2748 : }

  00074	5f		 pop	 edi
  00075	5e		 pop	 esi
  00076	5b		 pop	 ebx
  00077	81 c4 d8 00 00
	00		 add	 esp, 216		; 000000d8H
  0007d	3b ec		 cmp	 ebp, esp
  0007f	e8 00 00 00 00	 call	 __RTC_CheckEsp
  00084	c9		 leave
  00085	c3		 ret	 0
?Format@?$CStringT@_WV?$StrTraitMFC@_WV?$ChTraitsCRT@_W@ATL@@@@@ATL@@QAAXPB_WZZ ENDP ; ATL::CStringT<wchar_t,StrTraitMFC<wchar_t,ATL::ChTraitsCRT<wchar_t> > >::Format
_TEXT	ENDS
; Function compile flags: /Odsp /RTCsu /ZI
; File C:\Program Files\Microsoft Visual Studio\2022\Enterprise\VC\Tools\MSVC\14.34.31933\atlmfc\include\cstringt.h
;	COMDAT ?GetManager@?$CStringT@_WV?$StrTraitMFC@_WV?$ChTraitsCRT@_W@ATL@@@@@ATL@@QBEPAUIAtlStringMgr@2@XZ
_TEXT	SEGMENT
_pStringMgr$ = -20					; size = 4
_this$ = -8						; size = 4
?GetManager@?$CStringT@_WV?$StrTraitMFC@_WV?$ChTraitsCRT@_W@ATL@@@@@ATL@@QBEPAUIAtlStringMgr@2@XZ PROC ; ATL::CStringT<wchar_t,StrTraitMFC<wchar_t,ATL::ChTraitsCRT<wchar_t> > >::GetManager, COMDAT
; _this$ = ecx

; 1436 : 	{

  00000	55		 push	 ebp
  00001	8b ec		 mov	 ebp, esp
  00003	81 ec d8 00 00
	00		 sub	 esp, 216		; 000000d8H
  00009	53		 push	 ebx
  0000a	56		 push	 esi
  0000b	57		 push	 edi
  0000c	51		 push	 ecx
  0000d	8d 7d e8	 lea	 edi, DWORD PTR [ebp-24]
  00010	6a 06		 push	 6
  00012	59		 pop	 ecx
  00013	b8 cc cc cc cc	 mov	 eax, -858993460		; ccccccccH
  00018	f3 ab		 rep stosd
  0001a	59		 pop	 ecx
  0001b	89 4d f8	 mov	 DWORD PTR _this$[ebp], ecx
  0001e	b9 00 00 00 00	 mov	 ecx, OFFSET __B625A68F_cstringt@h
  00023	e8 00 00 00 00	 call	 @__CheckForDebuggerJustMyCode@4

; 1437 : 		IAtlStringMgr* pStringMgr = CThisSimpleString::GetManager();

  00028	8b 4d f8	 mov	 ecx, DWORD PTR _this$[ebp]
  0002b	e8 00 00 00 00	 call	 ?GetManager@?$CSimpleStringT@_W$0A@@ATL@@QBEPAUIAtlStringMgr@2@XZ ; ATL::CSimpleStringT<wchar_t,0>::GetManager
  00030	89 45 ec	 mov	 DWORD PTR _pStringMgr$[ebp], eax

; 1438 : 		if(pStringMgr) { return pStringMgr; }

  00033	83 7d ec 00	 cmp	 DWORD PTR _pStringMgr$[ebp], 0
  00037	74 05		 je	 SHORT $LN2@GetManager
  00039	8b 45 ec	 mov	 eax, DWORD PTR _pStringMgr$[ebp]
  0003c	eb 1c		 jmp	 SHORT $LN1@GetManager
$LN2@GetManager:

; 1439 : 
; 1440 : 		pStringMgr = StringTraits::GetDefaultManager();

  0003e	e8 00 00 00 00	 call	 ?GetDefaultManager@?$StrTraitMFC@_WV?$ChTraitsCRT@_W@ATL@@@@SAPAUIAtlStringMgr@ATL@@XZ ; StrTraitMFC<wchar_t,ATL::ChTraitsCRT<wchar_t> >::GetDefaultManager
  00043	89 45 ec	 mov	 DWORD PTR _pStringMgr$[ebp], eax

; 1441 : 		return pStringMgr->Clone();

  00046	8b 45 ec	 mov	 eax, DWORD PTR _pStringMgr$[ebp]
  00049	8b 00		 mov	 eax, DWORD PTR [eax]
  0004b	8b f4		 mov	 esi, esp
  0004d	8b 4d ec	 mov	 ecx, DWORD PTR _pStringMgr$[ebp]
  00050	ff 50 10	 call	 DWORD PTR [eax+16]
  00053	3b f4		 cmp	 esi, esp
  00055	e8 00 00 00 00	 call	 __RTC_CheckEsp
$LN1@GetManager:

; 1442 : 	}

  0005a	5f		 pop	 edi
  0005b	5e		 pop	 esi
  0005c	5b		 pop	 ebx
  0005d	81 c4 d8 00 00
	00		 add	 esp, 216		; 000000d8H
  00063	3b ec		 cmp	 ebp, esp
  00065	e8 00 00 00 00	 call	 __RTC_CheckEsp
  0006a	c9		 leave
  0006b	c3		 ret	 0
?GetManager@?$CStringT@_WV?$StrTraitMFC@_WV?$ChTraitsCRT@_W@ATL@@@@@ATL@@QBEPAUIAtlStringMgr@2@XZ ENDP ; ATL::CStringT<wchar_t,StrTraitMFC<wchar_t,ATL::ChTraitsCRT<wchar_t> > >::GetManager
_TEXT	ENDS
; Function compile flags: /Odsp /RTCsu /ZI
; File C:\Program Files\Microsoft Visual Studio\2022\Enterprise\VC\Tools\MSVC\14.34.31933\atlmfc\include\cstringt.h
;	COMDAT ??Y?$CStringT@_WV?$StrTraitMFC@_WV?$ChTraitsCRT@_W@ATL@@@@@ATL@@QAEAAV01@PBD@Z
_TEXT	SEGMENT
$T2 = -240						; size = 4
_str$ = -36						; size = 4
_this$ = -24						; size = 4
__$ArrayPad$ = -16					; size = 4
__$EHRec$ = -12						; size = 12
_pszSrc$ = 8						; size = 4
??Y?$CStringT@_WV?$StrTraitMFC@_WV?$ChTraitsCRT@_W@ATL@@@@@ATL@@QAEAAV01@PBD@Z PROC ; ATL::CStringT<wchar_t,StrTraitMFC<wchar_t,ATL::ChTraitsCRT<wchar_t> > >::operator+=, COMDAT
; _this$ = ecx

; 1398 : 	{

  00000	55		 push	 ebp
  00001	8b ec		 mov	 ebp, esp
  00003	6a ff		 push	 -1
  00005	68 00 00 00 00	 push	 __ehhandler$??Y?$CStringT@_WV?$StrTraitMFC@_WV?$ChTraitsCRT@_W@ATL@@@@@ATL@@QAEAAV01@PBD@Z
  0000a	64 a1 00 00 00
	00		 mov	 eax, DWORD PTR fs:0
  00010	50		 push	 eax
  00011	81 ec e8 00 00
	00		 sub	 esp, 232		; 000000e8H
  00017	53		 push	 ebx
  00018	56		 push	 esi
  00019	57		 push	 edi
  0001a	51		 push	 ecx
  0001b	8d 7d cc	 lea	 edi, DWORD PTR [ebp-52]
  0001e	6a 0a		 push	 10			; 0000000aH
  00020	59		 pop	 ecx
  00021	b8 cc cc cc cc	 mov	 eax, -858993460		; ccccccccH
  00026	f3 ab		 rep stosd
  00028	59		 pop	 ecx
  00029	a1 00 00 00 00	 mov	 eax, DWORD PTR ___security_cookie
  0002e	33 c5		 xor	 eax, ebp
  00030	89 45 f0	 mov	 DWORD PTR __$ArrayPad$[ebp], eax
  00033	50		 push	 eax
  00034	8d 45 f4	 lea	 eax, DWORD PTR __$EHRec$[ebp]
  00037	64 a3 00 00 00
	00		 mov	 DWORD PTR fs:0, eax
  0003d	89 4d e8	 mov	 DWORD PTR _this$[ebp], ecx
  00040	b9 00 00 00 00	 mov	 ecx, OFFSET __B625A68F_cstringt@h
  00045	e8 00 00 00 00	 call	 @__CheckForDebuggerJustMyCode@4

; 1399 : 		CStringT str( pszSrc, GetManager() );

  0004a	6a 04		 push	 4
  0004c	8d 4d dc	 lea	 ecx, DWORD PTR _str$[ebp]
  0004f	e8 00 00 00 00	 call	 ?__autoclassinit2@?$CStringT@_WV?$StrTraitMFC@_WV?$ChTraitsCRT@_W@ATL@@@@@ATL@@QAEXI@Z
  00054	8b 4d e8	 mov	 ecx, DWORD PTR _this$[ebp]
  00057	e8 00 00 00 00	 call	 ?GetManager@?$CStringT@_WV?$StrTraitMFC@_WV?$ChTraitsCRT@_W@ATL@@@@@ATL@@QBEPAUIAtlStringMgr@2@XZ ; ATL::CStringT<wchar_t,StrTraitMFC<wchar_t,ATL::ChTraitsCRT<wchar_t> > >::GetManager
  0005c	50		 push	 eax
  0005d	ff 75 08	 push	 DWORD PTR _pszSrc$[ebp]
  00060	8d 4d dc	 lea	 ecx, DWORD PTR _str$[ebp]
  00063	e8 00 00 00 00	 call	 ??0?$CStringT@_WV?$StrTraitMFC@_WV?$ChTraitsCRT@_W@ATL@@@@@ATL@@QAE@PBDPAUIAtlStringMgr@1@@Z ; ATL::CStringT<wchar_t,StrTraitMFC<wchar_t,ATL::ChTraitsCRT<wchar_t> > >::CStringT<wchar_t,StrTraitMFC<wchar_t,ATL::ChTraitsCRT<wchar_t> > >
  00068	83 65 fc 00	 and	 DWORD PTR __$EHRec$[ebp+8], 0

; 1400 : 
; 1401 : 		return( operator+=( str ) );

  0006c	8d 45 dc	 lea	 eax, DWORD PTR _str$[ebp]
  0006f	50		 push	 eax
  00070	8b 4d e8	 mov	 ecx, DWORD PTR _this$[ebp]
  00073	e8 00 00 00 00	 call	 ??Y?$CStringT@_WV?$StrTraitMFC@_WV?$ChTraitsCRT@_W@ATL@@@@@ATL@@QAEAAV01@ABV?$CSimpleStringT@_W$0A@@1@@Z ; ATL::CStringT<wchar_t,StrTraitMFC<wchar_t,ATL::ChTraitsCRT<wchar_t> > >::operator+=
  00078	89 85 10 ff ff
	ff		 mov	 DWORD PTR $T2[ebp], eax
  0007e	83 4d fc ff	 or	 DWORD PTR __$EHRec$[ebp+8], -1
  00082	8d 4d dc	 lea	 ecx, DWORD PTR _str$[ebp]
  00085	e8 00 00 00 00	 call	 ??1?$CStringT@_WV?$StrTraitMFC@_WV?$ChTraitsCRT@_W@ATL@@@@@ATL@@QAE@XZ ; ATL::CStringT<wchar_t,StrTraitMFC<wchar_t,ATL::ChTraitsCRT<wchar_t> > >::~CStringT<wchar_t,StrTraitMFC<wchar_t,ATL::ChTraitsCRT<wchar_t> > >
  0008a	8b 85 10 ff ff
	ff		 mov	 eax, DWORD PTR $T2[ebp]

; 1402 : 	}

  00090	52		 push	 edx
  00091	8b cd		 mov	 ecx, ebp
  00093	50		 push	 eax
  00094	8d 15 00 00 00
	00		 lea	 edx, DWORD PTR $LN7@operator
  0009a	e8 00 00 00 00	 call	 @_RTC_CheckStackVars@8
  0009f	58		 pop	 eax
  000a0	5a		 pop	 edx
  000a1	8b 4d f4	 mov	 ecx, DWORD PTR __$EHRec$[ebp]
  000a4	64 89 0d 00 00
	00 00		 mov	 DWORD PTR fs:0, ecx
  000ab	59		 pop	 ecx
  000ac	5f		 pop	 edi
  000ad	5e		 pop	 esi
  000ae	5b		 pop	 ebx
  000af	8b 4d f0	 mov	 ecx, DWORD PTR __$ArrayPad$[ebp]
  000b2	33 cd		 xor	 ecx, ebp
  000b4	e8 00 00 00 00	 call	 @__security_check_cookie@4
  000b9	81 c4 f4 00 00
	00		 add	 esp, 244		; 000000f4H
  000bf	3b ec		 cmp	 ebp, esp
  000c1	e8 00 00 00 00	 call	 __RTC_CheckEsp
  000c6	c9		 leave
  000c7	c2 04 00	 ret	 4
  000ca	66 90		 npad	 2
$LN7@operator:
  000cc	01 00 00 00	 DD	 1
  000d0	00 00 00 00	 DD	 $LN6@operator
$LN6@operator:
  000d4	dc ff ff ff	 DD	 -36			; ffffffdcH
  000d8	04 00 00 00	 DD	 4
  000dc	00 00 00 00	 DD	 $LN4@operator
$LN4@operator:
  000e0	73		 DB	 115			; 00000073H
  000e1	74		 DB	 116			; 00000074H
  000e2	72		 DB	 114			; 00000072H
  000e3	00		 DB	 0
_TEXT	ENDS
;	COMDAT text$x
text$x	SEGMENT
__unwindfunclet$??Y?$CStringT@_WV?$StrTraitMFC@_WV?$ChTraitsCRT@_W@ATL@@@@@ATL@@QAEAAV01@PBD@Z$0:
  00000	8d 4d dc	 lea	 ecx, DWORD PTR _str$[ebp]
  00003	e9 00 00 00 00	 jmp	 ??1?$CStringT@_WV?$StrTraitMFC@_WV?$ChTraitsCRT@_W@ATL@@@@@ATL@@QAE@XZ ; ATL::CStringT<wchar_t,StrTraitMFC<wchar_t,ATL::ChTraitsCRT<wchar_t> > >::~CStringT<wchar_t,StrTraitMFC<wchar_t,ATL::ChTraitsCRT<wchar_t> > >
  00008	cc		 int	 3
  00009	cc		 int	 3
  0000a	cc		 int	 3
  0000b	cc		 int	 3
  0000c	cc		 int	 3
__ehhandler$??Y?$CStringT@_WV?$StrTraitMFC@_WV?$ChTraitsCRT@_W@ATL@@@@@ATL@@QAEAAV01@PBD@Z:
  0000d	90		 npad	 1
  0000e	90		 npad	 1
  0000f	8b 54 24 08	 mov	 edx, DWORD PTR [esp+8]
  00013	8d 42 0c	 lea	 eax, DWORD PTR [edx+12]
  00016	8b 8a 08 ff ff
	ff		 mov	 ecx, DWORD PTR [edx-248]
  0001c	33 c8		 xor	 ecx, eax
  0001e	e8 00 00 00 00	 call	 @__security_check_cookie@4
  00023	8b 4a fc	 mov	 ecx, DWORD PTR [edx-4]
  00026	33 c8		 xor	 ecx, eax
  00028	e8 00 00 00 00	 call	 @__security_check_cookie@4
  0002d	b8 00 00 00 00	 mov	 eax, OFFSET __ehfuncinfo$??Y?$CStringT@_WV?$StrTraitMFC@_WV?$ChTraitsCRT@_W@ATL@@@@@ATL@@QAEAAV01@PBD@Z
  00032	e9 00 00 00 00	 jmp	 ___CxxFrameHandler3
text$x	ENDS
??Y?$CStringT@_WV?$StrTraitMFC@_WV?$ChTraitsCRT@_W@ATL@@@@@ATL@@QAEAAV01@PBD@Z ENDP ; ATL::CStringT<wchar_t,StrTraitMFC<wchar_t,ATL::ChTraitsCRT<wchar_t> > >::operator+=
; Function compile flags: /Odsp /RTCsu /ZI
; File C:\Program Files\Microsoft Visual Studio\2022\Enterprise\VC\Tools\MSVC\14.34.31933\atlmfc\include\cstringt.h
;	COMDAT ??Y?$CStringT@_WV?$StrTraitMFC@_WV?$ChTraitsCRT@_W@ATL@@@@@ATL@@QAEAAV01@ABV?$CSimpleStringT@_W$0A@@1@@Z
_TEXT	SEGMENT
_this$ = -8						; size = 4
_str$ = 8						; size = 4
??Y?$CStringT@_WV?$StrTraitMFC@_WV?$ChTraitsCRT@_W@ATL@@@@@ATL@@QAEAAV01@ABV?$CSimpleStringT@_W$0A@@1@@Z PROC ; ATL::CStringT<wchar_t,StrTraitMFC<wchar_t,ATL::ChTraitsCRT<wchar_t> > >::operator+=, COMDAT
; _this$ = ecx

; 1369 : 	{

  00000	55		 push	 ebp
  00001	8b ec		 mov	 ebp, esp
  00003	81 ec cc 00 00
	00		 sub	 esp, 204		; 000000ccH
  00009	53		 push	 ebx
  0000a	56		 push	 esi
  0000b	57		 push	 edi
  0000c	51		 push	 ecx
  0000d	8d 7d f4	 lea	 edi, DWORD PTR [ebp-12]
  00010	6a 03		 push	 3
  00012	59		 pop	 ecx
  00013	b8 cc cc cc cc	 mov	 eax, -858993460		; ccccccccH
  00018	f3 ab		 rep stosd
  0001a	59		 pop	 ecx
  0001b	89 4d f8	 mov	 DWORD PTR _this$[ebp], ecx
  0001e	b9 00 00 00 00	 mov	 ecx, OFFSET __B625A68F_cstringt@h
  00023	e8 00 00 00 00	 call	 @__CheckForDebuggerJustMyCode@4

; 1370 : 		CThisSimpleString::operator+=( str );

  00028	ff 75 08	 push	 DWORD PTR _str$[ebp]
  0002b	8b 4d f8	 mov	 ecx, DWORD PTR _this$[ebp]
  0002e	e8 00 00 00 00	 call	 ??Y?$CSimpleStringT@_W$0A@@ATL@@QAEAAV01@ABV01@@Z ; ATL::CSimpleStringT<wchar_t,0>::operator+=

; 1371 : 
; 1372 : 		return( *this );

  00033	8b 45 f8	 mov	 eax, DWORD PTR _this$[ebp]

; 1373 : 	}

  00036	5f		 pop	 edi
  00037	5e		 pop	 esi
  00038	5b		 pop	 ebx
  00039	81 c4 cc 00 00
	00		 add	 esp, 204		; 000000ccH
  0003f	3b ec		 cmp	 ebp, esp
  00041	e8 00 00 00 00	 call	 __RTC_CheckEsp
  00046	c9		 leave
  00047	c2 04 00	 ret	 4
??Y?$CStringT@_WV?$StrTraitMFC@_WV?$ChTraitsCRT@_W@ATL@@@@@ATL@@QAEAAV01@ABV?$CSimpleStringT@_W$0A@@1@@Z ENDP ; ATL::CStringT<wchar_t,StrTraitMFC<wchar_t,ATL::ChTraitsCRT<wchar_t> > >::operator+=
_TEXT	ENDS
; Function compile flags: /Odsp /RTCsu /ZI
; File C:\Program Files\Microsoft Visual Studio\2022\Enterprise\VC\Tools\MSVC\14.34.31933\atlmfc\include\cstringt.h
;	COMDAT ??4?$CStringT@_WV?$StrTraitMFC@_WV?$ChTraitsCRT@_W@ATL@@@@@ATL@@QAEAAV01@PBD@Z
_TEXT	SEGMENT
tv67 = -232						; size = 4
_pszBuffer$1 = -32					; size = 4
_nDestLength$ = -20					; size = 4
_this$ = -8						; size = 4
_pszSrc$ = 8						; size = 4
??4?$CStringT@_WV?$StrTraitMFC@_WV?$ChTraitsCRT@_W@ATL@@@@@ATL@@QAEAAV01@PBD@Z PROC ; ATL::CStringT<wchar_t,StrTraitMFC<wchar_t,ATL::ChTraitsCRT<wchar_t> > >::operator=, COMDAT
; _this$ = ecx

; 1326 : 	{

  00000	55		 push	 ebp
  00001	8b ec		 mov	 ebp, esp
  00003	81 ec e8 00 00
	00		 sub	 esp, 232		; 000000e8H
  00009	53		 push	 ebx
  0000a	56		 push	 esi
  0000b	57		 push	 edi
  0000c	51		 push	 ecx
  0000d	8d 7d d8	 lea	 edi, DWORD PTR [ebp-40]
  00010	6a 0a		 push	 10			; 0000000aH
  00012	59		 pop	 ecx
  00013	b8 cc cc cc cc	 mov	 eax, -858993460		; ccccccccH
  00018	f3 ab		 rep stosd
  0001a	59		 pop	 ecx
  0001b	89 4d f8	 mov	 DWORD PTR _this$[ebp], ecx
  0001e	b9 00 00 00 00	 mov	 ecx, OFFSET __B625A68F_cstringt@h
  00023	e8 00 00 00 00	 call	 @__CheckForDebuggerJustMyCode@4

; 1327 : 		// nDestLength is in XCHARs
; 1328 : 		int nDestLength = (pszSrc != NULL) ? StringTraits::GetBaseTypeLength( pszSrc ) : 0;

  00028	83 7d 08 00	 cmp	 DWORD PTR _pszSrc$[ebp], 0
  0002c	74 11		 je	 SHORT $LN5@operator
  0002e	ff 75 08	 push	 DWORD PTR _pszSrc$[ebp]
  00031	e8 00 00 00 00	 call	 ?GetBaseTypeLength@?$ChTraitsCRT@_W@ATL@@SAHPBD@Z ; ATL::ChTraitsCRT<wchar_t>::GetBaseTypeLength
  00036	59		 pop	 ecx
  00037	89 85 18 ff ff
	ff		 mov	 DWORD PTR tv67[ebp], eax
  0003d	eb 07		 jmp	 SHORT $LN6@operator
$LN5@operator:
  0003f	83 a5 18 ff ff
	ff 00		 and	 DWORD PTR tv67[ebp], 0
$LN6@operator:
  00046	8b 85 18 ff ff
	ff		 mov	 eax, DWORD PTR tv67[ebp]
  0004c	89 45 ec	 mov	 DWORD PTR _nDestLength$[ebp], eax

; 1329 : 		if( nDestLength > 0 )

  0004f	83 7d ec 00	 cmp	 DWORD PTR _nDestLength$[ebp], 0
  00053	7e 2e		 jle	 SHORT $LN2@operator

; 1330 : 		{
; 1331 : 			PXSTR pszBuffer = this->GetBuffer( nDestLength );

  00055	ff 75 ec	 push	 DWORD PTR _nDestLength$[ebp]
  00058	8b 4d f8	 mov	 ecx, DWORD PTR _this$[ebp]
  0005b	e8 00 00 00 00	 call	 ?GetBuffer@?$CSimpleStringT@_W$0A@@ATL@@QAEPA_WH@Z ; ATL::CSimpleStringT<wchar_t,0>::GetBuffer
  00060	89 45 e0	 mov	 DWORD PTR _pszBuffer$1[ebp], eax

; 1332 : 			StringTraits::ConvertToBaseType( pszBuffer, nDestLength, pszSrc);

  00063	6a ff		 push	 -1
  00065	ff 75 08	 push	 DWORD PTR _pszSrc$[ebp]
  00068	ff 75 ec	 push	 DWORD PTR _nDestLength$[ebp]
  0006b	ff 75 e0	 push	 DWORD PTR _pszBuffer$1[ebp]
  0006e	e8 00 00 00 00	 call	 ?ConvertToBaseType@?$ChTraitsCRT@_W@ATL@@SAXPA_WHPBDH@Z ; ATL::ChTraitsCRT<wchar_t>::ConvertToBaseType
  00073	83 c4 10	 add	 esp, 16			; 00000010H

; 1333 : 			this->ReleaseBufferSetLength( nDestLength );

  00076	ff 75 ec	 push	 DWORD PTR _nDestLength$[ebp]
  00079	8b 4d f8	 mov	 ecx, DWORD PTR _this$[ebp]
  0007c	e8 00 00 00 00	 call	 ?ReleaseBufferSetLength@?$CSimpleStringT@_W$0A@@ATL@@QAEXH@Z ; ATL::CSimpleStringT<wchar_t,0>::ReleaseBufferSetLength

; 1334 : 		}

  00081	eb 08		 jmp	 SHORT $LN3@operator
$LN2@operator:

; 1335 : 		else
; 1336 : 		{
; 1337 : 			this->Empty();

  00083	8b 4d f8	 mov	 ecx, DWORD PTR _this$[ebp]
  00086	e8 00 00 00 00	 call	 ?Empty@?$CSimpleStringT@_W$0A@@ATL@@QAEXXZ ; ATL::CSimpleStringT<wchar_t,0>::Empty
$LN3@operator:

; 1338 : 		}
; 1339 : 
; 1340 : 		return( *this );

  0008b	8b 45 f8	 mov	 eax, DWORD PTR _this$[ebp]

; 1341 : 	}

  0008e	5f		 pop	 edi
  0008f	5e		 pop	 esi
  00090	5b		 pop	 ebx
  00091	81 c4 e8 00 00
	00		 add	 esp, 232		; 000000e8H
  00097	3b ec		 cmp	 ebp, esp
  00099	e8 00 00 00 00	 call	 __RTC_CheckEsp
  0009e	c9		 leave
  0009f	c2 04 00	 ret	 4
??4?$CStringT@_WV?$StrTraitMFC@_WV?$ChTraitsCRT@_W@ATL@@@@@ATL@@QAEAAV01@PBD@Z ENDP ; ATL::CStringT<wchar_t,StrTraitMFC<wchar_t,ATL::ChTraitsCRT<wchar_t> > >::operator=
_TEXT	ENDS
; Function compile flags: /Odsp /RTCsu /ZI
; File C:\Program Files\Microsoft Visual Studio\2022\Enterprise\VC\Tools\MSVC\14.34.31933\atlmfc\include\cstringt.h
;	COMDAT ??4?$CStringT@_WV?$StrTraitMFC@_WV?$ChTraitsCRT@_W@ATL@@@@@ATL@@QAEAAV01@PB_W@Z
_TEXT	SEGMENT
_this$ = -8						; size = 4
_pszSrc$ = 8						; size = 4
??4?$CStringT@_WV?$StrTraitMFC@_WV?$ChTraitsCRT@_W@ATL@@@@@ATL@@QAEAAV01@PB_W@Z PROC ; ATL::CStringT<wchar_t,StrTraitMFC<wchar_t,ATL::ChTraitsCRT<wchar_t> > >::operator=, COMDAT
; _this$ = ecx

; 1318 : 	{

  00000	55		 push	 ebp
  00001	8b ec		 mov	 ebp, esp
  00003	81 ec cc 00 00
	00		 sub	 esp, 204		; 000000ccH
  00009	53		 push	 ebx
  0000a	56		 push	 esi
  0000b	57		 push	 edi
  0000c	51		 push	 ecx
  0000d	8d 7d f4	 lea	 edi, DWORD PTR [ebp-12]
  00010	6a 03		 push	 3
  00012	59		 pop	 ecx
  00013	b8 cc cc cc cc	 mov	 eax, -858993460		; ccccccccH
  00018	f3 ab		 rep stosd
  0001a	59		 pop	 ecx
  0001b	89 4d f8	 mov	 DWORD PTR _this$[ebp], ecx
  0001e	b9 00 00 00 00	 mov	 ecx, OFFSET __B625A68F_cstringt@h
  00023	e8 00 00 00 00	 call	 @__CheckForDebuggerJustMyCode@4

; 1319 : 		CThisSimpleString::operator=( pszSrc );

  00028	ff 75 08	 push	 DWORD PTR _pszSrc$[ebp]
  0002b	8b 4d f8	 mov	 ecx, DWORD PTR _this$[ebp]
  0002e	e8 00 00 00 00	 call	 ??4?$CSimpleStringT@_W$0A@@ATL@@QAEAAV01@PB_W@Z ; ATL::CSimpleStringT<wchar_t,0>::operator=

; 1320 : 
; 1321 : 		return( *this );

  00033	8b 45 f8	 mov	 eax, DWORD PTR _this$[ebp]

; 1322 : 	}

  00036	5f		 pop	 edi
  00037	5e		 pop	 esi
  00038	5b		 pop	 ebx
  00039	81 c4 cc 00 00
	00		 add	 esp, 204		; 000000ccH
  0003f	3b ec		 cmp	 ebp, esp
  00041	e8 00 00 00 00	 call	 __RTC_CheckEsp
  00046	c9		 leave
  00047	c2 04 00	 ret	 4
??4?$CStringT@_WV?$StrTraitMFC@_WV?$ChTraitsCRT@_W@ATL@@@@@ATL@@QAEAAV01@PB_W@Z ENDP ; ATL::CStringT<wchar_t,StrTraitMFC<wchar_t,ATL::ChTraitsCRT<wchar_t> > >::operator=
_TEXT	ENDS
; Function compile flags: /Odsp /RTCsu /ZI
; File C:\Program Files\Microsoft Visual Studio\2022\Enterprise\VC\Tools\MSVC\14.34.31933\atlmfc\include\cstringt.h
;	COMDAT ??1?$CStringT@_WV?$StrTraitMFC@_WV?$ChTraitsCRT@_W@ATL@@@@@ATL@@QAE@XZ
_TEXT	SEGMENT
_this$ = -8						; size = 4
??1?$CStringT@_WV?$StrTraitMFC@_WV?$ChTraitsCRT@_W@ATL@@@@@ATL@@QAE@XZ PROC ; ATL::CStringT<wchar_t,StrTraitMFC<wchar_t,ATL::ChTraitsCRT<wchar_t> > >::~CStringT<wchar_t,StrTraitMFC<wchar_t,ATL::ChTraitsCRT<wchar_t> > >, COMDAT
; _this$ = ecx

; 1298 : 	{

  00000	55		 push	 ebp
  00001	8b ec		 mov	 ebp, esp
  00003	81 ec cc 00 00
	00		 sub	 esp, 204		; 000000ccH
  00009	53		 push	 ebx
  0000a	56		 push	 esi
  0000b	57		 push	 edi
  0000c	51		 push	 ecx
  0000d	8d 7d f4	 lea	 edi, DWORD PTR [ebp-12]
  00010	6a 03		 push	 3
  00012	59		 pop	 ecx
  00013	b8 cc cc cc cc	 mov	 eax, -858993460		; ccccccccH
  00018	f3 ab		 rep stosd
  0001a	59		 pop	 ecx
  0001b	89 4d f8	 mov	 DWORD PTR _this$[ebp], ecx
  0001e	b9 00 00 00 00	 mov	 ecx, OFFSET __B625A68F_cstringt@h
  00023	e8 00 00 00 00	 call	 @__CheckForDebuggerJustMyCode@4

; 1299 : 	}

  00028	8b 4d f8	 mov	 ecx, DWORD PTR _this$[ebp]
  0002b	e8 00 00 00 00	 call	 ??1?$CSimpleStringT@_W$0A@@ATL@@QAE@XZ ; ATL::CSimpleStringT<wchar_t,0>::~CSimpleStringT<wchar_t,0>
  00030	5f		 pop	 edi
  00031	5e		 pop	 esi
  00032	5b		 pop	 ebx
  00033	81 c4 cc 00 00
	00		 add	 esp, 204		; 000000ccH
  00039	3b ec		 cmp	 ebp, esp
  0003b	e8 00 00 00 00	 call	 __RTC_CheckEsp
  00040	c9		 leave
  00041	c3		 ret	 0
??1?$CStringT@_WV?$StrTraitMFC@_WV?$ChTraitsCRT@_W@ATL@@@@@ATL@@QAE@XZ ENDP ; ATL::CStringT<wchar_t,StrTraitMFC<wchar_t,ATL::ChTraitsCRT<wchar_t> > >::~CStringT<wchar_t,StrTraitMFC<wchar_t,ATL::ChTraitsCRT<wchar_t> > >
_TEXT	ENDS
; Function compile flags: /Odsp /RTCsu /ZI
; File C:\Program Files\Microsoft Visual Studio\2022\Enterprise\VC\Tools\MSVC\14.34.31933\atlmfc\include\cstringt.h
;	COMDAT ??0?$CStringT@_WV?$StrTraitMFC@_WV?$ChTraitsCRT@_W@ATL@@@@@ATL@@QAE@PBDPAUIAtlStringMgr@1@@Z
_TEXT	SEGMENT
_this$ = -20						; size = 4
__$EHRec$ = -12						; size = 12
_pszSrc$ = 8						; size = 4
_pStringMgr$ = 12					; size = 4
??0?$CStringT@_WV?$StrTraitMFC@_WV?$ChTraitsCRT@_W@ATL@@@@@ATL@@QAE@PBDPAUIAtlStringMgr@1@@Z PROC ; ATL::CStringT<wchar_t,StrTraitMFC<wchar_t,ATL::ChTraitsCRT<wchar_t> > >::CStringT<wchar_t,StrTraitMFC<wchar_t,ATL::ChTraitsCRT<wchar_t> > >, COMDAT
; _this$ = ecx

; 1081 : 	{

  00000	55		 push	 ebp
  00001	8b ec		 mov	 ebp, esp
  00003	6a ff		 push	 -1
  00005	68 00 00 00 00	 push	 __ehhandler$??0?$CStringT@_WV?$StrTraitMFC@_WV?$ChTraitsCRT@_W@ATL@@@@@ATL@@QAE@PBDPAUIAtlStringMgr@1@@Z
  0000a	64 a1 00 00 00
	00		 mov	 eax, DWORD PTR fs:0
  00010	50		 push	 eax
  00011	81 ec cc 00 00
	00		 sub	 esp, 204		; 000000ccH
  00017	53		 push	 ebx
  00018	56		 push	 esi
  00019	57		 push	 edi
  0001a	51		 push	 ecx
  0001b	8d 7d e8	 lea	 edi, DWORD PTR [ebp-24]
  0001e	6a 03		 push	 3
  00020	59		 pop	 ecx
  00021	b8 cc cc cc cc	 mov	 eax, -858993460		; ccccccccH
  00026	f3 ab		 rep stosd
  00028	59		 pop	 ecx
  00029	a1 00 00 00 00	 mov	 eax, DWORD PTR ___security_cookie
  0002e	33 c5		 xor	 eax, ebp
  00030	50		 push	 eax
  00031	8d 45 f4	 lea	 eax, DWORD PTR __$EHRec$[ebp]
  00034	64 a3 00 00 00
	00		 mov	 DWORD PTR fs:0, eax
  0003a	89 4d ec	 mov	 DWORD PTR _this$[ebp], ecx
  0003d	b9 00 00 00 00	 mov	 ecx, OFFSET __B625A68F_cstringt@h
  00042	e8 00 00 00 00	 call	 @__CheckForDebuggerJustMyCode@4

; 1080 : 		CThisSimpleString( pStringMgr )

  00047	ff 75 0c	 push	 DWORD PTR _pStringMgr$[ebp]
  0004a	8b 4d ec	 mov	 ecx, DWORD PTR _this$[ebp]
  0004d	e8 00 00 00 00	 call	 ??0?$CSimpleStringT@_W$0A@@ATL@@QAE@PAUIAtlStringMgr@1@@Z ; ATL::CSimpleStringT<wchar_t,0>::CSimpleStringT<wchar_t,0>
  00052	83 65 fc 00	 and	 DWORD PTR __$EHRec$[ebp+8], 0

; 1082 : 		if( !CheckImplicitLoad( pszSrc ) )

  00056	ff 75 08	 push	 DWORD PTR _pszSrc$[ebp]
  00059	8b 4d ec	 mov	 ecx, DWORD PTR _this$[ebp]
  0005c	e8 00 00 00 00	 call	 ?CheckImplicitLoad@?$CStringT@_WV?$StrTraitMFC@_WV?$ChTraitsCRT@_W@ATL@@@@@ATL@@AAE_NPBX@Z ; ATL::CStringT<wchar_t,StrTraitMFC<wchar_t,ATL::ChTraitsCRT<wchar_t> > >::CheckImplicitLoad
  00061	0f b6 c0	 movzx	 eax, al
  00064	85 c0		 test	 eax, eax
  00066	75 0b		 jne	 SHORT $LN1@CStringT

; 1083 : 		{
; 1084 : 			*this = pszSrc;

  00068	ff 75 08	 push	 DWORD PTR _pszSrc$[ebp]
  0006b	8b 4d ec	 mov	 ecx, DWORD PTR _this$[ebp]
  0006e	e8 00 00 00 00	 call	 ??4?$CStringT@_WV?$StrTraitMFC@_WV?$ChTraitsCRT@_W@ATL@@@@@ATL@@QAEAAV01@PBD@Z ; ATL::CStringT<wchar_t,StrTraitMFC<wchar_t,ATL::ChTraitsCRT<wchar_t> > >::operator=
$LN1@CStringT:

; 1085 : 		}
; 1086 : 	}

  00073	83 4d fc ff	 or	 DWORD PTR __$EHRec$[ebp+8], -1
  00077	8b 45 ec	 mov	 eax, DWORD PTR _this$[ebp]
  0007a	8b 4d f4	 mov	 ecx, DWORD PTR __$EHRec$[ebp]
  0007d	64 89 0d 00 00
	00 00		 mov	 DWORD PTR fs:0, ecx
  00084	59		 pop	 ecx
  00085	5f		 pop	 edi
  00086	5e		 pop	 esi
  00087	5b		 pop	 ebx
  00088	81 c4 d8 00 00
	00		 add	 esp, 216		; 000000d8H
  0008e	3b ec		 cmp	 ebp, esp
  00090	e8 00 00 00 00	 call	 __RTC_CheckEsp
  00095	c9		 leave
  00096	c2 08 00	 ret	 8
_TEXT	ENDS
;	COMDAT text$x
text$x	SEGMENT
__unwindfunclet$??0?$CStringT@_WV?$StrTraitMFC@_WV?$ChTraitsCRT@_W@ATL@@@@@ATL@@QAE@PBDPAUIAtlStringMgr@1@@Z$0:
  00000	8b 4d ec	 mov	 ecx, DWORD PTR _this$[ebp]
  00003	e9 00 00 00 00	 jmp	 ??1?$CSimpleStringT@_W$0A@@ATL@@QAE@XZ ; ATL::CSimpleStringT<wchar_t,0>::~CSimpleStringT<wchar_t,0>
  00008	cc		 int	 3
  00009	cc		 int	 3
  0000a	cc		 int	 3
  0000b	cc		 int	 3
  0000c	cc		 int	 3
__ehhandler$??0?$CStringT@_WV?$StrTraitMFC@_WV?$ChTraitsCRT@_W@ATL@@@@@ATL@@QAE@PBDPAUIAtlStringMgr@1@@Z:
  0000d	90		 npad	 1
  0000e	90		 npad	 1
  0000f	8b 54 24 08	 mov	 edx, DWORD PTR [esp+8]
  00013	8d 42 0c	 lea	 eax, DWORD PTR [edx+12]
  00016	8b 8a 24 ff ff
	ff		 mov	 ecx, DWORD PTR [edx-220]
  0001c	33 c8		 xor	 ecx, eax
  0001e	e8 00 00 00 00	 call	 @__security_check_cookie@4
  00023	b8 00 00 00 00	 mov	 eax, OFFSET __ehfuncinfo$??0?$CStringT@_WV?$StrTraitMFC@_WV?$ChTraitsCRT@_W@ATL@@@@@ATL@@QAE@PBDPAUIAtlStringMgr@1@@Z
  00028	e9 00 00 00 00	 jmp	 ___CxxFrameHandler3
text$x	ENDS
??0?$CStringT@_WV?$StrTraitMFC@_WV?$ChTraitsCRT@_W@ATL@@@@@ATL@@QAE@PBDPAUIAtlStringMgr@1@@Z ENDP ; ATL::CStringT<wchar_t,StrTraitMFC<wchar_t,ATL::ChTraitsCRT<wchar_t> > >::CStringT<wchar_t,StrTraitMFC<wchar_t,ATL::ChTraitsCRT<wchar_t> > >
; Function compile flags: /Odsp /RTCsu /ZI
; File C:\Program Files\Microsoft Visual Studio\2022\Enterprise\VC\Tools\MSVC\14.34.31933\atlmfc\include\cstringt.h
;	COMDAT ??0?$CStringT@_WV?$StrTraitMFC@_WV?$ChTraitsCRT@_W@ATL@@@@@ATL@@QAE@PB_WPAUIAtlStringMgr@1@@Z
_TEXT	SEGMENT
_this$ = -20						; size = 4
__$EHRec$ = -12						; size = 12
_pszSrc$ = 8						; size = 4
_pStringMgr$ = 12					; size = 4
??0?$CStringT@_WV?$StrTraitMFC@_WV?$ChTraitsCRT@_W@ATL@@@@@ATL@@QAE@PB_WPAUIAtlStringMgr@1@@Z PROC ; ATL::CStringT<wchar_t,StrTraitMFC<wchar_t,ATL::ChTraitsCRT<wchar_t> > >::CStringT<wchar_t,StrTraitMFC<wchar_t,ATL::ChTraitsCRT<wchar_t> > >, COMDAT
; _this$ = ecx

; 1060 : 	{

  00000	55		 push	 ebp
  00001	8b ec		 mov	 ebp, esp
  00003	6a ff		 push	 -1
  00005	68 00 00 00 00	 push	 __ehhandler$??0?$CStringT@_WV?$StrTraitMFC@_WV?$ChTraitsCRT@_W@ATL@@@@@ATL@@QAE@PB_WPAUIAtlStringMgr@1@@Z
  0000a	64 a1 00 00 00
	00		 mov	 eax, DWORD PTR fs:0
  00010	50		 push	 eax
  00011	81 ec cc 00 00
	00		 sub	 esp, 204		; 000000ccH
  00017	53		 push	 ebx
  00018	56		 push	 esi
  00019	57		 push	 edi
  0001a	51		 push	 ecx
  0001b	8d 7d e8	 lea	 edi, DWORD PTR [ebp-24]
  0001e	6a 03		 push	 3
  00020	59		 pop	 ecx
  00021	b8 cc cc cc cc	 mov	 eax, -858993460		; ccccccccH
  00026	f3 ab		 rep stosd
  00028	59		 pop	 ecx
  00029	a1 00 00 00 00	 mov	 eax, DWORD PTR ___security_cookie
  0002e	33 c5		 xor	 eax, ebp
  00030	50		 push	 eax
  00031	8d 45 f4	 lea	 eax, DWORD PTR __$EHRec$[ebp]
  00034	64 a3 00 00 00
	00		 mov	 DWORD PTR fs:0, eax
  0003a	89 4d ec	 mov	 DWORD PTR _this$[ebp], ecx
  0003d	b9 00 00 00 00	 mov	 ecx, OFFSET __B625A68F_cstringt@h
  00042	e8 00 00 00 00	 call	 @__CheckForDebuggerJustMyCode@4

; 1059 : 		CThisSimpleString( pStringMgr )

  00047	ff 75 0c	 push	 DWORD PTR _pStringMgr$[ebp]
  0004a	8b 4d ec	 mov	 ecx, DWORD PTR _this$[ebp]
  0004d	e8 00 00 00 00	 call	 ??0?$CSimpleStringT@_W$0A@@ATL@@QAE@PAUIAtlStringMgr@1@@Z ; ATL::CSimpleStringT<wchar_t,0>::CSimpleStringT<wchar_t,0>
  00052	83 65 fc 00	 and	 DWORD PTR __$EHRec$[ebp+8], 0

; 1061 : 		if( !CheckImplicitLoad( pszSrc ) )

  00056	ff 75 08	 push	 DWORD PTR _pszSrc$[ebp]
  00059	8b 4d ec	 mov	 ecx, DWORD PTR _this$[ebp]
  0005c	e8 00 00 00 00	 call	 ?CheckImplicitLoad@?$CStringT@_WV?$StrTraitMFC@_WV?$ChTraitsCRT@_W@ATL@@@@@ATL@@AAE_NPBX@Z ; ATL::CStringT<wchar_t,StrTraitMFC<wchar_t,ATL::ChTraitsCRT<wchar_t> > >::CheckImplicitLoad
  00061	0f b6 c0	 movzx	 eax, al
  00064	85 c0		 test	 eax, eax
  00066	75 0b		 jne	 SHORT $LN1@CStringT

; 1062 : 		{
; 1063 : 			*this = pszSrc;

  00068	ff 75 08	 push	 DWORD PTR _pszSrc$[ebp]
  0006b	8b 4d ec	 mov	 ecx, DWORD PTR _this$[ebp]
  0006e	e8 00 00 00 00	 call	 ??4?$CStringT@_WV?$StrTraitMFC@_WV?$ChTraitsCRT@_W@ATL@@@@@ATL@@QAEAAV01@PB_W@Z ; ATL::CStringT<wchar_t,StrTraitMFC<wchar_t,ATL::ChTraitsCRT<wchar_t> > >::operator=
$LN1@CStringT:

; 1064 : 		}
; 1065 : 	}

  00073	83 4d fc ff	 or	 DWORD PTR __$EHRec$[ebp+8], -1
  00077	8b 45 ec	 mov	 eax, DWORD PTR _this$[ebp]
  0007a	8b 4d f4	 mov	 ecx, DWORD PTR __$EHRec$[ebp]
  0007d	64 89 0d 00 00
	00 00		 mov	 DWORD PTR fs:0, ecx
  00084	59		 pop	 ecx
  00085	5f		 pop	 edi
  00086	5e		 pop	 esi
  00087	5b		 pop	 ebx
  00088	81 c4 d8 00 00
	00		 add	 esp, 216		; 000000d8H
  0008e	3b ec		 cmp	 ebp, esp
  00090	e8 00 00 00 00	 call	 __RTC_CheckEsp
  00095	c9		 leave
  00096	c2 08 00	 ret	 8
_TEXT	ENDS
;	COMDAT text$x
text$x	SEGMENT
__unwindfunclet$??0?$CStringT@_WV?$StrTraitMFC@_WV?$ChTraitsCRT@_W@ATL@@@@@ATL@@QAE@PB_WPAUIAtlStringMgr@1@@Z$0:
  00000	8b 4d ec	 mov	 ecx, DWORD PTR _this$[ebp]
  00003	e9 00 00 00 00	 jmp	 ??1?$CSimpleStringT@_W$0A@@ATL@@QAE@XZ ; ATL::CSimpleStringT<wchar_t,0>::~CSimpleStringT<wchar_t,0>
  00008	cc		 int	 3
  00009	cc		 int	 3
  0000a	cc		 int	 3
  0000b	cc		 int	 3
  0000c	cc		 int	 3
__ehhandler$??0?$CStringT@_WV?$StrTraitMFC@_WV?$ChTraitsCRT@_W@ATL@@@@@ATL@@QAE@PB_WPAUIAtlStringMgr@1@@Z:
  0000d	90		 npad	 1
  0000e	90		 npad	 1
  0000f	8b 54 24 08	 mov	 edx, DWORD PTR [esp+8]
  00013	8d 42 0c	 lea	 eax, DWORD PTR [edx+12]
  00016	8b 8a 24 ff ff
	ff		 mov	 ecx, DWORD PTR [edx-220]
  0001c	33 c8		 xor	 ecx, eax
  0001e	e8 00 00 00 00	 call	 @__security_check_cookie@4
  00023	b8 00 00 00 00	 mov	 eax, OFFSET __ehfuncinfo$??0?$CStringT@_WV?$StrTraitMFC@_WV?$ChTraitsCRT@_W@ATL@@@@@ATL@@QAE@PB_WPAUIAtlStringMgr@1@@Z
  00028	e9 00 00 00 00	 jmp	 ___CxxFrameHandler3
text$x	ENDS
??0?$CStringT@_WV?$StrTraitMFC@_WV?$ChTraitsCRT@_W@ATL@@@@@ATL@@QAE@PB_WPAUIAtlStringMgr@1@@Z ENDP ; ATL::CStringT<wchar_t,StrTraitMFC<wchar_t,ATL::ChTraitsCRT<wchar_t> > >::CStringT<wchar_t,StrTraitMFC<wchar_t,ATL::ChTraitsCRT<wchar_t> > >
; Function compile flags: /Odsp /RTCsu /ZI
; File C:\Program Files\Microsoft Visual Studio\2022\Enterprise\VC\Tools\MSVC\14.34.31933\atlmfc\include\cstringt.h
;	COMDAT ??0?$CStringT@_WV?$StrTraitMFC@_WV?$ChTraitsCRT@_W@ATL@@@@@ATL@@QAE@PB_W@Z
_TEXT	SEGMENT
_this$ = -20						; size = 4
__$EHRec$ = -12						; size = 12
_pszSrc$ = 8						; size = 4
??0?$CStringT@_WV?$StrTraitMFC@_WV?$ChTraitsCRT@_W@ATL@@@@@ATL@@QAE@PB_W@Z PROC ; ATL::CStringT<wchar_t,StrTraitMFC<wchar_t,ATL::ChTraitsCRT<wchar_t> > >::CStringT<wchar_t,StrTraitMFC<wchar_t,ATL::ChTraitsCRT<wchar_t> > >, COMDAT
; _this$ = ecx

; 1049 : 	{

  00000	55		 push	 ebp
  00001	8b ec		 mov	 ebp, esp
  00003	6a ff		 push	 -1
  00005	68 00 00 00 00	 push	 __ehhandler$??0?$CStringT@_WV?$StrTraitMFC@_WV?$ChTraitsCRT@_W@ATL@@@@@ATL@@QAE@PB_W@Z
  0000a	64 a1 00 00 00
	00		 mov	 eax, DWORD PTR fs:0
  00010	50		 push	 eax
  00011	81 ec cc 00 00
	00		 sub	 esp, 204		; 000000ccH
  00017	53		 push	 ebx
  00018	56		 push	 esi
  00019	57		 push	 edi
  0001a	51		 push	 ecx
  0001b	8d 7d e8	 lea	 edi, DWORD PTR [ebp-24]
  0001e	6a 03		 push	 3
  00020	59		 pop	 ecx
  00021	b8 cc cc cc cc	 mov	 eax, -858993460		; ccccccccH
  00026	f3 ab		 rep stosd
  00028	59		 pop	 ecx
  00029	a1 00 00 00 00	 mov	 eax, DWORD PTR ___security_cookie
  0002e	33 c5		 xor	 eax, ebp
  00030	50		 push	 eax
  00031	8d 45 f4	 lea	 eax, DWORD PTR __$EHRec$[ebp]
  00034	64 a3 00 00 00
	00		 mov	 DWORD PTR fs:0, eax
  0003a	89 4d ec	 mov	 DWORD PTR _this$[ebp], ecx
  0003d	b9 00 00 00 00	 mov	 ecx, OFFSET __B625A68F_cstringt@h
  00042	e8 00 00 00 00	 call	 @__CheckForDebuggerJustMyCode@4

; 1048 : 		CThisSimpleString( StringTraits::GetDefaultManager() )

  00047	e8 00 00 00 00	 call	 ?GetDefaultManager@?$StrTraitMFC@_WV?$ChTraitsCRT@_W@ATL@@@@SAPAUIAtlStringMgr@ATL@@XZ ; StrTraitMFC<wchar_t,ATL::ChTraitsCRT<wchar_t> >::GetDefaultManager
  0004c	50		 push	 eax
  0004d	8b 4d ec	 mov	 ecx, DWORD PTR _this$[ebp]
  00050	e8 00 00 00 00	 call	 ??0?$CSimpleStringT@_W$0A@@ATL@@QAE@PAUIAtlStringMgr@1@@Z ; ATL::CSimpleStringT<wchar_t,0>::CSimpleStringT<wchar_t,0>
  00055	83 65 fc 00	 and	 DWORD PTR __$EHRec$[ebp+8], 0

; 1050 : 		if( !CheckImplicitLoad( pszSrc ) )

  00059	ff 75 08	 push	 DWORD PTR _pszSrc$[ebp]
  0005c	8b 4d ec	 mov	 ecx, DWORD PTR _this$[ebp]
  0005f	e8 00 00 00 00	 call	 ?CheckImplicitLoad@?$CStringT@_WV?$StrTraitMFC@_WV?$ChTraitsCRT@_W@ATL@@@@@ATL@@AAE_NPBX@Z ; ATL::CStringT<wchar_t,StrTraitMFC<wchar_t,ATL::ChTraitsCRT<wchar_t> > >::CheckImplicitLoad
  00064	0f b6 c0	 movzx	 eax, al
  00067	85 c0		 test	 eax, eax
  00069	75 0b		 jne	 SHORT $LN1@CStringT

; 1051 : 		{
; 1052 : 			*this = pszSrc;

  0006b	ff 75 08	 push	 DWORD PTR _pszSrc$[ebp]
  0006e	8b 4d ec	 mov	 ecx, DWORD PTR _this$[ebp]
  00071	e8 00 00 00 00	 call	 ??4?$CStringT@_WV?$StrTraitMFC@_WV?$ChTraitsCRT@_W@ATL@@@@@ATL@@QAEAAV01@PB_W@Z ; ATL::CStringT<wchar_t,StrTraitMFC<wchar_t,ATL::ChTraitsCRT<wchar_t> > >::operator=
$LN1@CStringT:

; 1053 : 		}
; 1054 : 	}

  00076	83 4d fc ff	 or	 DWORD PTR __$EHRec$[ebp+8], -1
  0007a	8b 45 ec	 mov	 eax, DWORD PTR _this$[ebp]
  0007d	8b 4d f4	 mov	 ecx, DWORD PTR __$EHRec$[ebp]
  00080	64 89 0d 00 00
	00 00		 mov	 DWORD PTR fs:0, ecx
  00087	59		 pop	 ecx
  00088	5f		 pop	 edi
  00089	5e		 pop	 esi
  0008a	5b		 pop	 ebx
  0008b	81 c4 d8 00 00
	00		 add	 esp, 216		; 000000d8H
  00091	3b ec		 cmp	 ebp, esp
  00093	e8 00 00 00 00	 call	 __RTC_CheckEsp
  00098	c9		 leave
  00099	c2 04 00	 ret	 4
_TEXT	ENDS
;	COMDAT text$x
text$x	SEGMENT
__unwindfunclet$??0?$CStringT@_WV?$StrTraitMFC@_WV?$ChTraitsCRT@_W@ATL@@@@@ATL@@QAE@PB_W@Z$0:
  00000	8b 4d ec	 mov	 ecx, DWORD PTR _this$[ebp]
  00003	e9 00 00 00 00	 jmp	 ??1?$CSimpleStringT@_W$0A@@ATL@@QAE@XZ ; ATL::CSimpleStringT<wchar_t,0>::~CSimpleStringT<wchar_t,0>
  00008	cc		 int	 3
  00009	cc		 int	 3
  0000a	cc		 int	 3
  0000b	cc		 int	 3
  0000c	cc		 int	 3
__ehhandler$??0?$CStringT@_WV?$StrTraitMFC@_WV?$ChTraitsCRT@_W@ATL@@@@@ATL@@QAE@PB_W@Z:
  0000d	90		 npad	 1
  0000e	90		 npad	 1
  0000f	8b 54 24 08	 mov	 edx, DWORD PTR [esp+8]
  00013	8d 42 0c	 lea	 eax, DWORD PTR [edx+12]
  00016	8b 8a 24 ff ff
	ff		 mov	 ecx, DWORD PTR [edx-220]
  0001c	33 c8		 xor	 ecx, eax
  0001e	e8 00 00 00 00	 call	 @__security_check_cookie@4
  00023	b8 00 00 00 00	 mov	 eax, OFFSET __ehfuncinfo$??0?$CStringT@_WV?$StrTraitMFC@_WV?$ChTraitsCRT@_W@ATL@@@@@ATL@@QAE@PB_W@Z
  00028	e9 00 00 00 00	 jmp	 ___CxxFrameHandler3
text$x	ENDS
??0?$CStringT@_WV?$StrTraitMFC@_WV?$ChTraitsCRT@_W@ATL@@@@@ATL@@QAE@PB_W@Z ENDP ; ATL::CStringT<wchar_t,StrTraitMFC<wchar_t,ATL::ChTraitsCRT<wchar_t> > >::CStringT<wchar_t,StrTraitMFC<wchar_t,ATL::ChTraitsCRT<wchar_t> > >
; Function compile flags: /Odsp /RTCsu /ZI
; File C:\Program Files\Microsoft Visual Studio\2022\Enterprise\VC\Tools\MSVC\14.34.31933\atlmfc\include\cstringt.h
;	COMDAT ??0?$CStringT@_WV?$StrTraitMFC@_WV?$ChTraitsCRT@_W@ATL@@@@@ATL@@QAE@ABV01@@Z
_TEXT	SEGMENT
_this$ = -8						; size = 4
_strSrc$ = 8						; size = 4
??0?$CStringT@_WV?$StrTraitMFC@_WV?$ChTraitsCRT@_W@ATL@@@@@ATL@@QAE@ABV01@@Z PROC ; ATL::CStringT<wchar_t,StrTraitMFC<wchar_t,ATL::ChTraitsCRT<wchar_t> > >::CStringT<wchar_t,StrTraitMFC<wchar_t,ATL::ChTraitsCRT<wchar_t> > >, COMDAT
; _this$ = ecx

; 1032 : 	{

  00000	55		 push	 ebp
  00001	8b ec		 mov	 ebp, esp
  00003	81 ec cc 00 00
	00		 sub	 esp, 204		; 000000ccH
  00009	53		 push	 ebx
  0000a	56		 push	 esi
  0000b	57		 push	 edi
  0000c	51		 push	 ecx
  0000d	8d 7d f4	 lea	 edi, DWORD PTR [ebp-12]
  00010	6a 03		 push	 3
  00012	59		 pop	 ecx
  00013	b8 cc cc cc cc	 mov	 eax, -858993460		; ccccccccH
  00018	f3 ab		 rep stosd
  0001a	59		 pop	 ecx
  0001b	89 4d f8	 mov	 DWORD PTR _this$[ebp], ecx
  0001e	b9 00 00 00 00	 mov	 ecx, OFFSET __B625A68F_cstringt@h
  00023	e8 00 00 00 00	 call	 @__CheckForDebuggerJustMyCode@4

; 1031 : 		CThisSimpleString( strSrc )

  00028	ff 75 08	 push	 DWORD PTR _strSrc$[ebp]
  0002b	8b 4d f8	 mov	 ecx, DWORD PTR _this$[ebp]
  0002e	e8 00 00 00 00	 call	 ??0?$CSimpleStringT@_W$0A@@ATL@@QAE@ABV01@@Z ; ATL::CSimpleStringT<wchar_t,0>::CSimpleStringT<wchar_t,0>

; 1033 : 	}

  00033	8b 45 f8	 mov	 eax, DWORD PTR _this$[ebp]
  00036	5f		 pop	 edi
  00037	5e		 pop	 esi
  00038	5b		 pop	 ebx
  00039	81 c4 cc 00 00
	00		 add	 esp, 204		; 000000ccH
  0003f	3b ec		 cmp	 ebp, esp
  00041	e8 00 00 00 00	 call	 __RTC_CheckEsp
  00046	c9		 leave
  00047	c2 04 00	 ret	 4
??0?$CStringT@_WV?$StrTraitMFC@_WV?$ChTraitsCRT@_W@ATL@@@@@ATL@@QAE@ABV01@@Z ENDP ; ATL::CStringT<wchar_t,StrTraitMFC<wchar_t,ATL::ChTraitsCRT<wchar_t> > >::CStringT<wchar_t,StrTraitMFC<wchar_t,ATL::ChTraitsCRT<wchar_t> > >
_TEXT	ENDS
; Function compile flags: /Odsp /RTCsu /ZI
; File C:\Program Files\Microsoft Visual Studio\2022\Enterprise\VC\Tools\MSVC\14.34.31933\atlmfc\include\cstringt.h
;	COMDAT ??0?$CStringT@_WV?$StrTraitMFC@_WV?$ChTraitsCRT@_W@ATL@@@@@ATL@@QAE@PAUIAtlStringMgr@1@@Z
_TEXT	SEGMENT
_this$ = -8						; size = 4
_pStringMgr$ = 8					; size = 4
??0?$CStringT@_WV?$StrTraitMFC@_WV?$ChTraitsCRT@_W@ATL@@@@@ATL@@QAE@PAUIAtlStringMgr@1@@Z PROC ; ATL::CStringT<wchar_t,StrTraitMFC<wchar_t,ATL::ChTraitsCRT<wchar_t> > >::CStringT<wchar_t,StrTraitMFC<wchar_t,ATL::ChTraitsCRT<wchar_t> > >, COMDAT
; _this$ = ecx

; 1016 : 	{

  00000	55		 push	 ebp
  00001	8b ec		 mov	 ebp, esp
  00003	81 ec cc 00 00
	00		 sub	 esp, 204		; 000000ccH
  00009	53		 push	 ebx
  0000a	56		 push	 esi
  0000b	57		 push	 edi
  0000c	51		 push	 ecx
  0000d	8d 7d f4	 lea	 edi, DWORD PTR [ebp-12]
  00010	6a 03		 push	 3
  00012	59		 pop	 ecx
  00013	b8 cc cc cc cc	 mov	 eax, -858993460		; ccccccccH
  00018	f3 ab		 rep stosd
  0001a	59		 pop	 ecx
  0001b	89 4d f8	 mov	 DWORD PTR _this$[ebp], ecx
  0001e	b9 00 00 00 00	 mov	 ecx, OFFSET __B625A68F_cstringt@h
  00023	e8 00 00 00 00	 call	 @__CheckForDebuggerJustMyCode@4

; 1015 : 		CThisSimpleString( pStringMgr )

  00028	ff 75 08	 push	 DWORD PTR _pStringMgr$[ebp]
  0002b	8b 4d f8	 mov	 ecx, DWORD PTR _this$[ebp]
  0002e	e8 00 00 00 00	 call	 ??0?$CSimpleStringT@_W$0A@@ATL@@QAE@PAUIAtlStringMgr@1@@Z ; ATL::CSimpleStringT<wchar_t,0>::CSimpleStringT<wchar_t,0>

; 1017 : 	}

  00033	8b 45 f8	 mov	 eax, DWORD PTR _this$[ebp]
  00036	5f		 pop	 edi
  00037	5e		 pop	 esi
  00038	5b		 pop	 ebx
  00039	81 c4 cc 00 00
	00		 add	 esp, 204		; 000000ccH
  0003f	3b ec		 cmp	 ebp, esp
  00041	e8 00 00 00 00	 call	 __RTC_CheckEsp
  00046	c9		 leave
  00047	c2 04 00	 ret	 4
??0?$CStringT@_WV?$StrTraitMFC@_WV?$ChTraitsCRT@_W@ATL@@@@@ATL@@QAE@PAUIAtlStringMgr@1@@Z ENDP ; ATL::CStringT<wchar_t,StrTraitMFC<wchar_t,ATL::ChTraitsCRT<wchar_t> > >::CStringT<wchar_t,StrTraitMFC<wchar_t,ATL::ChTraitsCRT<wchar_t> > >
_TEXT	ENDS
; Function compile flags: /Odsp /RTCsu /ZI
; File C:\Program Files\Microsoft Visual Studio\2022\Enterprise\VC\Tools\MSVC\14.34.31933\atlmfc\include\cstringt.h
;	COMDAT ??0?$CStringT@_WV?$StrTraitMFC@_WV?$ChTraitsCRT@_W@ATL@@@@@ATL@@QAE@XZ
_TEXT	SEGMENT
_this$ = -8						; size = 4
??0?$CStringT@_WV?$StrTraitMFC@_WV?$ChTraitsCRT@_W@ATL@@@@@ATL@@QAE@XZ PROC ; ATL::CStringT<wchar_t,StrTraitMFC<wchar_t,ATL::ChTraitsCRT<wchar_t> > >::CStringT<wchar_t,StrTraitMFC<wchar_t,ATL::ChTraitsCRT<wchar_t> > >, COMDAT
; _this$ = ecx

; 1011 : 	{

  00000	55		 push	 ebp
  00001	8b ec		 mov	 ebp, esp
  00003	81 ec cc 00 00
	00		 sub	 esp, 204		; 000000ccH
  00009	53		 push	 ebx
  0000a	56		 push	 esi
  0000b	57		 push	 edi
  0000c	51		 push	 ecx
  0000d	8d 7d f4	 lea	 edi, DWORD PTR [ebp-12]
  00010	6a 03		 push	 3
  00012	59		 pop	 ecx
  00013	b8 cc cc cc cc	 mov	 eax, -858993460		; ccccccccH
  00018	f3 ab		 rep stosd
  0001a	59		 pop	 ecx
  0001b	89 4d f8	 mov	 DWORD PTR _this$[ebp], ecx
  0001e	b9 00 00 00 00	 mov	 ecx, OFFSET __B625A68F_cstringt@h
  00023	e8 00 00 00 00	 call	 @__CheckForDebuggerJustMyCode@4

; 1010 : 		CThisSimpleString( StringTraits::GetDefaultManager() )

  00028	e8 00 00 00 00	 call	 ?GetDefaultManager@?$StrTraitMFC@_WV?$ChTraitsCRT@_W@ATL@@@@SAPAUIAtlStringMgr@ATL@@XZ ; StrTraitMFC<wchar_t,ATL::ChTraitsCRT<wchar_t> >::GetDefaultManager
  0002d	50		 push	 eax
  0002e	8b 4d f8	 mov	 ecx, DWORD PTR _this$[ebp]
  00031	e8 00 00 00 00	 call	 ??0?$CSimpleStringT@_W$0A@@ATL@@QAE@PAUIAtlStringMgr@1@@Z ; ATL::CSimpleStringT<wchar_t,0>::CSimpleStringT<wchar_t,0>

; 1012 : 	}

  00036	8b 45 f8	 mov	 eax, DWORD PTR _this$[ebp]
  00039	5f		 pop	 edi
  0003a	5e		 pop	 esi
  0003b	5b		 pop	 ebx
  0003c	81 c4 cc 00 00
	00		 add	 esp, 204		; 000000ccH
  00042	3b ec		 cmp	 ebp, esp
  00044	e8 00 00 00 00	 call	 __RTC_CheckEsp
  00049	c9		 leave
  0004a	c3		 ret	 0
??0?$CStringT@_WV?$StrTraitMFC@_WV?$ChTraitsCRT@_W@ATL@@@@@ATL@@QAE@XZ ENDP ; ATL::CStringT<wchar_t,StrTraitMFC<wchar_t,ATL::ChTraitsCRT<wchar_t> > >::CStringT<wchar_t,StrTraitMFC<wchar_t,ATL::ChTraitsCRT<wchar_t> > >
_TEXT	ENDS
; Function compile flags: /Odsp /RTCsu /ZI
; File C:\Program Files\Microsoft Visual Studio\2022\Enterprise\VC\Tools\MSVC\14.34.31933\atlmfc\include\atlsimpstr.h
;	COMDAT ?CloneData@?$CSimpleStringT@_W$0A@@ATL@@CAPAUCStringData@2@PAU32@@Z
_TEXT	SEGMENT
_pNewStringMgr$ = -20					; size = 4
_pNewData$ = -8						; size = 4
_pData$ = 8						; size = 4
?CloneData@?$CSimpleStringT@_W$0A@@ATL@@CAPAUCStringData@2@PAU32@@Z PROC ; ATL::CSimpleStringT<wchar_t,0>::CloneData, COMDAT

; 879  : 	{

  00000	55		 push	 ebp
  00001	8b ec		 mov	 ebp, esp
  00003	81 ec d8 00 00
	00		 sub	 esp, 216		; 000000d8H
  00009	53		 push	 ebx
  0000a	56		 push	 esi
  0000b	57		 push	 edi
  0000c	8d 7d e8	 lea	 edi, DWORD PTR [ebp-24]
  0000f	6a 06		 push	 6
  00011	59		 pop	 ecx
  00012	b8 cc cc cc cc	 mov	 eax, -858993460		; ccccccccH
  00017	f3 ab		 rep stosd
  00019	b9 00 00 00 00	 mov	 ecx, OFFSET __05D8B7B7_atlsimpstr@h
  0001e	e8 00 00 00 00	 call	 @__CheckForDebuggerJustMyCode@4

; 880  : 		CStringData* pNewData = NULL;

  00023	83 65 f8 00	 and	 DWORD PTR _pNewData$[ebp], 0

; 881  : 
; 882  : 		IAtlStringMgr* pNewStringMgr = pData->pStringMgr->Clone();

  00027	8b 45 08	 mov	 eax, DWORD PTR _pData$[ebp]
  0002a	8b 00		 mov	 eax, DWORD PTR [eax]
  0002c	8b 4d 08	 mov	 ecx, DWORD PTR _pData$[ebp]
  0002f	8b 00		 mov	 eax, DWORD PTR [eax]
  00031	8b f4		 mov	 esi, esp
  00033	8b 09		 mov	 ecx, DWORD PTR [ecx]
  00035	ff 50 10	 call	 DWORD PTR [eax+16]
  00038	3b f4		 cmp	 esi, esp
  0003a	e8 00 00 00 00	 call	 __RTC_CheckEsp
  0003f	89 45 ec	 mov	 DWORD PTR _pNewStringMgr$[ebp], eax

; 883  : 		if( !pData->IsLocked() && (pNewStringMgr == pData->pStringMgr) )

  00042	8b 4d 08	 mov	 ecx, DWORD PTR _pData$[ebp]
  00045	e8 00 00 00 00	 call	 ?IsLocked@CStringData@ATL@@QBE_NXZ ; ATL::CStringData::IsLocked
  0004a	0f b6 c0	 movzx	 eax, al
  0004d	85 c0		 test	 eax, eax
  0004f	75 1a		 jne	 SHORT $LN2@CloneData
  00051	8b 45 08	 mov	 eax, DWORD PTR _pData$[ebp]
  00054	8b 4d ec	 mov	 ecx, DWORD PTR _pNewStringMgr$[ebp]
  00057	3b 08		 cmp	 ecx, DWORD PTR [eax]
  00059	75 10		 jne	 SHORT $LN2@CloneData

; 884  : 		{
; 885  : 			pNewData = pData;

  0005b	8b 45 08	 mov	 eax, DWORD PTR _pData$[ebp]
  0005e	89 45 f8	 mov	 DWORD PTR _pNewData$[ebp], eax

; 886  : 			pNewData->AddRef();

  00061	8b 4d f8	 mov	 ecx, DWORD PTR _pNewData$[ebp]
  00064	e8 00 00 00 00	 call	 ?AddRef@CStringData@ATL@@QAEXXZ ; ATL::CStringData::AddRef

; 887  : 		}

  00069	eb 65		 jmp	 SHORT $LN3@CloneData
$LN2@CloneData:

; 888  : 		else
; 889  : 		{
; 890  : 			pNewData = pNewStringMgr->Allocate( pData->nDataLength, sizeof( XCHAR ) );

  0006b	8b f4		 mov	 esi, esp
  0006d	6a 02		 push	 2
  0006f	8b 45 08	 mov	 eax, DWORD PTR _pData$[ebp]
  00072	ff 70 04	 push	 DWORD PTR [eax+4]
  00075	8b 45 ec	 mov	 eax, DWORD PTR _pNewStringMgr$[ebp]
  00078	8b 00		 mov	 eax, DWORD PTR [eax]
  0007a	8b 4d ec	 mov	 ecx, DWORD PTR _pNewStringMgr$[ebp]
  0007d	ff 10		 call	 DWORD PTR [eax]
  0007f	3b f4		 cmp	 esi, esp
  00081	e8 00 00 00 00	 call	 __RTC_CheckEsp
  00086	89 45 f8	 mov	 DWORD PTR _pNewData$[ebp], eax

; 891  : 			if( pNewData == NULL )

  00089	83 7d f8 00	 cmp	 DWORD PTR _pNewData$[ebp], 0
  0008d	75 05		 jne	 SHORT $LN4@CloneData

; 892  : 			{
; 893  : 				ThrowMemoryException();

  0008f	e8 00 00 00 00	 call	 ?ThrowMemoryException@?$CSimpleStringT@_W$0A@@ATL@@KAXXZ ; ATL::CSimpleStringT<wchar_t,0>::ThrowMemoryException
$LN4@CloneData:

; 894  : 			}
; 895  : 			pNewData->nDataLength = pData->nDataLength;

  00094	8b 45 f8	 mov	 eax, DWORD PTR _pNewData$[ebp]
  00097	8b 4d 08	 mov	 ecx, DWORD PTR _pData$[ebp]
  0009a	8b 49 04	 mov	 ecx, DWORD PTR [ecx+4]
  0009d	89 48 04	 mov	 DWORD PTR [eax+4], ecx

; 896  : 			memcpy_s( PXSTR( pNewData->data() ), (pNewData->nDataLength+1) * sizeof( XCHAR ),

  000a0	8b 45 08	 mov	 eax, DWORD PTR _pData$[ebp]
  000a3	8b 40 04	 mov	 eax, DWORD PTR [eax+4]
  000a6	8d 44 00 02	 lea	 eax, DWORD PTR [eax+eax+2]
  000aa	50		 push	 eax
  000ab	8b 4d 08	 mov	 ecx, DWORD PTR _pData$[ebp]
  000ae	e8 00 00 00 00	 call	 ?data@CStringData@ATL@@QAEPAXXZ ; ATL::CStringData::data
  000b3	50		 push	 eax
  000b4	8b 45 f8	 mov	 eax, DWORD PTR _pNewData$[ebp]
  000b7	8b 40 04	 mov	 eax, DWORD PTR [eax+4]
  000ba	8d 44 00 02	 lea	 eax, DWORD PTR [eax+eax+2]
  000be	50		 push	 eax
  000bf	8b 4d f8	 mov	 ecx, DWORD PTR _pNewData$[ebp]
  000c2	e8 00 00 00 00	 call	 ?data@CStringData@ATL@@QAEPAXXZ ; ATL::CStringData::data
  000c7	50		 push	 eax
  000c8	e8 00 00 00 00	 call	 _memcpy_s
  000cd	83 c4 10	 add	 esp, 16			; 00000010H
$LN3@CloneData:

; 897  : 				PCXSTR( pData->data() ), (pData->nDataLength+1) * sizeof( XCHAR ));  // Copy '\0'
; 898  : 		}
; 899  : 
; 900  : 		return( pNewData );

  000d0	8b 45 f8	 mov	 eax, DWORD PTR _pNewData$[ebp]
$LN5@CloneData:

; 901  : 	}

  000d3	5f		 pop	 edi
  000d4	5e		 pop	 esi
  000d5	5b		 pop	 ebx
  000d6	81 c4 d8 00 00
	00		 add	 esp, 216		; 000000d8H
  000dc	3b ec		 cmp	 ebp, esp
  000de	e8 00 00 00 00	 call	 __RTC_CheckEsp
  000e3	c9		 leave
  000e4	c3		 ret	 0
?CloneData@?$CSimpleStringT@_W$0A@@ATL@@CAPAUCStringData@2@PAU32@@Z ENDP ; ATL::CSimpleStringT<wchar_t,0>::CloneData
_TEXT	ENDS
; Function compile flags: /Odsp /RTCsu /ZI
; File C:\Program Files\Microsoft Visual Studio\2022\Enterprise\VC\Tools\MSVC\14.34.31933\atlmfc\include\atlsimpstr.h
;	COMDAT ?SetLength@?$CSimpleStringT@_W$0A@@ATL@@AAEXH@Z
_TEXT	SEGMENT
_this$ = -8						; size = 4
_nLength$ = 8						; size = 4
?SetLength@?$CSimpleStringT@_W$0A@@ATL@@AAEXH@Z PROC	; ATL::CSimpleStringT<wchar_t,0>::SetLength, COMDAT
; _this$ = ecx

; 867  : 	{

  00000	55		 push	 ebp
  00001	8b ec		 mov	 ebp, esp
  00003	81 ec cc 00 00
	00		 sub	 esp, 204		; 000000ccH
  00009	53		 push	 ebx
  0000a	56		 push	 esi
  0000b	57		 push	 edi
  0000c	51		 push	 ecx
  0000d	8d 7d f4	 lea	 edi, DWORD PTR [ebp-12]
  00010	6a 03		 push	 3
  00012	59		 pop	 ecx
  00013	b8 cc cc cc cc	 mov	 eax, -858993460		; ccccccccH
  00018	f3 ab		 rep stosd
  0001a	59		 pop	 ecx
  0001b	89 4d f8	 mov	 DWORD PTR _this$[ebp], ecx
  0001e	b9 00 00 00 00	 mov	 ecx, OFFSET __05D8B7B7_atlsimpstr@h
  00023	e8 00 00 00 00	 call	 @__CheckForDebuggerJustMyCode@4

; 868  : 		ATLASSERT( nLength >= 0 );

  00028	83 7d 08 00	 cmp	 DWORD PTR _nLength$[ebp], 0
  0002c	7d 26		 jge	 SHORT $LN5@SetLength
  0002e	68 00 00 00 00	 push	 OFFSET ??_C@_1BK@OGOKLNEF@?$AAn?$AAL?$AAe?$AAn?$AAg?$AAt?$AAh?$AA?5?$AA?$DO?$AA?$DN?$AA?5?$AA0@
  00033	68 00 00 00 00	 push	 OFFSET ??_C@_17CNPHIMPH@?$AA?$CF?$AAl?$AAs@
  00038	6a 00		 push	 0
  0003a	68 64 03 00 00	 push	 868			; 00000364H
  0003f	68 00 00 00 00	 push	 OFFSET ??_C@_1NO@CMNIKGIF@?$AAC?$AA?3?$AA?2?$AAP?$AAr?$AAo?$AAg?$AAr?$AAa?$AAm?$AA?5?$AAF?$AAi?$AAl?$AAe@
  00044	6a 02		 push	 2
  00046	e8 00 00 00 00	 call	 __CrtDbgReportW
  0004b	83 c4 18	 add	 esp, 24			; 00000018H
  0004e	83 f8 01	 cmp	 eax, 1
  00051	75 01		 jne	 SHORT $LN5@SetLength
  00053	cc		 int	 3
$LN5@SetLength:

; 869  : 		ATLASSERT( nLength <= GetData()->nAllocLength );

  00054	8b 4d f8	 mov	 ecx, DWORD PTR _this$[ebp]
  00057	e8 00 00 00 00	 call	 ?GetData@?$CSimpleStringT@_W$0A@@ATL@@ABEPAUCStringData@2@XZ ; ATL::CSimpleStringT<wchar_t,0>::GetData
  0005c	8b 4d 08	 mov	 ecx, DWORD PTR _nLength$[ebp]
  0005f	3b 48 08	 cmp	 ecx, DWORD PTR [eax+8]
  00062	7e 26		 jle	 SHORT $LN6@SetLength
  00064	68 00 00 00 00	 push	 OFFSET ??_C@_1EG@PELIOAAG@?$AAn?$AAL?$AAe?$AAn?$AAg?$AAt?$AAh?$AA?5?$AA?$DM?$AA?$DN?$AA?5?$AAG?$AAe?$AAt?$AAD@
  00069	68 00 00 00 00	 push	 OFFSET ??_C@_17CNPHIMPH@?$AA?$CF?$AAl?$AAs@
  0006e	6a 00		 push	 0
  00070	68 65 03 00 00	 push	 869			; 00000365H
  00075	68 00 00 00 00	 push	 OFFSET ??_C@_1NO@CMNIKGIF@?$AAC?$AA?3?$AA?2?$AAP?$AAr?$AAo?$AAg?$AAr?$AAa?$AAm?$AA?5?$AAF?$AAi?$AAl?$AAe@
  0007a	6a 02		 push	 2
  0007c	e8 00 00 00 00	 call	 __CrtDbgReportW
  00081	83 c4 18	 add	 esp, 24			; 00000018H
  00084	83 f8 01	 cmp	 eax, 1
  00087	75 01		 jne	 SHORT $LN6@SetLength
  00089	cc		 int	 3
$LN6@SetLength:

; 870  : 
; 871  : 		if( nLength < 0 || nLength > GetData()->nAllocLength)

  0008a	83 7d 08 00	 cmp	 DWORD PTR _nLength$[ebp], 0
  0008e	7c 10		 jl	 SHORT $LN3@SetLength
  00090	8b 4d f8	 mov	 ecx, DWORD PTR _this$[ebp]
  00093	e8 00 00 00 00	 call	 ?GetData@?$CSimpleStringT@_W$0A@@ATL@@ABEPAUCStringData@2@XZ ; ATL::CSimpleStringT<wchar_t,0>::GetData
  00098	8b 4d 08	 mov	 ecx, DWORD PTR _nLength$[ebp]
  0009b	3b 48 08	 cmp	 ecx, DWORD PTR [eax+8]
  0009e	7e 0a		 jle	 SHORT $LN2@SetLength
$LN3@SetLength:

; 872  : 			AtlThrow(E_INVALIDARG);

  000a0	68 57 00 07 80	 push	 -2147024809		; 80070057H
  000a5	e8 00 00 00 00	 call	 ?AtlThrowImpl@ATL@@YGXJ@Z ; ATL::AtlThrowImpl
$LN2@SetLength:

; 873  : 
; 874  : 		GetData()->nDataLength = nLength;

  000aa	8b 4d f8	 mov	 ecx, DWORD PTR _this$[ebp]
  000ad	e8 00 00 00 00	 call	 ?GetData@?$CSimpleStringT@_W$0A@@ATL@@ABEPAUCStringData@2@XZ ; ATL::CSimpleStringT<wchar_t,0>::GetData
  000b2	8b 4d 08	 mov	 ecx, DWORD PTR _nLength$[ebp]
  000b5	89 48 04	 mov	 DWORD PTR [eax+4], ecx

; 875  : 		m_pszData[nLength] = 0;

  000b8	8b 45 f8	 mov	 eax, DWORD PTR _this$[ebp]
  000bb	8b 00		 mov	 eax, DWORD PTR [eax]
  000bd	33 c9		 xor	 ecx, ecx
  000bf	8b 55 08	 mov	 edx, DWORD PTR _nLength$[ebp]
  000c2	66 89 0c 50	 mov	 WORD PTR [eax+edx*2], cx
$LN4@SetLength:

; 876  : 	}

  000c6	5f		 pop	 edi
  000c7	5e		 pop	 esi
  000c8	5b		 pop	 ebx
  000c9	81 c4 cc 00 00
	00		 add	 esp, 204		; 000000ccH
  000cf	3b ec		 cmp	 ebp, esp
  000d1	e8 00 00 00 00	 call	 __RTC_CheckEsp
  000d6	c9		 leave
  000d7	c2 04 00	 ret	 4
?SetLength@?$CSimpleStringT@_W$0A@@ATL@@AAEXH@Z ENDP	; ATL::CSimpleStringT<wchar_t,0>::SetLength
_TEXT	ENDS
; Function compile flags: /Odsp /RTCsu /ZI
; File C:\Program Files\Microsoft Visual Studio\2022\Enterprise\VC\Tools\MSVC\14.34.31933\atlmfc\include\atlsimpstr.h
;	COMDAT ?Reallocate@?$CSimpleStringT@_W$0A@@ATL@@AAEXH@Z
_TEXT	SEGMENT
_pNewData$ = -44					; size = 4
_pStringMgr$ = -32					; size = 4
_pOldData$ = -20					; size = 4
_this$ = -8						; size = 4
_nLength$ = 8						; size = 4
?Reallocate@?$CSimpleStringT@_W$0A@@ATL@@AAEXH@Z PROC	; ATL::CSimpleStringT<wchar_t,0>::Reallocate, COMDAT
; _this$ = ecx

; 849  : 	{

  00000	55		 push	 ebp
  00001	8b ec		 mov	 ebp, esp
  00003	81 ec f0 00 00
	00		 sub	 esp, 240		; 000000f0H
  00009	53		 push	 ebx
  0000a	56		 push	 esi
  0000b	57		 push	 edi
  0000c	51		 push	 ecx
  0000d	8d 7d d0	 lea	 edi, DWORD PTR [ebp-48]
  00010	6a 0c		 push	 12			; 0000000cH
  00012	59		 pop	 ecx
  00013	b8 cc cc cc cc	 mov	 eax, -858993460		; ccccccccH
  00018	f3 ab		 rep stosd
  0001a	59		 pop	 ecx
  0001b	89 4d f8	 mov	 DWORD PTR _this$[ebp], ecx
  0001e	b9 00 00 00 00	 mov	 ecx, OFFSET __05D8B7B7_atlsimpstr@h
  00023	e8 00 00 00 00	 call	 @__CheckForDebuggerJustMyCode@4

; 850  : 		CStringData* pOldData = GetData();

  00028	8b 4d f8	 mov	 ecx, DWORD PTR _this$[ebp]
  0002b	e8 00 00 00 00	 call	 ?GetData@?$CSimpleStringT@_W$0A@@ATL@@ABEPAUCStringData@2@XZ ; ATL::CSimpleStringT<wchar_t,0>::GetData
  00030	89 45 ec	 mov	 DWORD PTR _pOldData$[ebp], eax

; 851  : 		ATLASSERT( pOldData->nAllocLength < nLength );

  00033	8b 45 ec	 mov	 eax, DWORD PTR _pOldData$[ebp]
  00036	8b 40 08	 mov	 eax, DWORD PTR [eax+8]
  00039	3b 45 08	 cmp	 eax, DWORD PTR _nLength$[ebp]
  0003c	7c 26		 jl	 SHORT $LN6@Reallocate
  0003e	68 00 00 00 00	 push	 OFFSET ??_C@_1EC@BCBEFJPM@?$AAp?$AAO?$AAl?$AAd?$AAD?$AAa?$AAt?$AAa?$AA?9?$AA?$DO?$AAn?$AAA?$AAl?$AAl?$AAo@
  00043	68 00 00 00 00	 push	 OFFSET ??_C@_17CNPHIMPH@?$AA?$CF?$AAl?$AAs@
  00048	6a 00		 push	 0
  0004a	68 53 03 00 00	 push	 851			; 00000353H
  0004f	68 00 00 00 00	 push	 OFFSET ??_C@_1NO@CMNIKGIF@?$AAC?$AA?3?$AA?2?$AAP?$AAr?$AAo?$AAg?$AAr?$AAa?$AAm?$AA?5?$AAF?$AAi?$AAl?$AAe@
  00054	6a 02		 push	 2
  00056	e8 00 00 00 00	 call	 __CrtDbgReportW
  0005b	83 c4 18	 add	 esp, 24			; 00000018H
  0005e	83 f8 01	 cmp	 eax, 1
  00061	75 01		 jne	 SHORT $LN6@Reallocate
  00063	cc		 int	 3
$LN6@Reallocate:

; 852  : 		IAtlStringMgr* pStringMgr = pOldData->pStringMgr;

  00064	8b 45 ec	 mov	 eax, DWORD PTR _pOldData$[ebp]
  00067	8b 00		 mov	 eax, DWORD PTR [eax]
  00069	89 45 e0	 mov	 DWORD PTR _pStringMgr$[ebp], eax

; 853  : 		if ( pOldData->nAllocLength >= nLength || nLength <= 0)

  0006c	8b 45 ec	 mov	 eax, DWORD PTR _pOldData$[ebp]
  0006f	8b 40 08	 mov	 eax, DWORD PTR [eax+8]
  00072	3b 45 08	 cmp	 eax, DWORD PTR _nLength$[ebp]
  00075	7d 06		 jge	 SHORT $LN3@Reallocate
  00077	83 7d 08 00	 cmp	 DWORD PTR _nLength$[ebp], 0
  0007b	7f 07		 jg	 SHORT $LN2@Reallocate
$LN3@Reallocate:

; 854  : 		{
; 855  : 			ThrowMemoryException();

  0007d	e8 00 00 00 00	 call	 ?ThrowMemoryException@?$CSimpleStringT@_W$0A@@ATL@@KAXXZ ; ATL::CSimpleStringT<wchar_t,0>::ThrowMemoryException

; 856  : 			return;

  00082	eb 35		 jmp	 SHORT $LN5@Reallocate
$LN2@Reallocate:

; 857  : 		}
; 858  : 		CStringData* pNewData = pStringMgr->Reallocate( pOldData, nLength, sizeof( XCHAR ) );

  00084	8b f4		 mov	 esi, esp
  00086	6a 02		 push	 2
  00088	ff 75 08	 push	 DWORD PTR _nLength$[ebp]
  0008b	ff 75 ec	 push	 DWORD PTR _pOldData$[ebp]
  0008e	8b 45 e0	 mov	 eax, DWORD PTR _pStringMgr$[ebp]
  00091	8b 00		 mov	 eax, DWORD PTR [eax]
  00093	8b 4d e0	 mov	 ecx, DWORD PTR _pStringMgr$[ebp]
  00096	ff 50 08	 call	 DWORD PTR [eax+8]
  00099	3b f4		 cmp	 esi, esp
  0009b	e8 00 00 00 00	 call	 __RTC_CheckEsp
  000a0	89 45 d4	 mov	 DWORD PTR _pNewData$[ebp], eax

; 859  : 		if( pNewData == NULL )

  000a3	83 7d d4 00	 cmp	 DWORD PTR _pNewData$[ebp], 0
  000a7	75 05		 jne	 SHORT $LN4@Reallocate

; 860  : 		{
; 861  : 			ThrowMemoryException();

  000a9	e8 00 00 00 00	 call	 ?ThrowMemoryException@?$CSimpleStringT@_W$0A@@ATL@@KAXXZ ; ATL::CSimpleStringT<wchar_t,0>::ThrowMemoryException
$LN4@Reallocate:

; 862  : 		}
; 863  : 		Attach( pNewData );

  000ae	ff 75 d4	 push	 DWORD PTR _pNewData$[ebp]
  000b1	8b 4d f8	 mov	 ecx, DWORD PTR _this$[ebp]
  000b4	e8 00 00 00 00	 call	 ?Attach@?$CSimpleStringT@_W$0A@@ATL@@AAEXPAUCStringData@2@@Z ; ATL::CSimpleStringT<wchar_t,0>::Attach
$LN5@Reallocate:

; 864  : 	}

  000b9	5f		 pop	 edi
  000ba	5e		 pop	 esi
  000bb	5b		 pop	 ebx
  000bc	81 c4 f0 00 00
	00		 add	 esp, 240		; 000000f0H
  000c2	3b ec		 cmp	 ebp, esp
  000c4	e8 00 00 00 00	 call	 __RTC_CheckEsp
  000c9	c9		 leave
  000ca	c2 04 00	 ret	 4
?Reallocate@?$CSimpleStringT@_W$0A@@ATL@@AAEXH@Z ENDP	; ATL::CSimpleStringT<wchar_t,0>::Reallocate
_TEXT	ENDS
; Function compile flags: /Odsp /RTCsu /ZI
; File C:\Program Files\Microsoft Visual Studio\2022\Enterprise\VC\Tools\MSVC\14.34.31933\atlmfc\include\atlsimpstr.h
;	COMDAT ?PrepareWrite2@?$CSimpleStringT@_W$0A@@ATL@@AAEXH@Z
_TEXT	SEGMENT
_nNewLength$1 = -32					; size = 4
_pOldData$ = -20					; size = 4
_this$ = -8						; size = 4
_nLength$ = 8						; size = 4
?PrepareWrite2@?$CSimpleStringT@_W$0A@@ATL@@AAEXH@Z PROC ; ATL::CSimpleStringT<wchar_t,0>::PrepareWrite2, COMDAT
; _this$ = ecx

; 818  : 	{

  00000	55		 push	 ebp
  00001	8b ec		 mov	 ebp, esp
  00003	81 ec e4 00 00
	00		 sub	 esp, 228		; 000000e4H
  00009	53		 push	 ebx
  0000a	56		 push	 esi
  0000b	57		 push	 edi
  0000c	51		 push	 ecx
  0000d	8d 7d dc	 lea	 edi, DWORD PTR [ebp-36]
  00010	6a 09		 push	 9
  00012	59		 pop	 ecx
  00013	b8 cc cc cc cc	 mov	 eax, -858993460		; ccccccccH
  00018	f3 ab		 rep stosd
  0001a	59		 pop	 ecx
  0001b	89 4d f8	 mov	 DWORD PTR _this$[ebp], ecx
  0001e	b9 00 00 00 00	 mov	 ecx, OFFSET __05D8B7B7_atlsimpstr@h
  00023	e8 00 00 00 00	 call	 @__CheckForDebuggerJustMyCode@4

; 819  : 		CStringData* pOldData = GetData();

  00028	8b 4d f8	 mov	 ecx, DWORD PTR _this$[ebp]
  0002b	e8 00 00 00 00	 call	 ?GetData@?$CSimpleStringT@_W$0A@@ATL@@ABEPAUCStringData@2@XZ ; ATL::CSimpleStringT<wchar_t,0>::GetData
  00030	89 45 ec	 mov	 DWORD PTR _pOldData$[ebp], eax

; 820  : 		if( pOldData->nDataLength > nLength )

  00033	8b 45 ec	 mov	 eax, DWORD PTR _pOldData$[ebp]
  00036	8b 40 04	 mov	 eax, DWORD PTR [eax+4]
  00039	3b 45 08	 cmp	 eax, DWORD PTR _nLength$[ebp]
  0003c	7e 09		 jle	 SHORT $LN2@PrepareWri

; 821  : 		{
; 822  : 			nLength = pOldData->nDataLength;

  0003e	8b 45 ec	 mov	 eax, DWORD PTR _pOldData$[ebp]
  00041	8b 40 04	 mov	 eax, DWORD PTR [eax+4]
  00044	89 45 08	 mov	 DWORD PTR _nLength$[ebp], eax
$LN2@PrepareWri:

; 823  : 		}
; 824  : 		if( pOldData->IsShared() )

  00047	8b 4d ec	 mov	 ecx, DWORD PTR _pOldData$[ebp]
  0004a	e8 00 00 00 00	 call	 ?IsShared@CStringData@ATL@@QBE_NXZ ; ATL::CStringData::IsShared
  0004f	0f b6 c0	 movzx	 eax, al
  00052	85 c0		 test	 eax, eax
  00054	74 0d		 je	 SHORT $LN3@PrepareWri

; 825  : 		{
; 826  : 			Fork( nLength );

  00056	ff 75 08	 push	 DWORD PTR _nLength$[ebp]
  00059	8b 4d f8	 mov	 ecx, DWORD PTR _this$[ebp]
  0005c	e8 00 00 00 00	 call	 ?Fork@?$CSimpleStringT@_W$0A@@ATL@@AAEXH@Z ; ATL::CSimpleStringT<wchar_t,0>::Fork

; 827  : 		}

  00061	eb 51		 jmp	 SHORT $LN1@PrepareWri
$LN3@PrepareWri:

; 828  : 		else if( pOldData->nAllocLength < nLength )

  00063	8b 45 ec	 mov	 eax, DWORD PTR _pOldData$[ebp]
  00066	8b 40 08	 mov	 eax, DWORD PTR [eax+8]
  00069	3b 45 08	 cmp	 eax, DWORD PTR _nLength$[ebp]
  0006c	7d 46		 jge	 SHORT $LN1@PrepareWri

; 829  : 		{
; 830  : 			// Grow exponentially, until we hit 1G, then by 1M thereafter.
; 831  : 			int nNewLength = pOldData->nAllocLength;

  0006e	8b 45 ec	 mov	 eax, DWORD PTR _pOldData$[ebp]
  00071	8b 40 08	 mov	 eax, DWORD PTR [eax+8]
  00074	89 45 e0	 mov	 DWORD PTR _nNewLength$1[ebp], eax

; 832  : 			if( nNewLength > 1024 * 1024 * 1024 )

  00077	81 7d e0 00 00
	00 40		 cmp	 DWORD PTR _nNewLength$1[ebp], 1073741824 ; 40000000H
  0007e	7e 0d		 jle	 SHORT $LN6@PrepareWri

; 833  : 			{
; 834  : 				nNewLength += 1024 * 1024;

  00080	8b 45 e0	 mov	 eax, DWORD PTR _nNewLength$1[ebp]
  00083	05 00 00 10 00	 add	 eax, 1048576		; 00100000H
  00088	89 45 e0	 mov	 DWORD PTR _nNewLength$1[ebp], eax

; 835  : 			}

  0008b	eb 0e		 jmp	 SHORT $LN7@PrepareWri
$LN6@PrepareWri:

; 836  : 			else
; 837  : 			{
; 838  : 				// Exponential growth factor is 1.5.
; 839  : 				nNewLength = nNewLength + nNewLength / 2;

  0008d	8b 45 e0	 mov	 eax, DWORD PTR _nNewLength$1[ebp]
  00090	99		 cdq
  00091	2b c2		 sub	 eax, edx
  00093	d1 f8		 sar	 eax, 1
  00095	03 45 e0	 add	 eax, DWORD PTR _nNewLength$1[ebp]
  00098	89 45 e0	 mov	 DWORD PTR _nNewLength$1[ebp], eax
$LN7@PrepareWri:

; 840  : 			}
; 841  : 			if( nNewLength < nLength )

  0009b	8b 45 e0	 mov	 eax, DWORD PTR _nNewLength$1[ebp]
  0009e	3b 45 08	 cmp	 eax, DWORD PTR _nLength$[ebp]
  000a1	7d 06		 jge	 SHORT $LN8@PrepareWri

; 842  : 			{
; 843  : 				nNewLength = nLength;

  000a3	8b 45 08	 mov	 eax, DWORD PTR _nLength$[ebp]
  000a6	89 45 e0	 mov	 DWORD PTR _nNewLength$1[ebp], eax
$LN8@PrepareWri:

; 844  : 			}
; 845  : 			Reallocate( nNewLength );

  000a9	ff 75 e0	 push	 DWORD PTR _nNewLength$1[ebp]
  000ac	8b 4d f8	 mov	 ecx, DWORD PTR _this$[ebp]
  000af	e8 00 00 00 00	 call	 ?Reallocate@?$CSimpleStringT@_W$0A@@ATL@@AAEXH@Z ; ATL::CSimpleStringT<wchar_t,0>::Reallocate
$LN1@PrepareWri:

; 846  : 		}
; 847  : 	}

  000b4	5f		 pop	 edi
  000b5	5e		 pop	 esi
  000b6	5b		 pop	 ebx
  000b7	81 c4 e4 00 00
	00		 add	 esp, 228		; 000000e4H
  000bd	3b ec		 cmp	 ebp, esp
  000bf	e8 00 00 00 00	 call	 __RTC_CheckEsp
  000c4	c9		 leave
  000c5	c2 04 00	 ret	 4
?PrepareWrite2@?$CSimpleStringT@_W$0A@@ATL@@AAEXH@Z ENDP ; ATL::CSimpleStringT<wchar_t,0>::PrepareWrite2
_TEXT	ENDS
; Function compile flags: /Odsp /RTCsu /ZI
; File C:\Program Files\Microsoft Visual Studio\2022\Enterprise\VC\Tools\MSVC\14.34.31933\atlmfc\include\atlsimpstr.h
;	COMDAT ?PrepareWrite@?$CSimpleStringT@_W$0A@@ATL@@AAEPA_WH@Z
_TEXT	SEGMENT
_nTooShort$ = -44					; size = 4
_nShared$ = -32						; size = 4
_pOldData$ = -20					; size = 4
_this$ = -8						; size = 4
_nLength$ = 8						; size = 4
?PrepareWrite@?$CSimpleStringT@_W$0A@@ATL@@AAEPA_WH@Z PROC ; ATL::CSimpleStringT<wchar_t,0>::PrepareWrite, COMDAT
; _this$ = ecx

; 803  : 	{

  00000	55		 push	 ebp
  00001	8b ec		 mov	 ebp, esp
  00003	81 ec f0 00 00
	00		 sub	 esp, 240		; 000000f0H
  00009	53		 push	 ebx
  0000a	56		 push	 esi
  0000b	57		 push	 edi
  0000c	51		 push	 ecx
  0000d	8d 7d d0	 lea	 edi, DWORD PTR [ebp-48]
  00010	6a 0c		 push	 12			; 0000000cH
  00012	59		 pop	 ecx
  00013	b8 cc cc cc cc	 mov	 eax, -858993460		; ccccccccH
  00018	f3 ab		 rep stosd
  0001a	59		 pop	 ecx
  0001b	89 4d f8	 mov	 DWORD PTR _this$[ebp], ecx
  0001e	b9 00 00 00 00	 mov	 ecx, OFFSET __05D8B7B7_atlsimpstr@h
  00023	e8 00 00 00 00	 call	 @__CheckForDebuggerJustMyCode@4

; 804  : 		if (nLength < 0)

  00028	83 7d 08 00	 cmp	 DWORD PTR _nLength$[ebp], 0
  0002c	7d 0a		 jge	 SHORT $LN2@PrepareWri

; 805  : 			AtlThrow(E_INVALIDARG);

  0002e	68 57 00 07 80	 push	 -2147024809		; 80070057H
  00033	e8 00 00 00 00	 call	 ?AtlThrowImpl@ATL@@YGXJ@Z ; ATL::AtlThrowImpl
$LN2@PrepareWri:

; 806  : 
; 807  : 		CStringData* pOldData = GetData();

  00038	8b 4d f8	 mov	 ecx, DWORD PTR _this$[ebp]
  0003b	e8 00 00 00 00	 call	 ?GetData@?$CSimpleStringT@_W$0A@@ATL@@ABEPAUCStringData@2@XZ ; ATL::CSimpleStringT<wchar_t,0>::GetData
  00040	89 45 ec	 mov	 DWORD PTR _pOldData$[ebp], eax

; 808  : 		int nShared = 1-pOldData->nRefs;  // nShared < 0 means true, >= 0 means false

  00043	8b 45 ec	 mov	 eax, DWORD PTR _pOldData$[ebp]
  00046	33 c9		 xor	 ecx, ecx
  00048	41		 inc	 ecx
  00049	2b 48 0c	 sub	 ecx, DWORD PTR [eax+12]
  0004c	89 4d e0	 mov	 DWORD PTR _nShared$[ebp], ecx

; 809  : 		int nTooShort = pOldData->nAllocLength-nLength;  // nTooShort < 0 means true, >= 0 means false

  0004f	8b 45 ec	 mov	 eax, DWORD PTR _pOldData$[ebp]
  00052	8b 40 08	 mov	 eax, DWORD PTR [eax+8]
  00055	2b 45 08	 sub	 eax, DWORD PTR _nLength$[ebp]
  00058	89 45 d4	 mov	 DWORD PTR _nTooShort$[ebp], eax

; 810  : 		if( (nShared|nTooShort) < 0 )  // If either sign bit is set (i.e. either is less than zero), we need to copy data

  0005b	8b 45 e0	 mov	 eax, DWORD PTR _nShared$[ebp]
  0005e	0b 45 d4	 or	 eax, DWORD PTR _nTooShort$[ebp]
  00061	7d 0b		 jge	 SHORT $LN3@PrepareWri

; 811  : 		{
; 812  : 			PrepareWrite2( nLength );

  00063	ff 75 08	 push	 DWORD PTR _nLength$[ebp]
  00066	8b 4d f8	 mov	 ecx, DWORD PTR _this$[ebp]
  00069	e8 00 00 00 00	 call	 ?PrepareWrite2@?$CSimpleStringT@_W$0A@@ATL@@AAEXH@Z ; ATL::CSimpleStringT<wchar_t,0>::PrepareWrite2
$LN3@PrepareWri:

; 813  : 		}
; 814  : 
; 815  : 		return( m_pszData );

  0006e	8b 45 f8	 mov	 eax, DWORD PTR _this$[ebp]
  00071	8b 00		 mov	 eax, DWORD PTR [eax]
$LN4@PrepareWri:

; 816  : 	}

  00073	5f		 pop	 edi
  00074	5e		 pop	 esi
  00075	5b		 pop	 ebx
  00076	81 c4 f0 00 00
	00		 add	 esp, 240		; 000000f0H
  0007c	3b ec		 cmp	 ebp, esp
  0007e	e8 00 00 00 00	 call	 __RTC_CheckEsp
  00083	c9		 leave
  00084	c2 04 00	 ret	 4
?PrepareWrite@?$CSimpleStringT@_W$0A@@ATL@@AAEPA_WH@Z ENDP ; ATL::CSimpleStringT<wchar_t,0>::PrepareWrite
_TEXT	ENDS
; Function compile flags: /Odsp /RTCsu /ZI
; File C:\Program Files\Microsoft Visual Studio\2022\Enterprise\VC\Tools\MSVC\14.34.31933\atlmfc\include\atlsimpstr.h
;	COMDAT ?GetData@?$CSimpleStringT@_W$0A@@ATL@@ABEPAUCStringData@2@XZ
_TEXT	SEGMENT
_this$ = -8						; size = 4
?GetData@?$CSimpleStringT@_W$0A@@ATL@@ABEPAUCStringData@2@XZ PROC ; ATL::CSimpleStringT<wchar_t,0>::GetData, COMDAT
; _this$ = ecx

; 799  : 	{

  00000	55		 push	 ebp
  00001	8b ec		 mov	 ebp, esp
  00003	81 ec cc 00 00
	00		 sub	 esp, 204		; 000000ccH
  00009	53		 push	 ebx
  0000a	56		 push	 esi
  0000b	57		 push	 edi
  0000c	51		 push	 ecx
  0000d	8d 7d f4	 lea	 edi, DWORD PTR [ebp-12]
  00010	6a 03		 push	 3
  00012	59		 pop	 ecx
  00013	b8 cc cc cc cc	 mov	 eax, -858993460		; ccccccccH
  00018	f3 ab		 rep stosd
  0001a	59		 pop	 ecx
  0001b	89 4d f8	 mov	 DWORD PTR _this$[ebp], ecx
  0001e	b9 00 00 00 00	 mov	 ecx, OFFSET __05D8B7B7_atlsimpstr@h
  00023	e8 00 00 00 00	 call	 @__CheckForDebuggerJustMyCode@4

; 800  : 		return( reinterpret_cast< CStringData* >( m_pszData )-1 );

  00028	8b 45 f8	 mov	 eax, DWORD PTR _this$[ebp]
  0002b	8b 00		 mov	 eax, DWORD PTR [eax]
  0002d	83 e8 10	 sub	 eax, 16			; 00000010H

; 801  : 	}

  00030	5f		 pop	 edi
  00031	5e		 pop	 esi
  00032	5b		 pop	 ebx
  00033	81 c4 cc 00 00
	00		 add	 esp, 204		; 000000ccH
  00039	3b ec		 cmp	 ebp, esp
  0003b	e8 00 00 00 00	 call	 __RTC_CheckEsp
  00040	c9		 leave
  00041	c3		 ret	 0
?GetData@?$CSimpleStringT@_W$0A@@ATL@@ABEPAUCStringData@2@XZ ENDP ; ATL::CSimpleStringT<wchar_t,0>::GetData
_TEXT	ENDS
; Function compile flags: /Odsp /RTCsu /ZI
; File C:\Program Files\Microsoft Visual Studio\2022\Enterprise\VC\Tools\MSVC\14.34.31933\atlmfc\include\atlsimpstr.h
;	COMDAT ?Fork@?$CSimpleStringT@_W$0A@@ATL@@AAEXH@Z
_TEXT	SEGMENT
tv84 = -256						; size = 4
tv76 = -256						; size = 4
_nCharsToCopy$ = -56					; size = 4
_pNewData$ = -44					; size = 4
_nOldLength$ = -32					; size = 4
_pOldData$ = -20					; size = 4
_this$ = -8						; size = 4
_nLength$ = 8						; size = 4
?Fork@?$CSimpleStringT@_W$0A@@ATL@@AAEXH@Z PROC		; ATL::CSimpleStringT<wchar_t,0>::Fork, COMDAT
; _this$ = ecx

; 783  : 	{

  00000	55		 push	 ebp
  00001	8b ec		 mov	 ebp, esp
  00003	81 ec 00 01 00
	00		 sub	 esp, 256		; 00000100H
  00009	53		 push	 ebx
  0000a	56		 push	 esi
  0000b	57		 push	 edi
  0000c	51		 push	 ecx
  0000d	8d 7d c0	 lea	 edi, DWORD PTR [ebp-64]
  00010	6a 10		 push	 16			; 00000010H
  00012	59		 pop	 ecx
  00013	b8 cc cc cc cc	 mov	 eax, -858993460		; ccccccccH
  00018	f3 ab		 rep stosd
  0001a	59		 pop	 ecx
  0001b	89 4d f8	 mov	 DWORD PTR _this$[ebp], ecx
  0001e	b9 00 00 00 00	 mov	 ecx, OFFSET __05D8B7B7_atlsimpstr@h
  00023	e8 00 00 00 00	 call	 @__CheckForDebuggerJustMyCode@4

; 784  : 		CStringData* pOldData = GetData();

  00028	8b 4d f8	 mov	 ecx, DWORD PTR _this$[ebp]
  0002b	e8 00 00 00 00	 call	 ?GetData@?$CSimpleStringT@_W$0A@@ATL@@ABEPAUCStringData@2@XZ ; ATL::CSimpleStringT<wchar_t,0>::GetData
  00030	89 45 ec	 mov	 DWORD PTR _pOldData$[ebp], eax

; 785  : 		int nOldLength = pOldData->nDataLength;

  00033	8b 45 ec	 mov	 eax, DWORD PTR _pOldData$[ebp]
  00036	8b 40 04	 mov	 eax, DWORD PTR [eax+4]
  00039	89 45 e0	 mov	 DWORD PTR _nOldLength$[ebp], eax

; 786  : 		CStringData* pNewData = pOldData->pStringMgr->Clone()->Allocate( nLength, sizeof( XCHAR ) );

  0003c	8b 45 ec	 mov	 eax, DWORD PTR _pOldData$[ebp]
  0003f	8b 00		 mov	 eax, DWORD PTR [eax]
  00041	8b 4d ec	 mov	 ecx, DWORD PTR _pOldData$[ebp]
  00044	8b 00		 mov	 eax, DWORD PTR [eax]
  00046	8b f4		 mov	 esi, esp
  00048	8b 09		 mov	 ecx, DWORD PTR [ecx]
  0004a	ff 50 10	 call	 DWORD PTR [eax+16]
  0004d	3b f4		 cmp	 esi, esp
  0004f	e8 00 00 00 00	 call	 __RTC_CheckEsp
  00054	89 85 00 ff ff
	ff		 mov	 DWORD PTR tv76[ebp], eax
  0005a	8b f4		 mov	 esi, esp
  0005c	6a 02		 push	 2
  0005e	ff 75 08	 push	 DWORD PTR _nLength$[ebp]
  00061	8b 85 00 ff ff
	ff		 mov	 eax, DWORD PTR tv76[ebp]
  00067	8b 00		 mov	 eax, DWORD PTR [eax]
  00069	8b 8d 00 ff ff
	ff		 mov	 ecx, DWORD PTR tv76[ebp]
  0006f	ff 10		 call	 DWORD PTR [eax]
  00071	3b f4		 cmp	 esi, esp
  00073	e8 00 00 00 00	 call	 __RTC_CheckEsp
  00078	89 45 d4	 mov	 DWORD PTR _pNewData$[ebp], eax

; 787  : 		if( pNewData == NULL )

  0007b	83 7d d4 00	 cmp	 DWORD PTR _pNewData$[ebp], 0
  0007f	75 05		 jne	 SHORT $LN2@Fork

; 788  : 		{
; 789  : 			ThrowMemoryException();

  00081	e8 00 00 00 00	 call	 ?ThrowMemoryException@?$CSimpleStringT@_W$0A@@ATL@@KAXXZ ; ATL::CSimpleStringT<wchar_t,0>::ThrowMemoryException
$LN2@Fork:

; 790  : 		}
; 791  : 		int nCharsToCopy = ((nOldLength < nLength) ? nOldLength : nLength)+1;  // Copy '\0'

  00086	8b 45 e0	 mov	 eax, DWORD PTR _nOldLength$[ebp]
  00089	3b 45 08	 cmp	 eax, DWORD PTR _nLength$[ebp]
  0008c	7d 0b		 jge	 SHORT $LN4@Fork
  0008e	8b 45 e0	 mov	 eax, DWORD PTR _nOldLength$[ebp]
  00091	89 85 00 ff ff
	ff		 mov	 DWORD PTR tv84[ebp], eax
  00097	eb 09		 jmp	 SHORT $LN5@Fork
$LN4@Fork:
  00099	8b 45 08	 mov	 eax, DWORD PTR _nLength$[ebp]
  0009c	89 85 00 ff ff
	ff		 mov	 DWORD PTR tv84[ebp], eax
$LN5@Fork:
  000a2	8b 85 00 ff ff
	ff		 mov	 eax, DWORD PTR tv84[ebp]
  000a8	40		 inc	 eax
  000a9	89 45 c8	 mov	 DWORD PTR _nCharsToCopy$[ebp], eax

; 792  : 		memcpy_s( PXSTR( pNewData->data() ), nCharsToCopy * sizeof( XCHAR ),

  000ac	8b 45 c8	 mov	 eax, DWORD PTR _nCharsToCopy$[ebp]
  000af	d1 e0		 shl	 eax, 1
  000b1	50		 push	 eax
  000b2	8b 4d ec	 mov	 ecx, DWORD PTR _pOldData$[ebp]
  000b5	e8 00 00 00 00	 call	 ?data@CStringData@ATL@@QAEPAXXZ ; ATL::CStringData::data
  000ba	50		 push	 eax
  000bb	8b 45 c8	 mov	 eax, DWORD PTR _nCharsToCopy$[ebp]
  000be	d1 e0		 shl	 eax, 1
  000c0	50		 push	 eax
  000c1	8b 4d d4	 mov	 ecx, DWORD PTR _pNewData$[ebp]
  000c4	e8 00 00 00 00	 call	 ?data@CStringData@ATL@@QAEPAXXZ ; ATL::CStringData::data
  000c9	50		 push	 eax
  000ca	e8 00 00 00 00	 call	 _memcpy_s
  000cf	83 c4 10	 add	 esp, 16			; 00000010H

; 793  : 			PCXSTR( pOldData->data() ), nCharsToCopy * sizeof( XCHAR ));
; 794  : 		pNewData->nDataLength = nOldLength;

  000d2	8b 45 d4	 mov	 eax, DWORD PTR _pNewData$[ebp]
  000d5	8b 4d e0	 mov	 ecx, DWORD PTR _nOldLength$[ebp]
  000d8	89 48 04	 mov	 DWORD PTR [eax+4], ecx

; 795  : 		pOldData->Release();

  000db	8b 4d ec	 mov	 ecx, DWORD PTR _pOldData$[ebp]
  000de	e8 00 00 00 00	 call	 ?Release@CStringData@ATL@@QAEXXZ ; ATL::CStringData::Release

; 796  : 		Attach( pNewData );

  000e3	ff 75 d4	 push	 DWORD PTR _pNewData$[ebp]
  000e6	8b 4d f8	 mov	 ecx, DWORD PTR _this$[ebp]
  000e9	e8 00 00 00 00	 call	 ?Attach@?$CSimpleStringT@_W$0A@@ATL@@AAEXPAUCStringData@2@@Z ; ATL::CSimpleStringT<wchar_t,0>::Attach
$LN3@Fork:

; 797  : 	}

  000ee	5f		 pop	 edi
  000ef	5e		 pop	 esi
  000f0	5b		 pop	 ebx
  000f1	81 c4 00 01 00
	00		 add	 esp, 256		; 00000100H
  000f7	3b ec		 cmp	 ebp, esp
  000f9	e8 00 00 00 00	 call	 __RTC_CheckEsp
  000fe	c9		 leave
  000ff	c2 04 00	 ret	 4
?Fork@?$CSimpleStringT@_W$0A@@ATL@@AAEXH@Z ENDP		; ATL::CSimpleStringT<wchar_t,0>::Fork
_TEXT	ENDS
; Function compile flags: /Odsp /RTCsu /ZI
; File C:\Program Files\Microsoft Visual Studio\2022\Enterprise\VC\Tools\MSVC\14.34.31933\atlmfc\include\atlsimpstr.h
;	COMDAT ?Attach@?$CSimpleStringT@_W$0A@@ATL@@AAEXPAUCStringData@2@@Z
_TEXT	SEGMENT
_this$ = -8						; size = 4
_pData$ = 8						; size = 4
?Attach@?$CSimpleStringT@_W$0A@@ATL@@AAEXPAUCStringData@2@@Z PROC ; ATL::CSimpleStringT<wchar_t,0>::Attach, COMDAT
; _this$ = ecx

; 779  : 	{

  00000	55		 push	 ebp
  00001	8b ec		 mov	 ebp, esp
  00003	81 ec cc 00 00
	00		 sub	 esp, 204		; 000000ccH
  00009	53		 push	 ebx
  0000a	56		 push	 esi
  0000b	57		 push	 edi
  0000c	51		 push	 ecx
  0000d	8d 7d f4	 lea	 edi, DWORD PTR [ebp-12]
  00010	6a 03		 push	 3
  00012	59		 pop	 ecx
  00013	b8 cc cc cc cc	 mov	 eax, -858993460		; ccccccccH
  00018	f3 ab		 rep stosd
  0001a	59		 pop	 ecx
  0001b	89 4d f8	 mov	 DWORD PTR _this$[ebp], ecx
  0001e	b9 00 00 00 00	 mov	 ecx, OFFSET __05D8B7B7_atlsimpstr@h
  00023	e8 00 00 00 00	 call	 @__CheckForDebuggerJustMyCode@4

; 780  : 		m_pszData = static_cast< PXSTR >( pData->data() );

  00028	8b 4d 08	 mov	 ecx, DWORD PTR _pData$[ebp]
  0002b	e8 00 00 00 00	 call	 ?data@CStringData@ATL@@QAEPAXXZ ; ATL::CStringData::data
  00030	8b 4d f8	 mov	 ecx, DWORD PTR _this$[ebp]
  00033	89 01		 mov	 DWORD PTR [ecx], eax

; 781  : 	}

  00035	5f		 pop	 edi
  00036	5e		 pop	 esi
  00037	5b		 pop	 ebx
  00038	81 c4 cc 00 00
	00		 add	 esp, 204		; 000000ccH
  0003e	3b ec		 cmp	 ebp, esp
  00040	e8 00 00 00 00	 call	 __RTC_CheckEsp
  00045	c9		 leave
  00046	c2 04 00	 ret	 4
?Attach@?$CSimpleStringT@_W$0A@@ATL@@AAEXPAUCStringData@2@@Z ENDP ; ATL::CSimpleStringT<wchar_t,0>::Attach
_TEXT	ENDS
; Function compile flags: /Odsp /RTCsu /ZI
; File C:\Program Files\Microsoft Visual Studio\2022\Enterprise\VC\Tools\MSVC\14.34.31933\atlmfc\include\atlsimpstr.h
;	COMDAT ?ThrowMemoryException@?$CSimpleStringT@_W$0A@@ATL@@KAXXZ
_TEXT	SEGMENT
?ThrowMemoryException@?$CSimpleStringT@_W$0A@@ATL@@KAXXZ PROC ; ATL::CSimpleStringT<wchar_t,0>::ThrowMemoryException, COMDAT

; 772  : 	{

  00000	55		 push	 ebp
  00001	8b ec		 mov	 ebp, esp
  00003	81 ec c0 00 00
	00		 sub	 esp, 192		; 000000c0H
  00009	53		 push	 ebx
  0000a	56		 push	 esi
  0000b	57		 push	 edi
  0000c	8b fd		 mov	 edi, ebp
  0000e	33 c9		 xor	 ecx, ecx
  00010	b8 cc cc cc cc	 mov	 eax, -858993460		; ccccccccH
  00015	f3 ab		 rep stosd
  00017	b9 00 00 00 00	 mov	 ecx, OFFSET __05D8B7B7_atlsimpstr@h
  0001c	e8 00 00 00 00	 call	 @__CheckForDebuggerJustMyCode@4

; 773  : 		AtlThrow( E_OUTOFMEMORY );

  00021	68 0e 00 07 80	 push	 -2147024882		; 8007000eH
  00026	e8 00 00 00 00	 call	 ?AtlThrowImpl@ATL@@YGXJ@Z ; ATL::AtlThrowImpl
$LN2@ThrowMemor:

; 774  : 	}

  0002b	5f		 pop	 edi
  0002c	5e		 pop	 esi
  0002d	5b		 pop	 ebx
  0002e	81 c4 c0 00 00
	00		 add	 esp, 192		; 000000c0H
  00034	3b ec		 cmp	 ebp, esp
  00036	e8 00 00 00 00	 call	 __RTC_CheckEsp
  0003b	c9		 leave
  0003c	c3		 ret	 0
?ThrowMemoryException@?$CSimpleStringT@_W$0A@@ATL@@KAXXZ ENDP ; ATL::CSimpleStringT<wchar_t,0>::ThrowMemoryException
_TEXT	ENDS
; Function compile flags: /Odsp /RTCsu /ZI
; File C:\Program Files\Microsoft Visual Studio\2022\Enterprise\VC\Tools\MSVC\14.34.31933\atlmfc\include\atlsimpstr.h
;	COMDAT ?Concatenate@?$CSimpleStringT@_W$0A@@ATL@@KAXAAV12@PB_WH1H@Z
_TEXT	SEGMENT
_pszBuffer$ = -20					; size = 4
_nNewLength$ = -8					; size = 4
_strResult$ = 8						; size = 4
_psz1$ = 12						; size = 4
_nLength1$ = 16						; size = 4
_psz2$ = 20						; size = 4
_nLength2$ = 24						; size = 4
?Concatenate@?$CSimpleStringT@_W$0A@@ATL@@KAXAAV12@PB_WH1H@Z PROC ; ATL::CSimpleStringT<wchar_t,0>::Concatenate, COMDAT

; 764  : 	{

  00000	55		 push	 ebp
  00001	8b ec		 mov	 ebp, esp
  00003	81 ec d8 00 00
	00		 sub	 esp, 216		; 000000d8H
  00009	53		 push	 ebx
  0000a	56		 push	 esi
  0000b	57		 push	 edi
  0000c	8d 7d e8	 lea	 edi, DWORD PTR [ebp-24]
  0000f	6a 06		 push	 6
  00011	59		 pop	 ecx
  00012	b8 cc cc cc cc	 mov	 eax, -858993460		; ccccccccH
  00017	f3 ab		 rep stosd
  00019	b9 00 00 00 00	 mov	 ecx, OFFSET __05D8B7B7_atlsimpstr@h
  0001e	e8 00 00 00 00	 call	 @__CheckForDebuggerJustMyCode@4

; 765  : 		int nNewLength = nLength1+nLength2;

  00023	8b 45 10	 mov	 eax, DWORD PTR _nLength1$[ebp]
  00026	03 45 18	 add	 eax, DWORD PTR _nLength2$[ebp]
  00029	89 45 f8	 mov	 DWORD PTR _nNewLength$[ebp], eax

; 766  : 		PXSTR pszBuffer = strResult.GetBuffer( nNewLength );

  0002c	ff 75 f8	 push	 DWORD PTR _nNewLength$[ebp]
  0002f	8b 4d 08	 mov	 ecx, DWORD PTR _strResult$[ebp]
  00032	e8 00 00 00 00	 call	 ?GetBuffer@?$CSimpleStringT@_W$0A@@ATL@@QAEPA_WH@Z ; ATL::CSimpleStringT<wchar_t,0>::GetBuffer
  00037	89 45 ec	 mov	 DWORD PTR _pszBuffer$[ebp], eax

; 767  : 		memcpy_s( pszBuffer, nLength1 * sizeof( XCHAR ), psz1, nLength1 * sizeof( XCHAR ));

  0003a	8b 45 10	 mov	 eax, DWORD PTR _nLength1$[ebp]
  0003d	d1 e0		 shl	 eax, 1
  0003f	50		 push	 eax
  00040	ff 75 0c	 push	 DWORD PTR _psz1$[ebp]
  00043	8b 45 10	 mov	 eax, DWORD PTR _nLength1$[ebp]
  00046	d1 e0		 shl	 eax, 1
  00048	50		 push	 eax
  00049	ff 75 ec	 push	 DWORD PTR _pszBuffer$[ebp]
  0004c	e8 00 00 00 00	 call	 _memcpy_s
  00051	83 c4 10	 add	 esp, 16			; 00000010H

; 768  : 		memcpy_s( pszBuffer+nLength1, nLength2 * sizeof( XCHAR ), psz2, nLength2 * sizeof( XCHAR ));

  00054	8b 45 18	 mov	 eax, DWORD PTR _nLength2$[ebp]
  00057	d1 e0		 shl	 eax, 1
  00059	50		 push	 eax
  0005a	ff 75 14	 push	 DWORD PTR _psz2$[ebp]
  0005d	8b 45 18	 mov	 eax, DWORD PTR _nLength2$[ebp]
  00060	d1 e0		 shl	 eax, 1
  00062	50		 push	 eax
  00063	8b 45 10	 mov	 eax, DWORD PTR _nLength1$[ebp]
  00066	8b 4d ec	 mov	 ecx, DWORD PTR _pszBuffer$[ebp]
  00069	8d 04 41	 lea	 eax, DWORD PTR [ecx+eax*2]
  0006c	50		 push	 eax
  0006d	e8 00 00 00 00	 call	 _memcpy_s
  00072	83 c4 10	 add	 esp, 16			; 00000010H

; 769  : 		strResult.ReleaseBufferSetLength( nNewLength );

  00075	ff 75 f8	 push	 DWORD PTR _nNewLength$[ebp]
  00078	8b 4d 08	 mov	 ecx, DWORD PTR _strResult$[ebp]
  0007b	e8 00 00 00 00	 call	 ?ReleaseBufferSetLength@?$CSimpleStringT@_W$0A@@ATL@@QAEXH@Z ; ATL::CSimpleStringT<wchar_t,0>::ReleaseBufferSetLength

; 770  : 	}

  00080	5f		 pop	 edi
  00081	5e		 pop	 esi
  00082	5b		 pop	 ebx
  00083	81 c4 d8 00 00
	00		 add	 esp, 216		; 000000d8H
  00089	3b ec		 cmp	 ebp, esp
  0008b	e8 00 00 00 00	 call	 __RTC_CheckEsp
  00090	c9		 leave
  00091	c3		 ret	 0
?Concatenate@?$CSimpleStringT@_W$0A@@ATL@@KAXAAV12@PB_WH1H@Z ENDP ; ATL::CSimpleStringT<wchar_t,0>::Concatenate
_TEXT	ENDS
; Function compile flags: /Odsp /RTCsu /ZI
; File C:\Program Files\Microsoft Visual Studio\2022\Enterprise\VC\Tools\MSVC\14.34.31933\atlmfc\include\atlsimpstr.h
;	COMDAT ?StringLengthN@?$CSimpleStringT@_W$0A@@ATL@@SAHPB_WI@Z
_TEXT	SEGMENT
_psz$ = 8						; size = 4
_sizeInXChar$ = 12					; size = 4
?StringLengthN@?$CSimpleStringT@_W$0A@@ATL@@SAHPB_WI@Z PROC ; ATL::CSimpleStringT<wchar_t,0>::StringLengthN, COMDAT

; 749  : 	{

  00000	55		 push	 ebp
  00001	8b ec		 mov	 ebp, esp
  00003	81 ec c0 00 00
	00		 sub	 esp, 192		; 000000c0H
  00009	53		 push	 ebx
  0000a	56		 push	 esi
  0000b	57		 push	 edi
  0000c	8b fd		 mov	 edi, ebp
  0000e	33 c9		 xor	 ecx, ecx
  00010	b8 cc cc cc cc	 mov	 eax, -858993460		; ccccccccH
  00015	f3 ab		 rep stosd
  00017	b9 00 00 00 00	 mov	 ecx, OFFSET __05D8B7B7_atlsimpstr@h
  0001c	e8 00 00 00 00	 call	 @__CheckForDebuggerJustMyCode@4

; 750  : 		if( psz == NULL )

  00021	83 7d 08 00	 cmp	 DWORD PTR _psz$[ebp], 0
  00025	75 04		 jne	 SHORT $LN2@StringLeng

; 751  : 		{
; 752  : 			return( 0 );

  00027	33 c0		 xor	 eax, eax
  00029	eb 0d		 jmp	 SHORT $LN1@StringLeng
$LN2@StringLeng:

; 753  : 		}
; 754  : 		return( int( wcsnlen( psz, sizeInXChar ) ) );

  0002b	ff 75 0c	 push	 DWORD PTR _sizeInXChar$[ebp]
  0002e	ff 75 08	 push	 DWORD PTR _psz$[ebp]
  00031	e8 00 00 00 00	 call	 _wcsnlen
  00036	59		 pop	 ecx
  00037	59		 pop	 ecx
$LN1@StringLeng:

; 755  : 	}

  00038	5f		 pop	 edi
  00039	5e		 pop	 esi
  0003a	5b		 pop	 ebx
  0003b	81 c4 c0 00 00
	00		 add	 esp, 192		; 000000c0H
  00041	3b ec		 cmp	 ebp, esp
  00043	e8 00 00 00 00	 call	 __RTC_CheckEsp
  00048	c9		 leave
  00049	c3		 ret	 0
?StringLengthN@?$CSimpleStringT@_W$0A@@ATL@@SAHPB_WI@Z ENDP ; ATL::CSimpleStringT<wchar_t,0>::StringLengthN
_TEXT	ENDS
; Function compile flags: /Odsp /RTCsu /ZI
; File C:\Program Files\Microsoft Visual Studio\2022\Enterprise\VC\Tools\MSVC\14.34.31933\atlmfc\include\atlsimpstr.h
;	COMDAT ?StringLength@?$CSimpleStringT@_W$0A@@ATL@@SAHPB_W@Z
_TEXT	SEGMENT
_psz$ = 8						; size = 4
?StringLength@?$CSimpleStringT@_W$0A@@ATL@@SAHPB_W@Z PROC ; ATL::CSimpleStringT<wchar_t,0>::StringLength, COMDAT

; 729  : 	{

  00000	55		 push	 ebp
  00001	8b ec		 mov	 ebp, esp
  00003	81 ec c0 00 00
	00		 sub	 esp, 192		; 000000c0H
  00009	53		 push	 ebx
  0000a	56		 push	 esi
  0000b	57		 push	 edi
  0000c	8b fd		 mov	 edi, ebp
  0000e	33 c9		 xor	 ecx, ecx
  00010	b8 cc cc cc cc	 mov	 eax, -858993460		; ccccccccH
  00015	f3 ab		 rep stosd
  00017	b9 00 00 00 00	 mov	 ecx, OFFSET __05D8B7B7_atlsimpstr@h
  0001c	e8 00 00 00 00	 call	 @__CheckForDebuggerJustMyCode@4

; 730  : 		if( psz == NULL )

  00021	83 7d 08 00	 cmp	 DWORD PTR _psz$[ebp], 0
  00025	75 04		 jne	 SHORT $LN2@StringLeng

; 731  : 		{
; 732  : 			return( 0 );

  00027	33 c0		 xor	 eax, eax
  00029	eb 09		 jmp	 SHORT $LN1@StringLeng
$LN2@StringLeng:

; 733  : 		}
; 734  : 		return( int( wcslen( psz ) ) );

  0002b	ff 75 08	 push	 DWORD PTR _psz$[ebp]
  0002e	e8 00 00 00 00	 call	 _wcslen
  00033	59		 pop	 ecx
$LN1@StringLeng:

; 735  : 	}

  00034	5f		 pop	 edi
  00035	5e		 pop	 esi
  00036	5b		 pop	 ebx
  00037	81 c4 c0 00 00
	00		 add	 esp, 192		; 000000c0H
  0003d	3b ec		 cmp	 ebp, esp
  0003f	e8 00 00 00 00	 call	 __RTC_CheckEsp
  00044	c9		 leave
  00045	c3		 ret	 0
?StringLength@?$CSimpleStringT@_W$0A@@ATL@@SAHPB_W@Z ENDP ; ATL::CSimpleStringT<wchar_t,0>::StringLength
_TEXT	ENDS
; Function compile flags: /Odsp /RTCsu /ZI
; File C:\Program Files\Microsoft Visual Studio\2022\Enterprise\VC\Tools\MSVC\14.34.31933\atlmfc\include\atlsimpstr.h
;	COMDAT ?CopyCharsOverlapped@?$CSimpleStringT@_W$0A@@ATL@@SAXPA_WIPB_WH@Z
_TEXT	SEGMENT
_pchDest$ = 8						; size = 4
_nDestLen$ = 12						; size = 4
_pchSrc$ = 16						; size = 4
_nChars$ = 20						; size = 4
?CopyCharsOverlapped@?$CSimpleStringT@_W$0A@@ATL@@SAXPA_WIPB_WH@Z PROC ; ATL::CSimpleStringT<wchar_t,0>::CopyCharsOverlapped, COMDAT

; 716  : 	{

  00000	55		 push	 ebp
  00001	8b ec		 mov	 ebp, esp
  00003	81 ec c0 00 00
	00		 sub	 esp, 192		; 000000c0H
  00009	53		 push	 ebx
  0000a	56		 push	 esi
  0000b	57		 push	 edi
  0000c	8b fd		 mov	 edi, ebp
  0000e	33 c9		 xor	 ecx, ecx
  00010	b8 cc cc cc cc	 mov	 eax, -858993460		; ccccccccH
  00015	f3 ab		 rep stosd
  00017	b9 00 00 00 00	 mov	 ecx, OFFSET __05D8B7B7_atlsimpstr@h
  0001c	e8 00 00 00 00	 call	 @__CheckForDebuggerJustMyCode@4

; 717  : 		memmove_s( pchDest, nDestLen*sizeof( XCHAR ),

  00021	8b 45 14	 mov	 eax, DWORD PTR _nChars$[ebp]
  00024	d1 e0		 shl	 eax, 1
  00026	50		 push	 eax
  00027	ff 75 10	 push	 DWORD PTR _pchSrc$[ebp]
  0002a	8b 45 0c	 mov	 eax, DWORD PTR _nDestLen$[ebp]
  0002d	d1 e0		 shl	 eax, 1
  0002f	50		 push	 eax
  00030	ff 75 08	 push	 DWORD PTR _pchDest$[ebp]
  00033	e8 00 00 00 00	 call	 _memmove_s
  00038	83 c4 10	 add	 esp, 16			; 00000010H

; 718  : 			pchSrc, nChars*sizeof( XCHAR ) );
; 719  : 	}

  0003b	5f		 pop	 edi
  0003c	5e		 pop	 esi
  0003d	5b		 pop	 ebx
  0003e	81 c4 c0 00 00
	00		 add	 esp, 192		; 000000c0H
  00044	3b ec		 cmp	 ebp, esp
  00046	e8 00 00 00 00	 call	 __RTC_CheckEsp
  0004b	c9		 leave
  0004c	c3		 ret	 0
?CopyCharsOverlapped@?$CSimpleStringT@_W$0A@@ATL@@SAXPA_WIPB_WH@Z ENDP ; ATL::CSimpleStringT<wchar_t,0>::CopyCharsOverlapped
_TEXT	ENDS
; Function compile flags: /Odsp /RTCsu /ZI
; File C:\Program Files\Microsoft Visual Studio\2022\Enterprise\VC\Tools\MSVC\14.34.31933\atlmfc\include\atlsimpstr.h
;	COMDAT ?SetString@?$CSimpleStringT@_W$0A@@ATL@@QAEXPB_WH@Z
_TEXT	SEGMENT
_pszBuffer$1 = -44					; size = 4
_nOffset$2 = -32					; size = 4
_nOldLength$3 = -20					; size = 4
_this$ = -8						; size = 4
_pszSrc$ = 8						; size = 4
_nLength$ = 12						; size = 4
?SetString@?$CSimpleStringT@_W$0A@@ATL@@QAEXPB_WH@Z PROC ; ATL::CSimpleStringT<wchar_t,0>::SetString, COMDAT
; _this$ = ecx

; 607  : 	{

  00000	55		 push	 ebp
  00001	8b ec		 mov	 ebp, esp
  00003	81 ec f0 00 00
	00		 sub	 esp, 240		; 000000f0H
  00009	53		 push	 ebx
  0000a	56		 push	 esi
  0000b	57		 push	 edi
  0000c	51		 push	 ecx
  0000d	8d 7d d0	 lea	 edi, DWORD PTR [ebp-48]
  00010	6a 0c		 push	 12			; 0000000cH
  00012	59		 pop	 ecx
  00013	b8 cc cc cc cc	 mov	 eax, -858993460		; ccccccccH
  00018	f3 ab		 rep stosd
  0001a	59		 pop	 ecx
  0001b	89 4d f8	 mov	 DWORD PTR _this$[ebp], ecx
  0001e	b9 00 00 00 00	 mov	 ecx, OFFSET __05D8B7B7_atlsimpstr@h
  00023	e8 00 00 00 00	 call	 @__CheckForDebuggerJustMyCode@4

; 608  : 		if( nLength == 0 )

  00028	83 7d 0c 00	 cmp	 DWORD PTR _nLength$[ebp], 0
  0002c	75 0d		 jne	 SHORT $LN2@SetString

; 609  : 		{
; 610  : 			Empty();

  0002e	8b 4d f8	 mov	 ecx, DWORD PTR _this$[ebp]
  00031	e8 00 00 00 00	 call	 ?Empty@?$CSimpleStringT@_W$0A@@ATL@@QAEXXZ ; ATL::CSimpleStringT<wchar_t,0>::Empty

; 611  : 		}

  00036	e9 90 00 00 00	 jmp	 $LN7@SetString
$LN2@SetString:

; 612  : 		else
; 613  : 		{
; 614  : 			// It is possible that pszSrc points to a location inside of our
; 615  : 			// buffer.  GetBuffer() might change m_pszData if (1) the buffer
; 616  : 			// is shared or (2) the buffer is too small to hold the new
; 617  : 			// string.  We detect this aliasing, and modify pszSrc to point
; 618  : 			// into the newly allocated buffer instead.
; 619  : 
; 620  : 			if(pszSrc == NULL)

  0003b	83 7d 08 00	 cmp	 DWORD PTR _pszSrc$[ebp], 0
  0003f	75 0a		 jne	 SHORT $LN4@SetString

; 621  : 				AtlThrow(E_INVALIDARG);

  00041	68 57 00 07 80	 push	 -2147024809		; 80070057H
  00046	e8 00 00 00 00	 call	 ?AtlThrowImpl@ATL@@YGXJ@Z ; ATL::AtlThrowImpl
$LN4@SetString:

; 622  : 
; 623  : 			UINT nOldLength = GetLength();

  0004b	8b 4d f8	 mov	 ecx, DWORD PTR _this$[ebp]
  0004e	e8 00 00 00 00	 call	 ?GetLength@?$CSimpleStringT@_W$0A@@ATL@@QBEHXZ ; ATL::CSimpleStringT<wchar_t,0>::GetLength
  00053	89 45 ec	 mov	 DWORD PTR _nOldLength$3[ebp], eax

; 624  : 			UINT_PTR nOffset = pszSrc-GetString();

  00056	8b 4d f8	 mov	 ecx, DWORD PTR _this$[ebp]
  00059	e8 00 00 00 00	 call	 ?GetString@?$CSimpleStringT@_W$0A@@ATL@@QBEPB_WXZ ; ATL::CSimpleStringT<wchar_t,0>::GetString
  0005e	8b 4d 08	 mov	 ecx, DWORD PTR _pszSrc$[ebp]
  00061	2b c8		 sub	 ecx, eax
  00063	d1 f9		 sar	 ecx, 1
  00065	89 4d e0	 mov	 DWORD PTR _nOffset$2[ebp], ecx

; 625  : 			// If 0 <= nOffset <= nOldLength, then pszSrc points into our
; 626  : 			// buffer
; 627  : 
; 628  : 			PXSTR pszBuffer = GetBuffer( nLength );

  00068	ff 75 0c	 push	 DWORD PTR _nLength$[ebp]
  0006b	8b 4d f8	 mov	 ecx, DWORD PTR _this$[ebp]
  0006e	e8 00 00 00 00	 call	 ?GetBuffer@?$CSimpleStringT@_W$0A@@ATL@@QAEPA_WH@Z ; ATL::CSimpleStringT<wchar_t,0>::GetBuffer
  00073	89 45 d4	 mov	 DWORD PTR _pszBuffer$1[ebp], eax

; 629  : 			if( nOffset <= nOldLength )

  00076	8b 45 e0	 mov	 eax, DWORD PTR _nOffset$2[ebp]
  00079	3b 45 ec	 cmp	 eax, DWORD PTR _nOldLength$3[ebp]
  0007c	77 23		 ja	 SHORT $LN5@SetString

; 630  : 			{
; 631  : 				CopyCharsOverlapped( pszBuffer, GetAllocLength(),

  0007e	ff 75 0c	 push	 DWORD PTR _nLength$[ebp]
  00081	8b 45 e0	 mov	 eax, DWORD PTR _nOffset$2[ebp]
  00084	8b 4d d4	 mov	 ecx, DWORD PTR _pszBuffer$1[ebp]
  00087	8d 04 41	 lea	 eax, DWORD PTR [ecx+eax*2]
  0008a	50		 push	 eax
  0008b	8b 4d f8	 mov	 ecx, DWORD PTR _this$[ebp]
  0008e	e8 00 00 00 00	 call	 ?GetAllocLength@?$CSimpleStringT@_W$0A@@ATL@@QBEHXZ ; ATL::CSimpleStringT<wchar_t,0>::GetAllocLength
  00093	50		 push	 eax
  00094	ff 75 d4	 push	 DWORD PTR _pszBuffer$1[ebp]
  00097	e8 00 00 00 00	 call	 ?CopyCharsOverlapped@?$CSimpleStringT@_W$0A@@ATL@@SAXPA_WIPB_WH@Z ; ATL::CSimpleStringT<wchar_t,0>::CopyCharsOverlapped
  0009c	83 c4 10	 add	 esp, 16			; 00000010H

; 632  : 					pszBuffer+nOffset, nLength );
; 633  : 			}

  0009f	eb 1f		 jmp	 SHORT $LN6@SetString
$LN5@SetString:

; 634  : 			else
; 635  : 			{
; 636  : 				memcpy_s( pszBuffer, GetAllocLength() * sizeof( XCHAR ), pszSrc, nLength * sizeof( XCHAR ));

  000a1	8b 45 0c	 mov	 eax, DWORD PTR _nLength$[ebp]
  000a4	d1 e0		 shl	 eax, 1
  000a6	50		 push	 eax
  000a7	ff 75 08	 push	 DWORD PTR _pszSrc$[ebp]
  000aa	8b 4d f8	 mov	 ecx, DWORD PTR _this$[ebp]
  000ad	e8 00 00 00 00	 call	 ?GetAllocLength@?$CSimpleStringT@_W$0A@@ATL@@QBEHXZ ; ATL::CSimpleStringT<wchar_t,0>::GetAllocLength
  000b2	d1 e0		 shl	 eax, 1
  000b4	50		 push	 eax
  000b5	ff 75 d4	 push	 DWORD PTR _pszBuffer$1[ebp]
  000b8	e8 00 00 00 00	 call	 _memcpy_s
  000bd	83 c4 10	 add	 esp, 16			; 00000010H
$LN6@SetString:

; 637  : 			}
; 638  : 			ReleaseBufferSetLength( nLength );

  000c0	ff 75 0c	 push	 DWORD PTR _nLength$[ebp]
  000c3	8b 4d f8	 mov	 ecx, DWORD PTR _this$[ebp]
  000c6	e8 00 00 00 00	 call	 ?ReleaseBufferSetLength@?$CSimpleStringT@_W$0A@@ATL@@QAEXH@Z ; ATL::CSimpleStringT<wchar_t,0>::ReleaseBufferSetLength
$LN7@SetString:

; 639  : 		}
; 640  : 	}

  000cb	5f		 pop	 edi
  000cc	5e		 pop	 esi
  000cd	5b		 pop	 ebx
  000ce	81 c4 f0 00 00
	00		 add	 esp, 240		; 000000f0H
  000d4	3b ec		 cmp	 ebp, esp
  000d6	e8 00 00 00 00	 call	 __RTC_CheckEsp
  000db	c9		 leave
  000dc	c2 08 00	 ret	 8
?SetString@?$CSimpleStringT@_W$0A@@ATL@@QAEXPB_WH@Z ENDP ; ATL::CSimpleStringT<wchar_t,0>::SetString
_TEXT	ENDS
; Function compile flags: /Odsp /RTCsu /ZI
; File C:\Program Files\Microsoft Visual Studio\2022\Enterprise\VC\Tools\MSVC\14.34.31933\atlmfc\include\atlsimpstr.h
;	COMDAT ?SetString@?$CSimpleStringT@_W$0A@@ATL@@QAEXPB_W@Z
_TEXT	SEGMENT
_this$ = -8						; size = 4
_pszSrc$ = 8						; size = 4
?SetString@?$CSimpleStringT@_W$0A@@ATL@@QAEXPB_W@Z PROC	; ATL::CSimpleStringT<wchar_t,0>::SetString, COMDAT
; _this$ = ecx

; 601  : 	{

  00000	55		 push	 ebp
  00001	8b ec		 mov	 ebp, esp
  00003	81 ec cc 00 00
	00		 sub	 esp, 204		; 000000ccH
  00009	53		 push	 ebx
  0000a	56		 push	 esi
  0000b	57		 push	 edi
  0000c	51		 push	 ecx
  0000d	8d 7d f4	 lea	 edi, DWORD PTR [ebp-12]
  00010	6a 03		 push	 3
  00012	59		 pop	 ecx
  00013	b8 cc cc cc cc	 mov	 eax, -858993460		; ccccccccH
  00018	f3 ab		 rep stosd
  0001a	59		 pop	 ecx
  0001b	89 4d f8	 mov	 DWORD PTR _this$[ebp], ecx
  0001e	b9 00 00 00 00	 mov	 ecx, OFFSET __05D8B7B7_atlsimpstr@h
  00023	e8 00 00 00 00	 call	 @__CheckForDebuggerJustMyCode@4

; 602  : 		SetString( pszSrc, StringLength( pszSrc ) );

  00028	ff 75 08	 push	 DWORD PTR _pszSrc$[ebp]
  0002b	e8 00 00 00 00	 call	 ?StringLength@?$CSimpleStringT@_W$0A@@ATL@@SAHPB_W@Z ; ATL::CSimpleStringT<wchar_t,0>::StringLength
  00030	59		 pop	 ecx
  00031	50		 push	 eax
  00032	ff 75 08	 push	 DWORD PTR _pszSrc$[ebp]
  00035	8b 4d f8	 mov	 ecx, DWORD PTR _this$[ebp]
  00038	e8 00 00 00 00	 call	 ?SetString@?$CSimpleStringT@_W$0A@@ATL@@QAEXPB_WH@Z ; ATL::CSimpleStringT<wchar_t,0>::SetString

; 603  : 	}

  0003d	5f		 pop	 edi
  0003e	5e		 pop	 esi
  0003f	5b		 pop	 ebx
  00040	81 c4 cc 00 00
	00		 add	 esp, 204		; 000000ccH
  00046	3b ec		 cmp	 ebp, esp
  00048	e8 00 00 00 00	 call	 __RTC_CheckEsp
  0004d	c9		 leave
  0004e	c2 04 00	 ret	 4
?SetString@?$CSimpleStringT@_W$0A@@ATL@@QAEXPB_W@Z ENDP	; ATL::CSimpleStringT<wchar_t,0>::SetString
_TEXT	ENDS
; Function compile flags: /Odsp /RTCsu /ZI
; File C:\Program Files\Microsoft Visual Studio\2022\Enterprise\VC\Tools\MSVC\14.34.31933\atlmfc\include\atlsimpstr.h
;	COMDAT ?ReleaseBufferSetLength@?$CSimpleStringT@_W$0A@@ATL@@QAEXH@Z
_TEXT	SEGMENT
_this$ = -8						; size = 4
_nNewLength$ = 8					; size = 4
?ReleaseBufferSetLength@?$CSimpleStringT@_W$0A@@ATL@@QAEXH@Z PROC ; ATL::CSimpleStringT<wchar_t,0>::ReleaseBufferSetLength, COMDAT
; _this$ = ecx

; 566  : 	{

  00000	55		 push	 ebp
  00001	8b ec		 mov	 ebp, esp
  00003	81 ec cc 00 00
	00		 sub	 esp, 204		; 000000ccH
  00009	53		 push	 ebx
  0000a	56		 push	 esi
  0000b	57		 push	 edi
  0000c	51		 push	 ecx
  0000d	8d 7d f4	 lea	 edi, DWORD PTR [ebp-12]
  00010	6a 03		 push	 3
  00012	59		 pop	 ecx
  00013	b8 cc cc cc cc	 mov	 eax, -858993460		; ccccccccH
  00018	f3 ab		 rep stosd
  0001a	59		 pop	 ecx
  0001b	89 4d f8	 mov	 DWORD PTR _this$[ebp], ecx
  0001e	b9 00 00 00 00	 mov	 ecx, OFFSET __05D8B7B7_atlsimpstr@h
  00023	e8 00 00 00 00	 call	 @__CheckForDebuggerJustMyCode@4

; 567  : 		ATLASSERT( nNewLength >= 0 );

  00028	83 7d 08 00	 cmp	 DWORD PTR _nNewLength$[ebp], 0
  0002c	7d 26		 jge	 SHORT $LN3@ReleaseBuf
  0002e	68 00 00 00 00	 push	 OFFSET ??_C@_1CA@FILBIMGF@?$AAn?$AAN?$AAe?$AAw?$AAL?$AAe?$AAn?$AAg?$AAt?$AAh?$AA?5?$AA?$DO?$AA?$DN?$AA?5?$AA0@
  00033	68 00 00 00 00	 push	 OFFSET ??_C@_17CNPHIMPH@?$AA?$CF?$AAl?$AAs@
  00038	6a 00		 push	 0
  0003a	68 37 02 00 00	 push	 567			; 00000237H
  0003f	68 00 00 00 00	 push	 OFFSET ??_C@_1NO@CMNIKGIF@?$AAC?$AA?3?$AA?2?$AAP?$AAr?$AAo?$AAg?$AAr?$AAa?$AAm?$AA?5?$AAF?$AAi?$AAl?$AAe@
  00044	6a 02		 push	 2
  00046	e8 00 00 00 00	 call	 __CrtDbgReportW
  0004b	83 c4 18	 add	 esp, 24			; 00000018H
  0004e	83 f8 01	 cmp	 eax, 1
  00051	75 01		 jne	 SHORT $LN3@ReleaseBuf
  00053	cc		 int	 3
$LN3@ReleaseBuf:

; 568  : 		SetLength( nNewLength );

  00054	ff 75 08	 push	 DWORD PTR _nNewLength$[ebp]
  00057	8b 4d f8	 mov	 ecx, DWORD PTR _this$[ebp]
  0005a	e8 00 00 00 00	 call	 ?SetLength@?$CSimpleStringT@_W$0A@@ATL@@AAEXH@Z ; ATL::CSimpleStringT<wchar_t,0>::SetLength

; 569  : 	}

  0005f	5f		 pop	 edi
  00060	5e		 pop	 esi
  00061	5b		 pop	 ebx
  00062	81 c4 cc 00 00
	00		 add	 esp, 204		; 000000ccH
  00068	3b ec		 cmp	 ebp, esp
  0006a	e8 00 00 00 00	 call	 __RTC_CheckEsp
  0006f	c9		 leave
  00070	c2 04 00	 ret	 4
?ReleaseBufferSetLength@?$CSimpleStringT@_W$0A@@ATL@@QAEXH@Z ENDP ; ATL::CSimpleStringT<wchar_t,0>::ReleaseBufferSetLength
_TEXT	ENDS
; Function compile flags: /Odsp /RTCsu /ZI
; File C:\Program Files\Microsoft Visual Studio\2022\Enterprise\VC\Tools\MSVC\14.34.31933\atlmfc\include\atlsimpstr.h
;	COMDAT ?ReleaseBuffer@?$CSimpleStringT@_W$0A@@ATL@@QAEXH@Z
_TEXT	SEGMENT
_nAlloc$1 = -20						; size = 4
_this$ = -8						; size = 4
_nNewLength$ = 8					; size = 4
?ReleaseBuffer@?$CSimpleStringT@_W$0A@@ATL@@QAEXH@Z PROC ; ATL::CSimpleStringT<wchar_t,0>::ReleaseBuffer, COMDAT
; _this$ = ecx

; 557  : 	{

  00000	55		 push	 ebp
  00001	8b ec		 mov	 ebp, esp
  00003	81 ec d8 00 00
	00		 sub	 esp, 216		; 000000d8H
  00009	53		 push	 ebx
  0000a	56		 push	 esi
  0000b	57		 push	 edi
  0000c	51		 push	 ecx
  0000d	8d 7d e8	 lea	 edi, DWORD PTR [ebp-24]
  00010	6a 06		 push	 6
  00012	59		 pop	 ecx
  00013	b8 cc cc cc cc	 mov	 eax, -858993460		; ccccccccH
  00018	f3 ab		 rep stosd
  0001a	59		 pop	 ecx
  0001b	89 4d f8	 mov	 DWORD PTR _this$[ebp], ecx
  0001e	b9 00 00 00 00	 mov	 ecx, OFFSET __05D8B7B7_atlsimpstr@h
  00023	e8 00 00 00 00	 call	 @__CheckForDebuggerJustMyCode@4

; 558  : 		if( nNewLength == -1 )

  00028	83 7d 08 ff	 cmp	 DWORD PTR _nNewLength$[ebp], -1
  0002c	75 20		 jne	 SHORT $LN2@ReleaseBuf

; 559  : 		{
; 560  : 			int nAlloc = GetData()->nAllocLength;

  0002e	8b 4d f8	 mov	 ecx, DWORD PTR _this$[ebp]
  00031	e8 00 00 00 00	 call	 ?GetData@?$CSimpleStringT@_W$0A@@ATL@@ABEPAUCStringData@2@XZ ; ATL::CSimpleStringT<wchar_t,0>::GetData
  00036	8b 40 08	 mov	 eax, DWORD PTR [eax+8]
  00039	89 45 ec	 mov	 DWORD PTR _nAlloc$1[ebp], eax

; 561  : 			nNewLength = StringLengthN( m_pszData, nAlloc);

  0003c	ff 75 ec	 push	 DWORD PTR _nAlloc$1[ebp]
  0003f	8b 45 f8	 mov	 eax, DWORD PTR _this$[ebp]
  00042	ff 30		 push	 DWORD PTR [eax]
  00044	e8 00 00 00 00	 call	 ?StringLengthN@?$CSimpleStringT@_W$0A@@ATL@@SAHPB_WI@Z ; ATL::CSimpleStringT<wchar_t,0>::StringLengthN
  00049	59		 pop	 ecx
  0004a	59		 pop	 ecx
  0004b	89 45 08	 mov	 DWORD PTR _nNewLength$[ebp], eax
$LN2@ReleaseBuf:

; 562  : 		}
; 563  : 		SetLength( nNewLength );

  0004e	ff 75 08	 push	 DWORD PTR _nNewLength$[ebp]
  00051	8b 4d f8	 mov	 ecx, DWORD PTR _this$[ebp]
  00054	e8 00 00 00 00	 call	 ?SetLength@?$CSimpleStringT@_W$0A@@ATL@@AAEXH@Z ; ATL::CSimpleStringT<wchar_t,0>::SetLength

; 564  : 	}

  00059	5f		 pop	 edi
  0005a	5e		 pop	 esi
  0005b	5b		 pop	 ebx
  0005c	81 c4 d8 00 00
	00		 add	 esp, 216		; 000000d8H
  00062	3b ec		 cmp	 ebp, esp
  00064	e8 00 00 00 00	 call	 __RTC_CheckEsp
  00069	c9		 leave
  0006a	c2 04 00	 ret	 4
?ReleaseBuffer@?$CSimpleStringT@_W$0A@@ATL@@QAEXH@Z ENDP ; ATL::CSimpleStringT<wchar_t,0>::ReleaseBuffer
_TEXT	ENDS
; Function compile flags: /Odsp /RTCsu /ZI
; File C:\Program Files\Microsoft Visual Studio\2022\Enterprise\VC\Tools\MSVC\14.34.31933\atlmfc\include\atlsimpstr.h
;	COMDAT ?GetString@?$CSimpleStringT@_W$0A@@ATL@@QBEPB_WXZ
_TEXT	SEGMENT
_this$ = -8						; size = 4
?GetString@?$CSimpleStringT@_W$0A@@ATL@@QBEPB_WXZ PROC	; ATL::CSimpleStringT<wchar_t,0>::GetString, COMDAT
; _this$ = ecx

; 528  : 	{

  00000	55		 push	 ebp
  00001	8b ec		 mov	 ebp, esp
  00003	81 ec cc 00 00
	00		 sub	 esp, 204		; 000000ccH
  00009	53		 push	 ebx
  0000a	56		 push	 esi
  0000b	57		 push	 edi
  0000c	51		 push	 ecx
  0000d	8d 7d f4	 lea	 edi, DWORD PTR [ebp-12]
  00010	6a 03		 push	 3
  00012	59		 pop	 ecx
  00013	b8 cc cc cc cc	 mov	 eax, -858993460		; ccccccccH
  00018	f3 ab		 rep stosd
  0001a	59		 pop	 ecx
  0001b	89 4d f8	 mov	 DWORD PTR _this$[ebp], ecx
  0001e	b9 00 00 00 00	 mov	 ecx, OFFSET __05D8B7B7_atlsimpstr@h
  00023	e8 00 00 00 00	 call	 @__CheckForDebuggerJustMyCode@4

; 529  : 		return( m_pszData );

  00028	8b 45 f8	 mov	 eax, DWORD PTR _this$[ebp]
  0002b	8b 00		 mov	 eax, DWORD PTR [eax]

; 530  : 	}

  0002d	5f		 pop	 edi
  0002e	5e		 pop	 esi
  0002f	5b		 pop	 ebx
  00030	81 c4 cc 00 00
	00		 add	 esp, 204		; 000000ccH
  00036	3b ec		 cmp	 ebp, esp
  00038	e8 00 00 00 00	 call	 __RTC_CheckEsp
  0003d	c9		 leave
  0003e	c3		 ret	 0
?GetString@?$CSimpleStringT@_W$0A@@ATL@@QBEPB_WXZ ENDP	; ATL::CSimpleStringT<wchar_t,0>::GetString
_TEXT	ENDS
; Function compile flags: /Odsp /RTCsu /ZI
; File C:\Program Files\Microsoft Visual Studio\2022\Enterprise\VC\Tools\MSVC\14.34.31933\atlmfc\include\atlsimpstr.h
;	COMDAT ?GetManager@?$CSimpleStringT@_W$0A@@ATL@@QBEPAUIAtlStringMgr@2@XZ
_TEXT	SEGMENT
tv72 = -220						; size = 4
_pStringMgr$ = -20					; size = 4
_this$ = -8						; size = 4
?GetManager@?$CSimpleStringT@_W$0A@@ATL@@QBEPAUIAtlStringMgr@2@XZ PROC ; ATL::CSimpleStringT<wchar_t,0>::GetManager, COMDAT
; _this$ = ecx

; 522  : 	{

  00000	55		 push	 ebp
  00001	8b ec		 mov	 ebp, esp
  00003	81 ec dc 00 00
	00		 sub	 esp, 220		; 000000dcH
  00009	53		 push	 ebx
  0000a	56		 push	 esi
  0000b	57		 push	 edi
  0000c	51		 push	 ecx
  0000d	8d 7d e4	 lea	 edi, DWORD PTR [ebp-28]
  00010	6a 07		 push	 7
  00012	59		 pop	 ecx
  00013	b8 cc cc cc cc	 mov	 eax, -858993460		; ccccccccH
  00018	f3 ab		 rep stosd
  0001a	59		 pop	 ecx
  0001b	89 4d f8	 mov	 DWORD PTR _this$[ebp], ecx
  0001e	b9 00 00 00 00	 mov	 ecx, OFFSET __05D8B7B7_atlsimpstr@h
  00023	e8 00 00 00 00	 call	 @__CheckForDebuggerJustMyCode@4

; 523  : 		IAtlStringMgr* pStringMgr = GetData()->pStringMgr;

  00028	8b 4d f8	 mov	 ecx, DWORD PTR _this$[ebp]
  0002b	e8 00 00 00 00	 call	 ?GetData@?$CSimpleStringT@_W$0A@@ATL@@ABEPAUCStringData@2@XZ ; ATL::CSimpleStringT<wchar_t,0>::GetData
  00030	8b 00		 mov	 eax, DWORD PTR [eax]
  00032	89 45 ec	 mov	 DWORD PTR _pStringMgr$[ebp], eax

; 524  : 		return pStringMgr ? pStringMgr->Clone() : NULL;

  00035	83 7d ec 00	 cmp	 DWORD PTR _pStringMgr$[ebp], 0
  00039	74 1c		 je	 SHORT $LN3@GetManager
  0003b	8b 45 ec	 mov	 eax, DWORD PTR _pStringMgr$[ebp]
  0003e	8b 00		 mov	 eax, DWORD PTR [eax]
  00040	8b f4		 mov	 esi, esp
  00042	8b 4d ec	 mov	 ecx, DWORD PTR _pStringMgr$[ebp]
  00045	ff 50 10	 call	 DWORD PTR [eax+16]
  00048	3b f4		 cmp	 esi, esp
  0004a	e8 00 00 00 00	 call	 __RTC_CheckEsp
  0004f	89 85 24 ff ff
	ff		 mov	 DWORD PTR tv72[ebp], eax
  00055	eb 07		 jmp	 SHORT $LN4@GetManager
$LN3@GetManager:
  00057	83 a5 24 ff ff
	ff 00		 and	 DWORD PTR tv72[ebp], 0
$LN4@GetManager:
  0005e	8b 85 24 ff ff
	ff		 mov	 eax, DWORD PTR tv72[ebp]

; 525  : 	}

  00064	5f		 pop	 edi
  00065	5e		 pop	 esi
  00066	5b		 pop	 ebx
  00067	81 c4 dc 00 00
	00		 add	 esp, 220		; 000000dcH
  0006d	3b ec		 cmp	 ebp, esp
  0006f	e8 00 00 00 00	 call	 __RTC_CheckEsp
  00074	c9		 leave
  00075	c3		 ret	 0
?GetManager@?$CSimpleStringT@_W$0A@@ATL@@QBEPAUIAtlStringMgr@2@XZ ENDP ; ATL::CSimpleStringT<wchar_t,0>::GetManager
_TEXT	ENDS
; Function compile flags: /Odsp /RTCsu /ZI
; File C:\Program Files\Microsoft Visual Studio\2022\Enterprise\VC\Tools\MSVC\14.34.31933\atlmfc\include\atlsimpstr.h
;	COMDAT ?GetLength@?$CSimpleStringT@_W$0A@@ATL@@QBEHXZ
_TEXT	SEGMENT
_this$ = -8						; size = 4
?GetLength@?$CSimpleStringT@_W$0A@@ATL@@QBEHXZ PROC	; ATL::CSimpleStringT<wchar_t,0>::GetLength, COMDAT
; _this$ = ecx

; 518  : 	{

  00000	55		 push	 ebp
  00001	8b ec		 mov	 ebp, esp
  00003	81 ec cc 00 00
	00		 sub	 esp, 204		; 000000ccH
  00009	53		 push	 ebx
  0000a	56		 push	 esi
  0000b	57		 push	 edi
  0000c	51		 push	 ecx
  0000d	8d 7d f4	 lea	 edi, DWORD PTR [ebp-12]
  00010	6a 03		 push	 3
  00012	59		 pop	 ecx
  00013	b8 cc cc cc cc	 mov	 eax, -858993460		; ccccccccH
  00018	f3 ab		 rep stosd
  0001a	59		 pop	 ecx
  0001b	89 4d f8	 mov	 DWORD PTR _this$[ebp], ecx
  0001e	b9 00 00 00 00	 mov	 ecx, OFFSET __05D8B7B7_atlsimpstr@h
  00023	e8 00 00 00 00	 call	 @__CheckForDebuggerJustMyCode@4

; 519  : 		return( GetData()->nDataLength );

  00028	8b 4d f8	 mov	 ecx, DWORD PTR _this$[ebp]
  0002b	e8 00 00 00 00	 call	 ?GetData@?$CSimpleStringT@_W$0A@@ATL@@ABEPAUCStringData@2@XZ ; ATL::CSimpleStringT<wchar_t,0>::GetData
  00030	8b 40 04	 mov	 eax, DWORD PTR [eax+4]

; 520  : 	}

  00033	5f		 pop	 edi
  00034	5e		 pop	 esi
  00035	5b		 pop	 ebx
  00036	81 c4 cc 00 00
	00		 add	 esp, 204		; 000000ccH
  0003c	3b ec		 cmp	 ebp, esp
  0003e	e8 00 00 00 00	 call	 __RTC_CheckEsp
  00043	c9		 leave
  00044	c3		 ret	 0
?GetLength@?$CSimpleStringT@_W$0A@@ATL@@QBEHXZ ENDP	; ATL::CSimpleStringT<wchar_t,0>::GetLength
_TEXT	ENDS
; Function compile flags: /Odsp /RTCsu /ZI
; File C:\Program Files\Microsoft Visual Studio\2022\Enterprise\VC\Tools\MSVC\14.34.31933\atlmfc\include\atlsimpstr.h
;	COMDAT ?GetBuffer@?$CSimpleStringT@_W$0A@@ATL@@QAEPA_WH@Z
_TEXT	SEGMENT
_this$ = -8						; size = 4
_nMinBufferLength$ = 8					; size = 4
?GetBuffer@?$CSimpleStringT@_W$0A@@ATL@@QAEPA_WH@Z PROC	; ATL::CSimpleStringT<wchar_t,0>::GetBuffer, COMDAT
; _this$ = ecx

; 507  : 	{

  00000	55		 push	 ebp
  00001	8b ec		 mov	 ebp, esp
  00003	81 ec cc 00 00
	00		 sub	 esp, 204		; 000000ccH
  00009	53		 push	 ebx
  0000a	56		 push	 esi
  0000b	57		 push	 edi
  0000c	51		 push	 ecx
  0000d	8d 7d f4	 lea	 edi, DWORD PTR [ebp-12]
  00010	6a 03		 push	 3
  00012	59		 pop	 ecx
  00013	b8 cc cc cc cc	 mov	 eax, -858993460		; ccccccccH
  00018	f3 ab		 rep stosd
  0001a	59		 pop	 ecx
  0001b	89 4d f8	 mov	 DWORD PTR _this$[ebp], ecx
  0001e	b9 00 00 00 00	 mov	 ecx, OFFSET __05D8B7B7_atlsimpstr@h
  00023	e8 00 00 00 00	 call	 @__CheckForDebuggerJustMyCode@4

; 508  : 		return( PrepareWrite( nMinBufferLength ) );

  00028	ff 75 08	 push	 DWORD PTR _nMinBufferLength$[ebp]
  0002b	8b 4d f8	 mov	 ecx, DWORD PTR _this$[ebp]
  0002e	e8 00 00 00 00	 call	 ?PrepareWrite@?$CSimpleStringT@_W$0A@@ATL@@AAEPA_WH@Z ; ATL::CSimpleStringT<wchar_t,0>::PrepareWrite

; 509  : 	}

  00033	5f		 pop	 edi
  00034	5e		 pop	 esi
  00035	5b		 pop	 ebx
  00036	81 c4 cc 00 00
	00		 add	 esp, 204		; 000000ccH
  0003c	3b ec		 cmp	 ebp, esp
  0003e	e8 00 00 00 00	 call	 __RTC_CheckEsp
  00043	c9		 leave
  00044	c2 04 00	 ret	 4
?GetBuffer@?$CSimpleStringT@_W$0A@@ATL@@QAEPA_WH@Z ENDP	; ATL::CSimpleStringT<wchar_t,0>::GetBuffer
_TEXT	ENDS
; Function compile flags: /Odsp /RTCsu /ZI
; File C:\Program Files\Microsoft Visual Studio\2022\Enterprise\VC\Tools\MSVC\14.34.31933\atlmfc\include\atlsimpstr.h
;	COMDAT ?GetBuffer@?$CSimpleStringT@_W$0A@@ATL@@QAEPA_WXZ
_TEXT	SEGMENT
_pData$ = -20						; size = 4
_this$ = -8						; size = 4
?GetBuffer@?$CSimpleStringT@_W$0A@@ATL@@QAEPA_WXZ PROC	; ATL::CSimpleStringT<wchar_t,0>::GetBuffer, COMDAT
; _this$ = ecx

; 497  : 	{

  00000	55		 push	 ebp
  00001	8b ec		 mov	 ebp, esp
  00003	81 ec d8 00 00
	00		 sub	 esp, 216		; 000000d8H
  00009	53		 push	 ebx
  0000a	56		 push	 esi
  0000b	57		 push	 edi
  0000c	51		 push	 ecx
  0000d	8d 7d e8	 lea	 edi, DWORD PTR [ebp-24]
  00010	6a 06		 push	 6
  00012	59		 pop	 ecx
  00013	b8 cc cc cc cc	 mov	 eax, -858993460		; ccccccccH
  00018	f3 ab		 rep stosd
  0001a	59		 pop	 ecx
  0001b	89 4d f8	 mov	 DWORD PTR _this$[ebp], ecx
  0001e	b9 00 00 00 00	 mov	 ecx, OFFSET __05D8B7B7_atlsimpstr@h
  00023	e8 00 00 00 00	 call	 @__CheckForDebuggerJustMyCode@4

; 498  : 		CStringData* pData = GetData();

  00028	8b 4d f8	 mov	 ecx, DWORD PTR _this$[ebp]
  0002b	e8 00 00 00 00	 call	 ?GetData@?$CSimpleStringT@_W$0A@@ATL@@ABEPAUCStringData@2@XZ ; ATL::CSimpleStringT<wchar_t,0>::GetData
  00030	89 45 ec	 mov	 DWORD PTR _pData$[ebp], eax

; 499  : 		if( pData->IsShared() )

  00033	8b 4d ec	 mov	 ecx, DWORD PTR _pData$[ebp]
  00036	e8 00 00 00 00	 call	 ?IsShared@CStringData@ATL@@QBE_NXZ ; ATL::CStringData::IsShared
  0003b	0f b6 c0	 movzx	 eax, al
  0003e	85 c0		 test	 eax, eax
  00040	74 0e		 je	 SHORT $LN2@GetBuffer

; 500  : 		{
; 501  : 			Fork( pData->nDataLength );

  00042	8b 45 ec	 mov	 eax, DWORD PTR _pData$[ebp]
  00045	ff 70 04	 push	 DWORD PTR [eax+4]
  00048	8b 4d f8	 mov	 ecx, DWORD PTR _this$[ebp]
  0004b	e8 00 00 00 00	 call	 ?Fork@?$CSimpleStringT@_W$0A@@ATL@@AAEXH@Z ; ATL::CSimpleStringT<wchar_t,0>::Fork
$LN2@GetBuffer:

; 502  : 		}
; 503  : 
; 504  : 		return( m_pszData );

  00050	8b 45 f8	 mov	 eax, DWORD PTR _this$[ebp]
  00053	8b 00		 mov	 eax, DWORD PTR [eax]

; 505  : 	}

  00055	5f		 pop	 edi
  00056	5e		 pop	 esi
  00057	5b		 pop	 ebx
  00058	81 c4 d8 00 00
	00		 add	 esp, 216		; 000000d8H
  0005e	3b ec		 cmp	 ebp, esp
  00060	e8 00 00 00 00	 call	 __RTC_CheckEsp
  00065	c9		 leave
  00066	c3		 ret	 0
?GetBuffer@?$CSimpleStringT@_W$0A@@ATL@@QAEPA_WXZ ENDP	; ATL::CSimpleStringT<wchar_t,0>::GetBuffer
_TEXT	ENDS
; Function compile flags: /Odsp /RTCsu /ZI
; File C:\Program Files\Microsoft Visual Studio\2022\Enterprise\VC\Tools\MSVC\14.34.31933\atlmfc\include\atlsimpstr.h
;	COMDAT ?GetAllocLength@?$CSimpleStringT@_W$0A@@ATL@@QBEHXZ
_TEXT	SEGMENT
_this$ = -8						; size = 4
?GetAllocLength@?$CSimpleStringT@_W$0A@@ATL@@QBEHXZ PROC ; ATL::CSimpleStringT<wchar_t,0>::GetAllocLength, COMDAT
; _this$ = ecx

; 485  : 	{

  00000	55		 push	 ebp
  00001	8b ec		 mov	 ebp, esp
  00003	81 ec cc 00 00
	00		 sub	 esp, 204		; 000000ccH
  00009	53		 push	 ebx
  0000a	56		 push	 esi
  0000b	57		 push	 edi
  0000c	51		 push	 ecx
  0000d	8d 7d f4	 lea	 edi, DWORD PTR [ebp-12]
  00010	6a 03		 push	 3
  00012	59		 pop	 ecx
  00013	b8 cc cc cc cc	 mov	 eax, -858993460		; ccccccccH
  00018	f3 ab		 rep stosd
  0001a	59		 pop	 ecx
  0001b	89 4d f8	 mov	 DWORD PTR _this$[ebp], ecx
  0001e	b9 00 00 00 00	 mov	 ecx, OFFSET __05D8B7B7_atlsimpstr@h
  00023	e8 00 00 00 00	 call	 @__CheckForDebuggerJustMyCode@4

; 486  : 		return( GetData()->nAllocLength );

  00028	8b 4d f8	 mov	 ecx, DWORD PTR _this$[ebp]
  0002b	e8 00 00 00 00	 call	 ?GetData@?$CSimpleStringT@_W$0A@@ATL@@ABEPAUCStringData@2@XZ ; ATL::CSimpleStringT<wchar_t,0>::GetData
  00030	8b 40 08	 mov	 eax, DWORD PTR [eax+8]

; 487  : 	}

  00033	5f		 pop	 edi
  00034	5e		 pop	 esi
  00035	5b		 pop	 ebx
  00036	81 c4 cc 00 00
	00		 add	 esp, 204		; 000000ccH
  0003c	3b ec		 cmp	 ebp, esp
  0003e	e8 00 00 00 00	 call	 __RTC_CheckEsp
  00043	c9		 leave
  00044	c3		 ret	 0
?GetAllocLength@?$CSimpleStringT@_W$0A@@ATL@@QBEHXZ ENDP ; ATL::CSimpleStringT<wchar_t,0>::GetAllocLength
_TEXT	ENDS
; Function compile flags: /Odsp /RTCsu /ZI
; File C:\Program Files\Microsoft Visual Studio\2022\Enterprise\VC\Tools\MSVC\14.34.31933\atlmfc\include\atlsimpstr.h
;	COMDAT ?Empty@?$CSimpleStringT@_W$0A@@ATL@@QAEXXZ
_TEXT	SEGMENT
_pNewData$1 = -44					; size = 4
_pStringMgr$ = -32					; size = 4
_pOldData$ = -20					; size = 4
_this$ = -8						; size = 4
?Empty@?$CSimpleStringT@_W$0A@@ATL@@QAEXXZ PROC		; ATL::CSimpleStringT<wchar_t,0>::Empty, COMDAT
; _this$ = ecx

; 436  : 	{

  00000	55		 push	 ebp
  00001	8b ec		 mov	 ebp, esp
  00003	81 ec f0 00 00
	00		 sub	 esp, 240		; 000000f0H
  00009	53		 push	 ebx
  0000a	56		 push	 esi
  0000b	57		 push	 edi
  0000c	51		 push	 ecx
  0000d	8d 7d d0	 lea	 edi, DWORD PTR [ebp-48]
  00010	6a 0c		 push	 12			; 0000000cH
  00012	59		 pop	 ecx
  00013	b8 cc cc cc cc	 mov	 eax, -858993460		; ccccccccH
  00018	f3 ab		 rep stosd
  0001a	59		 pop	 ecx
  0001b	89 4d f8	 mov	 DWORD PTR _this$[ebp], ecx
  0001e	b9 00 00 00 00	 mov	 ecx, OFFSET __05D8B7B7_atlsimpstr@h
  00023	e8 00 00 00 00	 call	 @__CheckForDebuggerJustMyCode@4

; 437  : 		CStringData* pOldData = GetData();

  00028	8b 4d f8	 mov	 ecx, DWORD PTR _this$[ebp]
  0002b	e8 00 00 00 00	 call	 ?GetData@?$CSimpleStringT@_W$0A@@ATL@@ABEPAUCStringData@2@XZ ; ATL::CSimpleStringT<wchar_t,0>::GetData
  00030	89 45 ec	 mov	 DWORD PTR _pOldData$[ebp], eax

; 438  : 		IAtlStringMgr* pStringMgr = pOldData->pStringMgr;

  00033	8b 45 ec	 mov	 eax, DWORD PTR _pOldData$[ebp]
  00036	8b 00		 mov	 eax, DWORD PTR [eax]
  00038	89 45 e0	 mov	 DWORD PTR _pStringMgr$[ebp], eax

; 439  : 		if( pOldData->nDataLength == 0 )

  0003b	8b 45 ec	 mov	 eax, DWORD PTR _pOldData$[ebp]
  0003e	83 78 04 00	 cmp	 DWORD PTR [eax+4], 0
  00042	75 02		 jne	 SHORT $LN2@Empty

; 440  : 		{
; 441  : 			return;

  00044	eb 45		 jmp	 SHORT $LN1@Empty
$LN2@Empty:

; 442  : 		}
; 443  : 
; 444  : 		if( pOldData->IsLocked() )

  00046	8b 4d ec	 mov	 ecx, DWORD PTR _pOldData$[ebp]
  00049	e8 00 00 00 00	 call	 ?IsLocked@CStringData@ATL@@QBE_NXZ ; ATL::CStringData::IsLocked
  0004e	0f b6 c0	 movzx	 eax, al
  00051	85 c0		 test	 eax, eax
  00053	74 0c		 je	 SHORT $LN3@Empty

; 445  : 		{
; 446  : 			// Don't reallocate a locked buffer that's shrinking
; 447  : 			SetLength( 0 );

  00055	6a 00		 push	 0
  00057	8b 4d f8	 mov	 ecx, DWORD PTR _this$[ebp]
  0005a	e8 00 00 00 00	 call	 ?SetLength@?$CSimpleStringT@_W$0A@@ATL@@AAEXH@Z ; ATL::CSimpleStringT<wchar_t,0>::SetLength

; 448  : 		}

  0005f	eb 2a		 jmp	 SHORT $LN1@Empty
$LN3@Empty:

; 449  : 		else
; 450  : 		{
; 451  : 			pOldData->Release();

  00061	8b 4d ec	 mov	 ecx, DWORD PTR _pOldData$[ebp]
  00064	e8 00 00 00 00	 call	 ?Release@CStringData@ATL@@QAEXXZ ; ATL::CStringData::Release

; 452  : 			CStringData* pNewData = pStringMgr->GetNilString();

  00069	8b 45 e0	 mov	 eax, DWORD PTR _pStringMgr$[ebp]
  0006c	8b 00		 mov	 eax, DWORD PTR [eax]
  0006e	8b f4		 mov	 esi, esp
  00070	8b 4d e0	 mov	 ecx, DWORD PTR _pStringMgr$[ebp]
  00073	ff 50 0c	 call	 DWORD PTR [eax+12]
  00076	3b f4		 cmp	 esi, esp
  00078	e8 00 00 00 00	 call	 __RTC_CheckEsp
  0007d	89 45 d4	 mov	 DWORD PTR _pNewData$1[ebp], eax

; 453  : 			Attach( pNewData );

  00080	ff 75 d4	 push	 DWORD PTR _pNewData$1[ebp]
  00083	8b 4d f8	 mov	 ecx, DWORD PTR _this$[ebp]
  00086	e8 00 00 00 00	 call	 ?Attach@?$CSimpleStringT@_W$0A@@ATL@@AAEXPAUCStringData@2@@Z ; ATL::CSimpleStringT<wchar_t,0>::Attach
$LN1@Empty:

; 454  : 		}
; 455  : 	}

  0008b	5f		 pop	 edi
  0008c	5e		 pop	 esi
  0008d	5b		 pop	 ebx
  0008e	81 c4 f0 00 00
	00		 add	 esp, 240		; 000000f0H
  00094	3b ec		 cmp	 ebp, esp
  00096	e8 00 00 00 00	 call	 __RTC_CheckEsp
  0009b	c9		 leave
  0009c	c3		 ret	 0
?Empty@?$CSimpleStringT@_W$0A@@ATL@@QAEXXZ ENDP		; ATL::CSimpleStringT<wchar_t,0>::Empty
_TEXT	ENDS
; Function compile flags: /Odsp /RTCsu /ZI
; File C:\Program Files\Microsoft Visual Studio\2022\Enterprise\VC\Tools\MSVC\14.34.31933\atlmfc\include\atlsimpstr.h
;	COMDAT ?Append@?$CSimpleStringT@_W$0A@@ATL@@QAEXABV12@@Z
_TEXT	SEGMENT
_this$ = -8						; size = 4
_strSrc$ = 8						; size = 4
?Append@?$CSimpleStringT@_W$0A@@ATL@@QAEXABV12@@Z PROC	; ATL::CSimpleStringT<wchar_t,0>::Append, COMDAT
; _this$ = ecx

; 427  : 	{

  00000	55		 push	 ebp
  00001	8b ec		 mov	 ebp, esp
  00003	81 ec cc 00 00
	00		 sub	 esp, 204		; 000000ccH
  00009	53		 push	 ebx
  0000a	56		 push	 esi
  0000b	57		 push	 edi
  0000c	51		 push	 ecx
  0000d	8d 7d f4	 lea	 edi, DWORD PTR [ebp-12]
  00010	6a 03		 push	 3
  00012	59		 pop	 ecx
  00013	b8 cc cc cc cc	 mov	 eax, -858993460		; ccccccccH
  00018	f3 ab		 rep stosd
  0001a	59		 pop	 ecx
  0001b	89 4d f8	 mov	 DWORD PTR _this$[ebp], ecx
  0001e	b9 00 00 00 00	 mov	 ecx, OFFSET __05D8B7B7_atlsimpstr@h
  00023	e8 00 00 00 00	 call	 @__CheckForDebuggerJustMyCode@4

; 428  : 		Append( strSrc.GetString(), strSrc.GetLength() );

  00028	8b 4d 08	 mov	 ecx, DWORD PTR _strSrc$[ebp]
  0002b	e8 00 00 00 00	 call	 ?GetLength@?$CSimpleStringT@_W$0A@@ATL@@QBEHXZ ; ATL::CSimpleStringT<wchar_t,0>::GetLength
  00030	50		 push	 eax
  00031	8b 4d 08	 mov	 ecx, DWORD PTR _strSrc$[ebp]
  00034	e8 00 00 00 00	 call	 ?GetString@?$CSimpleStringT@_W$0A@@ATL@@QBEPB_WXZ ; ATL::CSimpleStringT<wchar_t,0>::GetString
  00039	50		 push	 eax
  0003a	8b 4d f8	 mov	 ecx, DWORD PTR _this$[ebp]
  0003d	e8 00 00 00 00	 call	 ?Append@?$CSimpleStringT@_W$0A@@ATL@@QAEXPB_WH@Z ; ATL::CSimpleStringT<wchar_t,0>::Append

; 429  : 	}

  00042	5f		 pop	 edi
  00043	5e		 pop	 esi
  00044	5b		 pop	 ebx
  00045	81 c4 cc 00 00
	00		 add	 esp, 204		; 000000ccH
  0004b	3b ec		 cmp	 ebp, esp
  0004d	e8 00 00 00 00	 call	 __RTC_CheckEsp
  00052	c9		 leave
  00053	c2 04 00	 ret	 4
?Append@?$CSimpleStringT@_W$0A@@ATL@@QAEXABV12@@Z ENDP	; ATL::CSimpleStringT<wchar_t,0>::Append
_TEXT	ENDS
; Function compile flags: /Odsp /RTCsu /ZI
; File C:\Program Files\Microsoft Visual Studio\2022\Enterprise\VC\Tools\MSVC\14.34.31933\atlmfc\include\atlsimpstr.h
;	COMDAT ?Append@?$CSimpleStringT@_W$0A@@ATL@@QAEXPB_WH@Z
_TEXT	SEGMENT
tv92 = -280						; size = 4
tv72 = -280						; size = 4
_pszBuffer$ = -80					; size = 4
_nNewLength$ = -68					; size = 4
___atl_condVal$1 = -56					; size = 4
___atl_condVal$2 = -44					; size = 4
_nOldLength$ = -32					; size = 4
_nOffset$ = -20						; size = 4
_this$ = -8						; size = 4
_pszSrc$ = 8						; size = 4
_nLength$ = 12						; size = 4
?Append@?$CSimpleStringT@_W$0A@@ATL@@QAEXPB_WH@Z PROC	; ATL::CSimpleStringT<wchar_t,0>::Append, COMDAT
; _this$ = ecx

; 387  : 	{

  00000	55		 push	 ebp
  00001	8b ec		 mov	 ebp, esp
  00003	81 ec 18 01 00
	00		 sub	 esp, 280		; 00000118H
  00009	53		 push	 ebx
  0000a	56		 push	 esi
  0000b	57		 push	 edi
  0000c	51		 push	 ecx
  0000d	8d 7d a8	 lea	 edi, DWORD PTR [ebp-88]
  00010	6a 16		 push	 22			; 00000016H
  00012	59		 pop	 ecx
  00013	b8 cc cc cc cc	 mov	 eax, -858993460		; ccccccccH
  00018	f3 ab		 rep stosd
  0001a	59		 pop	 ecx
  0001b	89 4d f8	 mov	 DWORD PTR _this$[ebp], ecx
  0001e	b9 00 00 00 00	 mov	 ecx, OFFSET __05D8B7B7_atlsimpstr@h
  00023	e8 00 00 00 00	 call	 @__CheckForDebuggerJustMyCode@4

; 388  : 		// See comment in SetString() about why we do this
; 389  : 		UINT_PTR nOffset = pszSrc-GetString();

  00028	8b 4d f8	 mov	 ecx, DWORD PTR _this$[ebp]
  0002b	e8 00 00 00 00	 call	 ?GetString@?$CSimpleStringT@_W$0A@@ATL@@QBEPB_WXZ ; ATL::CSimpleStringT<wchar_t,0>::GetString
  00030	8b 4d 08	 mov	 ecx, DWORD PTR _pszSrc$[ebp]
  00033	2b c8		 sub	 ecx, eax
  00035	d1 f9		 sar	 ecx, 1
  00037	89 4d ec	 mov	 DWORD PTR _nOffset$[ebp], ecx

; 390  : 
; 391  : 		UINT nOldLength = GetLength();

  0003a	8b 4d f8	 mov	 ecx, DWORD PTR _this$[ebp]
  0003d	e8 00 00 00 00	 call	 ?GetLength@?$CSimpleStringT@_W$0A@@ATL@@QBEHXZ ; ATL::CSimpleStringT<wchar_t,0>::GetLength
  00042	89 45 e0	 mov	 DWORD PTR _nOldLength$[ebp], eax

; 392  : 		if (nOldLength < 0)

  00045	83 7d e0 00	 cmp	 DWORD PTR _nOldLength$[ebp], 0
  00049	73 04		 jae	 SHORT $LN4@Append

; 393  : 		{
; 394  : 			// protects from underflow
; 395  : 			nOldLength = 0;

  0004b	83 65 e0 00	 and	 DWORD PTR _nOldLength$[ebp], 0
$LN4@Append:

; 396  : 		}
; 397  : 
; 398  : 		//Make sure the nLength is greater than zero
; 399  : 		ATLENSURE_THROW(nLength >=0, E_INVALIDARG);

  0004f	83 7d 0c 00	 cmp	 DWORD PTR _nLength$[ebp], 0
  00053	7c 0c		 jl	 SHORT $LN19@Append
  00055	c7 85 e8 fe ff
	ff 01 00 00 00	 mov	 DWORD PTR tv72[ebp], 1
  0005f	eb 07		 jmp	 SHORT $LN20@Append
$LN19@Append:
  00061	83 a5 e8 fe ff
	ff 00		 and	 DWORD PTR tv72[ebp], 0
$LN20@Append:
  00068	8b 85 e8 fe ff
	ff		 mov	 eax, DWORD PTR tv72[ebp]
  0006e	89 45 d4	 mov	 DWORD PTR ___atl_condVal$2[ebp], eax
$LN7@Append:
  00071	83 7d d4 00	 cmp	 DWORD PTR ___atl_condVal$2[ebp], 0
  00075	75 26		 jne	 SHORT $LN5@Append
  00077	68 00 00 00 00	 push	 OFFSET ??_C@_1BM@GBBOFEAE@?$AA_?$AA_?$AAa?$AAt?$AAl?$AA_?$AAc?$AAo?$AAn?$AAd?$AAV?$AAa?$AAl@
  0007c	68 00 00 00 00	 push	 OFFSET ??_C@_17CNPHIMPH@?$AA?$CF?$AAl?$AAs@
  00081	6a 00		 push	 0
  00083	68 8f 01 00 00	 push	 399			; 0000018fH
  00088	68 00 00 00 00	 push	 OFFSET ??_C@_1NO@CMNIKGIF@?$AAC?$AA?3?$AA?2?$AAP?$AAr?$AAo?$AAg?$AAr?$AAa?$AAm?$AA?5?$AAF?$AAi?$AAl?$AAe@
  0008d	6a 02		 push	 2
  0008f	e8 00 00 00 00	 call	 __CrtDbgReportW
  00094	83 c4 18	 add	 esp, 24			; 00000018H
  00097	83 f8 01	 cmp	 eax, 1
  0009a	75 01		 jne	 SHORT $LN5@Append
  0009c	cc		 int	 3
$LN5@Append:
  0009d	33 c0		 xor	 eax, eax
  0009f	75 d0		 jne	 SHORT $LN7@Append
  000a1	83 7d d4 00	 cmp	 DWORD PTR ___atl_condVal$2[ebp], 0
  000a5	75 0a		 jne	 SHORT $LN2@Append
  000a7	68 57 00 07 80	 push	 -2147024809		; 80070057H
  000ac	e8 00 00 00 00	 call	 ?AtlThrowImpl@ATL@@YGXJ@Z ; ATL::AtlThrowImpl
$LN2@Append:
  000b1	33 c0		 xor	 eax, eax
  000b3	75 9a		 jne	 SHORT $LN4@Append

; 400  : 
; 401  : 		//Make sure we don't read pass end of the terminating NULL
; 402  : 		nLength = StringLengthN(pszSrc, nLength);

  000b5	ff 75 0c	 push	 DWORD PTR _nLength$[ebp]
  000b8	ff 75 08	 push	 DWORD PTR _pszSrc$[ebp]
  000bb	e8 00 00 00 00	 call	 ?StringLengthN@?$CSimpleStringT@_W$0A@@ATL@@SAHPB_WI@Z ; ATL::CSimpleStringT<wchar_t,0>::StringLengthN
  000c0	59		 pop	 ecx
  000c1	59		 pop	 ecx
  000c2	89 45 0c	 mov	 DWORD PTR _nLength$[ebp], eax
$LN10@Append:

; 403  : 
; 404  : 		//Make sure after the string doesn't exceed INT_MAX after appending
; 405  : 		ATLENSURE_THROW(INT_MAX - nLength >= static_cast<int>(nOldLength), E_INVALIDARG);

  000c5	b8 ff ff ff 7f	 mov	 eax, 2147483647		; 7fffffffH
  000ca	2b 45 0c	 sub	 eax, DWORD PTR _nLength$[ebp]
  000cd	3b 45 e0	 cmp	 eax, DWORD PTR _nOldLength$[ebp]
  000d0	7c 0c		 jl	 SHORT $LN22@Append
  000d2	c7 85 e8 fe ff
	ff 01 00 00 00	 mov	 DWORD PTR tv92[ebp], 1
  000dc	eb 07		 jmp	 SHORT $LN23@Append
$LN22@Append:
  000de	83 a5 e8 fe ff
	ff 00		 and	 DWORD PTR tv92[ebp], 0
$LN23@Append:
  000e5	8b 85 e8 fe ff
	ff		 mov	 eax, DWORD PTR tv92[ebp]
  000eb	89 45 c8	 mov	 DWORD PTR ___atl_condVal$1[ebp], eax
$LN13@Append:
  000ee	83 7d c8 00	 cmp	 DWORD PTR ___atl_condVal$1[ebp], 0
  000f2	75 26		 jne	 SHORT $LN11@Append
  000f4	68 00 00 00 00	 push	 OFFSET ??_C@_1BM@GBBOFEAE@?$AA_?$AA_?$AAa?$AAt?$AAl?$AA_?$AAc?$AAo?$AAn?$AAd?$AAV?$AAa?$AAl@
  000f9	68 00 00 00 00	 push	 OFFSET ??_C@_17CNPHIMPH@?$AA?$CF?$AAl?$AAs@
  000fe	6a 00		 push	 0
  00100	68 95 01 00 00	 push	 405			; 00000195H
  00105	68 00 00 00 00	 push	 OFFSET ??_C@_1NO@CMNIKGIF@?$AAC?$AA?3?$AA?2?$AAP?$AAr?$AAo?$AAg?$AAr?$AAa?$AAm?$AA?5?$AAF?$AAi?$AAl?$AAe@
  0010a	6a 02		 push	 2
  0010c	e8 00 00 00 00	 call	 __CrtDbgReportW
  00111	83 c4 18	 add	 esp, 24			; 00000018H
  00114	83 f8 01	 cmp	 eax, 1
  00117	75 01		 jne	 SHORT $LN11@Append
  00119	cc		 int	 3
$LN11@Append:
  0011a	33 c0		 xor	 eax, eax
  0011c	75 d0		 jne	 SHORT $LN13@Append
  0011e	83 7d c8 00	 cmp	 DWORD PTR ___atl_condVal$1[ebp], 0
  00122	75 0a		 jne	 SHORT $LN8@Append
  00124	68 57 00 07 80	 push	 -2147024809		; 80070057H
  00129	e8 00 00 00 00	 call	 ?AtlThrowImpl@ATL@@YGXJ@Z ; ATL::AtlThrowImpl
$LN8@Append:
  0012e	33 c0		 xor	 eax, eax
  00130	75 93		 jne	 SHORT $LN10@Append

; 406  : 
; 407  : 		int nNewLength = nOldLength+nLength;

  00132	8b 45 e0	 mov	 eax, DWORD PTR _nOldLength$[ebp]
  00135	03 45 0c	 add	 eax, DWORD PTR _nLength$[ebp]
  00138	89 45 bc	 mov	 DWORD PTR _nNewLength$[ebp], eax

; 408  : 		PXSTR pszBuffer = GetBuffer( nNewLength );

  0013b	ff 75 bc	 push	 DWORD PTR _nNewLength$[ebp]
  0013e	8b 4d f8	 mov	 ecx, DWORD PTR _this$[ebp]
  00141	e8 00 00 00 00	 call	 ?GetBuffer@?$CSimpleStringT@_W$0A@@ATL@@QAEPA_WH@Z ; ATL::CSimpleStringT<wchar_t,0>::GetBuffer
  00146	89 45 b0	 mov	 DWORD PTR _pszBuffer$[ebp], eax

; 409  : 		if( nOffset <= nOldLength )

  00149	8b 45 ec	 mov	 eax, DWORD PTR _nOffset$[ebp]
  0014c	3b 45 e0	 cmp	 eax, DWORD PTR _nOldLength$[ebp]
  0014f	77 0c		 ja	 SHORT $LN17@Append

; 410  : 		{
; 411  : 			pszSrc = pszBuffer+nOffset;

  00151	8b 45 ec	 mov	 eax, DWORD PTR _nOffset$[ebp]
  00154	8b 4d b0	 mov	 ecx, DWORD PTR _pszBuffer$[ebp]
  00157	8d 04 41	 lea	 eax, DWORD PTR [ecx+eax*2]
  0015a	89 45 08	 mov	 DWORD PTR _pszSrc$[ebp], eax
$LN17@Append:

; 412  : 			// No need to call CopyCharsOverlapped, since the destination is
; 413  : 			// beyond the end of the original buffer
; 414  : 		}
; 415  : 		memcpy_s( pszBuffer+nOldLength, nLength * sizeof( XCHAR ), pszSrc, nLength * sizeof( XCHAR ));

  0015d	8b 45 0c	 mov	 eax, DWORD PTR _nLength$[ebp]
  00160	d1 e0		 shl	 eax, 1
  00162	50		 push	 eax
  00163	ff 75 08	 push	 DWORD PTR _pszSrc$[ebp]
  00166	8b 45 0c	 mov	 eax, DWORD PTR _nLength$[ebp]
  00169	d1 e0		 shl	 eax, 1
  0016b	50		 push	 eax
  0016c	8b 45 e0	 mov	 eax, DWORD PTR _nOldLength$[ebp]
  0016f	8b 4d b0	 mov	 ecx, DWORD PTR _pszBuffer$[ebp]
  00172	8d 04 41	 lea	 eax, DWORD PTR [ecx+eax*2]
  00175	50		 push	 eax
  00176	e8 00 00 00 00	 call	 _memcpy_s
  0017b	83 c4 10	 add	 esp, 16			; 00000010H

; 416  : 		ReleaseBufferSetLength( nNewLength );

  0017e	ff 75 bc	 push	 DWORD PTR _nNewLength$[ebp]
  00181	8b 4d f8	 mov	 ecx, DWORD PTR _this$[ebp]
  00184	e8 00 00 00 00	 call	 ?ReleaseBufferSetLength@?$CSimpleStringT@_W$0A@@ATL@@QAEXH@Z ; ATL::CSimpleStringT<wchar_t,0>::ReleaseBufferSetLength
$LN18@Append:

; 417  : 	}

  00189	5f		 pop	 edi
  0018a	5e		 pop	 esi
  0018b	5b		 pop	 ebx
  0018c	81 c4 18 01 00
	00		 add	 esp, 280		; 00000118H
  00192	3b ec		 cmp	 ebp, esp
  00194	e8 00 00 00 00	 call	 __RTC_CheckEsp
  00199	c9		 leave
  0019a	c2 08 00	 ret	 8
?Append@?$CSimpleStringT@_W$0A@@ATL@@QAEXPB_WH@Z ENDP	; ATL::CSimpleStringT<wchar_t,0>::Append
_TEXT	ENDS
; Function compile flags: /Odsp /RTCsu /ZI
; File C:\Program Files\Microsoft Visual Studio\2022\Enterprise\VC\Tools\MSVC\14.34.31933\atlmfc\include\atlsimpstr.h
;	COMDAT ??B?$CSimpleStringT@_W$0A@@ATL@@QBEPB_WXZ
_TEXT	SEGMENT
_this$ = -8						; size = 4
??B?$CSimpleStringT@_W$0A@@ATL@@QBEPB_WXZ PROC		; ATL::CSimpleStringT<wchar_t,0>::operator wchar_t const *, COMDAT
; _this$ = ecx

; 376  : 	{

  00000	55		 push	 ebp
  00001	8b ec		 mov	 ebp, esp
  00003	81 ec cc 00 00
	00		 sub	 esp, 204		; 000000ccH
  00009	53		 push	 ebx
  0000a	56		 push	 esi
  0000b	57		 push	 edi
  0000c	51		 push	 ecx
  0000d	8d 7d f4	 lea	 edi, DWORD PTR [ebp-12]
  00010	6a 03		 push	 3
  00012	59		 pop	 ecx
  00013	b8 cc cc cc cc	 mov	 eax, -858993460		; ccccccccH
  00018	f3 ab		 rep stosd
  0001a	59		 pop	 ecx
  0001b	89 4d f8	 mov	 DWORD PTR _this$[ebp], ecx
  0001e	b9 00 00 00 00	 mov	 ecx, OFFSET __05D8B7B7_atlsimpstr@h
  00023	e8 00 00 00 00	 call	 @__CheckForDebuggerJustMyCode@4

; 377  : 		return( m_pszData );

  00028	8b 45 f8	 mov	 eax, DWORD PTR _this$[ebp]
  0002b	8b 00		 mov	 eax, DWORD PTR [eax]

; 378  : 	}

  0002d	5f		 pop	 edi
  0002e	5e		 pop	 esi
  0002f	5b		 pop	 ebx
  00030	81 c4 cc 00 00
	00		 add	 esp, 204		; 000000ccH
  00036	3b ec		 cmp	 ebp, esp
  00038	e8 00 00 00 00	 call	 __RTC_CheckEsp
  0003d	c9		 leave
  0003e	c3		 ret	 0
??B?$CSimpleStringT@_W$0A@@ATL@@QBEPB_WXZ ENDP		; ATL::CSimpleStringT<wchar_t,0>::operator wchar_t const *
_TEXT	ENDS
; Function compile flags: /Odsp /RTCsu /ZI
; File C:\Program Files\Microsoft Visual Studio\2022\Enterprise\VC\Tools\MSVC\14.34.31933\atlmfc\include\atlsimpstr.h
;	COMDAT ??Y?$CSimpleStringT@_W$0A@@ATL@@QAEAAV01@ABV01@@Z
_TEXT	SEGMENT
_this$ = -8						; size = 4
_strSrc$ = 8						; size = 4
??Y?$CSimpleStringT@_W$0A@@ATL@@QAEAAV01@ABV01@@Z PROC	; ATL::CSimpleStringT<wchar_t,0>::operator+=, COMDAT
; _this$ = ecx

; 320  : 	{

  00000	55		 push	 ebp
  00001	8b ec		 mov	 ebp, esp
  00003	81 ec cc 00 00
	00		 sub	 esp, 204		; 000000ccH
  00009	53		 push	 ebx
  0000a	56		 push	 esi
  0000b	57		 push	 edi
  0000c	51		 push	 ecx
  0000d	8d 7d f4	 lea	 edi, DWORD PTR [ebp-12]
  00010	6a 03		 push	 3
  00012	59		 pop	 ecx
  00013	b8 cc cc cc cc	 mov	 eax, -858993460		; ccccccccH
  00018	f3 ab		 rep stosd
  0001a	59		 pop	 ecx
  0001b	89 4d f8	 mov	 DWORD PTR _this$[ebp], ecx
  0001e	b9 00 00 00 00	 mov	 ecx, OFFSET __05D8B7B7_atlsimpstr@h
  00023	e8 00 00 00 00	 call	 @__CheckForDebuggerJustMyCode@4

; 321  : 		Append( strSrc );

  00028	ff 75 08	 push	 DWORD PTR _strSrc$[ebp]
  0002b	8b 4d f8	 mov	 ecx, DWORD PTR _this$[ebp]
  0002e	e8 00 00 00 00	 call	 ?Append@?$CSimpleStringT@_W$0A@@ATL@@QAEXABV12@@Z ; ATL::CSimpleStringT<wchar_t,0>::Append

; 322  : 
; 323  : 		return( *this );

  00033	8b 45 f8	 mov	 eax, DWORD PTR _this$[ebp]

; 324  : 	}

  00036	5f		 pop	 edi
  00037	5e		 pop	 esi
  00038	5b		 pop	 ebx
  00039	81 c4 cc 00 00
	00		 add	 esp, 204		; 000000ccH
  0003f	3b ec		 cmp	 ebp, esp
  00041	e8 00 00 00 00	 call	 __RTC_CheckEsp
  00046	c9		 leave
  00047	c2 04 00	 ret	 4
??Y?$CSimpleStringT@_W$0A@@ATL@@QAEAAV01@ABV01@@Z ENDP	; ATL::CSimpleStringT<wchar_t,0>::operator+=
_TEXT	ENDS
; Function compile flags: /Odsp /RTCsu /ZI
; File C:\Program Files\Microsoft Visual Studio\2022\Enterprise\VC\Tools\MSVC\14.34.31933\atlmfc\include\atlsimpstr.h
;	COMDAT ??4?$CSimpleStringT@_W$0A@@ATL@@QAEAAV01@PB_W@Z
_TEXT	SEGMENT
_this$ = -8						; size = 4
_pszSrc$ = 8						; size = 4
??4?$CSimpleStringT@_W$0A@@ATL@@QAEAAV01@PB_W@Z PROC	; ATL::CSimpleStringT<wchar_t,0>::operator=, COMDAT
; _this$ = ecx

; 313  : 	{

  00000	55		 push	 ebp
  00001	8b ec		 mov	 ebp, esp
  00003	81 ec cc 00 00
	00		 sub	 esp, 204		; 000000ccH
  00009	53		 push	 ebx
  0000a	56		 push	 esi
  0000b	57		 push	 edi
  0000c	51		 push	 ecx
  0000d	8d 7d f4	 lea	 edi, DWORD PTR [ebp-12]
  00010	6a 03		 push	 3
  00012	59		 pop	 ecx
  00013	b8 cc cc cc cc	 mov	 eax, -858993460		; ccccccccH
  00018	f3 ab		 rep stosd
  0001a	59		 pop	 ecx
  0001b	89 4d f8	 mov	 DWORD PTR _this$[ebp], ecx
  0001e	b9 00 00 00 00	 mov	 ecx, OFFSET __05D8B7B7_atlsimpstr@h
  00023	e8 00 00 00 00	 call	 @__CheckForDebuggerJustMyCode@4

; 314  : 		SetString( pszSrc );

  00028	ff 75 08	 push	 DWORD PTR _pszSrc$[ebp]
  0002b	8b 4d f8	 mov	 ecx, DWORD PTR _this$[ebp]
  0002e	e8 00 00 00 00	 call	 ?SetString@?$CSimpleStringT@_W$0A@@ATL@@QAEXPB_W@Z ; ATL::CSimpleStringT<wchar_t,0>::SetString

; 315  : 
; 316  : 		return( *this );

  00033	8b 45 f8	 mov	 eax, DWORD PTR _this$[ebp]

; 317  : 	}

  00036	5f		 pop	 edi
  00037	5e		 pop	 esi
  00038	5b		 pop	 ebx
  00039	81 c4 cc 00 00
	00		 add	 esp, 204		; 000000ccH
  0003f	3b ec		 cmp	 ebp, esp
  00041	e8 00 00 00 00	 call	 __RTC_CheckEsp
  00046	c9		 leave
  00047	c2 04 00	 ret	 4
??4?$CSimpleStringT@_W$0A@@ATL@@QAEAAV01@PB_W@Z ENDP	; ATL::CSimpleStringT<wchar_t,0>::operator=
_TEXT	ENDS
; Function compile flags: /Odsp /RTCsu /ZI
; File C:\Program Files\Microsoft Visual Studio\2022\Enterprise\VC\Tools\MSVC\14.34.31933\atlmfc\include\atlsimpstr.h
;	COMDAT ??1?$CSimpleStringT@_W$0A@@ATL@@QAE@XZ
_TEXT	SEGMENT
_pData$ = -20						; size = 4
_this$ = -8						; size = 4
??1?$CSimpleStringT@_W$0A@@ATL@@QAE@XZ PROC		; ATL::CSimpleStringT<wchar_t,0>::~CSimpleStringT<wchar_t,0>, COMDAT
; _this$ = ecx

; 260  : 	{

  00000	55		 push	 ebp
  00001	8b ec		 mov	 ebp, esp
  00003	81 ec d8 00 00
	00		 sub	 esp, 216		; 000000d8H
  00009	53		 push	 ebx
  0000a	56		 push	 esi
  0000b	57		 push	 edi
  0000c	51		 push	 ecx
  0000d	8d 7d e8	 lea	 edi, DWORD PTR [ebp-24]
  00010	6a 06		 push	 6
  00012	59		 pop	 ecx
  00013	b8 cc cc cc cc	 mov	 eax, -858993460		; ccccccccH
  00018	f3 ab		 rep stosd
  0001a	59		 pop	 ecx
  0001b	89 4d f8	 mov	 DWORD PTR _this$[ebp], ecx
  0001e	b9 00 00 00 00	 mov	 ecx, OFFSET __05D8B7B7_atlsimpstr@h
  00023	e8 00 00 00 00	 call	 @__CheckForDebuggerJustMyCode@4

; 261  : 		CStringData* pData = GetData();

  00028	8b 4d f8	 mov	 ecx, DWORD PTR _this$[ebp]
  0002b	e8 00 00 00 00	 call	 ?GetData@?$CSimpleStringT@_W$0A@@ATL@@ABEPAUCStringData@2@XZ ; ATL::CSimpleStringT<wchar_t,0>::GetData
  00030	89 45 ec	 mov	 DWORD PTR _pData$[ebp], eax

; 262  : 		pData->Release();

  00033	8b 4d ec	 mov	 ecx, DWORD PTR _pData$[ebp]
  00036	e8 00 00 00 00	 call	 ?Release@CStringData@ATL@@QAEXXZ ; ATL::CStringData::Release

; 263  : 	}

  0003b	5f		 pop	 edi
  0003c	5e		 pop	 esi
  0003d	5b		 pop	 ebx
  0003e	81 c4 d8 00 00
	00		 add	 esp, 216		; 000000d8H
  00044	3b ec		 cmp	 ebp, esp
  00046	e8 00 00 00 00	 call	 __RTC_CheckEsp
  0004b	c9		 leave
  0004c	c3		 ret	 0
??1?$CSimpleStringT@_W$0A@@ATL@@QAE@XZ ENDP		; ATL::CSimpleStringT<wchar_t,0>::~CSimpleStringT<wchar_t,0>
_TEXT	ENDS
; Function compile flags: /Odsp /RTCsu /ZI
; File C:\Program Files\Microsoft Visual Studio\2022\Enterprise\VC\Tools\MSVC\14.34.31933\atlmfc\include\atlsimpstr.h
;	COMDAT ??0?$CSimpleStringT@_W$0A@@ATL@@QAE@ABV01@@Z
_TEXT	SEGMENT
_pNewData$ = -32					; size = 4
_pSrcData$ = -20					; size = 4
_this$ = -8						; size = 4
_strSrc$ = 8						; size = 4
??0?$CSimpleStringT@_W$0A@@ATL@@QAE@ABV01@@Z PROC	; ATL::CSimpleStringT<wchar_t,0>::CSimpleStringT<wchar_t,0>, COMDAT
; _this$ = ecx

; 210  : 	CSimpleStringT(_In_ const CSimpleStringT& strSrc)

  00000	55		 push	 ebp
  00001	8b ec		 mov	 ebp, esp
  00003	81 ec e4 00 00
	00		 sub	 esp, 228		; 000000e4H
  00009	53		 push	 ebx
  0000a	56		 push	 esi
  0000b	57		 push	 edi
  0000c	51		 push	 ecx
  0000d	8d 7d dc	 lea	 edi, DWORD PTR [ebp-36]
  00010	6a 09		 push	 9
  00012	59		 pop	 ecx
  00013	b8 cc cc cc cc	 mov	 eax, -858993460		; ccccccccH
  00018	f3 ab		 rep stosd
  0001a	59		 pop	 ecx
  0001b	89 4d f8	 mov	 DWORD PTR _this$[ebp], ecx
  0001e	b9 00 00 00 00	 mov	 ecx, OFFSET __05D8B7B7_atlsimpstr@h
  00023	e8 00 00 00 00	 call	 @__CheckForDebuggerJustMyCode@4

; 211  : 	{
; 212  : 		CStringData* pSrcData = strSrc.GetData();

  00028	8b 4d 08	 mov	 ecx, DWORD PTR _strSrc$[ebp]
  0002b	e8 00 00 00 00	 call	 ?GetData@?$CSimpleStringT@_W$0A@@ATL@@ABEPAUCStringData@2@XZ ; ATL::CSimpleStringT<wchar_t,0>::GetData
  00030	89 45 ec	 mov	 DWORD PTR _pSrcData$[ebp], eax

; 213  : 		CStringData* pNewData = CloneData( pSrcData );

  00033	ff 75 ec	 push	 DWORD PTR _pSrcData$[ebp]
  00036	e8 00 00 00 00	 call	 ?CloneData@?$CSimpleStringT@_W$0A@@ATL@@CAPAUCStringData@2@PAU32@@Z ; ATL::CSimpleStringT<wchar_t,0>::CloneData
  0003b	59		 pop	 ecx
  0003c	89 45 e0	 mov	 DWORD PTR _pNewData$[ebp], eax

; 214  : 		Attach( pNewData );

  0003f	ff 75 e0	 push	 DWORD PTR _pNewData$[ebp]
  00042	8b 4d f8	 mov	 ecx, DWORD PTR _this$[ebp]
  00045	e8 00 00 00 00	 call	 ?Attach@?$CSimpleStringT@_W$0A@@ATL@@AAEXPAUCStringData@2@@Z ; ATL::CSimpleStringT<wchar_t,0>::Attach

; 215  : 	}

  0004a	8b 45 f8	 mov	 eax, DWORD PTR _this$[ebp]
  0004d	5f		 pop	 edi
  0004e	5e		 pop	 esi
  0004f	5b		 pop	 ebx
  00050	81 c4 e4 00 00
	00		 add	 esp, 228		; 000000e4H
  00056	3b ec		 cmp	 ebp, esp
  00058	e8 00 00 00 00	 call	 __RTC_CheckEsp
  0005d	c9		 leave
  0005e	c2 04 00	 ret	 4
??0?$CSimpleStringT@_W$0A@@ATL@@QAE@ABV01@@Z ENDP	; ATL::CSimpleStringT<wchar_t,0>::CSimpleStringT<wchar_t,0>
_TEXT	ENDS
; Function compile flags: /Odsp /RTCsu /ZI
; File C:\Program Files\Microsoft Visual Studio\2022\Enterprise\VC\Tools\MSVC\14.34.31933\atlmfc\include\atlsimpstr.h
;	COMDAT ??0?$CSimpleStringT@_W$0A@@ATL@@QAE@PAUIAtlStringMgr@1@@Z
_TEXT	SEGMENT
tv65 = -232						; size = 4
_pData$ = -32						; size = 4
___atl_condVal$1 = -20					; size = 4
_this$ = -8						; size = 4
_pStringMgr$ = 8					; size = 4
??0?$CSimpleStringT@_W$0A@@ATL@@QAE@PAUIAtlStringMgr@1@@Z PROC ; ATL::CSimpleStringT<wchar_t,0>::CSimpleStringT<wchar_t,0>, COMDAT
; _this$ = ecx

; 203  : 	explicit CSimpleStringT(_Inout_ IAtlStringMgr* pStringMgr)

  00000	55		 push	 ebp
  00001	8b ec		 mov	 ebp, esp
  00003	81 ec e8 00 00
	00		 sub	 esp, 232		; 000000e8H
  00009	53		 push	 ebx
  0000a	56		 push	 esi
  0000b	57		 push	 edi
  0000c	51		 push	 ecx
  0000d	8d 7d d8	 lea	 edi, DWORD PTR [ebp-40]
  00010	6a 0a		 push	 10			; 0000000aH
  00012	59		 pop	 ecx
  00013	b8 cc cc cc cc	 mov	 eax, -858993460		; ccccccccH
  00018	f3 ab		 rep stosd
  0001a	59		 pop	 ecx
  0001b	89 4d f8	 mov	 DWORD PTR _this$[ebp], ecx
  0001e	b9 00 00 00 00	 mov	 ecx, OFFSET __05D8B7B7_atlsimpstr@h
  00023	e8 00 00 00 00	 call	 @__CheckForDebuggerJustMyCode@4
$LN4@CSimpleStr:

; 204  : 	{
; 205  : 		ATLENSURE( pStringMgr != NULL );

  00028	83 7d 08 00	 cmp	 DWORD PTR _pStringMgr$[ebp], 0
  0002c	74 0c		 je	 SHORT $LN10@CSimpleStr
  0002e	c7 85 18 ff ff
	ff 01 00 00 00	 mov	 DWORD PTR tv65[ebp], 1
  00038	eb 07		 jmp	 SHORT $LN11@CSimpleStr
$LN10@CSimpleStr:
  0003a	83 a5 18 ff ff
	ff 00		 and	 DWORD PTR tv65[ebp], 0
$LN11@CSimpleStr:
  00041	8b 85 18 ff ff
	ff		 mov	 eax, DWORD PTR tv65[ebp]
  00047	89 45 ec	 mov	 DWORD PTR ___atl_condVal$1[ebp], eax
$LN7@CSimpleStr:
  0004a	83 7d ec 00	 cmp	 DWORD PTR ___atl_condVal$1[ebp], 0
  0004e	75 26		 jne	 SHORT $LN5@CSimpleStr
  00050	68 00 00 00 00	 push	 OFFSET ??_C@_1BM@GBBOFEAE@?$AA_?$AA_?$AAa?$AAt?$AAl?$AA_?$AAc?$AAo?$AAn?$AAd?$AAV?$AAa?$AAl@
  00055	68 00 00 00 00	 push	 OFFSET ??_C@_17CNPHIMPH@?$AA?$CF?$AAl?$AAs@
  0005a	6a 00		 push	 0
  0005c	68 cd 00 00 00	 push	 205			; 000000cdH
  00061	68 00 00 00 00	 push	 OFFSET ??_C@_1NO@CMNIKGIF@?$AAC?$AA?3?$AA?2?$AAP?$AAr?$AAo?$AAg?$AAr?$AAa?$AAm?$AA?5?$AAF?$AAi?$AAl?$AAe@
  00066	6a 02		 push	 2
  00068	e8 00 00 00 00	 call	 __CrtDbgReportW
  0006d	83 c4 18	 add	 esp, 24			; 00000018H
  00070	83 f8 01	 cmp	 eax, 1
  00073	75 01		 jne	 SHORT $LN5@CSimpleStr
  00075	cc		 int	 3
$LN5@CSimpleStr:
  00076	33 c0		 xor	 eax, eax
  00078	75 d0		 jne	 SHORT $LN7@CSimpleStr
  0007a	83 7d ec 00	 cmp	 DWORD PTR ___atl_condVal$1[ebp], 0
  0007e	75 0a		 jne	 SHORT $LN2@CSimpleStr
  00080	68 05 40 00 80	 push	 -2147467259		; 80004005H
  00085	e8 00 00 00 00	 call	 ?AtlThrowImpl@ATL@@YGXJ@Z ; ATL::AtlThrowImpl
$LN2@CSimpleStr:
  0008a	33 c0		 xor	 eax, eax
  0008c	75 9a		 jne	 SHORT $LN4@CSimpleStr

; 206  : 		CStringData* pData = pStringMgr->GetNilString();

  0008e	8b 45 08	 mov	 eax, DWORD PTR _pStringMgr$[ebp]
  00091	8b 00		 mov	 eax, DWORD PTR [eax]
  00093	8b f4		 mov	 esi, esp
  00095	8b 4d 08	 mov	 ecx, DWORD PTR _pStringMgr$[ebp]
  00098	ff 50 0c	 call	 DWORD PTR [eax+12]
  0009b	3b f4		 cmp	 esi, esp
  0009d	e8 00 00 00 00	 call	 __RTC_CheckEsp
  000a2	89 45 e0	 mov	 DWORD PTR _pData$[ebp], eax

; 207  : 		Attach( pData );

  000a5	ff 75 e0	 push	 DWORD PTR _pData$[ebp]
  000a8	8b 4d f8	 mov	 ecx, DWORD PTR _this$[ebp]
  000ab	e8 00 00 00 00	 call	 ?Attach@?$CSimpleStringT@_W$0A@@ATL@@AAEXPAUCStringData@2@@Z ; ATL::CSimpleStringT<wchar_t,0>::Attach

; 208  : 	}

  000b0	8b 45 f8	 mov	 eax, DWORD PTR _this$[ebp]
$LN9@CSimpleStr:
  000b3	5f		 pop	 edi
  000b4	5e		 pop	 esi
  000b5	5b		 pop	 ebx
  000b6	81 c4 e8 00 00
	00		 add	 esp, 232		; 000000e8H
  000bc	3b ec		 cmp	 ebp, esp
  000be	e8 00 00 00 00	 call	 __RTC_CheckEsp
  000c3	c9		 leave
  000c4	c2 04 00	 ret	 4
??0?$CSimpleStringT@_W$0A@@ATL@@QAE@PAUIAtlStringMgr@1@@Z ENDP ; ATL::CSimpleStringT<wchar_t,0>::CSimpleStringT<wchar_t,0>
_TEXT	ENDS
; Function compile flags: /Odsp /RTCsu /ZI
; File C:\Program Files\Microsoft Visual Studio\2022\Enterprise\VC\Tools\MSVC\14.34.31933\atlmfc\include\cstringt.h
;	COMDAT ?ConvertToBaseType@?$ChTraitsCRT@_W@ATL@@SAXPA_WHPB_WH@Z
_TEXT	SEGMENT
_pszDest$ = 8						; size = 4
_nDestLength$ = 12					; size = 4
_pszSrc$ = 16						; size = 4
_nSrcLength$ = 20					; size = 4
?ConvertToBaseType@?$ChTraitsCRT@_W@ATL@@SAXPA_WHPB_WH@Z PROC ; ATL::ChTraitsCRT<wchar_t>::ConvertToBaseType, COMDAT

; 789  : 	{

  00000	55		 push	 ebp
  00001	8b ec		 mov	 ebp, esp
  00003	81 ec c0 00 00
	00		 sub	 esp, 192		; 000000c0H
  00009	53		 push	 ebx
  0000a	56		 push	 esi
  0000b	57		 push	 edi
  0000c	8b fd		 mov	 edi, ebp
  0000e	33 c9		 xor	 ecx, ecx
  00010	b8 cc cc cc cc	 mov	 eax, -858993460		; ccccccccH
  00015	f3 ab		 rep stosd
  00017	b9 00 00 00 00	 mov	 ecx, OFFSET __B625A68F_cstringt@h
  0001c	e8 00 00 00 00	 call	 @__CheckForDebuggerJustMyCode@4

; 790  : 		if (nSrcLength == -1) { nSrcLength=1 + GetBaseTypeLength(pszSrc); }

  00021	83 7d 14 ff	 cmp	 DWORD PTR _nSrcLength$[ebp], -1
  00025	75 0d		 jne	 SHORT $LN2@ConvertToB
  00027	ff 75 10	 push	 DWORD PTR _pszSrc$[ebp]
  0002a	e8 00 00 00 00	 call	 ?GetBaseTypeLength@?$ChTraitsCRT@_W@ATL@@SAHPB_W@Z ; ATL::ChTraitsCRT<wchar_t>::GetBaseTypeLength
  0002f	59		 pop	 ecx
  00030	40		 inc	 eax
  00031	89 45 14	 mov	 DWORD PTR _nSrcLength$[ebp], eax
$LN2@ConvertToB:

; 791  : 		// nLen is in wchar_ts
; 792  : 		Checked::wmemcpy_s(pszDest, nDestLength, pszSrc, nSrcLength);

  00034	ff 75 14	 push	 DWORD PTR _nSrcLength$[ebp]
  00037	ff 75 10	 push	 DWORD PTR _pszSrc$[ebp]
  0003a	ff 75 0c	 push	 DWORD PTR _nDestLength$[ebp]
  0003d	ff 75 08	 push	 DWORD PTR _pszDest$[ebp]
  00040	e8 00 00 00 00	 call	 ?wmemcpy_s@Checked@ATL@@YAXPA_WIPB_WI@Z ; ATL::Checked::wmemcpy_s
  00045	83 c4 10	 add	 esp, 16			; 00000010H

; 793  : 	}

  00048	5f		 pop	 edi
  00049	5e		 pop	 esi
  0004a	5b		 pop	 ebx
  0004b	81 c4 c0 00 00
	00		 add	 esp, 192		; 000000c0H
  00051	3b ec		 cmp	 ebp, esp
  00053	e8 00 00 00 00	 call	 __RTC_CheckEsp
  00058	c9		 leave
  00059	c3		 ret	 0
?ConvertToBaseType@?$ChTraitsCRT@_W@ATL@@SAXPA_WHPB_WH@Z ENDP ; ATL::ChTraitsCRT<wchar_t>::ConvertToBaseType
_TEXT	ENDS
; Function compile flags: /Odsp /RTCsu /ZI
; File C:\Program Files\Microsoft Visual Studio\2022\Enterprise\VC\Tools\MSVC\14.34.31933\atlmfc\include\cstringt.h
;	COMDAT ?ConvertToBaseType@?$ChTraitsCRT@_W@ATL@@SAXPA_WHPBDH@Z
_TEXT	SEGMENT
_pszDest$ = 8						; size = 4
_nDestLength$ = 12					; size = 4
_pszSrc$ = 16						; size = 4
_nSrcLength$ = 20					; size = 4
?ConvertToBaseType@?$ChTraitsCRT@_W@ATL@@SAXPA_WHPBDH@Z PROC ; ATL::ChTraitsCRT<wchar_t>::ConvertToBaseType, COMDAT

; 779  : 	{

  00000	55		 push	 ebp
  00001	8b ec		 mov	 ebp, esp
  00003	81 ec c0 00 00
	00		 sub	 esp, 192		; 000000c0H
  00009	53		 push	 ebx
  0000a	56		 push	 esi
  0000b	57		 push	 edi
  0000c	8b fd		 mov	 edi, ebp
  0000e	33 c9		 xor	 ecx, ecx
  00010	b8 cc cc cc cc	 mov	 eax, -858993460		; ccccccccH
  00015	f3 ab		 rep stosd
  00017	b9 00 00 00 00	 mov	 ecx, OFFSET __B625A68F_cstringt@h
  0001c	e8 00 00 00 00	 call	 @__CheckForDebuggerJustMyCode@4

; 780  : 		// nLen is in wchar_ts
; 781  : 		::MultiByteToWideChar( _AtlGetConversionACP(), 0, pszSrc, nSrcLength, pszDest, nDestLength );

  00021	8b f4		 mov	 esi, esp
  00023	ff 75 0c	 push	 DWORD PTR _nDestLength$[ebp]
  00026	ff 75 08	 push	 DWORD PTR _pszDest$[ebp]
  00029	ff 75 14	 push	 DWORD PTR _nSrcLength$[ebp]
  0002c	ff 75 10	 push	 DWORD PTR _pszSrc$[ebp]
  0002f	6a 00		 push	 0
  00031	e8 00 00 00 00	 call	 ?_AtlGetConversionACP@ATL@@YGIXZ ; ATL::_AtlGetConversionACP
  00036	50		 push	 eax
  00037	ff 15 00 00 00
	00		 call	 DWORD PTR __imp__MultiByteToWideChar@24
  0003d	3b f4		 cmp	 esi, esp
  0003f	e8 00 00 00 00	 call	 __RTC_CheckEsp

; 782  : 	}

  00044	5f		 pop	 edi
  00045	5e		 pop	 esi
  00046	5b		 pop	 ebx
  00047	81 c4 c0 00 00
	00		 add	 esp, 192		; 000000c0H
  0004d	3b ec		 cmp	 ebp, esp
  0004f	e8 00 00 00 00	 call	 __RTC_CheckEsp
  00054	c9		 leave
  00055	c3		 ret	 0
?ConvertToBaseType@?$ChTraitsCRT@_W@ATL@@SAXPA_WHPBDH@Z ENDP ; ATL::ChTraitsCRT<wchar_t>::ConvertToBaseType
_TEXT	ENDS
; Function compile flags: /Odsp /RTCsu /ZI
; File C:\Program Files\Microsoft Visual Studio\2022\Enterprise\VC\Tools\MSVC\14.34.31933\atlmfc\include\cstringt.h
;	COMDAT ?GetBaseTypeLength@?$ChTraitsCRT@_W@ATL@@SAHPB_WH@Z
_TEXT	SEGMENT
_pszSrc$ = 8						; size = 4
_nLength$ = 12						; size = 4
?GetBaseTypeLength@?$ChTraitsCRT@_W@ATL@@SAHPB_WH@Z PROC ; ATL::ChTraitsCRT<wchar_t>::GetBaseTypeLength, COMDAT

; 768  : 	{

  00000	55		 push	 ebp
  00001	8b ec		 mov	 ebp, esp
  00003	81 ec c0 00 00
	00		 sub	 esp, 192		; 000000c0H
  00009	53		 push	 ebx
  0000a	56		 push	 esi
  0000b	57		 push	 edi
  0000c	8b fd		 mov	 edi, ebp
  0000e	33 c9		 xor	 ecx, ecx
  00010	b8 cc cc cc cc	 mov	 eax, -858993460		; ccccccccH
  00015	f3 ab		 rep stosd
  00017	b9 00 00 00 00	 mov	 ecx, OFFSET __B625A68F_cstringt@h
  0001c	e8 00 00 00 00	 call	 @__CheckForDebuggerJustMyCode@4

; 769  : 		(void)pszSrc;
; 770  : 		// Returns required buffer size in wchar_ts
; 771  : 		return nLength;

  00021	8b 45 0c	 mov	 eax, DWORD PTR _nLength$[ebp]

; 772  : 	}

  00024	5f		 pop	 edi
  00025	5e		 pop	 esi
  00026	5b		 pop	 ebx
  00027	81 c4 c0 00 00
	00		 add	 esp, 192		; 000000c0H
  0002d	3b ec		 cmp	 ebp, esp
  0002f	e8 00 00 00 00	 call	 __RTC_CheckEsp
  00034	c9		 leave
  00035	c3		 ret	 0
?GetBaseTypeLength@?$ChTraitsCRT@_W@ATL@@SAHPB_WH@Z ENDP ; ATL::ChTraitsCRT<wchar_t>::GetBaseTypeLength
_TEXT	ENDS
; Function compile flags: /Odsp /RTCsu /ZI
; File C:\Program Files\Microsoft Visual Studio\2022\Enterprise\VC\Tools\MSVC\14.34.31933\atlmfc\include\cstringt.h
;	COMDAT ?GetBaseTypeLength@?$ChTraitsCRT@_W@ATL@@SAHPB_W@Z
_TEXT	SEGMENT
_pszSrc$ = 8						; size = 4
?GetBaseTypeLength@?$ChTraitsCRT@_W@ATL@@SAHPB_W@Z PROC	; ATL::ChTraitsCRT<wchar_t>::GetBaseTypeLength, COMDAT

; 760  : 	{

  00000	55		 push	 ebp
  00001	8b ec		 mov	 ebp, esp
  00003	81 ec c0 00 00
	00		 sub	 esp, 192		; 000000c0H
  00009	53		 push	 ebx
  0000a	56		 push	 esi
  0000b	57		 push	 edi
  0000c	8b fd		 mov	 edi, ebp
  0000e	33 c9		 xor	 ecx, ecx
  00010	b8 cc cc cc cc	 mov	 eax, -858993460		; ccccccccH
  00015	f3 ab		 rep stosd
  00017	b9 00 00 00 00	 mov	 ecx, OFFSET __B625A68F_cstringt@h
  0001c	e8 00 00 00 00	 call	 @__CheckForDebuggerJustMyCode@4

; 761  : 		// Returns required buffer size in wchar_ts
; 762  : 		return AtlStrLen( pszSrc );

  00021	ff 75 08	 push	 DWORD PTR _pszSrc$[ebp]
  00024	e8 00 00 00 00	 call	 ?AtlStrLen@ATL@@YAHPB_W@Z ; ATL::AtlStrLen
  00029	59		 pop	 ecx

; 763  : 	}

  0002a	5f		 pop	 edi
  0002b	5e		 pop	 esi
  0002c	5b		 pop	 ebx
  0002d	81 c4 c0 00 00
	00		 add	 esp, 192		; 000000c0H
  00033	3b ec		 cmp	 ebp, esp
  00035	e8 00 00 00 00	 call	 __RTC_CheckEsp
  0003a	c9		 leave
  0003b	c3		 ret	 0
?GetBaseTypeLength@?$ChTraitsCRT@_W@ATL@@SAHPB_W@Z ENDP	; ATL::ChTraitsCRT<wchar_t>::GetBaseTypeLength
_TEXT	ENDS
; Function compile flags: /Odsp /RTCsu /ZI
; File C:\Program Files\Microsoft Visual Studio\2022\Enterprise\VC\Tools\MSVC\14.34.31933\atlmfc\include\cstringt.h
;	COMDAT ?GetBaseTypeLength@?$ChTraitsCRT@_W@ATL@@SAHPBD@Z
_TEXT	SEGMENT
_pszSrc$ = 8						; size = 4
?GetBaseTypeLength@?$ChTraitsCRT@_W@ATL@@SAHPBD@Z PROC	; ATL::ChTraitsCRT<wchar_t>::GetBaseTypeLength, COMDAT

; 746  : 	{

  00000	55		 push	 ebp
  00001	8b ec		 mov	 ebp, esp
  00003	81 ec c0 00 00
	00		 sub	 esp, 192		; 000000c0H
  00009	53		 push	 ebx
  0000a	56		 push	 esi
  0000b	57		 push	 edi
  0000c	8b fd		 mov	 edi, ebp
  0000e	33 c9		 xor	 ecx, ecx
  00010	b8 cc cc cc cc	 mov	 eax, -858993460		; ccccccccH
  00015	f3 ab		 rep stosd
  00017	b9 00 00 00 00	 mov	 ecx, OFFSET __B625A68F_cstringt@h
  0001c	e8 00 00 00 00	 call	 @__CheckForDebuggerJustMyCode@4

; 747  : 		// Returns required buffer size in wchar_ts
; 748  : 		return ::MultiByteToWideChar( _AtlGetConversionACP(), 0, pszSrc, -1, NULL, 0 )-1;

  00021	8b f4		 mov	 esi, esp
  00023	6a 00		 push	 0
  00025	6a 00		 push	 0
  00027	6a ff		 push	 -1
  00029	ff 75 08	 push	 DWORD PTR _pszSrc$[ebp]
  0002c	6a 00		 push	 0
  0002e	e8 00 00 00 00	 call	 ?_AtlGetConversionACP@ATL@@YGIXZ ; ATL::_AtlGetConversionACP
  00033	50		 push	 eax
  00034	ff 15 00 00 00
	00		 call	 DWORD PTR __imp__MultiByteToWideChar@24
  0003a	3b f4		 cmp	 esi, esp
  0003c	e8 00 00 00 00	 call	 __RTC_CheckEsp
  00041	48		 dec	 eax

; 749  : 	}

  00042	5f		 pop	 edi
  00043	5e		 pop	 esi
  00044	5b		 pop	 ebx
  00045	81 c4 c0 00 00
	00		 add	 esp, 192		; 000000c0H
  0004b	3b ec		 cmp	 ebp, esp
  0004d	e8 00 00 00 00	 call	 __RTC_CheckEsp
  00052	c9		 leave
  00053	c3		 ret	 0
?GetBaseTypeLength@?$ChTraitsCRT@_W@ATL@@SAHPBD@Z ENDP	; ATL::ChTraitsCRT<wchar_t>::GetBaseTypeLength
_TEXT	ENDS
; Function compile flags: /Odsp /RTCsu /ZI
; File C:\Program Files\Microsoft Visual Studio\2022\Enterprise\VC\Tools\MSVC\14.34.31933\atlmfc\include\cstringt.h
;	COMDAT ?Format@?$ChTraitsCRT@_W@ATL@@SAHPA_WIPB_WPAD@Z
_TEXT	SEGMENT
tv74 = -208						; size = 4
_result$ = -8						; size = 4
_pszBuffer$ = 8						; size = 4
_nLength$ = 12						; size = 4
_pszFormat$ = 16					; size = 4
_args$ = 20						; size = 4
?Format@?$ChTraitsCRT@_W@ATL@@SAHPA_WIPB_WPAD@Z PROC	; ATL::ChTraitsCRT<wchar_t>::Format, COMDAT

; 728  : 	{

  00000	55		 push	 ebp
  00001	8b ec		 mov	 ebp, esp
  00003	81 ec d0 00 00
	00		 sub	 esp, 208		; 000000d0H
  00009	53		 push	 ebx
  0000a	56		 push	 esi
  0000b	57		 push	 edi
  0000c	8d 7d f0	 lea	 edi, DWORD PTR [ebp-16]
  0000f	6a 04		 push	 4
  00011	59		 pop	 ecx
  00012	b8 cc cc cc cc	 mov	 eax, -858993460		; ccccccccH
  00017	f3 ab		 rep stosd
  00019	b9 00 00 00 00	 mov	 ecx, OFFSET __B625A68F_cstringt@h
  0001e	e8 00 00 00 00	 call	 @__CheckForDebuggerJustMyCode@4

; 729  : #if _MSC_VER < 1900
; 730  : 		return vswprintf_s(pszBuffer, nLength, pszFormat, args);
; 731  : #else
; 732  : 		// Explicitly request the legacy wide format specifiers mode from the CRT,
; 733  : 		// for compatibility with previous versions.  While the CRT supports two
; 734  : 		// modes, the ATL and MFC functions that accept format strings only support
; 735  : 		// legacy mode format strings.
; 736  : 		int const result = __stdio_common_vswprintf_s(

  00023	ff 75 14	 push	 DWORD PTR _args$[ebp]
  00026	6a 00		 push	 0
  00028	ff 75 10	 push	 DWORD PTR _pszFormat$[ebp]
  0002b	ff 75 0c	 push	 DWORD PTR _nLength$[ebp]
  0002e	ff 75 08	 push	 DWORD PTR _pszBuffer$[ebp]
  00031	e8 00 00 00 00	 call	 ___local_stdio_printf_options
  00036	8b 08		 mov	 ecx, DWORD PTR [eax]
  00038	83 c9 04	 or	 ecx, 4
  0003b	8b 40 04	 mov	 eax, DWORD PTR [eax+4]
  0003e	50		 push	 eax
  0003f	51		 push	 ecx
  00040	e8 00 00 00 00	 call	 ___stdio_common_vswprintf_s
  00045	83 c4 1c	 add	 esp, 28			; 0000001cH
  00048	89 45 f8	 mov	 DWORD PTR _result$[ebp], eax

; 737  : 			_CRT_INTERNAL_LOCAL_PRINTF_OPTIONS |
; 738  : 			_CRT_INTERNAL_PRINTF_LEGACY_WIDE_SPECIFIERS,
; 739  : 			pszBuffer, nLength, pszFormat, NULL, args);
; 740  : 
; 741  : 		return result < 0 ? -1 : result;

  0004b	83 7d f8 00	 cmp	 DWORD PTR _result$[ebp], 0
  0004f	7d 09		 jge	 SHORT $LN3@Format
  00051	83 8d 30 ff ff
	ff ff		 or	 DWORD PTR tv74[ebp], -1
  00058	eb 09		 jmp	 SHORT $LN4@Format
$LN3@Format:
  0005a	8b 45 f8	 mov	 eax, DWORD PTR _result$[ebp]
  0005d	89 85 30 ff ff
	ff		 mov	 DWORD PTR tv74[ebp], eax
$LN4@Format:
  00063	8b 85 30 ff ff
	ff		 mov	 eax, DWORD PTR tv74[ebp]

; 742  : #endif
; 743  : 	}

  00069	5f		 pop	 edi
  0006a	5e		 pop	 esi
  0006b	5b		 pop	 ebx
  0006c	81 c4 d0 00 00
	00		 add	 esp, 208		; 000000d0H
  00072	3b ec		 cmp	 ebp, esp
  00074	e8 00 00 00 00	 call	 __RTC_CheckEsp
  00079	c9		 leave
  0007a	c3		 ret	 0
?Format@?$ChTraitsCRT@_W@ATL@@SAHPA_WIPB_WPAD@Z ENDP	; ATL::ChTraitsCRT<wchar_t>::Format
_TEXT	ENDS
; Function compile flags: /Odsp /RTCsu /ZI
; File C:\Program Files\Microsoft Visual Studio\2022\Enterprise\VC\Tools\MSVC\14.34.31933\atlmfc\include\cstringt.h
;	COMDAT ?GetFormattedLength@?$ChTraitsCRT@_W@ATL@@SAHPB_WPAD@Z
_TEXT	SEGMENT
tv75 = -208						; size = 4
_result$ = -8						; size = 4
_pszFormat$ = 8						; size = 4
_args$ = 12						; size = 4
?GetFormattedLength@?$ChTraitsCRT@_W@ATL@@SAHPB_WPAD@Z PROC ; ATL::ChTraitsCRT<wchar_t>::GetFormattedLength, COMDAT

; 682  : 	{

  00000	55		 push	 ebp
  00001	8b ec		 mov	 ebp, esp
  00003	81 ec d0 00 00
	00		 sub	 esp, 208		; 000000d0H
  00009	53		 push	 ebx
  0000a	56		 push	 esi
  0000b	57		 push	 edi
  0000c	8d 7d f0	 lea	 edi, DWORD PTR [ebp-16]
  0000f	6a 04		 push	 4
  00011	59		 pop	 ecx
  00012	b8 cc cc cc cc	 mov	 eax, -858993460		; ccccccccH
  00017	f3 ab		 rep stosd
  00019	b9 00 00 00 00	 mov	 ecx, OFFSET __B625A68F_cstringt@h
  0001e	e8 00 00 00 00	 call	 @__CheckForDebuggerJustMyCode@4

; 683  : #if _MSC_VER < 1900
; 684  : 		return _vscwprintf(pszFormat, args);
; 685  : #else
; 686  : 		// Explicitly request the legacy wide format specifiers mode from the CRT,
; 687  : 		// for compatibility with previous versions.  While the CRT supports two
; 688  : 		// modes, the ATL and MFC functions that accept format strings only support
; 689  : 		// legacy mode format strings.
; 690  : 		int const result = __stdio_common_vswprintf(

  00023	ff 75 0c	 push	 DWORD PTR _args$[ebp]
  00026	6a 00		 push	 0
  00028	ff 75 08	 push	 DWORD PTR _pszFormat$[ebp]
  0002b	6a 00		 push	 0
  0002d	6a 00		 push	 0
  0002f	e8 00 00 00 00	 call	 ___local_stdio_printf_options
  00034	8b 08		 mov	 ecx, DWORD PTR [eax]
  00036	83 c9 02	 or	 ecx, 2
  00039	8b 40 04	 mov	 eax, DWORD PTR [eax+4]
  0003c	83 c9 04	 or	 ecx, 4
  0003f	50		 push	 eax
  00040	51		 push	 ecx
  00041	e8 00 00 00 00	 call	 ___stdio_common_vswprintf
  00046	83 c4 1c	 add	 esp, 28			; 0000001cH
  00049	89 45 f8	 mov	 DWORD PTR _result$[ebp], eax

; 691  : 			_CRT_INTERNAL_LOCAL_PRINTF_OPTIONS |
; 692  : 			_CRT_INTERNAL_PRINTF_STANDARD_SNPRINTF_BEHAVIOR |
; 693  : 			_CRT_INTERNAL_PRINTF_LEGACY_WIDE_SPECIFIERS,
; 694  : 			NULL, 0, pszFormat, NULL, args);
; 695  : 
; 696  : 		return result < 0 ? -1 : result;

  0004c	83 7d f8 00	 cmp	 DWORD PTR _result$[ebp], 0
  00050	7d 09		 jge	 SHORT $LN3@GetFormatt
  00052	83 8d 30 ff ff
	ff ff		 or	 DWORD PTR tv75[ebp], -1
  00059	eb 09		 jmp	 SHORT $LN4@GetFormatt
$LN3@GetFormatt:
  0005b	8b 45 f8	 mov	 eax, DWORD PTR _result$[ebp]
  0005e	89 85 30 ff ff
	ff		 mov	 DWORD PTR tv75[ebp], eax
$LN4@GetFormatt:
  00064	8b 85 30 ff ff
	ff		 mov	 eax, DWORD PTR tv75[ebp]

; 697  : #endif
; 698  : 	}

  0006a	5f		 pop	 edi
  0006b	5e		 pop	 esi
  0006c	5b		 pop	 ebx
  0006d	81 c4 d0 00 00
	00		 add	 esp, 208		; 000000d0H
  00073	3b ec		 cmp	 ebp, esp
  00075	e8 00 00 00 00	 call	 __RTC_CheckEsp
  0007a	c9		 leave
  0007b	c3		 ret	 0
?GetFormattedLength@?$ChTraitsCRT@_W@ATL@@SAHPB_WPAD@Z ENDP ; ATL::ChTraitsCRT<wchar_t>::GetFormattedLength
_TEXT	ENDS
; Function compile flags: /Odsp /RTCsu /ZI
; File C:\Program Files\Microsoft Visual Studio\2022\Enterprise\VC\Tools\MSVC\14.34.31933\atlmfc\include\atlsimpstr.h
;	COMDAT ?Release@CStringData@ATL@@QAEXXZ
_TEXT	SEGMENT
_this$ = -8						; size = 4
?Release@CStringData@ATL@@QAEXXZ PROC			; ATL::CStringData::Release, COMDAT
; _this$ = ecx

; 85   : 	{

  00000	55		 push	 ebp
  00001	8b ec		 mov	 ebp, esp
  00003	81 ec cc 00 00
	00		 sub	 esp, 204		; 000000ccH
  00009	53		 push	 ebx
  0000a	56		 push	 esi
  0000b	57		 push	 edi
  0000c	51		 push	 ecx
  0000d	8d 7d f4	 lea	 edi, DWORD PTR [ebp-12]
  00010	6a 03		 push	 3
  00012	59		 pop	 ecx
  00013	b8 cc cc cc cc	 mov	 eax, -858993460		; ccccccccH
  00018	f3 ab		 rep stosd
  0001a	59		 pop	 ecx
  0001b	89 4d f8	 mov	 DWORD PTR _this$[ebp], ecx
  0001e	b9 00 00 00 00	 mov	 ecx, OFFSET __05D8B7B7_atlsimpstr@h
  00023	e8 00 00 00 00	 call	 @__CheckForDebuggerJustMyCode@4

; 86   : 		ATLASSERT( nRefs != 0 );

  00028	8b 45 f8	 mov	 eax, DWORD PTR _this$[ebp]
  0002b	83 78 0c 00	 cmp	 DWORD PTR [eax+12], 0
  0002f	75 23		 jne	 SHORT $LN4@Release
  00031	68 00 00 00 00	 push	 OFFSET ??_C@_1BG@GPELCNED@?$AAn?$AAR?$AAe?$AAf?$AAs?$AA?5?$AA?$CB?$AA?$DN?$AA?5?$AA0@
  00036	68 00 00 00 00	 push	 OFFSET ??_C@_17CNPHIMPH@?$AA?$CF?$AAl?$AAs@
  0003b	6a 00		 push	 0
  0003d	6a 56		 push	 86			; 00000056H
  0003f	68 00 00 00 00	 push	 OFFSET ??_C@_1NO@CMNIKGIF@?$AAC?$AA?3?$AA?2?$AAP?$AAr?$AAo?$AAg?$AAr?$AAa?$AAm?$AA?5?$AAF?$AAi?$AAl?$AAe@
  00044	6a 02		 push	 2
  00046	e8 00 00 00 00	 call	 __CrtDbgReportW
  0004b	83 c4 18	 add	 esp, 24			; 00000018H
  0004e	83 f8 01	 cmp	 eax, 1
  00051	75 01		 jne	 SHORT $LN4@Release
  00053	cc		 int	 3
$LN4@Release:

; 87   : 
; 88   : 		if( _InterlockedDecrement( &nRefs ) <= 0 )

  00054	8b 45 f8	 mov	 eax, DWORD PTR _this$[ebp]
  00057	83 c0 0c	 add	 eax, 12			; 0000000cH
  0005a	83 c9 ff	 or	 ecx, -1
  0005d	f0 0f c1 08	 lock	  xadd	 DWORD PTR [eax], ecx
  00061	49		 dec	 ecx
  00062	85 c9		 test	 ecx, ecx
  00064	7f 1b		 jg	 SHORT $LN1@Release

; 89   : 		{
; 90   : 			pStringMgr->Free( this );

  00066	8b f4		 mov	 esi, esp
  00068	ff 75 f8	 push	 DWORD PTR _this$[ebp]
  0006b	8b 45 f8	 mov	 eax, DWORD PTR _this$[ebp]
  0006e	8b 00		 mov	 eax, DWORD PTR [eax]
  00070	8b 4d f8	 mov	 ecx, DWORD PTR _this$[ebp]
  00073	8b 00		 mov	 eax, DWORD PTR [eax]
  00075	8b 09		 mov	 ecx, DWORD PTR [ecx]
  00077	ff 50 04	 call	 DWORD PTR [eax+4]
  0007a	3b f4		 cmp	 esi, esp
  0007c	e8 00 00 00 00	 call	 __RTC_CheckEsp
$LN1@Release:

; 91   : 		}
; 92   : 	}

  00081	5f		 pop	 edi
  00082	5e		 pop	 esi
  00083	5b		 pop	 ebx
  00084	81 c4 cc 00 00
	00		 add	 esp, 204		; 000000ccH
  0008a	3b ec		 cmp	 ebp, esp
  0008c	e8 00 00 00 00	 call	 __RTC_CheckEsp
  00091	c9		 leave
  00092	c3		 ret	 0
?Release@CStringData@ATL@@QAEXXZ ENDP			; ATL::CStringData::Release
_TEXT	ENDS
; Function compile flags: /Odsp /RTCsu /ZI
; File C:\Program Files\Microsoft Visual Studio\2022\Enterprise\VC\Tools\MSVC\14.34.31933\atlmfc\include\atlsimpstr.h
;	COMDAT ?IsShared@CStringData@ATL@@QBE_NXZ
_TEXT	SEGMENT
tv66 = -208						; size = 4
_this$ = -8						; size = 4
?IsShared@CStringData@ATL@@QBE_NXZ PROC			; ATL::CStringData::IsShared, COMDAT
; _this$ = ecx

; 72   : 	{

  00000	55		 push	 ebp
  00001	8b ec		 mov	 ebp, esp
  00003	81 ec d0 00 00
	00		 sub	 esp, 208		; 000000d0H
  00009	53		 push	 ebx
  0000a	56		 push	 esi
  0000b	57		 push	 edi
  0000c	51		 push	 ecx
  0000d	8d 7d f0	 lea	 edi, DWORD PTR [ebp-16]
  00010	6a 04		 push	 4
  00012	59		 pop	 ecx
  00013	b8 cc cc cc cc	 mov	 eax, -858993460		; ccccccccH
  00018	f3 ab		 rep stosd
  0001a	59		 pop	 ecx
  0001b	89 4d f8	 mov	 DWORD PTR _this$[ebp], ecx
  0001e	b9 00 00 00 00	 mov	 ecx, OFFSET __05D8B7B7_atlsimpstr@h
  00023	e8 00 00 00 00	 call	 @__CheckForDebuggerJustMyCode@4

; 73   : 		return( nRefs > 1 );

  00028	8b 45 f8	 mov	 eax, DWORD PTR _this$[ebp]
  0002b	83 78 0c 01	 cmp	 DWORD PTR [eax+12], 1
  0002f	7e 0c		 jle	 SHORT $LN3@IsShared
  00031	c7 85 30 ff ff
	ff 01 00 00 00	 mov	 DWORD PTR tv66[ebp], 1
  0003b	eb 07		 jmp	 SHORT $LN4@IsShared
$LN3@IsShared:
  0003d	83 a5 30 ff ff
	ff 00		 and	 DWORD PTR tv66[ebp], 0
$LN4@IsShared:
  00044	8a 85 30 ff ff
	ff		 mov	 al, BYTE PTR tv66[ebp]

; 74   : 	}

  0004a	5f		 pop	 edi
  0004b	5e		 pop	 esi
  0004c	5b		 pop	 ebx
  0004d	81 c4 d0 00 00
	00		 add	 esp, 208		; 000000d0H
  00053	3b ec		 cmp	 ebp, esp
  00055	e8 00 00 00 00	 call	 __RTC_CheckEsp
  0005a	c9		 leave
  0005b	c3		 ret	 0
?IsShared@CStringData@ATL@@QBE_NXZ ENDP			; ATL::CStringData::IsShared
_TEXT	ENDS
; Function compile flags: /Odsp /RTCsu /ZI
; File C:\Program Files\Microsoft Visual Studio\2022\Enterprise\VC\Tools\MSVC\14.34.31933\atlmfc\include\atlsimpstr.h
;	COMDAT ?IsLocked@CStringData@ATL@@QBE_NXZ
_TEXT	SEGMENT
tv66 = -208						; size = 4
_this$ = -8						; size = 4
?IsLocked@CStringData@ATL@@QBE_NXZ PROC			; ATL::CStringData::IsLocked, COMDAT
; _this$ = ecx

; 68   : 	{

  00000	55		 push	 ebp
  00001	8b ec		 mov	 ebp, esp
  00003	81 ec d0 00 00
	00		 sub	 esp, 208		; 000000d0H
  00009	53		 push	 ebx
  0000a	56		 push	 esi
  0000b	57		 push	 edi
  0000c	51		 push	 ecx
  0000d	8d 7d f0	 lea	 edi, DWORD PTR [ebp-16]
  00010	6a 04		 push	 4
  00012	59		 pop	 ecx
  00013	b8 cc cc cc cc	 mov	 eax, -858993460		; ccccccccH
  00018	f3 ab		 rep stosd
  0001a	59		 pop	 ecx
  0001b	89 4d f8	 mov	 DWORD PTR _this$[ebp], ecx
  0001e	b9 00 00 00 00	 mov	 ecx, OFFSET __05D8B7B7_atlsimpstr@h
  00023	e8 00 00 00 00	 call	 @__CheckForDebuggerJustMyCode@4

; 69   : 		return nRefs < 0;

  00028	8b 45 f8	 mov	 eax, DWORD PTR _this$[ebp]
  0002b	83 78 0c 00	 cmp	 DWORD PTR [eax+12], 0
  0002f	7d 0c		 jge	 SHORT $LN3@IsLocked
  00031	c7 85 30 ff ff
	ff 01 00 00 00	 mov	 DWORD PTR tv66[ebp], 1
  0003b	eb 07		 jmp	 SHORT $LN4@IsLocked
$LN3@IsLocked:
  0003d	83 a5 30 ff ff
	ff 00		 and	 DWORD PTR tv66[ebp], 0
$LN4@IsLocked:
  00044	8a 85 30 ff ff
	ff		 mov	 al, BYTE PTR tv66[ebp]

; 70   : 	}

  0004a	5f		 pop	 edi
  0004b	5e		 pop	 esi
  0004c	5b		 pop	 ebx
  0004d	81 c4 d0 00 00
	00		 add	 esp, 208		; 000000d0H
  00053	3b ec		 cmp	 ebp, esp
  00055	e8 00 00 00 00	 call	 __RTC_CheckEsp
  0005a	c9		 leave
  0005b	c3		 ret	 0
?IsLocked@CStringData@ATL@@QBE_NXZ ENDP			; ATL::CStringData::IsLocked
_TEXT	ENDS
; Function compile flags: /Odsp /RTCsu /ZI
; File C:\Program Files\Microsoft Visual Studio\2022\Enterprise\VC\Tools\MSVC\14.34.31933\atlmfc\include\atlsimpstr.h
;	COMDAT ?AddRef@CStringData@ATL@@QAEXXZ
_TEXT	SEGMENT
_this$ = -8						; size = 4
?AddRef@CStringData@ATL@@QAEXXZ PROC			; ATL::CStringData::AddRef, COMDAT
; _this$ = ecx

; 63   : 	{

  00000	55		 push	 ebp
  00001	8b ec		 mov	 ebp, esp
  00003	81 ec cc 00 00
	00		 sub	 esp, 204		; 000000ccH
  00009	53		 push	 ebx
  0000a	56		 push	 esi
  0000b	57		 push	 edi
  0000c	51		 push	 ecx
  0000d	8d 7d f4	 lea	 edi, DWORD PTR [ebp-12]
  00010	6a 03		 push	 3
  00012	59		 pop	 ecx
  00013	b8 cc cc cc cc	 mov	 eax, -858993460		; ccccccccH
  00018	f3 ab		 rep stosd
  0001a	59		 pop	 ecx
  0001b	89 4d f8	 mov	 DWORD PTR _this$[ebp], ecx
  0001e	b9 00 00 00 00	 mov	 ecx, OFFSET __05D8B7B7_atlsimpstr@h
  00023	e8 00 00 00 00	 call	 @__CheckForDebuggerJustMyCode@4

; 64   : 		ATLASSERT(nRefs > 0);

  00028	8b 45 f8	 mov	 eax, DWORD PTR _this$[ebp]
  0002b	83 78 0c 00	 cmp	 DWORD PTR [eax+12], 0
  0002f	7f 23		 jg	 SHORT $LN3@AddRef
  00031	68 00 00 00 00	 push	 OFFSET ??_C@_1BE@BLGCOAPB@?$AAn?$AAR?$AAe?$AAf?$AAs?$AA?5?$AA?$DO?$AA?5?$AA0@
  00036	68 00 00 00 00	 push	 OFFSET ??_C@_17CNPHIMPH@?$AA?$CF?$AAl?$AAs@
  0003b	6a 00		 push	 0
  0003d	6a 40		 push	 64			; 00000040H
  0003f	68 00 00 00 00	 push	 OFFSET ??_C@_1NO@CMNIKGIF@?$AAC?$AA?3?$AA?2?$AAP?$AAr?$AAo?$AAg?$AAr?$AAa?$AAm?$AA?5?$AAF?$AAi?$AAl?$AAe@
  00044	6a 02		 push	 2
  00046	e8 00 00 00 00	 call	 __CrtDbgReportW
  0004b	83 c4 18	 add	 esp, 24			; 00000018H
  0004e	83 f8 01	 cmp	 eax, 1
  00051	75 01		 jne	 SHORT $LN3@AddRef
  00053	cc		 int	 3
$LN3@AddRef:

; 65   : 		_InterlockedIncrement(&nRefs);

  00054	8b 45 f8	 mov	 eax, DWORD PTR _this$[ebp]
  00057	83 c0 0c	 add	 eax, 12			; 0000000cH
  0005a	f0 ff 00	 lock	  inc	 DWORD PTR [eax]

; 66   : 	}

  0005d	5f		 pop	 edi
  0005e	5e		 pop	 esi
  0005f	5b		 pop	 ebx
  00060	81 c4 cc 00 00
	00		 add	 esp, 204		; 000000ccH
  00066	3b ec		 cmp	 ebp, esp
  00068	e8 00 00 00 00	 call	 __RTC_CheckEsp
  0006d	c9		 leave
  0006e	c3		 ret	 0
?AddRef@CStringData@ATL@@QAEXXZ ENDP			; ATL::CStringData::AddRef
_TEXT	ENDS
; Function compile flags: /Odsp /RTCsu /ZI
; File C:\Program Files\Microsoft Visual Studio\2022\Enterprise\VC\Tools\MSVC\14.34.31933\atlmfc\include\atlsimpstr.h
;	COMDAT ?data@CStringData@ATL@@QAEPAXXZ
_TEXT	SEGMENT
_this$ = -8						; size = 4
?data@CStringData@ATL@@QAEPAXXZ PROC			; ATL::CStringData::data, COMDAT
; _this$ = ecx

; 58   : 	{

  00000	55		 push	 ebp
  00001	8b ec		 mov	 ebp, esp
  00003	81 ec cc 00 00
	00		 sub	 esp, 204		; 000000ccH
  00009	53		 push	 ebx
  0000a	56		 push	 esi
  0000b	57		 push	 edi
  0000c	51		 push	 ecx
  0000d	8d 7d f4	 lea	 edi, DWORD PTR [ebp-12]
  00010	6a 03		 push	 3
  00012	59		 pop	 ecx
  00013	b8 cc cc cc cc	 mov	 eax, -858993460		; ccccccccH
  00018	f3 ab		 rep stosd
  0001a	59		 pop	 ecx
  0001b	89 4d f8	 mov	 DWORD PTR _this$[ebp], ecx
  0001e	b9 00 00 00 00	 mov	 ecx, OFFSET __05D8B7B7_atlsimpstr@h
  00023	e8 00 00 00 00	 call	 @__CheckForDebuggerJustMyCode@4

; 59   : 		return (this+1);

  00028	8b 45 f8	 mov	 eax, DWORD PTR _this$[ebp]
  0002b	83 c0 10	 add	 eax, 16			; 00000010H

; 60   : 	}

  0002e	5f		 pop	 edi
  0002f	5e		 pop	 esi
  00030	5b		 pop	 ebx
  00031	81 c4 cc 00 00
	00		 add	 esp, 204		; 000000ccH
  00037	3b ec		 cmp	 ebp, esp
  00039	e8 00 00 00 00	 call	 __RTC_CheckEsp
  0003e	c9		 leave
  0003f	c3		 ret	 0
?data@CStringData@ATL@@QAEPAXXZ ENDP			; ATL::CStringData::data
_TEXT	ENDS
; Function compile flags: /Odsp /RTCsu /ZI
; File C:\Program Files\Microsoft Visual Studio\2022\Enterprise\VC\Tools\MSVC\14.34.31933\atlmfc\include\atlcore.h
;	COMDAT ?AtlGetStringResourceImage@ATL@@YAPBUATLSTRINGRESOURCEIMAGE@1@PAUHINSTANCE__@@I@Z
_TEXT	SEGMENT
_hResource$ = -8					; size = 4
_hInstance$ = 8						; size = 4
_id$ = 12						; size = 4
?AtlGetStringResourceImage@ATL@@YAPBUATLSTRINGRESOURCEIMAGE@1@PAUHINSTANCE__@@I@Z PROC ; ATL::AtlGetStringResourceImage, COMDAT

; 370  : {

  00000	55		 push	 ebp
  00001	8b ec		 mov	 ebp, esp
  00003	81 ec cc 00 00
	00		 sub	 esp, 204		; 000000ccH
  00009	53		 push	 ebx
  0000a	56		 push	 esi
  0000b	57		 push	 edi
  0000c	8d 7d f4	 lea	 edi, DWORD PTR [ebp-12]
  0000f	6a 03		 push	 3
  00011	59		 pop	 ecx
  00012	b8 cc cc cc cc	 mov	 eax, -858993460		; ccccccccH
  00017	f3 ab		 rep stosd
  00019	b9 00 00 00 00	 mov	 ecx, OFFSET __B2E308CD_atlcore@h
  0001e	e8 00 00 00 00	 call	 @__CheckForDebuggerJustMyCode@4

; 371  : 	HRSRC hResource;
; 372  : 	/*
; 373  : 		The and operation (& static_cast<WORD>(~0)) protects the expression from being greater
; 374  : 		than WORD - this would cause a runtime error when the application is compiled with /RTCc flag.
; 375  : 	*/
; 376  : 	hResource = ::FindResourceW(hInstance, MAKEINTRESOURCEW( (((id>>4)+1) & static_cast<WORD>(~0)) ), (LPWSTR) RT_STRING);

  00023	8b f4		 mov	 esi, esp
  00025	6a 06		 push	 6
  00027	8b 45 0c	 mov	 eax, DWORD PTR _id$[ebp]
  0002a	c1 e8 04	 shr	 eax, 4
  0002d	40		 inc	 eax
  0002e	25 ff ff 00 00	 and	 eax, 65535		; 0000ffffH
  00033	0f b7 c0	 movzx	 eax, ax
  00036	50		 push	 eax
  00037	ff 75 08	 push	 DWORD PTR _hInstance$[ebp]
  0003a	ff 15 00 00 00
	00		 call	 DWORD PTR __imp__FindResourceW@12
  00040	3b f4		 cmp	 esi, esp
  00042	e8 00 00 00 00	 call	 __RTC_CheckEsp
  00047	89 45 f8	 mov	 DWORD PTR _hResource$[ebp], eax

; 377  : 	if( hResource == NULL )

  0004a	83 7d f8 00	 cmp	 DWORD PTR _hResource$[ebp], 0
  0004e	75 04		 jne	 SHORT $LN2@AtlGetStri

; 378  : 	{
; 379  : 		return( NULL );

  00050	33 c0		 xor	 eax, eax
  00052	eb 11		 jmp	 SHORT $LN1@AtlGetStri
$LN2@AtlGetStri:

; 380  : 	}
; 381  : 
; 382  : 	return _AtlGetStringResourceImage( hInstance, hResource, id );

  00054	ff 75 0c	 push	 DWORD PTR _id$[ebp]
  00057	ff 75 f8	 push	 DWORD PTR _hResource$[ebp]
  0005a	ff 75 08	 push	 DWORD PTR _hInstance$[ebp]
  0005d	e8 00 00 00 00	 call	 ?_AtlGetStringResourceImage@ATL@@YAPBUATLSTRINGRESOURCEIMAGE@1@PAUHINSTANCE__@@PAUHRSRC__@@I@Z ; ATL::_AtlGetStringResourceImage
  00062	83 c4 0c	 add	 esp, 12			; 0000000cH
$LN1@AtlGetStri:

; 383  : }

  00065	5f		 pop	 edi
  00066	5e		 pop	 esi
  00067	5b		 pop	 ebx
  00068	81 c4 cc 00 00
	00		 add	 esp, 204		; 000000ccH
  0006e	3b ec		 cmp	 ebp, esp
  00070	e8 00 00 00 00	 call	 __RTC_CheckEsp
  00075	c9		 leave
  00076	c3		 ret	 0
?AtlGetStringResourceImage@ATL@@YAPBUATLSTRINGRESOURCEIMAGE@1@PAUHINSTANCE__@@I@Z ENDP ; ATL::AtlGetStringResourceImage
_TEXT	ENDS
; Function compile flags: /Odsp /RTCsu /ZI
; File C:\Program Files\Microsoft Visual Studio\2022\Enterprise\VC\Tools\MSVC\14.34.31933\atlmfc\include\atlcore.h
;	COMDAT ?_AtlGetStringResourceImage@ATL@@YAPBUATLSTRINGRESOURCEIMAGE@1@PAUHINSTANCE__@@PAUHRSRC__@@I@Z
_TEXT	SEGMENT
_iIndex$ = -56						; size = 4
_hGlobal$ = -44						; size = 4
_nResourceSize$ = -32					; size = 4
_pImageEnd$ = -20					; size = 4
_pImage$ = -8						; size = 4
_hInstance$ = 8						; size = 4
_hResource$ = 12					; size = 4
_id$ = 16						; size = 4
?_AtlGetStringResourceImage@ATL@@YAPBUATLSTRINGRESOURCEIMAGE@1@PAUHINSTANCE__@@PAUHRSRC__@@I@Z PROC ; ATL::_AtlGetStringResourceImage, COMDAT

; 327  : {

  00000	55		 push	 ebp
  00001	8b ec		 mov	 ebp, esp
  00003	81 ec fc 00 00
	00		 sub	 esp, 252		; 000000fcH
  00009	53		 push	 ebx
  0000a	56		 push	 esi
  0000b	57		 push	 edi
  0000c	8d 7d c4	 lea	 edi, DWORD PTR [ebp-60]
  0000f	6a 0f		 push	 15			; 0000000fH
  00011	59		 pop	 ecx
  00012	b8 cc cc cc cc	 mov	 eax, -858993460		; ccccccccH
  00017	f3 ab		 rep stosd
  00019	b9 00 00 00 00	 mov	 ecx, OFFSET __B2E308CD_atlcore@h
  0001e	e8 00 00 00 00	 call	 @__CheckForDebuggerJustMyCode@4

; 328  : 	const ATLSTRINGRESOURCEIMAGE* pImage;
; 329  : 	const ATLSTRINGRESOURCEIMAGE* pImageEnd;
; 330  : 	ULONG nResourceSize;
; 331  : 	HGLOBAL hGlobal;
; 332  : 	UINT iIndex;
; 333  : 
; 334  : 	hGlobal = ::LoadResource( hInstance, hResource );

  00023	8b f4		 mov	 esi, esp
  00025	ff 75 0c	 push	 DWORD PTR _hResource$[ebp]
  00028	ff 75 08	 push	 DWORD PTR _hInstance$[ebp]
  0002b	ff 15 00 00 00
	00		 call	 DWORD PTR __imp__LoadResource@8
  00031	3b f4		 cmp	 esi, esp
  00033	e8 00 00 00 00	 call	 __RTC_CheckEsp
  00038	89 45 d4	 mov	 DWORD PTR _hGlobal$[ebp], eax

; 335  : 	if( hGlobal == NULL )

  0003b	83 7d d4 00	 cmp	 DWORD PTR _hGlobal$[ebp], 0
  0003f	75 07		 jne	 SHORT $LN4@AtlGetStri

; 336  : 	{
; 337  : 		return( NULL );

  00041	33 c0		 xor	 eax, eax
  00043	e9 8d 00 00 00	 jmp	 $LN1@AtlGetStri
$LN4@AtlGetStri:

; 338  : 	}
; 339  : 
; 340  : 	pImage = (const ATLSTRINGRESOURCEIMAGE*)::LockResource( hGlobal );

  00048	8b f4		 mov	 esi, esp
  0004a	ff 75 d4	 push	 DWORD PTR _hGlobal$[ebp]
  0004d	ff 15 00 00 00
	00		 call	 DWORD PTR __imp__LockResource@4
  00053	3b f4		 cmp	 esi, esp
  00055	e8 00 00 00 00	 call	 __RTC_CheckEsp
  0005a	89 45 f8	 mov	 DWORD PTR _pImage$[ebp], eax

; 341  : 	if( pImage == NULL )

  0005d	83 7d f8 00	 cmp	 DWORD PTR _pImage$[ebp], 0
  00061	75 04		 jne	 SHORT $LN5@AtlGetStri

; 342  : 	{
; 343  : 		return( NULL );

  00063	33 c0		 xor	 eax, eax
  00065	eb 6e		 jmp	 SHORT $LN1@AtlGetStri
$LN5@AtlGetStri:

; 344  : 	}
; 345  : 
; 346  : 	nResourceSize = ::SizeofResource( hInstance, hResource );

  00067	8b f4		 mov	 esi, esp
  00069	ff 75 0c	 push	 DWORD PTR _hResource$[ebp]
  0006c	ff 75 08	 push	 DWORD PTR _hInstance$[ebp]
  0006f	ff 15 00 00 00
	00		 call	 DWORD PTR __imp__SizeofResource@8
  00075	3b f4		 cmp	 esi, esp
  00077	e8 00 00 00 00	 call	 __RTC_CheckEsp
  0007c	89 45 e0	 mov	 DWORD PTR _nResourceSize$[ebp], eax

; 347  : 	pImageEnd = (const ATLSTRINGRESOURCEIMAGE*)(LPBYTE( pImage )+nResourceSize);

  0007f	8b 45 f8	 mov	 eax, DWORD PTR _pImage$[ebp]
  00082	03 45 e0	 add	 eax, DWORD PTR _nResourceSize$[ebp]
  00085	89 45 ec	 mov	 DWORD PTR _pImageEnd$[ebp], eax

; 348  : 	iIndex = id&0x000f;

  00088	8b 45 10	 mov	 eax, DWORD PTR _id$[ebp]
  0008b	83 e0 0f	 and	 eax, 15			; 0000000fH
  0008e	89 45 c8	 mov	 DWORD PTR _iIndex$[ebp], eax
$LN2@AtlGetStri:

; 349  : 
; 350  : 	while( (iIndex > 0) && (pImage < pImageEnd) )

  00091	83 7d c8 00	 cmp	 DWORD PTR _iIndex$[ebp], 0
  00095	76 21		 jbe	 SHORT $LN3@AtlGetStri
  00097	8b 45 f8	 mov	 eax, DWORD PTR _pImage$[ebp]
  0009a	3b 45 ec	 cmp	 eax, DWORD PTR _pImageEnd$[ebp]
  0009d	73 19		 jae	 SHORT $LN3@AtlGetStri

; 351  : 	{
; 352  : 		pImage = (const ATLSTRINGRESOURCEIMAGE*)(LPBYTE( pImage )+(sizeof( ATLSTRINGRESOURCEIMAGE )+(pImage->nLength*sizeof( WCHAR ))));

  0009f	8b 45 f8	 mov	 eax, DWORD PTR _pImage$[ebp]
  000a2	0f b7 00	 movzx	 eax, WORD PTR [eax]
  000a5	8b 4d f8	 mov	 ecx, DWORD PTR _pImage$[ebp]
  000a8	8d 44 41 02	 lea	 eax, DWORD PTR [ecx+eax*2+2]
  000ac	89 45 f8	 mov	 DWORD PTR _pImage$[ebp], eax

; 353  : 		iIndex--;

  000af	8b 45 c8	 mov	 eax, DWORD PTR _iIndex$[ebp]
  000b2	48		 dec	 eax
  000b3	89 45 c8	 mov	 DWORD PTR _iIndex$[ebp], eax

; 354  : 	}

  000b6	eb d9		 jmp	 SHORT $LN2@AtlGetStri
$LN3@AtlGetStri:

; 355  : 	if( pImage >= pImageEnd )

  000b8	8b 45 f8	 mov	 eax, DWORD PTR _pImage$[ebp]
  000bb	3b 45 ec	 cmp	 eax, DWORD PTR _pImageEnd$[ebp]
  000be	72 04		 jb	 SHORT $LN6@AtlGetStri

; 356  : 	{
; 357  : 		return( NULL );

  000c0	33 c0		 xor	 eax, eax
  000c2	eb 11		 jmp	 SHORT $LN1@AtlGetStri
$LN6@AtlGetStri:

; 358  : 	}
; 359  : 	if( pImage->nLength == 0 )

  000c4	8b 45 f8	 mov	 eax, DWORD PTR _pImage$[ebp]
  000c7	0f b7 00	 movzx	 eax, WORD PTR [eax]
  000ca	85 c0		 test	 eax, eax
  000cc	75 04		 jne	 SHORT $LN7@AtlGetStri

; 360  : 	{
; 361  : 		return( NULL );

  000ce	33 c0		 xor	 eax, eax
  000d0	eb 03		 jmp	 SHORT $LN1@AtlGetStri
$LN7@AtlGetStri:

; 362  : 	}
; 363  : 
; 364  : 	return( pImage );

  000d2	8b 45 f8	 mov	 eax, DWORD PTR _pImage$[ebp]
$LN1@AtlGetStri:

; 365  : }

  000d5	5f		 pop	 edi
  000d6	5e		 pop	 esi
  000d7	5b		 pop	 ebx
  000d8	81 c4 fc 00 00
	00		 add	 esp, 252		; 000000fcH
  000de	3b ec		 cmp	 ebp, esp
  000e0	e8 00 00 00 00	 call	 __RTC_CheckEsp
  000e5	c9		 leave
  000e6	c3		 ret	 0
?_AtlGetStringResourceImage@ATL@@YAPBUATLSTRINGRESOURCEIMAGE@1@PAUHINSTANCE__@@PAUHRSRC__@@I@Z ENDP ; ATL::_AtlGetStringResourceImage
_TEXT	ENDS
; Function compile flags: /Odsp /RTCsu /ZI
; File C:\Program Files\Microsoft Visual Studio\2022\Enterprise\VC\Tools\MSVC\14.34.31933\atlmfc\include\atlcore.h
;	COMDAT ?AtlIsValidString@ATL@@YAHPB_WI@Z
_TEXT	SEGMENT
tv65 = -196						; size = 4
_psz$ = 8						; size = 4
_nMaxLength$ = 12					; size = 4
?AtlIsValidString@ATL@@YAHPB_WI@Z PROC			; ATL::AtlIsValidString, COMDAT

; 79   : {

  00000	55		 push	 ebp
  00001	8b ec		 mov	 ebp, esp
  00003	81 ec c4 00 00
	00		 sub	 esp, 196		; 000000c4H
  00009	53		 push	 ebx
  0000a	56		 push	 esi
  0000b	57		 push	 edi
  0000c	8d 7d fc	 lea	 edi, DWORD PTR [ebp-4]
  0000f	33 c9		 xor	 ecx, ecx
  00011	41		 inc	 ecx
  00012	b8 cc cc cc cc	 mov	 eax, -858993460		; ccccccccH
  00017	f3 ab		 rep stosd
  00019	b9 00 00 00 00	 mov	 ecx, OFFSET __B2E308CD_atlcore@h
  0001e	e8 00 00 00 00	 call	 @__CheckForDebuggerJustMyCode@4

; 80   : 	(nMaxLength);
; 81   : 	return (psz != NULL);

  00023	83 7d 08 00	 cmp	 DWORD PTR _psz$[ebp], 0
  00027	74 0c		 je	 SHORT $LN3@AtlIsValid
  00029	c7 85 3c ff ff
	ff 01 00 00 00	 mov	 DWORD PTR tv65[ebp], 1
  00033	eb 07		 jmp	 SHORT $LN4@AtlIsValid
$LN3@AtlIsValid:
  00035	83 a5 3c ff ff
	ff 00		 and	 DWORD PTR tv65[ebp], 0
$LN4@AtlIsValid:
  0003c	8b 85 3c ff ff
	ff		 mov	 eax, DWORD PTR tv65[ebp]

; 82   : }

  00042	5f		 pop	 edi
  00043	5e		 pop	 esi
  00044	5b		 pop	 ebx
  00045	81 c4 c4 00 00
	00		 add	 esp, 196		; 000000c4H
  0004b	3b ec		 cmp	 ebp, esp
  0004d	e8 00 00 00 00	 call	 __RTC_CheckEsp
  00052	c9		 leave
  00053	c3		 ret	 0
?AtlIsValidString@ATL@@YAHPB_WI@Z ENDP			; ATL::AtlIsValidString
_TEXT	ENDS
; Function compile flags: /Odsp /RTCsu /ZI
; File C:\Program Files\Microsoft Visual Studio\2022\Enterprise\VC\Tools\MSVC\14.34.31933\atlmfc\include\atlcore.h
;	COMDAT ?AtlStrLen@ATL@@YAHPB_W@Z
_TEXT	SEGMENT
_str$ = 8						; size = 4
?AtlStrLen@ATL@@YAHPB_W@Z PROC				; ATL::AtlStrLen, COMDAT

; 60   : {

  00000	55		 push	 ebp
  00001	8b ec		 mov	 ebp, esp
  00003	81 ec c0 00 00
	00		 sub	 esp, 192		; 000000c0H
  00009	53		 push	 ebx
  0000a	56		 push	 esi
  0000b	57		 push	 edi
  0000c	8b fd		 mov	 edi, ebp
  0000e	33 c9		 xor	 ecx, ecx
  00010	b8 cc cc cc cc	 mov	 eax, -858993460		; ccccccccH
  00015	f3 ab		 rep stosd
  00017	b9 00 00 00 00	 mov	 ecx, OFFSET __B2E308CD_atlcore@h
  0001c	e8 00 00 00 00	 call	 @__CheckForDebuggerJustMyCode@4

; 61   : 	if (str == NULL)

  00021	83 7d 08 00	 cmp	 DWORD PTR _str$[ebp], 0
  00025	75 04		 jne	 SHORT $LN2@AtlStrLen

; 62   : 		return 0;

  00027	33 c0		 xor	 eax, eax
  00029	eb 09		 jmp	 SHORT $LN1@AtlStrLen
$LN2@AtlStrLen:

; 63   : 	return static_cast<int>(::wcslen(str));

  0002b	ff 75 08	 push	 DWORD PTR _str$[ebp]
  0002e	e8 00 00 00 00	 call	 _wcslen
  00033	59		 pop	 ecx
$LN1@AtlStrLen:

; 64   : }

  00034	5f		 pop	 edi
  00035	5e		 pop	 esi
  00036	5b		 pop	 ebx
  00037	81 c4 c0 00 00
	00		 add	 esp, 192		; 000000c0H
  0003d	3b ec		 cmp	 ebp, esp
  0003f	e8 00 00 00 00	 call	 __RTC_CheckEsp
  00044	c9		 leave
  00045	c3		 ret	 0
?AtlStrLen@ATL@@YAHPB_W@Z ENDP				; ATL::AtlStrLen
_TEXT	ENDS
; Function compile flags: /Odsp /RTCsu /ZI
; File C:\Program Files\Microsoft Visual Studio\2022\Enterprise\VC\Tools\MSVC\14.34.31933\atlmfc\include\atlchecked.h
;	COMDAT ?wmemcpy_s@Checked@ATL@@YAXPA_WIPB_WI@Z
_TEXT	SEGMENT
__S1$ = 8						; size = 4
__N1$ = 12						; size = 4
__S2$ = 16						; size = 4
__N$ = 20						; size = 4
?wmemcpy_s@Checked@ATL@@YAXPA_WIPB_WI@Z PROC		; ATL::Checked::wmemcpy_s, COMDAT

; 77   : {

  00000	55		 push	 ebp
  00001	8b ec		 mov	 ebp, esp
  00003	81 ec c0 00 00
	00		 sub	 esp, 192		; 000000c0H
  00009	53		 push	 ebx
  0000a	56		 push	 esi
  0000b	57		 push	 edi
  0000c	8b fd		 mov	 edi, ebp
  0000e	33 c9		 xor	 ecx, ecx
  00010	b8 cc cc cc cc	 mov	 eax, -858993460		; ccccccccH
  00015	f3 ab		 rep stosd
  00017	b9 00 00 00 00	 mov	 ecx, OFFSET __7381F871_atlchecked@h
  0001c	e8 00 00 00 00	 call	 @__CheckForDebuggerJustMyCode@4

; 78   : 	ATLMFC_CRT_ERRORCHECK(::wmemcpy_s(_S1, _N1, _S2, _N));

  00021	ff 75 14	 push	 DWORD PTR __N$[ebp]
  00024	ff 75 10	 push	 DWORD PTR __S2$[ebp]
  00027	ff 75 0c	 push	 DWORD PTR __N1$[ebp]
  0002a	ff 75 08	 push	 DWORD PTR __S1$[ebp]
  0002d	e8 00 00 00 00	 call	 _wmemcpy_s
  00032	83 c4 10	 add	 esp, 16			; 00000010H
  00035	50		 push	 eax
  00036	e8 00 00 00 00	 call	 ?AfxCrtErrorCheck@@YAHH@Z ; AfxCrtErrorCheck
  0003b	59		 pop	 ecx

; 79   : }

  0003c	5f		 pop	 edi
  0003d	5e		 pop	 esi
  0003e	5b		 pop	 ebx
  0003f	81 c4 c0 00 00
	00		 add	 esp, 192		; 000000c0H
  00045	3b ec		 cmp	 ebp, esp
  00047	e8 00 00 00 00	 call	 __RTC_CheckEsp
  0004c	c9		 leave
  0004d	c3		 ret	 0
?wmemcpy_s@Checked@ATL@@YAXPA_WIPB_WI@Z ENDP		; ATL::Checked::wmemcpy_s
_TEXT	ENDS
; Function compile flags: /Odsp /RTCsu /ZI
; File C:\Program Files\Microsoft Visual Studio\2022\Enterprise\VC\Tools\MSVC\14.34.31933\atlmfc\include\afx.h
;	COMDAT ?AfxCrtErrorCheck@@YAHH@Z
_TEXT	SEGMENT
tv64 = -196						; size = 4
_error$ = 8						; size = 4
?AfxCrtErrorCheck@@YAHH@Z PROC				; AfxCrtErrorCheck, COMDAT

; 506  : {

  00000	55		 push	 ebp
  00001	8b ec		 mov	 ebp, esp
  00003	81 ec c4 00 00
	00		 sub	 esp, 196		; 000000c4H
  00009	53		 push	 ebx
  0000a	56		 push	 esi
  0000b	57		 push	 edi
  0000c	8d 7d fc	 lea	 edi, DWORD PTR [ebp-4]
  0000f	33 c9		 xor	 ecx, ecx
  00011	41		 inc	 ecx
  00012	b8 cc cc cc cc	 mov	 eax, -858993460		; ccccccccH
  00017	f3 ab		 rep stosd
  00019	b9 00 00 00 00	 mov	 ecx, OFFSET __981866FA_afx@h
  0001e	e8 00 00 00 00	 call	 @__CheckForDebuggerJustMyCode@4

; 507  : 	switch(error)

  00023	8b 45 08	 mov	 eax, DWORD PTR _error$[ebp]
  00026	89 85 3c ff ff
	ff		 mov	 DWORD PTR tv64[ebp], eax
  0002c	83 bd 3c ff ff
	ff 00		 cmp	 DWORD PTR tv64[ebp], 0
  00033	74 34		 je	 SHORT $LN8@AfxCrtErro
  00035	83 bd 3c ff ff
	ff 0c		 cmp	 DWORD PTR tv64[ebp], 12	; 0000000cH
  0003c	74 1d		 je	 SHORT $LN4@AfxCrtErro
  0003e	83 bd 3c ff ff
	ff 16		 cmp	 DWORD PTR tv64[ebp], 22	; 00000016H
  00045	74 1b		 je	 SHORT $LN6@AfxCrtErro
  00047	83 bd 3c ff ff
	ff 22		 cmp	 DWORD PTR tv64[ebp], 34	; 00000022H
  0004e	74 12		 je	 SHORT $LN6@AfxCrtErro
  00050	83 bd 3c ff ff
	ff 50		 cmp	 DWORD PTR tv64[ebp], 80	; 00000050H
  00057	74 10		 je	 SHORT $LN8@AfxCrtErro
  00059	eb 10		 jmp	 SHORT $LN9@AfxCrtErro
$LN4@AfxCrtErro:

; 508  : 	{
; 509  : 	case ENOMEM:
; 510  : 		AfxThrowMemoryException();

  0005b	e8 00 00 00 00	 call	 ?AfxThrowMemoryException@@YGXXZ ; AfxThrowMemoryException

; 511  : 		break;

  00060	eb 0e		 jmp	 SHORT $LN2@AfxCrtErro
$LN6@AfxCrtErro:

; 512  : 	case EINVAL:
; 513  : 	case ERANGE:
; 514  : 		AfxThrowInvalidArgException();

  00062	e8 00 00 00 00	 call	 ?AfxThrowInvalidArgException@@YGXXZ ; AfxThrowInvalidArgException

; 515  : 		break;

  00067	eb 07		 jmp	 SHORT $LN2@AfxCrtErro
$LN8@AfxCrtErro:

; 516  : 	case STRUNCATE:
; 517  : 	case 0:
; 518  : 		break;

  00069	eb 05		 jmp	 SHORT $LN2@AfxCrtErro
$LN9@AfxCrtErro:

; 519  : 	default:
; 520  : 		AfxThrowInvalidArgException();

  0006b	e8 00 00 00 00	 call	 ?AfxThrowInvalidArgException@@YGXXZ ; AfxThrowInvalidArgException
$LN2@AfxCrtErro:

; 521  : 		break;
; 522  : 	}
; 523  : 	return error;

  00070	8b 45 08	 mov	 eax, DWORD PTR _error$[ebp]
$LN10@AfxCrtErro:

; 524  : }

  00073	5f		 pop	 edi
  00074	5e		 pop	 esi
  00075	5b		 pop	 ebx
  00076	81 c4 c4 00 00
	00		 add	 esp, 196		; 000000c4H
  0007c	3b ec		 cmp	 ebp, esp
  0007e	e8 00 00 00 00	 call	 __RTC_CheckEsp
  00083	c9		 leave
  00084	c3		 ret	 0
?AfxCrtErrorCheck@@YAHH@Z ENDP				; AfxCrtErrorCheck
_TEXT	ENDS
; Function compile flags: /Odsp /RTCsu /ZI
; File C:\Program Files\Microsoft Visual Studio\2022\Enterprise\VC\Tools\MSVC\14.34.31933\atlmfc\include\atltrace.h
;	COMDAT ??RCTraceFileAndLineInfo@ATL@@QBAXHIPB_WZZ
_TEXT	SEGMENT
_ptr$ = -36						; size = 4
_ple$ = -24						; size = 4
__$ArrayPad$ = -16					; size = 4
__$EHRec$ = -12						; size = 12
_this$ = 8						; size = 4
_dwCategory$ = 12					; size = 4
_nLevel$ = 16						; size = 4
_pszFmt$ = 20						; size = 4
??RCTraceFileAndLineInfo@ATL@@QBAXHIPB_WZZ PROC		; ATL::CTraceFileAndLineInfo::operator(), COMDAT

; 436  : 	{

  00000	55		 push	 ebp
  00001	8b ec		 mov	 ebp, esp
  00003	6a ff		 push	 -1
  00005	68 00 00 00 00	 push	 __ehhandler$??RCTraceFileAndLineInfo@ATL@@QBAXHIPB_WZZ
  0000a	64 a1 00 00 00
	00		 mov	 eax, DWORD PTR fs:0
  00010	50		 push	 eax
  00011	81 ec e8 00 00
	00		 sub	 esp, 232		; 000000e8H
  00017	53		 push	 ebx
  00018	56		 push	 esi
  00019	57		 push	 edi
  0001a	8d 7d cc	 lea	 edi, DWORD PTR [ebp-52]
  0001d	6a 0a		 push	 10			; 0000000aH
  0001f	59		 pop	 ecx
  00020	b8 cc cc cc cc	 mov	 eax, -858993460		; ccccccccH
  00025	f3 ab		 rep stosd
  00027	a1 00 00 00 00	 mov	 eax, DWORD PTR ___security_cookie
  0002c	33 c5		 xor	 eax, ebp
  0002e	89 45 f0	 mov	 DWORD PTR __$ArrayPad$[ebp], eax
  00031	50		 push	 eax
  00032	8d 45 f4	 lea	 eax, DWORD PTR __$EHRec$[ebp]
  00035	64 a3 00 00 00
	00		 mov	 DWORD PTR fs:0, eax
  0003b	b9 00 00 00 00	 mov	 ecx, OFFSET __63F83F46_atltrace@h
  00040	e8 00 00 00 00	 call	 @__CheckForDebuggerJustMyCode@4

; 437  : 		CPreserveLastError ple;

  00045	8d 4d e8	 lea	 ecx, DWORD PTR _ple$[ebp]
  00048	e8 00 00 00 00	 call	 ??0CPreserveLastError@ATL@@QAE@XZ ; ATL::CPreserveLastError::CPreserveLastError
  0004d	83 65 fc 00	 and	 DWORD PTR __$EHRec$[ebp+8], 0

; 438  : 		va_list ptr; va_start(ptr, pszFmt);

  00051	8d 45 18	 lea	 eax, DWORD PTR _pszFmt$[ebp+4]
  00054	89 45 dc	 mov	 DWORD PTR _ptr$[ebp], eax

; 439  : 		ATL::CTrace::TraceV(m_pszFileName, m_nLineNo, dwCategory, nLevel, pszFmt, ptr);

  00057	ff 75 dc	 push	 DWORD PTR _ptr$[ebp]
  0005a	ff 75 14	 push	 DWORD PTR _pszFmt$[ebp]
  0005d	ff 75 10	 push	 DWORD PTR _nLevel$[ebp]
  00060	ff 75 0c	 push	 DWORD PTR _dwCategory$[ebp]
  00063	8b 45 08	 mov	 eax, DWORD PTR _this$[ebp]
  00066	ff 70 04	 push	 DWORD PTR [eax+4]
  00069	8b 45 08	 mov	 eax, DWORD PTR _this$[ebp]
  0006c	ff 30		 push	 DWORD PTR [eax]
  0006e	e8 00 00 00 00	 call	 ?TraceV@CTrace@ATL@@SAXPBDHIIPB_WPAD@Z ; ATL::CTrace::TraceV
  00073	83 c4 18	 add	 esp, 24			; 00000018H

; 440  : 		va_end(ptr);

  00076	83 65 dc 00	 and	 DWORD PTR _ptr$[ebp], 0

; 441  : 	}

  0007a	83 4d fc ff	 or	 DWORD PTR __$EHRec$[ebp+8], -1
  0007e	8d 4d e8	 lea	 ecx, DWORD PTR _ple$[ebp]
  00081	e8 00 00 00 00	 call	 ??1CPreserveLastError@ATL@@QAE@XZ ; ATL::CPreserveLastError::~CPreserveLastError
  00086	52		 push	 edx
  00087	8b cd		 mov	 ecx, ebp
  00089	50		 push	 eax
  0008a	8d 15 00 00 00
	00		 lea	 edx, DWORD PTR $LN7@operator
  00090	e8 00 00 00 00	 call	 @_RTC_CheckStackVars@8
  00095	58		 pop	 eax
  00096	5a		 pop	 edx
  00097	8b 4d f4	 mov	 ecx, DWORD PTR __$EHRec$[ebp]
  0009a	64 89 0d 00 00
	00 00		 mov	 DWORD PTR fs:0, ecx
  000a1	59		 pop	 ecx
  000a2	5f		 pop	 edi
  000a3	5e		 pop	 esi
  000a4	5b		 pop	 ebx
  000a5	8b 4d f0	 mov	 ecx, DWORD PTR __$ArrayPad$[ebp]
  000a8	33 cd		 xor	 ecx, ebp
  000aa	e8 00 00 00 00	 call	 @__security_check_cookie@4
  000af	81 c4 f4 00 00
	00		 add	 esp, 244		; 000000f4H
  000b5	3b ec		 cmp	 ebp, esp
  000b7	e8 00 00 00 00	 call	 __RTC_CheckEsp
  000bc	c9		 leave
  000bd	c3		 ret	 0
  000be	66 90		 npad	 2
$LN7@operator:
  000c0	01 00 00 00	 DD	 1
  000c4	00 00 00 00	 DD	 $LN6@operator
$LN6@operator:
  000c8	e8 ff ff ff	 DD	 -24			; ffffffe8H
  000cc	04 00 00 00	 DD	 4
  000d0	00 00 00 00	 DD	 $LN4@operator
$LN4@operator:
  000d4	70		 DB	 112			; 00000070H
  000d5	6c		 DB	 108			; 0000006cH
  000d6	65		 DB	 101			; 00000065H
  000d7	00		 DB	 0
_TEXT	ENDS
;	COMDAT text$x
text$x	SEGMENT
__unwindfunclet$??RCTraceFileAndLineInfo@ATL@@QBAXHIPB_WZZ$0:
  00000	8d 4d e8	 lea	 ecx, DWORD PTR _ple$[ebp]
  00003	e9 00 00 00 00	 jmp	 ??1CPreserveLastError@ATL@@QAE@XZ ; ATL::CPreserveLastError::~CPreserveLastError
  00008	cc		 int	 3
  00009	cc		 int	 3
  0000a	cc		 int	 3
  0000b	cc		 int	 3
  0000c	cc		 int	 3
__ehhandler$??RCTraceFileAndLineInfo@ATL@@QBAXHIPB_WZZ:
  0000d	90		 npad	 1
  0000e	90		 npad	 1
  0000f	8b 54 24 08	 mov	 edx, DWORD PTR [esp+8]
  00013	8d 42 0c	 lea	 eax, DWORD PTR [edx+12]
  00016	8b 8a 08 ff ff
	ff		 mov	 ecx, DWORD PTR [edx-248]
  0001c	33 c8		 xor	 ecx, eax
  0001e	e8 00 00 00 00	 call	 @__security_check_cookie@4
  00023	8b 4a fc	 mov	 ecx, DWORD PTR [edx-4]
  00026	33 c8		 xor	 ecx, eax
  00028	e8 00 00 00 00	 call	 @__security_check_cookie@4
  0002d	b8 00 00 00 00	 mov	 eax, OFFSET __ehfuncinfo$??RCTraceFileAndLineInfo@ATL@@QBAXHIPB_WZZ
  00032	e9 00 00 00 00	 jmp	 ___CxxFrameHandler3
text$x	ENDS
??RCTraceFileAndLineInfo@ATL@@QBAXHIPB_WZZ ENDP		; ATL::CTraceFileAndLineInfo::operator()
; Function compile flags: /Odsp /RTCsu /ZI
; File C:\Program Files\Microsoft Visual Studio\2022\Enterprise\VC\Tools\MSVC\14.34.31933\atlmfc\include\atltrace.h
;	COMDAT ??0CTraceFileAndLineInfo@ATL@@QAE@PBDH@Z
_TEXT	SEGMENT
_this$ = -8						; size = 4
_pszFileName$ = 8					; size = 4
_nLineNo$ = 12						; size = 4
??0CTraceFileAndLineInfo@ATL@@QAE@PBDH@Z PROC		; ATL::CTraceFileAndLineInfo::CTraceFileAndLineInfo, COMDAT
; _this$ = ecx

; 411  : 	{

  00000	55		 push	 ebp
  00001	8b ec		 mov	 ebp, esp
  00003	81 ec cc 00 00
	00		 sub	 esp, 204		; 000000ccH
  00009	53		 push	 ebx
  0000a	56		 push	 esi
  0000b	57		 push	 edi
  0000c	51		 push	 ecx
  0000d	8d 7d f4	 lea	 edi, DWORD PTR [ebp-12]
  00010	6a 03		 push	 3
  00012	59		 pop	 ecx
  00013	b8 cc cc cc cc	 mov	 eax, -858993460		; ccccccccH
  00018	f3 ab		 rep stosd
  0001a	59		 pop	 ecx
  0001b	89 4d f8	 mov	 DWORD PTR _this$[ebp], ecx
  0001e	b9 00 00 00 00	 mov	 ecx, OFFSET __63F83F46_atltrace@h
  00023	e8 00 00 00 00	 call	 @__CheckForDebuggerJustMyCode@4

; 410  : 		: m_pszFileName(pszFileName), m_nLineNo(nLineNo)

  00028	8b 45 f8	 mov	 eax, DWORD PTR _this$[ebp]
  0002b	8b 4d 08	 mov	 ecx, DWORD PTR _pszFileName$[ebp]
  0002e	89 08		 mov	 DWORD PTR [eax], ecx
  00030	8b 45 f8	 mov	 eax, DWORD PTR _this$[ebp]
  00033	8b 4d 0c	 mov	 ecx, DWORD PTR _nLineNo$[ebp]
  00036	89 48 04	 mov	 DWORD PTR [eax+4], ecx

; 412  : 	}

  00039	8b 45 f8	 mov	 eax, DWORD PTR _this$[ebp]
  0003c	5f		 pop	 edi
  0003d	5e		 pop	 esi
  0003e	5b		 pop	 ebx
  0003f	81 c4 cc 00 00
	00		 add	 esp, 204		; 000000ccH
  00045	3b ec		 cmp	 ebp, esp
  00047	e8 00 00 00 00	 call	 __RTC_CheckEsp
  0004c	c9		 leave
  0004d	c2 08 00	 ret	 8
??0CTraceFileAndLineInfo@ATL@@QAE@PBDH@Z ENDP		; ATL::CTraceFileAndLineInfo::CTraceFileAndLineInfo
_TEXT	ENDS
; Function compile flags: /Odsp /RTCsu /ZI
; File C:\Program Files\Microsoft Visual Studio\2022\Enterprise\VC\Tools\MSVC\14.34.31933\atlmfc\include\atltrace.h
;	COMDAT ??1CPreserveLastError@ATL@@QAE@XZ
_TEXT	SEGMENT
_this$ = -8						; size = 4
??1CPreserveLastError@ATL@@QAE@XZ PROC			; ATL::CPreserveLastError::~CPreserveLastError, COMDAT
; _this$ = ecx

; 396  : 	{

  00000	55		 push	 ebp
  00001	8b ec		 mov	 ebp, esp
  00003	81 ec cc 00 00
	00		 sub	 esp, 204		; 000000ccH
  00009	53		 push	 ebx
  0000a	56		 push	 esi
  0000b	57		 push	 edi
  0000c	51		 push	 ecx
  0000d	8d 7d f4	 lea	 edi, DWORD PTR [ebp-12]
  00010	6a 03		 push	 3
  00012	59		 pop	 ecx
  00013	b8 cc cc cc cc	 mov	 eax, -858993460		; ccccccccH
  00018	f3 ab		 rep stosd
  0001a	59		 pop	 ecx
  0001b	89 4d f8	 mov	 DWORD PTR _this$[ebp], ecx
  0001e	b9 00 00 00 00	 mov	 ecx, OFFSET __63F83F46_atltrace@h
  00023	e8 00 00 00 00	 call	 @__CheckForDebuggerJustMyCode@4

; 397  : 		SetLastError(m_dwLastError);

  00028	8b f4		 mov	 esi, esp
  0002a	8b 45 f8	 mov	 eax, DWORD PTR _this$[ebp]
  0002d	ff 30		 push	 DWORD PTR [eax]
  0002f	ff 15 00 00 00
	00		 call	 DWORD PTR __imp__SetLastError@4
  00035	3b f4		 cmp	 esi, esp
  00037	e8 00 00 00 00	 call	 __RTC_CheckEsp

; 398  : 	}

  0003c	5f		 pop	 edi
  0003d	5e		 pop	 esi
  0003e	5b		 pop	 ebx
  0003f	81 c4 cc 00 00
	00		 add	 esp, 204		; 000000ccH
  00045	3b ec		 cmp	 ebp, esp
  00047	e8 00 00 00 00	 call	 __RTC_CheckEsp
  0004c	c9		 leave
  0004d	c3		 ret	 0
??1CPreserveLastError@ATL@@QAE@XZ ENDP			; ATL::CPreserveLastError::~CPreserveLastError
_TEXT	ENDS
; Function compile flags: /Odsp /RTCsu /ZI
; File C:\Program Files\Microsoft Visual Studio\2022\Enterprise\VC\Tools\MSVC\14.34.31933\atlmfc\include\atltrace.h
;	COMDAT ??0CPreserveLastError@ATL@@QAE@XZ
_TEXT	SEGMENT
_this$ = -8						; size = 4
??0CPreserveLastError@ATL@@QAE@XZ PROC			; ATL::CPreserveLastError::CPreserveLastError, COMDAT
; _this$ = ecx

; 390  : 	CPreserveLastError()

  00000	55		 push	 ebp
  00001	8b ec		 mov	 ebp, esp
  00003	81 ec cc 00 00
	00		 sub	 esp, 204		; 000000ccH
  00009	53		 push	 ebx
  0000a	56		 push	 esi
  0000b	57		 push	 edi
  0000c	51		 push	 ecx
  0000d	8d 7d f4	 lea	 edi, DWORD PTR [ebp-12]
  00010	6a 03		 push	 3
  00012	59		 pop	 ecx
  00013	b8 cc cc cc cc	 mov	 eax, -858993460		; ccccccccH
  00018	f3 ab		 rep stosd
  0001a	59		 pop	 ecx
  0001b	89 4d f8	 mov	 DWORD PTR _this$[ebp], ecx
  0001e	b9 00 00 00 00	 mov	 ecx, OFFSET __63F83F46_atltrace@h
  00023	e8 00 00 00 00	 call	 @__CheckForDebuggerJustMyCode@4

; 391  : 	{
; 392  : 		m_dwLastError = GetLastError();

  00028	8b f4		 mov	 esi, esp
  0002a	ff 15 00 00 00
	00		 call	 DWORD PTR __imp__GetLastError@0
  00030	3b f4		 cmp	 esi, esp
  00032	e8 00 00 00 00	 call	 __RTC_CheckEsp
  00037	8b 4d f8	 mov	 ecx, DWORD PTR _this$[ebp]
  0003a	89 01		 mov	 DWORD PTR [ecx], eax

; 393  : 	}

  0003c	8b 45 f8	 mov	 eax, DWORD PTR _this$[ebp]
  0003f	5f		 pop	 edi
  00040	5e		 pop	 esi
  00041	5b		 pop	 ebx
  00042	81 c4 cc 00 00
	00		 add	 esp, 204		; 000000ccH
  00048	3b ec		 cmp	 ebp, esp
  0004a	e8 00 00 00 00	 call	 __RTC_CheckEsp
  0004f	c9		 leave
  00050	c3		 ret	 0
??0CPreserveLastError@ATL@@QAE@XZ ENDP			; ATL::CPreserveLastError::CPreserveLastError
_TEXT	ENDS
; Function compile flags: /Odsp /RTCsu /ZI
;	COMDAT ?__autoclassinit2@?$CHeapPtr@_WVCCRTAllocator@ATL@@@ATL@@QAEXI@Z
_TEXT	SEGMENT
_this$ = -8						; size = 4
_classSize$ = 8						; size = 4
?__autoclassinit2@?$CHeapPtr@_WVCCRTAllocator@ATL@@@ATL@@QAEXI@Z PROC ; ATL::CHeapPtr<wchar_t,ATL::CCRTAllocator>::__autoclassinit2, COMDAT
; _this$ = ecx
  00000	55		 push	 ebp
  00001	8b ec		 mov	 ebp, esp
  00003	81 ec cc 00 00
	00		 sub	 esp, 204		; 000000ccH
  00009	53		 push	 ebx
  0000a	56		 push	 esi
  0000b	57		 push	 edi
  0000c	51		 push	 ecx
  0000d	8d 7d f4	 lea	 edi, DWORD PTR [ebp-12]
  00010	6a 03		 push	 3
  00012	59		 pop	 ecx
  00013	b8 cc cc cc cc	 mov	 eax, -858993460		; ccccccccH
  00018	f3 ab		 rep stosd
  0001a	59		 pop	 ecx
  0001b	89 4d f8	 mov	 DWORD PTR _this$[ebp], ecx
  0001e	ff 75 08	 push	 DWORD PTR _classSize$[ebp]
  00021	6a 00		 push	 0
  00023	ff 75 f8	 push	 DWORD PTR _this$[ebp]
  00026	e8 00 00 00 00	 call	 _memset
  0002b	83 c4 0c	 add	 esp, 12			; 0000000cH
  0002e	5f		 pop	 edi
  0002f	5e		 pop	 esi
  00030	5b		 pop	 ebx
  00031	81 c4 cc 00 00
	00		 add	 esp, 204		; 000000ccH
  00037	3b ec		 cmp	 ebp, esp
  00039	e8 00 00 00 00	 call	 __RTC_CheckEsp
  0003e	c9		 leave
  0003f	c2 04 00	 ret	 4
?__autoclassinit2@?$CHeapPtr@_WVCCRTAllocator@ATL@@@ATL@@QAEXI@Z ENDP ; ATL::CHeapPtr<wchar_t,ATL::CCRTAllocator>::__autoclassinit2
_TEXT	ENDS
; Function compile flags: /Odsp /RTCsu /ZI
;	COMDAT ??1?$CHeapPtr@_WVCCRTAllocator@ATL@@@ATL@@QAE@XZ
_TEXT	SEGMENT
_this$ = -8						; size = 4
??1?$CHeapPtr@_WVCCRTAllocator@ATL@@@ATL@@QAE@XZ PROC	; ATL::CHeapPtr<wchar_t,ATL::CCRTAllocator>::~CHeapPtr<wchar_t,ATL::CCRTAllocator>, COMDAT
; _this$ = ecx
  00000	55		 push	 ebp
  00001	8b ec		 mov	 ebp, esp
  00003	81 ec cc 00 00
	00		 sub	 esp, 204		; 000000ccH
  00009	53		 push	 ebx
  0000a	56		 push	 esi
  0000b	57		 push	 edi
  0000c	51		 push	 ecx
  0000d	8d 7d f4	 lea	 edi, DWORD PTR [ebp-12]
  00010	6a 03		 push	 3
  00012	59		 pop	 ecx
  00013	b8 cc cc cc cc	 mov	 eax, -858993460		; ccccccccH
  00018	f3 ab		 rep stosd
  0001a	59		 pop	 ecx
  0001b	89 4d f8	 mov	 DWORD PTR _this$[ebp], ecx
  0001e	8b 4d f8	 mov	 ecx, DWORD PTR _this$[ebp]
  00021	e8 00 00 00 00	 call	 ??1?$CHeapPtrBase@_WVCCRTAllocator@ATL@@@ATL@@QAE@XZ ; ATL::CHeapPtrBase<wchar_t,ATL::CCRTAllocator>::~CHeapPtrBase<wchar_t,ATL::CCRTAllocator>
  00026	5f		 pop	 edi
  00027	5e		 pop	 esi
  00028	5b		 pop	 ebx
  00029	81 c4 cc 00 00
	00		 add	 esp, 204		; 000000ccH
  0002f	3b ec		 cmp	 ebp, esp
  00031	e8 00 00 00 00	 call	 __RTC_CheckEsp
  00036	c9		 leave
  00037	c3		 ret	 0
??1?$CHeapPtr@_WVCCRTAllocator@ATL@@@ATL@@QAE@XZ ENDP	; ATL::CHeapPtr<wchar_t,ATL::CCRTAllocator>::~CHeapPtr<wchar_t,ATL::CCRTAllocator>
_TEXT	ENDS
; Function compile flags: /Odsp /RTCsu /ZI
; File C:\Program Files\Microsoft Visual Studio\2022\Enterprise\VC\Tools\MSVC\14.34.31933\atlmfc\include\atlalloc.h
;	COMDAT ?Allocate@?$CHeapPtr@_WVCCRTAllocator@ATL@@@ATL@@QAE_NI@Z
_TEXT	SEGMENT
_nBytes$ = -24						; size = 4
_this$ = -12						; size = 4
__$ArrayPad$ = -4					; size = 4
_nElements$ = 8						; size = 4
?Allocate@?$CHeapPtr@_WVCCRTAllocator@ATL@@@ATL@@QAE_NI@Z PROC ; ATL::CHeapPtr<wchar_t,ATL::CCRTAllocator>::Allocate, COMDAT
; _this$ = ecx

; 456  : 	{

  00000	55		 push	 ebp
  00001	8b ec		 mov	 ebp, esp
  00003	81 ec dc 00 00
	00		 sub	 esp, 220		; 000000dcH
  00009	53		 push	 ebx
  0000a	56		 push	 esi
  0000b	57		 push	 edi
  0000c	51		 push	 ecx
  0000d	8d 7d e4	 lea	 edi, DWORD PTR [ebp-28]
  00010	6a 07		 push	 7
  00012	59		 pop	 ecx
  00013	b8 cc cc cc cc	 mov	 eax, -858993460		; ccccccccH
  00018	f3 ab		 rep stosd
  0001a	59		 pop	 ecx
  0001b	a1 00 00 00 00	 mov	 eax, DWORD PTR ___security_cookie
  00020	33 c5		 xor	 eax, ebp
  00022	89 45 fc	 mov	 DWORD PTR __$ArrayPad$[ebp], eax
  00025	89 4d f4	 mov	 DWORD PTR _this$[ebp], ecx
  00028	b9 00 00 00 00	 mov	 ecx, OFFSET __D909E87F_atlalloc@h
  0002d	e8 00 00 00 00	 call	 @__CheckForDebuggerJustMyCode@4

; 457  : 		size_t nBytes=0;

  00032	83 65 e8 00	 and	 DWORD PTR _nBytes$[ebp], 0

; 458  : 		if(FAILED(::ATL::AtlMultiply(&nBytes, nElements, sizeof(T))))

  00036	6a 02		 push	 2
  00038	ff 75 08	 push	 DWORD PTR _nElements$[ebp]
  0003b	8d 45 e8	 lea	 eax, DWORD PTR _nBytes$[ebp]
  0003e	50		 push	 eax
  0003f	e8 00 00 00 00	 call	 ??$AtlMultiply@I@ATL@@YAJPAIII@Z ; ATL::AtlMultiply<unsigned int>
  00044	83 c4 0c	 add	 esp, 12			; 0000000cH
  00047	85 c0		 test	 eax, eax
  00049	7d 04		 jge	 SHORT $LN2@Allocate

; 459  : 		{
; 460  : 			return false;

  0004b	32 c0		 xor	 al, al
  0004d	eb 0b		 jmp	 SHORT $LN1@Allocate
$LN2@Allocate:

; 461  : 		}
; 462  : 		return this->AllocateBytes(nBytes);

  0004f	ff 75 e8	 push	 DWORD PTR _nBytes$[ebp]
  00052	8b 4d f4	 mov	 ecx, DWORD PTR _this$[ebp]
  00055	e8 00 00 00 00	 call	 ?AllocateBytes@?$CHeapPtrBase@_WVCCRTAllocator@ATL@@@ATL@@QAE_NI@Z ; ATL::CHeapPtrBase<wchar_t,ATL::CCRTAllocator>::AllocateBytes
$LN1@Allocate:

; 463  : 	}

  0005a	52		 push	 edx
  0005b	8b cd		 mov	 ecx, ebp
  0005d	50		 push	 eax
  0005e	8d 15 00 00 00
	00		 lea	 edx, DWORD PTR $LN6@Allocate
  00064	e8 00 00 00 00	 call	 @_RTC_CheckStackVars@8
  00069	58		 pop	 eax
  0006a	5a		 pop	 edx
  0006b	5f		 pop	 edi
  0006c	5e		 pop	 esi
  0006d	5b		 pop	 ebx
  0006e	8b 4d fc	 mov	 ecx, DWORD PTR __$ArrayPad$[ebp]
  00071	33 cd		 xor	 ecx, ebp
  00073	e8 00 00 00 00	 call	 @__security_check_cookie@4
  00078	81 c4 dc 00 00
	00		 add	 esp, 220		; 000000dcH
  0007e	3b ec		 cmp	 ebp, esp
  00080	e8 00 00 00 00	 call	 __RTC_CheckEsp
  00085	c9		 leave
  00086	c2 04 00	 ret	 4
  00089	0f 1f 00	 npad	 3
$LN6@Allocate:
  0008c	01 00 00 00	 DD	 1
  00090	00 00 00 00	 DD	 $LN5@Allocate
$LN5@Allocate:
  00094	e8 ff ff ff	 DD	 -24			; ffffffe8H
  00098	04 00 00 00	 DD	 4
  0009c	00 00 00 00	 DD	 $LN4@Allocate
$LN4@Allocate:
  000a0	6e		 DB	 110			; 0000006eH
  000a1	42		 DB	 66			; 00000042H
  000a2	79		 DB	 121			; 00000079H
  000a3	74		 DB	 116			; 00000074H
  000a4	65		 DB	 101			; 00000065H
  000a5	73		 DB	 115			; 00000073H
  000a6	00		 DB	 0
?Allocate@?$CHeapPtr@_WVCCRTAllocator@ATL@@@ATL@@QAE_NI@Z ENDP ; ATL::CHeapPtr<wchar_t,ATL::CCRTAllocator>::Allocate
_TEXT	ENDS
; Function compile flags: /Odsp /RTCsu /ZI
; File C:\Program Files\Microsoft Visual Studio\2022\Enterprise\VC\Tools\MSVC\14.34.31933\atlmfc\include\atlalloc.h
;	COMDAT ??0?$CHeapPtr@_WVCCRTAllocator@ATL@@@ATL@@QAE@XZ
_TEXT	SEGMENT
_this$ = -8						; size = 4
??0?$CHeapPtr@_WVCCRTAllocator@ATL@@@ATL@@QAE@XZ PROC	; ATL::CHeapPtr<wchar_t,ATL::CCRTAllocator>::CHeapPtr<wchar_t,ATL::CCRTAllocator>, COMDAT
; _this$ = ecx

; 435  : 	CHeapPtr() throw()

  00000	55		 push	 ebp
  00001	8b ec		 mov	 ebp, esp
  00003	81 ec cc 00 00
	00		 sub	 esp, 204		; 000000ccH
  00009	53		 push	 ebx
  0000a	56		 push	 esi
  0000b	57		 push	 edi
  0000c	51		 push	 ecx
  0000d	8d 7d f4	 lea	 edi, DWORD PTR [ebp-12]
  00010	6a 03		 push	 3
  00012	59		 pop	 ecx
  00013	b8 cc cc cc cc	 mov	 eax, -858993460		; ccccccccH
  00018	f3 ab		 rep stosd
  0001a	59		 pop	 ecx
  0001b	89 4d f8	 mov	 DWORD PTR _this$[ebp], ecx
  0001e	b9 00 00 00 00	 mov	 ecx, OFFSET __D909E87F_atlalloc@h
  00023	e8 00 00 00 00	 call	 @__CheckForDebuggerJustMyCode@4

; 436  : 	{

  00028	8b 4d f8	 mov	 ecx, DWORD PTR _this$[ebp]
  0002b	e8 00 00 00 00	 call	 ??0?$CHeapPtrBase@_WVCCRTAllocator@ATL@@@ATL@@IAE@XZ ; ATL::CHeapPtrBase<wchar_t,ATL::CCRTAllocator>::CHeapPtrBase<wchar_t,ATL::CCRTAllocator>

; 437  : 	}

  00030	8b 45 f8	 mov	 eax, DWORD PTR _this$[ebp]
  00033	5f		 pop	 edi
  00034	5e		 pop	 esi
  00035	5b		 pop	 ebx
  00036	81 c4 cc 00 00
	00		 add	 esp, 204		; 000000ccH
  0003c	3b ec		 cmp	 ebp, esp
  0003e	e8 00 00 00 00	 call	 __RTC_CheckEsp
  00043	c9		 leave
  00044	c3		 ret	 0
??0?$CHeapPtr@_WVCCRTAllocator@ATL@@@ATL@@QAE@XZ ENDP	; ATL::CHeapPtr<wchar_t,ATL::CCRTAllocator>::CHeapPtr<wchar_t,ATL::CCRTAllocator>
_TEXT	ENDS
; Function compile flags: /Odsp /RTCsu /ZI
; File C:\Program Files\Microsoft Visual Studio\2022\Enterprise\VC\Tools\MSVC\14.34.31933\atlmfc\include\atlalloc.h
;	COMDAT ?Free@?$CHeapPtrBase@_WVCCRTAllocator@ATL@@@ATL@@QAEXXZ
_TEXT	SEGMENT
_this$ = -8						; size = 4
?Free@?$CHeapPtrBase@_WVCCRTAllocator@ATL@@@ATL@@QAEXXZ PROC ; ATL::CHeapPtrBase<wchar_t,ATL::CCRTAllocator>::Free, COMDAT
; _this$ = ecx

; 408  : 	{

  00000	55		 push	 ebp
  00001	8b ec		 mov	 ebp, esp
  00003	81 ec cc 00 00
	00		 sub	 esp, 204		; 000000ccH
  00009	53		 push	 ebx
  0000a	56		 push	 esi
  0000b	57		 push	 edi
  0000c	51		 push	 ecx
  0000d	8d 7d f4	 lea	 edi, DWORD PTR [ebp-12]
  00010	6a 03		 push	 3
  00012	59		 pop	 ecx
  00013	b8 cc cc cc cc	 mov	 eax, -858993460		; ccccccccH
  00018	f3 ab		 rep stosd
  0001a	59		 pop	 ecx
  0001b	89 4d f8	 mov	 DWORD PTR _this$[ebp], ecx
  0001e	b9 00 00 00 00	 mov	 ecx, OFFSET __D909E87F_atlalloc@h
  00023	e8 00 00 00 00	 call	 @__CheckForDebuggerJustMyCode@4

; 409  : 		Allocator::Free(m_pData);

  00028	8b 45 f8	 mov	 eax, DWORD PTR _this$[ebp]
  0002b	ff 30		 push	 DWORD PTR [eax]
  0002d	e8 00 00 00 00	 call	 ?Free@CCRTAllocator@ATL@@SAXPAX@Z ; ATL::CCRTAllocator::Free
  00032	59		 pop	 ecx

; 410  : 		m_pData = NULL;

  00033	8b 45 f8	 mov	 eax, DWORD PTR _this$[ebp]
  00036	83 20 00	 and	 DWORD PTR [eax], 0

; 411  : 	}

  00039	5f		 pop	 edi
  0003a	5e		 pop	 esi
  0003b	5b		 pop	 ebx
  0003c	81 c4 cc 00 00
	00		 add	 esp, 204		; 000000ccH
  00042	3b ec		 cmp	 ebp, esp
  00044	e8 00 00 00 00	 call	 __RTC_CheckEsp
  00049	c9		 leave
  0004a	c3		 ret	 0
?Free@?$CHeapPtrBase@_WVCCRTAllocator@ATL@@@ATL@@QAEXXZ ENDP ; ATL::CHeapPtrBase<wchar_t,ATL::CCRTAllocator>::Free
_TEXT	ENDS
; Function compile flags: /Odsp /RTCsu /ZI
; File C:\Program Files\Microsoft Visual Studio\2022\Enterprise\VC\Tools\MSVC\14.34.31933\atlmfc\include\atlalloc.h
;	COMDAT ?AllocateBytes@?$CHeapPtrBase@_WVCCRTAllocator@ATL@@@ATL@@QAE_NI@Z
_TEXT	SEGMENT
_this$ = -8						; size = 4
_nBytes$ = 8						; size = 4
?AllocateBytes@?$CHeapPtrBase@_WVCCRTAllocator@ATL@@@ATL@@QAE_NI@Z PROC ; ATL::CHeapPtrBase<wchar_t,ATL::CCRTAllocator>::AllocateBytes, COMDAT
; _this$ = ecx

; 382  : 	{

  00000	55		 push	 ebp
  00001	8b ec		 mov	 ebp, esp
  00003	81 ec cc 00 00
	00		 sub	 esp, 204		; 000000ccH
  00009	53		 push	 ebx
  0000a	56		 push	 esi
  0000b	57		 push	 edi
  0000c	51		 push	 ecx
  0000d	8d 7d f4	 lea	 edi, DWORD PTR [ebp-12]
  00010	6a 03		 push	 3
  00012	59		 pop	 ecx
  00013	b8 cc cc cc cc	 mov	 eax, -858993460		; ccccccccH
  00018	f3 ab		 rep stosd
  0001a	59		 pop	 ecx
  0001b	89 4d f8	 mov	 DWORD PTR _this$[ebp], ecx
  0001e	b9 00 00 00 00	 mov	 ecx, OFFSET __D909E87F_atlalloc@h
  00023	e8 00 00 00 00	 call	 @__CheckForDebuggerJustMyCode@4

; 383  : 		ATLASSERT(m_pData == NULL);

  00028	8b 45 f8	 mov	 eax, DWORD PTR _this$[ebp]
  0002b	83 38 00	 cmp	 DWORD PTR [eax], 0
  0002e	74 26		 je	 SHORT $LN4@AllocateBy
  00030	68 00 00 00 00	 push	 OFFSET ??_C@_1BK@NHECDDNK@?$AAm?$AA_?$AAp?$AAD?$AAa?$AAt?$AAa?$AA?5?$AA?$DN?$AA?$DN?$AA?5?$AA0@
  00035	68 00 00 00 00	 push	 OFFSET ??_C@_17CNPHIMPH@?$AA?$CF?$AAl?$AAs@
  0003a	6a 00		 push	 0
  0003c	68 7f 01 00 00	 push	 383			; 0000017fH
  00041	68 00 00 00 00	 push	 OFFSET ??_C@_1NK@JCBLKNMO@?$AAC?$AA?3?$AA?2?$AAP?$AAr?$AAo?$AAg?$AAr?$AAa?$AAm?$AA?5?$AAF?$AAi?$AAl?$AAe@
  00046	6a 02		 push	 2
  00048	e8 00 00 00 00	 call	 __CrtDbgReportW
  0004d	83 c4 18	 add	 esp, 24			; 00000018H
  00050	83 f8 01	 cmp	 eax, 1
  00053	75 01		 jne	 SHORT $LN4@AllocateBy
  00055	cc		 int	 3
$LN4@AllocateBy:

; 384  : 		m_pData = static_cast<T*>(Allocator::Allocate(nBytes));

  00056	ff 75 08	 push	 DWORD PTR _nBytes$[ebp]
  00059	e8 00 00 00 00	 call	 ?Allocate@CCRTAllocator@ATL@@SAPAXI@Z ; ATL::CCRTAllocator::Allocate
  0005e	59		 pop	 ecx
  0005f	8b 4d f8	 mov	 ecx, DWORD PTR _this$[ebp]
  00062	89 01		 mov	 DWORD PTR [ecx], eax

; 385  : 		if (m_pData == NULL)

  00064	8b 45 f8	 mov	 eax, DWORD PTR _this$[ebp]
  00067	83 38 00	 cmp	 DWORD PTR [eax], 0
  0006a	75 04		 jne	 SHORT $LN2@AllocateBy

; 386  : 			return false;

  0006c	32 c0		 xor	 al, al
  0006e	eb 02		 jmp	 SHORT $LN1@AllocateBy
$LN2@AllocateBy:

; 387  : 
; 388  : 		return true;

  00070	b0 01		 mov	 al, 1
$LN1@AllocateBy:

; 389  : 	}

  00072	5f		 pop	 edi
  00073	5e		 pop	 esi
  00074	5b		 pop	 ebx
  00075	81 c4 cc 00 00
	00		 add	 esp, 204		; 000000ccH
  0007b	3b ec		 cmp	 ebp, esp
  0007d	e8 00 00 00 00	 call	 __RTC_CheckEsp
  00082	c9		 leave
  00083	c2 04 00	 ret	 4
?AllocateBytes@?$CHeapPtrBase@_WVCCRTAllocator@ATL@@@ATL@@QAE_NI@Z ENDP ; ATL::CHeapPtrBase<wchar_t,ATL::CCRTAllocator>::AllocateBytes
_TEXT	ENDS
; Function compile flags: /Odsp /RTCsu /ZI
; File C:\Program Files\Microsoft Visual Studio\2022\Enterprise\VC\Tools\MSVC\14.34.31933\atlmfc\include\atlalloc.h
;	COMDAT ??B?$CHeapPtrBase@_WVCCRTAllocator@ATL@@@ATL@@QBEPA_WXZ
_TEXT	SEGMENT
_this$ = -8						; size = 4
??B?$CHeapPtrBase@_WVCCRTAllocator@ATL@@@ATL@@QBEPA_WXZ PROC ; ATL::CHeapPtrBase<wchar_t,ATL::CCRTAllocator>::operator wchar_t *, COMDAT
; _this$ = ecx

; 364  : 	{

  00000	55		 push	 ebp
  00001	8b ec		 mov	 ebp, esp
  00003	81 ec cc 00 00
	00		 sub	 esp, 204		; 000000ccH
  00009	53		 push	 ebx
  0000a	56		 push	 esi
  0000b	57		 push	 edi
  0000c	51		 push	 ecx
  0000d	8d 7d f4	 lea	 edi, DWORD PTR [ebp-12]
  00010	6a 03		 push	 3
  00012	59		 pop	 ecx
  00013	b8 cc cc cc cc	 mov	 eax, -858993460		; ccccccccH
  00018	f3 ab		 rep stosd
  0001a	59		 pop	 ecx
  0001b	89 4d f8	 mov	 DWORD PTR _this$[ebp], ecx
  0001e	b9 00 00 00 00	 mov	 ecx, OFFSET __D909E87F_atlalloc@h
  00023	e8 00 00 00 00	 call	 @__CheckForDebuggerJustMyCode@4

; 365  : 		return m_pData;

  00028	8b 45 f8	 mov	 eax, DWORD PTR _this$[ebp]
  0002b	8b 00		 mov	 eax, DWORD PTR [eax]

; 366  : 	}

  0002d	5f		 pop	 edi
  0002e	5e		 pop	 esi
  0002f	5b		 pop	 ebx
  00030	81 c4 cc 00 00
	00		 add	 esp, 204		; 000000ccH
  00036	3b ec		 cmp	 ebp, esp
  00038	e8 00 00 00 00	 call	 __RTC_CheckEsp
  0003d	c9		 leave
  0003e	c3		 ret	 0
??B?$CHeapPtrBase@_WVCCRTAllocator@ATL@@@ATL@@QBEPA_WXZ ENDP ; ATL::CHeapPtrBase<wchar_t,ATL::CCRTAllocator>::operator wchar_t *
_TEXT	ENDS
; Function compile flags: /Odsp /RTCsu /ZI
; File C:\Program Files\Microsoft Visual Studio\2022\Enterprise\VC\Tools\MSVC\14.34.31933\atlmfc\include\atlalloc.h
;	COMDAT ??1?$CHeapPtrBase@_WVCCRTAllocator@ATL@@@ATL@@QAE@XZ
_TEXT	SEGMENT
_this$ = -8						; size = 4
??1?$CHeapPtrBase@_WVCCRTAllocator@ATL@@@ATL@@QAE@XZ PROC ; ATL::CHeapPtrBase<wchar_t,ATL::CCRTAllocator>::~CHeapPtrBase<wchar_t,ATL::CCRTAllocator>, COMDAT
; _this$ = ecx

; 350  : 	{

  00000	55		 push	 ebp
  00001	8b ec		 mov	 ebp, esp
  00003	81 ec cc 00 00
	00		 sub	 esp, 204		; 000000ccH
  00009	53		 push	 ebx
  0000a	56		 push	 esi
  0000b	57		 push	 edi
  0000c	51		 push	 ecx
  0000d	8d 7d f4	 lea	 edi, DWORD PTR [ebp-12]
  00010	6a 03		 push	 3
  00012	59		 pop	 ecx
  00013	b8 cc cc cc cc	 mov	 eax, -858993460		; ccccccccH
  00018	f3 ab		 rep stosd
  0001a	59		 pop	 ecx
  0001b	89 4d f8	 mov	 DWORD PTR _this$[ebp], ecx
  0001e	b9 00 00 00 00	 mov	 ecx, OFFSET __D909E87F_atlalloc@h
  00023	e8 00 00 00 00	 call	 @__CheckForDebuggerJustMyCode@4

; 351  : 		Free();

  00028	8b 4d f8	 mov	 ecx, DWORD PTR _this$[ebp]
  0002b	e8 00 00 00 00	 call	 ?Free@?$CHeapPtrBase@_WVCCRTAllocator@ATL@@@ATL@@QAEXXZ ; ATL::CHeapPtrBase<wchar_t,ATL::CCRTAllocator>::Free

; 352  : 	}

  00030	5f		 pop	 edi
  00031	5e		 pop	 esi
  00032	5b		 pop	 ebx
  00033	81 c4 cc 00 00
	00		 add	 esp, 204		; 000000ccH
  00039	3b ec		 cmp	 ebp, esp
  0003b	e8 00 00 00 00	 call	 __RTC_CheckEsp
  00040	c9		 leave
  00041	c3		 ret	 0
??1?$CHeapPtrBase@_WVCCRTAllocator@ATL@@@ATL@@QAE@XZ ENDP ; ATL::CHeapPtrBase<wchar_t,ATL::CCRTAllocator>::~CHeapPtrBase<wchar_t,ATL::CCRTAllocator>
_TEXT	ENDS
; Function compile flags: /Odsp /RTCsu /ZI
; File C:\Program Files\Microsoft Visual Studio\2022\Enterprise\VC\Tools\MSVC\14.34.31933\atlmfc\include\atlalloc.h
;	COMDAT ??0?$CHeapPtrBase@_WVCCRTAllocator@ATL@@@ATL@@IAE@XZ
_TEXT	SEGMENT
_this$ = -8						; size = 4
??0?$CHeapPtrBase@_WVCCRTAllocator@ATL@@@ATL@@IAE@XZ PROC ; ATL::CHeapPtrBase<wchar_t,ATL::CCRTAllocator>::CHeapPtrBase<wchar_t,ATL::CCRTAllocator>, COMDAT
; _this$ = ecx

; 337  : 	{

  00000	55		 push	 ebp
  00001	8b ec		 mov	 ebp, esp
  00003	81 ec cc 00 00
	00		 sub	 esp, 204		; 000000ccH
  00009	53		 push	 ebx
  0000a	56		 push	 esi
  0000b	57		 push	 edi
  0000c	51		 push	 ecx
  0000d	8d 7d f4	 lea	 edi, DWORD PTR [ebp-12]
  00010	6a 03		 push	 3
  00012	59		 pop	 ecx
  00013	b8 cc cc cc cc	 mov	 eax, -858993460		; ccccccccH
  00018	f3 ab		 rep stosd
  0001a	59		 pop	 ecx
  0001b	89 4d f8	 mov	 DWORD PTR _this$[ebp], ecx
  0001e	b9 00 00 00 00	 mov	 ecx, OFFSET __D909E87F_atlalloc@h
  00023	e8 00 00 00 00	 call	 @__CheckForDebuggerJustMyCode@4

; 336  : 		m_pData(NULL)

  00028	8b 45 f8	 mov	 eax, DWORD PTR _this$[ebp]
  0002b	83 20 00	 and	 DWORD PTR [eax], 0

; 338  : 	}

  0002e	8b 45 f8	 mov	 eax, DWORD PTR _this$[ebp]
  00031	5f		 pop	 edi
  00032	5e		 pop	 esi
  00033	5b		 pop	 ebx
  00034	81 c4 cc 00 00
	00		 add	 esp, 204		; 000000ccH
  0003a	3b ec		 cmp	 ebp, esp
  0003c	e8 00 00 00 00	 call	 __RTC_CheckEsp
  00041	c9		 leave
  00042	c3		 ret	 0
??0?$CHeapPtrBase@_WVCCRTAllocator@ATL@@@ATL@@IAE@XZ ENDP ; ATL::CHeapPtrBase<wchar_t,ATL::CCRTAllocator>::CHeapPtrBase<wchar_t,ATL::CCRTAllocator>
_TEXT	ENDS
; Function compile flags: /Odsp /RTCsu /ZI
; File C:\Program Files\Microsoft Visual Studio\2022\Enterprise\VC\Tools\MSVC\14.34.31933\atlmfc\include\atltrace.h
;	COMDAT ?RegisterCategory@CTrace@ATL@@SAXPB_WI@Z
_TEXT	SEGMENT
_pszCategory$ = 8					; size = 4
_nCategory$ = 12					; size = 4
?RegisterCategory@CTrace@ATL@@SAXPB_WI@Z PROC		; ATL::CTrace::RegisterCategory, COMDAT

; 329  : 	{

  00000	55		 push	 ebp
  00001	8b ec		 mov	 ebp, esp
  00003	81 ec c0 00 00
	00		 sub	 esp, 192		; 000000c0H
  00009	53		 push	 ebx
  0000a	56		 push	 esi
  0000b	57		 push	 edi
  0000c	8b fd		 mov	 edi, ebp
  0000e	33 c9		 xor	 ecx, ecx
  00010	b8 cc cc cc cc	 mov	 eax, -858993460		; ccccccccH
  00015	f3 ab		 rep stosd
  00017	b9 00 00 00 00	 mov	 ecx, OFFSET __63F83F46_atltrace@h
  0001c	e8 00 00 00 00	 call	 @__CheckForDebuggerJustMyCode@4

; 330  : 		if (pszCategory == nullptr)

  00021	83 7d 08 00	 cmp	 DWORD PTR _pszCategory$[ebp], 0
  00025	75 02		 jne	 SHORT $LN2@RegisterCa

; 331  : 		{
; 332  : 			return;

  00027	eb 70		 jmp	 SHORT $LN1@RegisterCa
$LN2@RegisterCa:

; 333  : 		}
; 334  : 
; 335  : 		if (m_nLastCategory >= MaxCategoryArray) 

  00029	83 3d 00 00 00
	00 20		 cmp	 DWORD PTR ?m_nLastCategory@CTrace@ATL@@1IA, 32 ; ATL::CTrace::m_nLastCategory, 00000020H
  00030	72 2c		 jb	 SHORT $LN3@RegisterCa

; 336  : 		{
; 337  : 			ATLASSERT(false && "Too many categories defined");

  00032	33 c0		 xor	 eax, eax
  00034	75 26		 jne	 SHORT $LN5@RegisterCa
  00036	68 00 00 00 00	 push	 OFFSET ??_C@_1EO@EBPPKGOM@?$AAf?$AAa?$AAl?$AAs?$AAe?$AA?5?$AA?$CG?$AA?$CG?$AA?5?$AA?$CC?$AAT?$AAo?$AAo?$AA?5?$AAm@
  0003b	68 00 00 00 00	 push	 OFFSET ??_C@_17CNPHIMPH@?$AA?$CF?$AAl?$AAs@
  00040	6a 00		 push	 0
  00042	68 51 01 00 00	 push	 337			; 00000151H
  00047	68 00 00 00 00	 push	 OFFSET ??_C@_1NK@OBLAMPEN@?$AAC?$AA?3?$AA?2?$AAP?$AAr?$AAo?$AAg?$AAr?$AAa?$AAm?$AA?5?$AAF?$AAi?$AAl?$AAe@
  0004c	6a 02		 push	 2
  0004e	e8 00 00 00 00	 call	 __CrtDbgReportW
  00053	83 c4 18	 add	 esp, 24			; 00000018H
  00056	83 f8 01	 cmp	 eax, 1
  00059	75 01		 jne	 SHORT $LN5@RegisterCa
  0005b	cc		 int	 3
$LN5@RegisterCa:

; 338  : 			return;

  0005c	eb 3b		 jmp	 SHORT $LN1@RegisterCa
$LN3@RegisterCa:

; 339  : 		}
; 340  : 
; 341  : 		m_nMap[m_nLastCategory].nCategory = nCategory;

  0005e	69 05 00 00 00
	00 04 01 00 00	 imul	 eax, DWORD PTR ?m_nLastCategory@CTrace@ATL@@1IA, 260 ; ATL::CTrace::m_nLastCategory
  00068	8b 4d 0c	 mov	 ecx, DWORD PTR _nCategory$[ebp]
  0006b	89 88 00 00 00
	00		 mov	 DWORD PTR ?m_nMap@CTrace@ATL@@1PAUCategoryMap@12@A[eax], ecx

; 342  : #ifdef _UNICODE
; 343  : 		wcscpy_s(m_nMap[m_nLastCategory].categryName, MaxLengthOfCategoryName - 1, pszCategory);

  00071	ff 75 08	 push	 DWORD PTR _pszCategory$[ebp]
  00074	6a 7f		 push	 127			; 0000007fH
  00076	69 05 00 00 00
	00 04 01 00 00	 imul	 eax, DWORD PTR ?m_nLastCategory@CTrace@ATL@@1IA, 260 ; ATL::CTrace::m_nLastCategory
  00080	05 04 00 00 00	 add	 eax, OFFSET ?m_nMap@CTrace@ATL@@1PAUCategoryMap@12@A+4
  00085	50		 push	 eax
  00086	e8 00 00 00 00	 call	 _wcscpy_s
  0008b	83 c4 0c	 add	 esp, 12			; 0000000cH

; 344  : #else
; 345  : 		wchar_t buffer[MaxLengthOfCategoryName] = { 0 };	
; 346  : #if _MSC_VER < 1900
; 347  : 		swprintf_s(buffer, MaxLengthOfCategoryName - 1, L"%S", pszCategory);
; 348  : #else
; 349  : 		swprintf_s(buffer, MaxLengthOfCategoryName - 1, L"%hs", pszCategory);
; 350  : #endif
; 351  : 		wcscpy_s(m_nMap[m_nLastCategory].categryName, MaxLengthOfCategoryName - 1, buffer);
; 352  : #endif
; 353  : 	
; 354  : 		m_nLastCategory++;

  0008e	a1 00 00 00 00	 mov	 eax, DWORD PTR ?m_nLastCategory@CTrace@ATL@@1IA ; ATL::CTrace::m_nLastCategory
  00093	40		 inc	 eax
  00094	a3 00 00 00 00	 mov	 DWORD PTR ?m_nLastCategory@CTrace@ATL@@1IA, eax ; ATL::CTrace::m_nLastCategory
$LN1@RegisterCa:

; 355  : 	}

  00099	5f		 pop	 edi
  0009a	5e		 pop	 esi
  0009b	5b		 pop	 ebx
  0009c	81 c4 c0 00 00
	00		 add	 esp, 192		; 000000c0H
  000a2	3b ec		 cmp	 ebp, esp
  000a4	e8 00 00 00 00	 call	 __RTC_CheckEsp
  000a9	c9		 leave
  000aa	c3		 ret	 0
?RegisterCategory@CTrace@ATL@@SAXPB_WI@Z ENDP		; ATL::CTrace::RegisterCategory
_TEXT	ENDS
; Function compile flags: /Odsp /RTCsu /ZI
; File C:\Program Files\Microsoft Visual Studio\2022\Enterprise\VC\Tools\MSVC\14.34.31933\atlmfc\include\atltrace.h
;	COMDAT ?TraceV@CTrace@ATL@@SAXPBDHIIPB_WPAD@Z
_TEXT	SEGMENT
_vsnwprintf_result$ = -48				; size = 4
_wszBuf$ = -36						; size = 4
_cchNeeded$ = -24					; size = 4
__$ArrayPad$ = -16					; size = 4
__$EHRec$ = -12						; size = 12
_pszFileName$ = 8					; size = 4
_nLine$ = 12						; size = 4
_dwCategory$ = 16					; size = 4
_nLevel$ = 20						; size = 4
_pwszFmt$ = 24						; size = 4
_args$ = 28						; size = 4
?TraceV@CTrace@ATL@@SAXPBDHIIPB_WPAD@Z PROC		; ATL::CTrace::TraceV, COMDAT

; 281  : 	{

  00000	55		 push	 ebp
  00001	8b ec		 mov	 ebp, esp
  00003	6a ff		 push	 -1
  00005	68 00 00 00 00	 push	 __ehhandler$?TraceV@CTrace@ATL@@SAXPBDHIIPB_WPAD@Z
  0000a	64 a1 00 00 00
	00		 mov	 eax, DWORD PTR fs:0
  00010	50		 push	 eax
  00011	81 ec e8 00 00
	00		 sub	 esp, 232		; 000000e8H
  00017	53		 push	 ebx
  00018	56		 push	 esi
  00019	57		 push	 edi
  0001a	8d 7d cc	 lea	 edi, DWORD PTR [ebp-52]
  0001d	6a 0a		 push	 10			; 0000000aH
  0001f	59		 pop	 ecx
  00020	b8 cc cc cc cc	 mov	 eax, -858993460		; ccccccccH
  00025	f3 ab		 rep stosd
  00027	a1 00 00 00 00	 mov	 eax, DWORD PTR ___security_cookie
  0002c	33 c5		 xor	 eax, ebp
  0002e	89 45 f0	 mov	 DWORD PTR __$ArrayPad$[ebp], eax
  00031	50		 push	 eax
  00032	8d 45 f4	 lea	 eax, DWORD PTR __$EHRec$[ebp]
  00035	64 a3 00 00 00
	00		 mov	 DWORD PTR fs:0, eax
  0003b	b9 00 00 00 00	 mov	 ecx, OFFSET __63F83F46_atltrace@h
  00040	e8 00 00 00 00	 call	 @__CheckForDebuggerJustMyCode@4

; 282  : #if _MSC_VER < 1900
; 283  : 		int cchNeeded = _vscwprintf(pwszFmt, args);
; 284  : #else
; 285  : 		// Explicitly request the legacy wide format specifiers mode from the CRT,
; 286  : 		// for compatibility with previous versions.  While the CRT supports two
; 287  : 		// modes, the ATL and MFC functions that accept format strings only support
; 288  : 		// legacy mode format strings.
; 289  : 		int cchNeeded = __stdio_common_vswprintf(

  00045	ff 75 1c	 push	 DWORD PTR _args$[ebp]
  00048	6a 00		 push	 0
  0004a	ff 75 18	 push	 DWORD PTR _pwszFmt$[ebp]
  0004d	6a 00		 push	 0
  0004f	6a 00		 push	 0
  00051	e8 00 00 00 00	 call	 ___local_stdio_printf_options
  00056	8b 08		 mov	 ecx, DWORD PTR [eax]
  00058	83 c9 02	 or	 ecx, 2
  0005b	8b 40 04	 mov	 eax, DWORD PTR [eax+4]
  0005e	83 c9 04	 or	 ecx, 4
  00061	50		 push	 eax
  00062	51		 push	 ecx
  00063	e8 00 00 00 00	 call	 ___stdio_common_vswprintf
  00068	83 c4 1c	 add	 esp, 28			; 0000001cH
  0006b	89 45 e8	 mov	 DWORD PTR _cchNeeded$[ebp], eax

; 290  : 			_CRT_INTERNAL_LOCAL_PRINTF_OPTIONS |
; 291  : 			_CRT_INTERNAL_PRINTF_STANDARD_SNPRINTF_BEHAVIOR |
; 292  : 			_CRT_INTERNAL_PRINTF_LEGACY_WIDE_SPECIFIERS,
; 293  : 			NULL, 0, pwszFmt, NULL, args);
; 294  : #endif
; 295  : 		if (cchNeeded < 0)

  0006e	83 7d e8 00	 cmp	 DWORD PTR _cchNeeded$[ebp], 0
  00072	7d 05		 jge	 SHORT $LN2@TraceV

; 296  : 		{
; 297  : 			return;

  00074	e9 bf 00 00 00	 jmp	 $LN1@TraceV
$LN2@TraceV:

; 298  : 		}
; 299  : 
; 300  : 		CHeapPtr<wchar_t> wszBuf;

  00079	6a 04		 push	 4
  0007b	8d 4d dc	 lea	 ecx, DWORD PTR _wszBuf$[ebp]
  0007e	e8 00 00 00 00	 call	 ?__autoclassinit2@?$CHeapPtr@_WVCCRTAllocator@ATL@@@ATL@@QAEXI@Z
  00083	8d 4d dc	 lea	 ecx, DWORD PTR _wszBuf$[ebp]
  00086	e8 00 00 00 00	 call	 ??0?$CHeapPtr@_WVCCRTAllocator@ATL@@@ATL@@QAE@XZ ; ATL::CHeapPtr<wchar_t,ATL::CCRTAllocator>::CHeapPtr<wchar_t,ATL::CCRTAllocator>
  0008b	83 65 fc 00	 and	 DWORD PTR __$EHRec$[ebp+8], 0

; 301  : 		if (!wszBuf.Allocate(cchNeeded + 1))

  0008f	8b 45 e8	 mov	 eax, DWORD PTR _cchNeeded$[ebp]
  00092	40		 inc	 eax
  00093	50		 push	 eax
  00094	8d 4d dc	 lea	 ecx, DWORD PTR _wszBuf$[ebp]
  00097	e8 00 00 00 00	 call	 ?Allocate@?$CHeapPtr@_WVCCRTAllocator@ATL@@@ATL@@QAE_NI@Z ; ATL::CHeapPtr<wchar_t,ATL::CCRTAllocator>::Allocate
  0009c	0f b6 c0	 movzx	 eax, al
  0009f	85 c0		 test	 eax, eax
  000a1	75 11		 jne	 SHORT $LN3@TraceV

; 302  : 		{
; 303  : 			return;

  000a3	83 4d fc ff	 or	 DWORD PTR __$EHRec$[ebp+8], -1
  000a7	8d 4d dc	 lea	 ecx, DWORD PTR _wszBuf$[ebp]
  000aa	e8 00 00 00 00	 call	 ??1?$CHeapPtr@_WVCCRTAllocator@ATL@@@ATL@@QAE@XZ
  000af	e9 84 00 00 00	 jmp	 $LN1@TraceV
$LN3@TraceV:

; 304  : 		}
; 305  : 
; 306  : 		wszBuf[0] = '\0';

  000b4	8d 4d dc	 lea	 ecx, DWORD PTR _wszBuf$[ebp]
  000b7	e8 00 00 00 00	 call	 ??B?$CHeapPtrBase@_WVCCRTAllocator@ATL@@@ATL@@QBEPA_WXZ ; ATL::CHeapPtrBase<wchar_t,ATL::CCRTAllocator>::operator wchar_t *
  000bc	6a 02		 push	 2
  000be	59		 pop	 ecx
  000bf	6b c9 00	 imul	 ecx, ecx, 0
  000c2	33 d2		 xor	 edx, edx
  000c4	66 89 14 08	 mov	 WORD PTR [eax+ecx], dx

; 307  : 
; 308  : #if _MSC_VER < 1900
; 309  : 		if (_vsnwprintf_s(wszBuf, cchNeeded + 1, cchNeeded, pwszFmt, args) == -1)
; 310  : #else
; 311  : 		// Explicitly request the legacy wide format specifiers mode from the CRT,
; 312  : 		// for compatibility with previous versions.  While the CRT supports two
; 313  : 		// modes, the ATL and MFC functions that accept format strings only support
; 314  : 		// legacy mode format strings.
; 315  : 		int const vsnwprintf_result = __stdio_common_vsnwprintf_s(

  000c8	ff 75 1c	 push	 DWORD PTR _args$[ebp]
  000cb	6a 00		 push	 0
  000cd	ff 75 18	 push	 DWORD PTR _pwszFmt$[ebp]
  000d0	ff 75 e8	 push	 DWORD PTR _cchNeeded$[ebp]
  000d3	8b 45 e8	 mov	 eax, DWORD PTR _cchNeeded$[ebp]
  000d6	40		 inc	 eax
  000d7	50		 push	 eax
  000d8	8d 4d dc	 lea	 ecx, DWORD PTR _wszBuf$[ebp]
  000db	e8 00 00 00 00	 call	 ??B?$CHeapPtrBase@_WVCCRTAllocator@ATL@@@ATL@@QBEPA_WXZ ; ATL::CHeapPtrBase<wchar_t,ATL::CCRTAllocator>::operator wchar_t *
  000e0	50		 push	 eax
  000e1	e8 00 00 00 00	 call	 ___local_stdio_printf_options
  000e6	8b 08		 mov	 ecx, DWORD PTR [eax]
  000e8	83 c9 04	 or	 ecx, 4
  000eb	8b 40 04	 mov	 eax, DWORD PTR [eax+4]
  000ee	50		 push	 eax
  000ef	51		 push	 ecx
  000f0	e8 00 00 00 00	 call	 ___stdio_common_vsnwprintf_s
  000f5	83 c4 20	 add	 esp, 32			; 00000020H
  000f8	89 45 d0	 mov	 DWORD PTR _vsnwprintf_result$[ebp], eax

; 316  : 			_CRT_INTERNAL_LOCAL_PRINTF_OPTIONS |
; 317  : 			_CRT_INTERNAL_PRINTF_LEGACY_WIDE_SPECIFIERS,
; 318  : 			wszBuf, cchNeeded + 1, cchNeeded, pwszFmt, NULL, args);
; 319  : 		if (vsnwprintf_result < 0)

  000fb	83 7d d0 00	 cmp	 DWORD PTR _vsnwprintf_result$[ebp], 0
  000ff	7d 0e		 jge	 SHORT $LN4@TraceV

; 320  : #endif
; 321  : 		{
; 322  : 			return;

  00101	83 4d fc ff	 or	 DWORD PTR __$EHRec$[ebp+8], -1
  00105	8d 4d dc	 lea	 ecx, DWORD PTR _wszBuf$[ebp]
  00108	e8 00 00 00 00	 call	 ??1?$CHeapPtr@_WVCCRTAllocator@ATL@@@ATL@@QAE@XZ
  0010d	eb 29		 jmp	 SHORT $LN1@TraceV
$LN4@TraceV:

; 323  : 		}
; 324  : 
; 325  : 		TraceV(pszFileName, nLine, dwCategory, nLevel, wszBuf);

  0010f	8d 4d dc	 lea	 ecx, DWORD PTR _wszBuf$[ebp]
  00112	e8 00 00 00 00	 call	 ??B?$CHeapPtrBase@_WVCCRTAllocator@ATL@@@ATL@@QBEPA_WXZ ; ATL::CHeapPtrBase<wchar_t,ATL::CCRTAllocator>::operator wchar_t *
  00117	50		 push	 eax
  00118	ff 75 14	 push	 DWORD PTR _nLevel$[ebp]
  0011b	ff 75 10	 push	 DWORD PTR _dwCategory$[ebp]
  0011e	ff 75 0c	 push	 DWORD PTR _nLine$[ebp]
  00121	ff 75 08	 push	 DWORD PTR _pszFileName$[ebp]
  00124	e8 00 00 00 00	 call	 ?TraceV@CTrace@ATL@@CAXPBDHIIPB_W@Z ; ATL::CTrace::TraceV
  00129	83 c4 14	 add	 esp, 20			; 00000014H

; 326  : 	}

  0012c	83 4d fc ff	 or	 DWORD PTR __$EHRec$[ebp+8], -1
  00130	8d 4d dc	 lea	 ecx, DWORD PTR _wszBuf$[ebp]
  00133	e8 00 00 00 00	 call	 ??1?$CHeapPtr@_WVCCRTAllocator@ATL@@@ATL@@QAE@XZ
$LN1@TraceV:
  00138	52		 push	 edx
  00139	8b cd		 mov	 ecx, ebp
  0013b	50		 push	 eax
  0013c	8d 15 00 00 00
	00		 lea	 edx, DWORD PTR $LN10@TraceV
  00142	e8 00 00 00 00	 call	 @_RTC_CheckStackVars@8
  00147	58		 pop	 eax
  00148	5a		 pop	 edx
  00149	8b 4d f4	 mov	 ecx, DWORD PTR __$EHRec$[ebp]
  0014c	64 89 0d 00 00
	00 00		 mov	 DWORD PTR fs:0, ecx
  00153	59		 pop	 ecx
  00154	5f		 pop	 edi
  00155	5e		 pop	 esi
  00156	5b		 pop	 ebx
  00157	8b 4d f0	 mov	 ecx, DWORD PTR __$ArrayPad$[ebp]
  0015a	33 cd		 xor	 ecx, ebp
  0015c	e8 00 00 00 00	 call	 @__security_check_cookie@4
  00161	81 c4 f4 00 00
	00		 add	 esp, 244		; 000000f4H
  00167	3b ec		 cmp	 ebp, esp
  00169	e8 00 00 00 00	 call	 __RTC_CheckEsp
  0016e	c9		 leave
  0016f	c3		 ret	 0
$LN10@TraceV:
  00170	01 00 00 00	 DD	 1
  00174	00 00 00 00	 DD	 $LN9@TraceV
$LN9@TraceV:
  00178	dc ff ff ff	 DD	 -36			; ffffffdcH
  0017c	04 00 00 00	 DD	 4
  00180	00 00 00 00	 DD	 $LN7@TraceV
$LN7@TraceV:
  00184	77		 DB	 119			; 00000077H
  00185	73		 DB	 115			; 00000073H
  00186	7a		 DB	 122			; 0000007aH
  00187	42		 DB	 66			; 00000042H
  00188	75		 DB	 117			; 00000075H
  00189	66		 DB	 102			; 00000066H
  0018a	00		 DB	 0
_TEXT	ENDS
;	COMDAT text$x
text$x	SEGMENT
__unwindfunclet$?TraceV@CTrace@ATL@@SAXPBDHIIPB_WPAD@Z$0:
  00000	8d 4d dc	 lea	 ecx, DWORD PTR _wszBuf$[ebp]
  00003	e9 00 00 00 00	 jmp	 ??1?$CHeapPtr@_WVCCRTAllocator@ATL@@@ATL@@QAE@XZ
  00008	cc		 int	 3
  00009	cc		 int	 3
  0000a	cc		 int	 3
  0000b	cc		 int	 3
  0000c	cc		 int	 3
__ehhandler$?TraceV@CTrace@ATL@@SAXPBDHIIPB_WPAD@Z:
  0000d	90		 npad	 1
  0000e	90		 npad	 1
  0000f	8b 54 24 08	 mov	 edx, DWORD PTR [esp+8]
  00013	8d 42 0c	 lea	 eax, DWORD PTR [edx+12]
  00016	8b 8a 08 ff ff
	ff		 mov	 ecx, DWORD PTR [edx-248]
  0001c	33 c8		 xor	 ecx, eax
  0001e	e8 00 00 00 00	 call	 @__security_check_cookie@4
  00023	8b 4a fc	 mov	 ecx, DWORD PTR [edx-4]
  00026	33 c8		 xor	 ecx, eax
  00028	e8 00 00 00 00	 call	 @__security_check_cookie@4
  0002d	b8 00 00 00 00	 mov	 eax, OFFSET __ehfuncinfo$?TraceV@CTrace@ATL@@SAXPBDHIIPB_WPAD@Z
  00032	e9 00 00 00 00	 jmp	 ___CxxFrameHandler3
text$x	ENDS
?TraceV@CTrace@ATL@@SAXPBDHIIPB_WPAD@Z ENDP		; ATL::CTrace::TraceV
; Function compile flags: /Odsp /RTCsu /ZI
; File C:\Program Files\Microsoft Visual Studio\2022\Enterprise\VC\Tools\MSVC\14.34.31933\atlmfc\include\atltrace.h
;	COMDAT ?TraceV@CTrace@ATL@@CAXPBDHIIPB_W@Z
_TEXT	SEGMENT
_fileName$ = -2632					; size = 520
_wszBuf$ = -2104					; size = 4
_chCount$ = -2092					; size = 4
_pwszCategoryName$ = -2080				; size = 4
_categoryLength$ = -2068				; size = 4
_wszCategory$ = -2056					; size = 2048
__$ArrayPad$ = -4					; size = 4
_pszFileName$ = 8					; size = 4
_nLine$ = 12						; size = 4
_dwCategory$ = 16					; size = 4
_nLevel$ = 20						; size = 4
_pwszMessage$ = 24					; size = 4
?TraceV@CTrace@ATL@@CAXPBDHIIPB_W@Z PROC		; ATL::CTrace::TraceV, COMDAT

; 150  : 	{

  00000	55		 push	 ebp
  00001	8b ec		 mov	 ebp, esp
  00003	81 ec cc 0e 00
	00		 sub	 esp, 3788		; 00000eccH
  00009	53		 push	 ebx
  0000a	56		 push	 esi
  0000b	57		 push	 edi
  0000c	8d bd b4 f5 ff
	ff		 lea	 edi, DWORD PTR [ebp-2636]
  00012	b9 93 02 00 00	 mov	 ecx, 659		; 00000293H
  00017	b8 cc cc cc cc	 mov	 eax, -858993460		; ccccccccH
  0001c	f3 ab		 rep stosd
  0001e	a1 00 00 00 00	 mov	 eax, DWORD PTR ___security_cookie
  00023	33 c5		 xor	 eax, ebp
  00025	89 45 fc	 mov	 DWORD PTR __$ArrayPad$[ebp], eax
  00028	b9 00 00 00 00	 mov	 ecx, OFFSET __63F83F46_atltrace@h
  0002d	e8 00 00 00 00	 call	 @__CheckForDebuggerJustMyCode@4

; 151  : 		if (CTrace::m_nLevel == CTrace::DisableTracing || CTrace::m_nLevel < nLevel || (CTrace::m_nCategory & dwCategory) == 0)

  00032	83 3d 00 00 00
	00 ff		 cmp	 DWORD PTR ?m_nLevel@CTrace@ATL@@1IA, -1 ; ATL::CTrace::m_nLevel
  00039	74 14		 je	 SHORT $LN3@TraceV
  0003b	a1 00 00 00 00	 mov	 eax, DWORD PTR ?m_nLevel@CTrace@ATL@@1IA ; ATL::CTrace::m_nLevel
  00040	3b 45 14	 cmp	 eax, DWORD PTR _nLevel$[ebp]
  00043	72 0a		 jb	 SHORT $LN3@TraceV
  00045	a1 00 00 00 00	 mov	 eax, DWORD PTR ?m_nCategory@CTrace@ATL@@1IA ; ATL::CTrace::m_nCategory
  0004a	23 45 10	 and	 eax, DWORD PTR _dwCategory$[ebp]
  0004d	75 05		 jne	 SHORT $LN2@TraceV
$LN3@TraceV:

; 152  : 		{
; 153  : 			return;

  0004f	e9 bb 01 00 00	 jmp	 $LN1@TraceV
$LN2@TraceV:

; 154  : 		}
; 155  : 
; 156  : 		wchar_t wszCategory[TraceBufferSize] = {'\0'};

  00054	68 00 08 00 00	 push	 2048			; 00000800H
  00059	6a 00		 push	 0
  0005b	8d 85 f8 f7 ff
	ff		 lea	 eax, DWORD PTR _wszCategory$[ebp]
  00061	50		 push	 eax
  00062	e8 00 00 00 00	 call	 _memset
  00067	83 c4 0c	 add	 esp, 12			; 0000000cH

; 157  : 		int categoryLength = 0;

  0006a	83 a5 ec f7 ff
	ff 00		 and	 DWORD PTR _categoryLength$[ebp], 0

; 158  : 		const wchar_t *const pwszCategoryName = GetCategoryName(dwCategory);

  00071	ff 75 10	 push	 DWORD PTR _dwCategory$[ebp]
  00074	e8 00 00 00 00	 call	 ?GetCategoryName@CTrace@ATL@@CAPA_WI@Z ; ATL::CTrace::GetCategoryName
  00079	59		 pop	 ecx
  0007a	89 85 e0 f7 ff
	ff		 mov	 DWORD PTR _pwszCategoryName$[ebp], eax

; 159  : 		if (pwszCategoryName != nullptr)

  00080	83 bd e0 f7 ff
	ff 00		 cmp	 DWORD PTR _pwszCategoryName$[ebp], 0
  00087	74 35		 je	 SHORT $LN4@TraceV

; 160  : 		{
; 161  : 			if ((categoryLength = swprintf_s(wszCategory, TraceBufferSize, L"%ls - ", pwszCategoryName)) == -1)

  00089	ff b5 e0 f7 ff
	ff		 push	 DWORD PTR _pwszCategoryName$[ebp]
  0008f	68 00 00 00 00	 push	 OFFSET ??_C@_1O@LFNDFEBP@?$AA?$CF?$AAl?$AAs?$AA?5?$AA?9?$AA?5@
  00094	68 00 04 00 00	 push	 1024			; 00000400H
  00099	8d 85 f8 f7 ff
	ff		 lea	 eax, DWORD PTR _wszCategory$[ebp]
  0009f	50		 push	 eax
  000a0	e8 00 00 00 00	 call	 _swprintf_s
  000a5	83 c4 10	 add	 esp, 16			; 00000010H
  000a8	89 85 ec f7 ff
	ff		 mov	 DWORD PTR _categoryLength$[ebp], eax
  000ae	83 bd ec f7 ff
	ff ff		 cmp	 DWORD PTR _categoryLength$[ebp], -1
  000b5	75 05		 jne	 SHORT $LN6@TraceV

; 162  : 			{
; 163  : 				return;

  000b7	e9 53 01 00 00	 jmp	 $LN1@TraceV
$LN6@TraceV:

; 164  : 			}
; 165  : 		}

  000bc	eb 30		 jmp	 SHORT $LN5@TraceV
$LN4@TraceV:

; 166  : 		else
; 167  : 		{
; 168  : 			if ((categoryLength = swprintf_s(wszCategory, TraceBufferSize, L"%u - ", dwCategory)) == -1)

  000be	ff 75 10	 push	 DWORD PTR _dwCategory$[ebp]
  000c1	68 00 00 00 00	 push	 OFFSET ??_C@_1M@PGKOAACE@?$AA?$CF?$AAu?$AA?5?$AA?9?$AA?5@
  000c6	68 00 04 00 00	 push	 1024			; 00000400H
  000cb	8d 85 f8 f7 ff
	ff		 lea	 eax, DWORD PTR _wszCategory$[ebp]
  000d1	50		 push	 eax
  000d2	e8 00 00 00 00	 call	 _swprintf_s
  000d7	83 c4 10	 add	 esp, 16			; 00000010H
  000da	89 85 ec f7 ff
	ff		 mov	 DWORD PTR _categoryLength$[ebp], eax
  000e0	83 bd ec f7 ff
	ff ff		 cmp	 DWORD PTR _categoryLength$[ebp], -1
  000e7	75 05		 jne	 SHORT $LN5@TraceV

; 169  : 			{
; 170  : 				return;

  000e9	e9 21 01 00 00	 jmp	 $LN1@TraceV
$LN5@TraceV:

; 171  : 			}
; 172  : 		}
; 173  : 
; 174  : 		int chCount = (int)wcslen(pwszMessage) + categoryLength + 1;

  000ee	ff 75 18	 push	 DWORD PTR _pwszMessage$[ebp]
  000f1	e8 00 00 00 00	 call	 _wcslen
  000f6	59		 pop	 ecx
  000f7	8b 8d ec f7 ff
	ff		 mov	 ecx, DWORD PTR _categoryLength$[ebp]
  000fd	8d 44 08 01	 lea	 eax, DWORD PTR [eax+ecx+1]
  00101	89 85 d4 f7 ff
	ff		 mov	 DWORD PTR _chCount$[ebp], eax

; 175  : 		CHeapPtr<wchar_t> wszBuf;

  00107	6a 04		 push	 4
  00109	8d 8d c8 f7 ff
	ff		 lea	 ecx, DWORD PTR _wszBuf$[ebp]
  0010f	e8 00 00 00 00	 call	 ?__autoclassinit2@?$CHeapPtr@_WVCCRTAllocator@ATL@@@ATL@@QAEXI@Z
  00114	8d 8d c8 f7 ff
	ff		 lea	 ecx, DWORD PTR _wszBuf$[ebp]
  0011a	e8 00 00 00 00	 call	 ??0?$CHeapPtr@_WVCCRTAllocator@ATL@@@ATL@@QAE@XZ ; ATL::CHeapPtr<wchar_t,ATL::CCRTAllocator>::CHeapPtr<wchar_t,ATL::CCRTAllocator>

; 176  : 		if (!wszBuf.Allocate(chCount))

  0011f	ff b5 d4 f7 ff
	ff		 push	 DWORD PTR _chCount$[ebp]
  00125	8d 8d c8 f7 ff
	ff		 lea	 ecx, DWORD PTR _wszBuf$[ebp]
  0012b	e8 00 00 00 00	 call	 ?Allocate@?$CHeapPtr@_WVCCRTAllocator@ATL@@@ATL@@QAE_NI@Z ; ATL::CHeapPtr<wchar_t,ATL::CCRTAllocator>::Allocate
  00130	0f b6 c0	 movzx	 eax, al
  00133	85 c0		 test	 eax, eax
  00135	75 10		 jne	 SHORT $LN8@TraceV

; 177  : 		{
; 178  : 			return;

  00137	8d 8d c8 f7 ff
	ff		 lea	 ecx, DWORD PTR _wszBuf$[ebp]
  0013d	e8 00 00 00 00	 call	 ??1?$CHeapPtr@_WVCCRTAllocator@ATL@@@ATL@@QAE@XZ
  00142	e9 c8 00 00 00	 jmp	 $LN1@TraceV
$LN8@TraceV:

; 179  : 		}
; 180  : 
; 181  : 		wszBuf[0] = '\0';

  00147	8d 8d c8 f7 ff
	ff		 lea	 ecx, DWORD PTR _wszBuf$[ebp]
  0014d	e8 00 00 00 00	 call	 ??B?$CHeapPtrBase@_WVCCRTAllocator@ATL@@@ATL@@QBEPA_WXZ ; ATL::CHeapPtrBase<wchar_t,ATL::CCRTAllocator>::operator wchar_t *
  00152	6a 02		 push	 2
  00154	59		 pop	 ecx
  00155	6b c9 00	 imul	 ecx, ecx, 0
  00158	33 d2		 xor	 edx, edx
  0015a	66 89 14 08	 mov	 WORD PTR [eax+ecx], dx

; 182  : 
; 183  : 		if (swprintf_s(wszBuf, chCount, L"%ls%ls", wszCategory, pwszMessage) == -1)

  0015e	ff 75 18	 push	 DWORD PTR _pwszMessage$[ebp]
  00161	8d 85 f8 f7 ff
	ff		 lea	 eax, DWORD PTR _wszCategory$[ebp]
  00167	50		 push	 eax
  00168	68 00 00 00 00	 push	 OFFSET ??_C@_1O@OAIPCDPO@?$AA?$CF?$AAl?$AAs?$AA?$CF?$AAl?$AAs@
  0016d	ff b5 d4 f7 ff
	ff		 push	 DWORD PTR _chCount$[ebp]
  00173	8d 8d c8 f7 ff
	ff		 lea	 ecx, DWORD PTR _wszBuf$[ebp]
  00179	e8 00 00 00 00	 call	 ??B?$CHeapPtrBase@_WVCCRTAllocator@ATL@@@ATL@@QBEPA_WXZ ; ATL::CHeapPtrBase<wchar_t,ATL::CCRTAllocator>::operator wchar_t *
  0017e	50		 push	 eax
  0017f	e8 00 00 00 00	 call	 _swprintf_s
  00184	83 c4 14	 add	 esp, 20			; 00000014H
  00187	83 f8 ff	 cmp	 eax, -1
  0018a	75 0d		 jne	 SHORT $LN9@TraceV

; 184  : 		{
; 185  : 			return;

  0018c	8d 8d c8 f7 ff
	ff		 lea	 ecx, DWORD PTR _wszBuf$[ebp]
  00192	e8 00 00 00 00	 call	 ??1?$CHeapPtr@_WVCCRTAllocator@ATL@@@ATL@@QAE@XZ
  00197	eb 76		 jmp	 SHORT $LN1@TraceV
$LN9@TraceV:

; 186  : 		}
; 187  : 
; 188  : 		wchar_t fileName[_MAX_PATH] = {'\0'};	

  00199	68 08 02 00 00	 push	 520			; 00000208H
  0019e	6a 00		 push	 0
  001a0	8d 85 b8 f5 ff
	ff		 lea	 eax, DWORD PTR _fileName$[ebp]
  001a6	50		 push	 eax
  001a7	e8 00 00 00 00	 call	 _memset
  001ac	83 c4 0c	 add	 esp, 12			; 0000000cH

; 189  : #if _MSC_VER < 1900
; 190  : 		if (swprintf_s(fileName, _MAX_PATH, L"%S", pszFileName) == -1)
; 191  : #else
; 192  : 		if (swprintf_s(fileName, _MAX_PATH, L"%hs", pszFileName) == -1)

  001af	ff 75 08	 push	 DWORD PTR _pszFileName$[ebp]
  001b2	68 00 00 00 00	 push	 OFFSET ??_C@_17LGGGMOOB@?$AA?$CF?$AAh?$AAs@
  001b7	68 04 01 00 00	 push	 260			; 00000104H
  001bc	8d 85 b8 f5 ff
	ff		 lea	 eax, DWORD PTR _fileName$[ebp]
  001c2	50		 push	 eax
  001c3	e8 00 00 00 00	 call	 _swprintf_s
  001c8	83 c4 10	 add	 esp, 16			; 00000010H
  001cb	83 f8 ff	 cmp	 eax, -1
  001ce	75 0d		 jne	 SHORT $LN10@TraceV

; 193  : #endif
; 194  : 		{
; 195  : 			return;

  001d0	8d 8d c8 f7 ff
	ff		 lea	 ecx, DWORD PTR _wszBuf$[ebp]
  001d6	e8 00 00 00 00	 call	 ??1?$CHeapPtr@_WVCCRTAllocator@ATL@@@ATL@@QAE@XZ
  001db	eb 32		 jmp	 SHORT $LN1@TraceV
$LN10@TraceV:

; 196  : 		}
; 197  : 
; 198  : 		_CrtDbgReportW(_CRT_WARN, fileName, nLine, nullptr, L"%ls", static_cast<const wchar_t*>(wszBuf));

  001dd	8d 8d c8 f7 ff
	ff		 lea	 ecx, DWORD PTR _wszBuf$[ebp]
  001e3	e8 00 00 00 00	 call	 ??B?$CHeapPtrBase@_WVCCRTAllocator@ATL@@@ATL@@QBEPA_WXZ ; ATL::CHeapPtrBase<wchar_t,ATL::CCRTAllocator>::operator wchar_t *
  001e8	50		 push	 eax
  001e9	68 00 00 00 00	 push	 OFFSET ??_C@_17CNPHIMPH@?$AA?$CF?$AAl?$AAs@
  001ee	6a 00		 push	 0
  001f0	ff 75 0c	 push	 DWORD PTR _nLine$[ebp]
  001f3	8d 85 b8 f5 ff
	ff		 lea	 eax, DWORD PTR _fileName$[ebp]
  001f9	50		 push	 eax
  001fa	6a 00		 push	 0
  001fc	e8 00 00 00 00	 call	 __CrtDbgReportW
  00201	83 c4 18	 add	 esp, 24			; 00000018H

; 199  : 	}

  00204	8d 8d c8 f7 ff
	ff		 lea	 ecx, DWORD PTR _wszBuf$[ebp]
  0020a	e8 00 00 00 00	 call	 ??1?$CHeapPtr@_WVCCRTAllocator@ATL@@@ATL@@QAE@XZ
$LN1@TraceV:
  0020f	52		 push	 edx
  00210	8b cd		 mov	 ecx, ebp
  00212	50		 push	 eax
  00213	8d 15 00 00 00
	00		 lea	 edx, DWORD PTR $LN17@TraceV
  00219	e8 00 00 00 00	 call	 @_RTC_CheckStackVars@8
  0021e	58		 pop	 eax
  0021f	5a		 pop	 edx
  00220	5f		 pop	 edi
  00221	5e		 pop	 esi
  00222	5b		 pop	 ebx
  00223	8b 4d fc	 mov	 ecx, DWORD PTR __$ArrayPad$[ebp]
  00226	33 cd		 xor	 ecx, ebp
  00228	e8 00 00 00 00	 call	 @__security_check_cookie@4
  0022d	81 c4 cc 0e 00
	00		 add	 esp, 3788		; 00000eccH
  00233	3b ec		 cmp	 ebp, esp
  00235	e8 00 00 00 00	 call	 __RTC_CheckEsp
  0023a	c9		 leave
  0023b	c3		 ret	 0
$LN17@TraceV:
  0023c	03 00 00 00	 DD	 3
  00240	00 00 00 00	 DD	 $LN16@TraceV
$LN16@TraceV:
  00244	f8 f7 ff ff	 DD	 -2056			; fffff7f8H
  00248	00 08 00 00	 DD	 2048			; 00000800H
  0024c	00 00 00 00	 DD	 $LN13@TraceV
  00250	c8 f7 ff ff	 DD	 -2104			; fffff7c8H
  00254	04 00 00 00	 DD	 4
  00258	00 00 00 00	 DD	 $LN14@TraceV
  0025c	b8 f5 ff ff	 DD	 -2632			; fffff5b8H
  00260	08 02 00 00	 DD	 520			; 00000208H
  00264	00 00 00 00	 DD	 $LN15@TraceV
$LN15@TraceV:
  00268	66		 DB	 102			; 00000066H
  00269	69		 DB	 105			; 00000069H
  0026a	6c		 DB	 108			; 0000006cH
  0026b	65		 DB	 101			; 00000065H
  0026c	4e		 DB	 78			; 0000004eH
  0026d	61		 DB	 97			; 00000061H
  0026e	6d		 DB	 109			; 0000006dH
  0026f	65		 DB	 101			; 00000065H
  00270	00		 DB	 0
$LN14@TraceV:
  00271	77		 DB	 119			; 00000077H
  00272	73		 DB	 115			; 00000073H
  00273	7a		 DB	 122			; 0000007aH
  00274	42		 DB	 66			; 00000042H
  00275	75		 DB	 117			; 00000075H
  00276	66		 DB	 102			; 00000066H
  00277	00		 DB	 0
$LN13@TraceV:
  00278	77		 DB	 119			; 00000077H
  00279	73		 DB	 115			; 00000073H
  0027a	7a		 DB	 122			; 0000007aH
  0027b	43		 DB	 67			; 00000043H
  0027c	61		 DB	 97			; 00000061H
  0027d	74		 DB	 116			; 00000074H
  0027e	65		 DB	 101			; 00000065H
  0027f	67		 DB	 103			; 00000067H
  00280	6f		 DB	 111			; 0000006fH
  00281	72		 DB	 114			; 00000072H
  00282	79		 DB	 121			; 00000079H
  00283	00		 DB	 0
?TraceV@CTrace@ATL@@CAXPBDHIIPB_W@Z ENDP		; ATL::CTrace::TraceV
_TEXT	ENDS
; Function compile flags: /Odsp /RTCsu /ZI
; File C:\Program Files\Microsoft Visual Studio\2022\Enterprise\VC\Tools\MSVC\14.34.31933\atlmfc\include\atltrace.h
;	COMDAT ?GetCategoryName@CTrace@ATL@@CAPA_WI@Z
_TEXT	SEGMENT
_i$1 = -8						; size = 4
_nCategory$ = 8						; size = 4
?GetCategoryName@CTrace@ATL@@CAPA_WI@Z PROC		; ATL::CTrace::GetCategoryName, COMDAT

; 132  : 	{

  00000	55		 push	 ebp
  00001	8b ec		 mov	 ebp, esp
  00003	81 ec cc 00 00
	00		 sub	 esp, 204		; 000000ccH
  00009	53		 push	 ebx
  0000a	56		 push	 esi
  0000b	57		 push	 edi
  0000c	8d 7d f4	 lea	 edi, DWORD PTR [ebp-12]
  0000f	6a 03		 push	 3
  00011	59		 pop	 ecx
  00012	b8 cc cc cc cc	 mov	 eax, -858993460		; ccccccccH
  00017	f3 ab		 rep stosd
  00019	b9 00 00 00 00	 mov	 ecx, OFFSET __63F83F46_atltrace@h
  0001e	e8 00 00 00 00	 call	 @__CheckForDebuggerJustMyCode@4

; 133  : 		for(unsigned int i = 0; i < m_nLastCategory; i++) 

  00023	83 65 f8 00	 and	 DWORD PTR _i$1[ebp], 0
  00027	eb 07		 jmp	 SHORT $LN4@GetCategor
$LN2@GetCategor:
  00029	8b 45 f8	 mov	 eax, DWORD PTR _i$1[ebp]
  0002c	40		 inc	 eax
  0002d	89 45 f8	 mov	 DWORD PTR _i$1[ebp], eax
$LN4@GetCategor:
  00030	8b 45 f8	 mov	 eax, DWORD PTR _i$1[ebp]
  00033	3b 05 00 00 00
	00		 cmp	 eax, DWORD PTR ?m_nLastCategory@CTrace@ATL@@1IA ; ATL::CTrace::m_nLastCategory
  00039	73 22		 jae	 SHORT $LN3@GetCategor

; 134  : 		{
; 135  : 			if (m_nMap[i].nCategory == nCategory)

  0003b	69 45 f8 04 01
	00 00		 imul	 eax, DWORD PTR _i$1[ebp], 260
  00042	8b 80 00 00 00
	00		 mov	 eax, DWORD PTR ?m_nMap@CTrace@ATL@@1PAUCategoryMap@12@A[eax]
  00048	3b 45 08	 cmp	 eax, DWORD PTR _nCategory$[ebp]
  0004b	75 0e		 jne	 SHORT $LN5@GetCategor

; 136  : 			{
; 137  : 				return m_nMap[i].categryName;

  0004d	69 45 f8 04 01
	00 00		 imul	 eax, DWORD PTR _i$1[ebp], 260
  00054	05 04 00 00 00	 add	 eax, OFFSET ?m_nMap@CTrace@ATL@@1PAUCategoryMap@12@A+4
  00059	eb 04		 jmp	 SHORT $LN1@GetCategor
$LN5@GetCategor:

; 138  : 			}
; 139  : 		}

  0005b	eb cc		 jmp	 SHORT $LN2@GetCategor
$LN3@GetCategor:

; 140  : 
; 141  : 		return nullptr;

  0005d	33 c0		 xor	 eax, eax
$LN1@GetCategor:

; 142  : 	}

  0005f	5f		 pop	 edi
  00060	5e		 pop	 esi
  00061	5b		 pop	 ebx
  00062	81 c4 cc 00 00
	00		 add	 esp, 204		; 000000ccH
  00068	3b ec		 cmp	 ebp, esp
  0006a	e8 00 00 00 00	 call	 __RTC_CheckEsp
  0006f	c9		 leave
  00070	c3		 ret	 0
?GetCategoryName@CTrace@ATL@@CAPA_WI@Z ENDP		; ATL::CTrace::GetCategoryName
_TEXT	ENDS
; Function compile flags: /Odsp /RTCsu /ZI
; File C:\Program Files\Microsoft Visual Studio\2022\Enterprise\VC\Tools\MSVC\14.34.31933\atlmfc\include\atltrace.h
;	COMDAT ??__EatlTraceString@ATL@@YAXXZ
text$di	SEGMENT
??__EatlTraceString@ATL@@YAXXZ PROC			; ATL::`dynamic initializer for 'atlTraceString'', COMDAT

; 114  : __declspec(selectany) CTraceCategoryEx<CTraceCategoryEx<>::TraceString> atlTraceString(_T("atlTraceString"));

  00000	55		 push	 ebp
  00001	8b ec		 mov	 ebp, esp
  00003	81 ec c0 00 00
	00		 sub	 esp, 192		; 000000c0H
  00009	53		 push	 ebx
  0000a	56		 push	 esi
  0000b	57		 push	 edi
  0000c	8b fd		 mov	 edi, ebp
  0000e	33 c9		 xor	 ecx, ecx
  00010	b8 cc cc cc cc	 mov	 eax, -858993460		; ccccccccH
  00015	f3 ab		 rep stosd
  00017	b9 00 00 00 00	 mov	 ecx, OFFSET __63F83F46_atltrace@h
  0001c	e8 00 00 00 00	 call	 @__CheckForDebuggerJustMyCode@4
  00021	68 00 00 00 00	 push	 OFFSET ??_C@_1BO@GMLILNDJ@?$AAa?$AAt?$AAl?$AAT?$AAr?$AAa?$AAc?$AAe?$AAS?$AAt?$AAr?$AAi?$AAn?$AAg@
  00026	b9 00 00 00 00	 mov	 ecx, OFFSET ?atlTraceString@ATL@@3V?$CTraceCategoryEx@$0CAAAA@$0A@@1@A ; ATL::atlTraceString
  0002b	e8 00 00 00 00	 call	 ??0?$CTraceCategoryEx@$0CAAAA@$0A@@ATL@@QAE@PB_W@Z ; ATL::CTraceCategoryEx<131072,0>::CTraceCategoryEx<131072,0>
  00030	5f		 pop	 edi
  00031	5e		 pop	 esi
  00032	5b		 pop	 ebx
  00033	81 c4 c0 00 00
	00		 add	 esp, 192		; 000000c0H
  00039	3b ec		 cmp	 ebp, esp
  0003b	e8 00 00 00 00	 call	 __RTC_CheckEsp
  00040	c9		 leave
  00041	c3		 ret	 0
??__EatlTraceString@ATL@@YAXXZ ENDP			; ATL::`dynamic initializer for 'atlTraceString''
text$di	ENDS
; Function compile flags: /Odsp /RTCsu /ZI
; File C:\Program Files\Microsoft Visual Studio\2022\Enterprise\VC\Tools\MSVC\14.34.31933\atlmfc\include\atltrace.h
;	COMDAT ??B?$CTraceCategoryEx@$0CAAAA@$0A@@ATL@@QAEIXZ
_TEXT	SEGMENT
_this$ = -8						; size = 4
??B?$CTraceCategoryEx@$0CAAAA@$0A@@ATL@@QAEIXZ PROC	; ATL::CTraceCategoryEx<131072,0>::operator unsigned int, COMDAT
; _this$ = ecx

; 79   : 	{

  00000	55		 push	 ebp
  00001	8b ec		 mov	 ebp, esp
  00003	81 ec cc 00 00
	00		 sub	 esp, 204		; 000000ccH
  00009	53		 push	 ebx
  0000a	56		 push	 esi
  0000b	57		 push	 edi
  0000c	51		 push	 ecx
  0000d	8d 7d f4	 lea	 edi, DWORD PTR [ebp-12]
  00010	6a 03		 push	 3
  00012	59		 pop	 ecx
  00013	b8 cc cc cc cc	 mov	 eax, -858993460		; ccccccccH
  00018	f3 ab		 rep stosd
  0001a	59		 pop	 ecx
  0001b	89 4d f8	 mov	 DWORD PTR _this$[ebp], ecx
  0001e	b9 00 00 00 00	 mov	 ecx, OFFSET __63F83F46_atltrace@h
  00023	e8 00 00 00 00	 call	 @__CheckForDebuggerJustMyCode@4

; 80   : #ifdef _DEBUG
; 81   : 		return traceCategory;

  00028	b8 00 00 02 00	 mov	 eax, 131072		; 00020000H

; 82   : #else
; 83   : 		return 0;
; 84   : #endif
; 85   : 	}

  0002d	5f		 pop	 edi
  0002e	5e		 pop	 esi
  0002f	5b		 pop	 ebx
  00030	81 c4 cc 00 00
	00		 add	 esp, 204		; 000000ccH
  00036	3b ec		 cmp	 ebp, esp
  00038	e8 00 00 00 00	 call	 __RTC_CheckEsp
  0003d	c9		 leave
  0003e	c3		 ret	 0
??B?$CTraceCategoryEx@$0CAAAA@$0A@@ATL@@QAEIXZ ENDP	; ATL::CTraceCategoryEx<131072,0>::operator unsigned int
_TEXT	ENDS
; Function compile flags: /Odsp /RTCsu /ZI
; File C:\Program Files\Microsoft Visual Studio\2022\Enterprise\VC\Tools\MSVC\14.34.31933\atlmfc\include\atltrace.h
;	COMDAT ??0?$CTraceCategoryEx@$0CAAAA@$0A@@ATL@@QAE@PB_W@Z
_TEXT	SEGMENT
_this$ = -8						; size = 4
_pszCategoryName$ = 8					; size = 4
??0?$CTraceCategoryEx@$0CAAAA@$0A@@ATL@@QAE@PB_W@Z PROC	; ATL::CTraceCategoryEx<131072,0>::CTraceCategoryEx<131072,0>, COMDAT
; _this$ = ecx

; 480  : {

  00000	55		 push	 ebp
  00001	8b ec		 mov	 ebp, esp
  00003	81 ec cc 00 00
	00		 sub	 esp, 204		; 000000ccH
  00009	53		 push	 ebx
  0000a	56		 push	 esi
  0000b	57		 push	 edi
  0000c	51		 push	 ecx
  0000d	8d 7d f4	 lea	 edi, DWORD PTR [ebp-12]
  00010	6a 03		 push	 3
  00012	59		 pop	 ecx
  00013	b8 cc cc cc cc	 mov	 eax, -858993460		; ccccccccH
  00018	f3 ab		 rep stosd
  0001a	59		 pop	 ecx
  0001b	89 4d f8	 mov	 DWORD PTR _this$[ebp], ecx
  0001e	b9 00 00 00 00	 mov	 ecx, OFFSET __63F83F46_atltrace@h
  00023	e8 00 00 00 00	 call	 @__CheckForDebuggerJustMyCode@4

; 481  : 	CTrace::RegisterCategory(pszCategoryName, traceCategory);

  00028	68 00 00 02 00	 push	 131072			; 00020000H
  0002d	ff 75 08	 push	 DWORD PTR _pszCategoryName$[ebp]
  00030	e8 00 00 00 00	 call	 ?RegisterCategory@CTrace@ATL@@SAXPB_WI@Z ; ATL::CTrace::RegisterCategory
  00035	59		 pop	 ecx
  00036	59		 pop	 ecx

; 482  : }

  00037	8b 45 f8	 mov	 eax, DWORD PTR _this$[ebp]
  0003a	5f		 pop	 edi
  0003b	5e		 pop	 esi
  0003c	5b		 pop	 ebx
  0003d	81 c4 cc 00 00
	00		 add	 esp, 204		; 000000ccH
  00043	3b ec		 cmp	 ebp, esp
  00045	e8 00 00 00 00	 call	 __RTC_CheckEsp
  0004a	c9		 leave
  0004b	c2 04 00	 ret	 4
??0?$CTraceCategoryEx@$0CAAAA@$0A@@ATL@@QAE@PB_W@Z ENDP	; ATL::CTraceCategoryEx<131072,0>::CTraceCategoryEx<131072,0>
_TEXT	ENDS
; Function compile flags: /Odsp /RTCsu /ZI
; File C:\Program Files\Microsoft Visual Studio\2022\Enterprise\VC\Tools\MSVC\14.34.31933\atlmfc\include\atltrace.h
;	COMDAT ??__EatlTraceException@ATL@@YAXXZ
text$di	SEGMENT
??__EatlTraceException@ATL@@YAXXZ PROC			; ATL::`dynamic initializer for 'atlTraceException'', COMDAT

; 110  : __declspec(selectany) CTraceCategoryEx<CTraceCategoryEx<>::TraceException> atlTraceException(_T("atlTraceException"));

  00000	55		 push	 ebp
  00001	8b ec		 mov	 ebp, esp
  00003	81 ec c0 00 00
	00		 sub	 esp, 192		; 000000c0H
  00009	53		 push	 ebx
  0000a	56		 push	 esi
  0000b	57		 push	 edi
  0000c	8b fd		 mov	 edi, ebp
  0000e	33 c9		 xor	 ecx, ecx
  00010	b8 cc cc cc cc	 mov	 eax, -858993460		; ccccccccH
  00015	f3 ab		 rep stosd
  00017	b9 00 00 00 00	 mov	 ecx, OFFSET __63F83F46_atltrace@h
  0001c	e8 00 00 00 00	 call	 @__CheckForDebuggerJustMyCode@4
  00021	68 00 00 00 00	 push	 OFFSET ??_C@_1CE@IMMADNAP@?$AAa?$AAt?$AAl?$AAT?$AAr?$AAa?$AAc?$AAe?$AAE?$AAx?$AAc?$AAe?$AAp?$AAt?$AAi@
  00026	b9 00 00 00 00	 mov	 ecx, OFFSET ?atlTraceException@ATL@@3V?$CTraceCategoryEx@$0CAAA@$0A@@1@A ; ATL::atlTraceException
  0002b	e8 00 00 00 00	 call	 ??0?$CTraceCategoryEx@$0CAAA@$0A@@ATL@@QAE@PB_W@Z ; ATL::CTraceCategoryEx<8192,0>::CTraceCategoryEx<8192,0>
  00030	5f		 pop	 edi
  00031	5e		 pop	 esi
  00032	5b		 pop	 ebx
  00033	81 c4 c0 00 00
	00		 add	 esp, 192		; 000000c0H
  00039	3b ec		 cmp	 ebp, esp
  0003b	e8 00 00 00 00	 call	 __RTC_CheckEsp
  00040	c9		 leave
  00041	c3		 ret	 0
??__EatlTraceException@ATL@@YAXXZ ENDP			; ATL::`dynamic initializer for 'atlTraceException''
text$di	ENDS
; Function compile flags: /Odsp /RTCsu /ZI
; File C:\Program Files\Microsoft Visual Studio\2022\Enterprise\VC\Tools\MSVC\14.34.31933\atlmfc\include\atltrace.h
;	COMDAT ??B?$CTraceCategoryEx@$0CAAA@$0A@@ATL@@QAEIXZ
_TEXT	SEGMENT
_this$ = -8						; size = 4
??B?$CTraceCategoryEx@$0CAAA@$0A@@ATL@@QAEIXZ PROC	; ATL::CTraceCategoryEx<8192,0>::operator unsigned int, COMDAT
; _this$ = ecx

; 79   : 	{

  00000	55		 push	 ebp
  00001	8b ec		 mov	 ebp, esp
  00003	81 ec cc 00 00
	00		 sub	 esp, 204		; 000000ccH
  00009	53		 push	 ebx
  0000a	56		 push	 esi
  0000b	57		 push	 edi
  0000c	51		 push	 ecx
  0000d	8d 7d f4	 lea	 edi, DWORD PTR [ebp-12]
  00010	6a 03		 push	 3
  00012	59		 pop	 ecx
  00013	b8 cc cc cc cc	 mov	 eax, -858993460		; ccccccccH
  00018	f3 ab		 rep stosd
  0001a	59		 pop	 ecx
  0001b	89 4d f8	 mov	 DWORD PTR _this$[ebp], ecx
  0001e	b9 00 00 00 00	 mov	 ecx, OFFSET __63F83F46_atltrace@h
  00023	e8 00 00 00 00	 call	 @__CheckForDebuggerJustMyCode@4

; 80   : #ifdef _DEBUG
; 81   : 		return traceCategory;

  00028	b8 00 20 00 00	 mov	 eax, 8192		; 00002000H

; 82   : #else
; 83   : 		return 0;
; 84   : #endif
; 85   : 	}

  0002d	5f		 pop	 edi
  0002e	5e		 pop	 esi
  0002f	5b		 pop	 ebx
  00030	81 c4 cc 00 00
	00		 add	 esp, 204		; 000000ccH
  00036	3b ec		 cmp	 ebp, esp
  00038	e8 00 00 00 00	 call	 __RTC_CheckEsp
  0003d	c9		 leave
  0003e	c3		 ret	 0
??B?$CTraceCategoryEx@$0CAAA@$0A@@ATL@@QAEIXZ ENDP	; ATL::CTraceCategoryEx<8192,0>::operator unsigned int
_TEXT	ENDS
; Function compile flags: /Odsp /RTCsu /ZI
; File C:\Program Files\Microsoft Visual Studio\2022\Enterprise\VC\Tools\MSVC\14.34.31933\atlmfc\include\atltrace.h
;	COMDAT ??0?$CTraceCategoryEx@$0CAAA@$0A@@ATL@@QAE@PB_W@Z
_TEXT	SEGMENT
_this$ = -8						; size = 4
_pszCategoryName$ = 8					; size = 4
??0?$CTraceCategoryEx@$0CAAA@$0A@@ATL@@QAE@PB_W@Z PROC	; ATL::CTraceCategoryEx<8192,0>::CTraceCategoryEx<8192,0>, COMDAT
; _this$ = ecx

; 480  : {

  00000	55		 push	 ebp
  00001	8b ec		 mov	 ebp, esp
  00003	81 ec cc 00 00
	00		 sub	 esp, 204		; 000000ccH
  00009	53		 push	 ebx
  0000a	56		 push	 esi
  0000b	57		 push	 edi
  0000c	51		 push	 ecx
  0000d	8d 7d f4	 lea	 edi, DWORD PTR [ebp-12]
  00010	6a 03		 push	 3
  00012	59		 pop	 ecx
  00013	b8 cc cc cc cc	 mov	 eax, -858993460		; ccccccccH
  00018	f3 ab		 rep stosd
  0001a	59		 pop	 ecx
  0001b	89 4d f8	 mov	 DWORD PTR _this$[ebp], ecx
  0001e	b9 00 00 00 00	 mov	 ecx, OFFSET __63F83F46_atltrace@h
  00023	e8 00 00 00 00	 call	 @__CheckForDebuggerJustMyCode@4

; 481  : 	CTrace::RegisterCategory(pszCategoryName, traceCategory);

  00028	68 00 20 00 00	 push	 8192			; 00002000H
  0002d	ff 75 08	 push	 DWORD PTR _pszCategoryName$[ebp]
  00030	e8 00 00 00 00	 call	 ?RegisterCategory@CTrace@ATL@@SAXPB_WI@Z ; ATL::CTrace::RegisterCategory
  00035	59		 pop	 ecx
  00036	59		 pop	 ecx

; 482  : }

  00037	8b 45 f8	 mov	 eax, DWORD PTR _this$[ebp]
  0003a	5f		 pop	 edi
  0003b	5e		 pop	 esi
  0003c	5b		 pop	 ebx
  0003d	81 c4 cc 00 00
	00		 add	 esp, 204		; 000000ccH
  00043	3b ec		 cmp	 ebp, esp
  00045	e8 00 00 00 00	 call	 __RTC_CheckEsp
  0004a	c9		 leave
  0004b	c2 04 00	 ret	 4
??0?$CTraceCategoryEx@$0CAAA@$0A@@ATL@@QAE@PB_W@Z ENDP	; ATL::CTraceCategoryEx<8192,0>::CTraceCategoryEx<8192,0>
_TEXT	ENDS
; Function compile flags: /Odsp /RTCsu /ZI
; File C:\Program Files\Microsoft Visual Studio\2022\Enterprise\VC\Tools\MSVC\14.34.31933\atlmfc\include\atlconv.h
;	COMDAT ?_AtlGetConversionACP@ATL@@YGIXZ
_TEXT	SEGMENT
?_AtlGetConversionACP@ATL@@YGIXZ PROC			; ATL::_AtlGetConversionACP, COMDAT

; 98   : {

  00000	55		 push	 ebp
  00001	8b ec		 mov	 ebp, esp
  00003	81 ec c0 00 00
	00		 sub	 esp, 192		; 000000c0H
  00009	53		 push	 ebx
  0000a	56		 push	 esi
  0000b	57		 push	 edi
  0000c	8b fd		 mov	 edi, ebp
  0000e	33 c9		 xor	 ecx, ecx
  00010	b8 cc cc cc cc	 mov	 eax, -858993460		; ccccccccH
  00015	f3 ab		 rep stosd
  00017	b9 00 00 00 00	 mov	 ecx, OFFSET __B64CFDC3_atlconv@h
  0001c	e8 00 00 00 00	 call	 @__CheckForDebuggerJustMyCode@4

; 99   : #ifdef _CONVERSION_DONT_USE_THREAD_LOCALE
; 100  : 	return CP_ACP;
; 101  : #else
; 102  : 	return CP_THREAD_ACP;

  00021	6a 03		 push	 3
  00023	58		 pop	 eax

; 103  : #endif
; 104  : }

  00024	5f		 pop	 edi
  00025	5e		 pop	 esi
  00026	5b		 pop	 ebx
  00027	81 c4 c0 00 00
	00		 add	 esp, 192		; 000000c0H
  0002d	3b ec		 cmp	 ebp, esp
  0002f	e8 00 00 00 00	 call	 __RTC_CheckEsp
  00034	c9		 leave
  00035	c3		 ret	 0
?_AtlGetConversionACP@ATL@@YGIXZ ENDP			; ATL::_AtlGetConversionACP
_TEXT	ENDS
; Function compile flags: /Odsp /RTCsu /ZI
; File C:\Program Files\Microsoft Visual Studio\2022\Enterprise\VC\Tools\MSVC\14.34.31933\atlmfc\include\atlalloc.h
;	COMDAT ?Free@CCRTAllocator@ATL@@SAXPAX@Z
_TEXT	SEGMENT
_p$ = 8							; size = 4
?Free@CCRTAllocator@ATL@@SAXPAX@Z PROC			; ATL::CCRTAllocator::Free, COMDAT

; 267  : 	{

  00000	55		 push	 ebp
  00001	8b ec		 mov	 ebp, esp
  00003	81 ec c0 00 00
	00		 sub	 esp, 192		; 000000c0H
  00009	53		 push	 ebx
  0000a	56		 push	 esi
  0000b	57		 push	 edi
  0000c	8b fd		 mov	 edi, ebp
  0000e	33 c9		 xor	 ecx, ecx
  00010	b8 cc cc cc cc	 mov	 eax, -858993460		; ccccccccH
  00015	f3 ab		 rep stosd
  00017	b9 00 00 00 00	 mov	 ecx, OFFSET __D909E87F_atlalloc@h
  0001c	e8 00 00 00 00	 call	 @__CheckForDebuggerJustMyCode@4

; 268  : 		free(p);

  00021	ff 75 08	 push	 DWORD PTR _p$[ebp]
  00024	e8 00 00 00 00	 call	 _free
  00029	59		 pop	 ecx

; 269  : 	}

  0002a	5f		 pop	 edi
  0002b	5e		 pop	 esi
  0002c	5b		 pop	 ebx
  0002d	81 c4 c0 00 00
	00		 add	 esp, 192		; 000000c0H
  00033	3b ec		 cmp	 ebp, esp
  00035	e8 00 00 00 00	 call	 __RTC_CheckEsp
  0003a	c9		 leave
  0003b	c3		 ret	 0
?Free@CCRTAllocator@ATL@@SAXPAX@Z ENDP			; ATL::CCRTAllocator::Free
_TEXT	ENDS
; Function compile flags: /Odsp /RTCsu /ZI
; File C:\Program Files\Microsoft Visual Studio\2022\Enterprise\VC\Tools\MSVC\14.34.31933\atlmfc\include\atlalloc.h
;	COMDAT ?Allocate@CCRTAllocator@ATL@@SAPAXI@Z
_TEXT	SEGMENT
_nBytes$ = 8						; size = 4
?Allocate@CCRTAllocator@ATL@@SAPAXI@Z PROC		; ATL::CCRTAllocator::Allocate, COMDAT

; 262  : 	{

  00000	55		 push	 ebp
  00001	8b ec		 mov	 ebp, esp
  00003	81 ec c0 00 00
	00		 sub	 esp, 192		; 000000c0H
  00009	53		 push	 ebx
  0000a	56		 push	 esi
  0000b	57		 push	 edi
  0000c	8b fd		 mov	 edi, ebp
  0000e	33 c9		 xor	 ecx, ecx
  00010	b8 cc cc cc cc	 mov	 eax, -858993460		; ccccccccH
  00015	f3 ab		 rep stosd
  00017	b9 00 00 00 00	 mov	 ecx, OFFSET __D909E87F_atlalloc@h
  0001c	e8 00 00 00 00	 call	 @__CheckForDebuggerJustMyCode@4

; 263  : 		return malloc(nBytes);

  00021	ff 75 08	 push	 DWORD PTR _nBytes$[ebp]
  00024	e8 00 00 00 00	 call	 _malloc
  00029	59		 pop	 ecx

; 264  : 	}

  0002a	5f		 pop	 edi
  0002b	5e		 pop	 esi
  0002c	5b		 pop	 ebx
  0002d	81 c4 c0 00 00
	00		 add	 esp, 192		; 000000c0H
  00033	3b ec		 cmp	 ebp, esp
  00035	e8 00 00 00 00	 call	 __RTC_CheckEsp
  0003a	c9		 leave
  0003b	c3		 ret	 0
?Allocate@CCRTAllocator@ATL@@SAPAXI@Z ENDP		; ATL::CCRTAllocator::Allocate
_TEXT	ENDS
; Function compile flags: /Odsp /RTCsu /ZI
; File C:\Program Files\Microsoft Visual Studio\2022\Enterprise\VC\Tools\MSVC\14.34.31933\atlmfc\include\atlalloc.h
;	COMDAT ??$AtlMultiply@I@ATL@@YAJPAIII@Z
_TEXT	SEGMENT
_i64Result$ = -12					; size = 8
_piResult$ = 8						; size = 4
_iLeft$ = 12						; size = 4
_iRight$ = 16						; size = 4
??$AtlMultiply@I@ATL@@YAJPAIII@Z PROC			; ATL::AtlMultiply<unsigned int>, COMDAT

; 135  : {

  00000	55		 push	 ebp
  00001	8b ec		 mov	 ebp, esp
  00003	81 ec d0 00 00
	00		 sub	 esp, 208		; 000000d0H
  00009	53		 push	 ebx
  0000a	56		 push	 esi
  0000b	57		 push	 edi
  0000c	8d 7d f0	 lea	 edi, DWORD PTR [ebp-16]
  0000f	6a 04		 push	 4
  00011	59		 pop	 ecx
  00012	b8 cc cc cc cc	 mov	 eax, -858993460		; ccccccccH
  00017	f3 ab		 rep stosd
  00019	b9 00 00 00 00	 mov	 ecx, OFFSET __D909E87F_atlalloc@h
  0001e	e8 00 00 00 00	 call	 @__CheckForDebuggerJustMyCode@4

; 136  : 	unsigned __int64 i64Result=static_cast<unsigned __int64>(iLeft) * static_cast<unsigned __int64>(iRight);

  00023	8b 45 0c	 mov	 eax, DWORD PTR _iLeft$[ebp]
  00026	f7 65 10	 mul	 DWORD PTR _iRight$[ebp]
  00029	89 45 f4	 mov	 DWORD PTR _i64Result$[ebp], eax
  0002c	89 55 f8	 mov	 DWORD PTR _i64Result$[ebp+4], edx

; 137  : 	if(i64Result>UINT_MAX)

  0002f	83 7d f8 00	 cmp	 DWORD PTR _i64Result$[ebp+4], 0
  00033	77 06		 ja	 SHORT $LN4@AtlMultipl
  00035	83 7d f4 ff	 cmp	 DWORD PTR _i64Result$[ebp], -1
  00039	76 0d		 jbe	 SHORT $LN2@AtlMultipl
$LN4@AtlMultipl:

; 138  : 	{
; 139  : 		return HRESULT_FROM_WIN32(ERROR_ARITHMETIC_OVERFLOW);

  0003b	68 16 02 00 00	 push	 534			; 00000216H
  00040	e8 00 00 00 00	 call	 _HRESULT_FROM_WIN32
  00045	59		 pop	 ecx
  00046	eb 0a		 jmp	 SHORT $LN1@AtlMultipl
$LN2@AtlMultipl:

; 140  : 	}
; 141  : 	*piResult=static_cast<unsigned int>(i64Result);

  00048	8b 45 f4	 mov	 eax, DWORD PTR _i64Result$[ebp]
  0004b	8b 4d 08	 mov	 ecx, DWORD PTR _piResult$[ebp]
  0004e	89 01		 mov	 DWORD PTR [ecx], eax

; 142  : 	return S_OK;

  00050	33 c0		 xor	 eax, eax
$LN1@AtlMultipl:

; 143  : }

  00052	5f		 pop	 edi
  00053	5e		 pop	 esi
  00054	5b		 pop	 ebx
  00055	81 c4 d0 00 00
	00		 add	 esp, 208		; 000000d0H
  0005b	3b ec		 cmp	 ebp, esp
  0005d	e8 00 00 00 00	 call	 __RTC_CheckEsp
  00062	c9		 leave
  00063	c3		 ret	 0
??$AtlMultiply@I@ATL@@YAJPAIII@Z ENDP			; ATL::AtlMultiply<unsigned int>
_TEXT	ENDS
; Function compile flags: /Odsp /RTCsu /ZI
; File C:\Program Files\Microsoft Visual Studio\2022\Enterprise\VC\Tools\MSVC\14.34.31933\atlmfc\include\atlexcept.h
;	COMDAT ?AtlThrowImpl@ATL@@YGXJ@Z
_TEXT	SEGMENT
$T1 = -204						; size = 8
_hr$ = 8						; size = 4
?AtlThrowImpl@ATL@@YGXJ@Z PROC				; ATL::AtlThrowImpl, COMDAT

; 65   : {

  00000	55		 push	 ebp
  00001	8b ec		 mov	 ebp, esp
  00003	81 ec d0 00 00
	00		 sub	 esp, 208		; 000000d0H
  00009	53		 push	 ebx
  0000a	56		 push	 esi
  0000b	57		 push	 edi
  0000c	8d 7d f0	 lea	 edi, DWORD PTR [ebp-16]
  0000f	6a 04		 push	 4
  00011	59		 pop	 ecx
  00012	b8 cc cc cc cc	 mov	 eax, -858993460		; ccccccccH
  00017	f3 ab		 rep stosd
  00019	b9 00 00 00 00	 mov	 ecx, OFFSET __AA932BE8_atlexcept@h
  0001e	e8 00 00 00 00	 call	 @__CheckForDebuggerJustMyCode@4

; 66   : 	ATLTRACE(atlTraceException, 0, _T("AtlThrow: hr = 0x%x\n"), hr );

  00023	ff 75 08	 push	 DWORD PTR _hr$[ebp]
  00026	68 00 00 00 00	 push	 OFFSET ??_C@_1CK@DFMKPFAK@?$AAA?$AAt?$AAl?$AAT?$AAh?$AAr?$AAo?$AAw?$AA?3?$AA?5?$AAh?$AAr?$AA?5?$AA?$DN?$AA?5@
  0002b	6a 00		 push	 0
  0002d	b9 00 00 00 00	 mov	 ecx, OFFSET ?atlTraceException@ATL@@3V?$CTraceCategoryEx@$0CAAA@$0A@@1@A ; ATL::atlTraceException
  00032	e8 00 00 00 00	 call	 ??B?$CTraceCategoryEx@$0CAAA@$0A@@ATL@@QAEIXZ ; ATL::CTraceCategoryEx<8192,0>::operator unsigned int
  00037	50		 push	 eax
  00038	a1 00 00 00 00	 mov	 eax, DWORD PTR ?__LINE__Var@?0??AtlThrowImpl@ATL@@YGXJ@Z@4JA
  0003d	40		 inc	 eax
  0003e	50		 push	 eax
  0003f	68 00 00 00 00	 push	 OFFSET ??_C@_0GO@OMMACHMC@C?3?2Program?5Files?2Microsoft?5Visu@
  00044	8d 8d 34 ff ff
	ff		 lea	 ecx, DWORD PTR $T1[ebp]
  0004a	e8 00 00 00 00	 call	 ??0CTraceFileAndLineInfo@ATL@@QAE@PBDH@Z ; ATL::CTraceFileAndLineInfo::CTraceFileAndLineInfo
  0004f	50		 push	 eax
  00050	e8 00 00 00 00	 call	 ??RCTraceFileAndLineInfo@ATL@@QBAXHIPB_WZZ ; ATL::CTraceFileAndLineInfo::operator()
  00055	83 c4 14	 add	 esp, 20			; 00000014H

; 67   : #ifdef _AFX
; 68   : 	if( hr == E_OUTOFMEMORY )

  00058	81 7d 08 0e 00
	07 80		 cmp	 DWORD PTR _hr$[ebp], -2147024882 ; 8007000eH
  0005f	75 07		 jne	 SHORT $LN2@AtlThrowIm

; 69   : 	{
; 70   : 		AfxThrowMemoryException();

  00061	e8 00 00 00 00	 call	 ?AfxThrowMemoryException@@YGXXZ ; AfxThrowMemoryException

; 71   : 	}

  00066	eb 08		 jmp	 SHORT $LN4@AtlThrowIm
$LN2@AtlThrowIm:

; 72   : 	else
; 73   : 	{
; 74   : 		AfxThrowOleException( hr );

  00068	ff 75 08	 push	 DWORD PTR _hr$[ebp]
  0006b	e8 00 00 00 00	 call	 ?AfxThrowOleException@@YGXJ@Z ; AfxThrowOleException
$LN4@AtlThrowIm:

; 75   : 	}
; 76   : #else
; 77   : 	throw CAtlException( hr );
; 78   : #endif
; 79   : };

  00070	5f		 pop	 edi
  00071	5e		 pop	 esi
  00072	5b		 pop	 ebx
  00073	81 c4 d0 00 00
	00		 add	 esp, 208		; 000000d0H
  00079	3b ec		 cmp	 ebp, esp
  0007b	e8 00 00 00 00	 call	 __RTC_CheckEsp
  00080	c9		 leave
  00081	c2 04 00	 ret	 4
?AtlThrowImpl@ATL@@YGXJ@Z ENDP				; ATL::AtlThrowImpl
_TEXT	ENDS
; Function compile flags: /Odsp /RTCsu /ZI
; File C:\Program Files\Microsoft Visual Studio\2022\Enterprise\VC\Tools\MSVC\14.34.31933\atlmfc\include\afx.h
;	COMDAT ?AfxAssertFailedLine@@YGHPBDH@Z
_TEXT	SEGMENT
_bResult$ = -60						; size = 4
_bQuit$ = -48						; size = 4
_msg$ = -36						; size = 28
__$ArrayPad$ = -4					; size = 4
_lpszFileName$ = 8					; size = 4
_nLine$ = 12						; size = 4
?AfxAssertFailedLine@@YGHPBDH@Z PROC			; AfxAssertFailedLine, COMDAT

; 312  : {

  00000	55		 push	 ebp
  00001	8b ec		 mov	 ebp, esp
  00003	81 ec 00 01 00
	00		 sub	 esp, 256		; 00000100H
  00009	53		 push	 ebx
  0000a	56		 push	 esi
  0000b	57		 push	 edi
  0000c	8d 7d c0	 lea	 edi, DWORD PTR [ebp-64]
  0000f	6a 10		 push	 16			; 00000010H
  00011	59		 pop	 ecx
  00012	b8 cc cc cc cc	 mov	 eax, -858993460		; ccccccccH
  00017	f3 ab		 rep stosd
  00019	a1 00 00 00 00	 mov	 eax, DWORD PTR ___security_cookie
  0001e	33 c5		 xor	 eax, ebp
  00020	89 45 fc	 mov	 DWORD PTR __$ArrayPad$[ebp], eax
  00023	b9 00 00 00 00	 mov	 ecx, OFFSET __981866FA_afx@h
  00028	e8 00 00 00 00	 call	 @__CheckForDebuggerJustMyCode@4

; 313  : 	// we remove WM_QUIT because if it is in the queue then the message box
; 314  : 	// won't display
; 315  : 	MSG msg;
; 316  : 	BOOL bQuit = PeekMessage(&msg, NULL, WM_QUIT, WM_QUIT, PM_REMOVE);

  0002d	8b f4		 mov	 esi, esp
  0002f	6a 01		 push	 1
  00031	6a 12		 push	 18			; 00000012H
  00033	6a 12		 push	 18			; 00000012H
  00035	6a 00		 push	 0
  00037	8d 45 dc	 lea	 eax, DWORD PTR _msg$[ebp]
  0003a	50		 push	 eax
  0003b	ff 15 00 00 00
	00		 call	 DWORD PTR __imp__PeekMessageW@20
  00041	3b f4		 cmp	 esi, esp
  00043	e8 00 00 00 00	 call	 __RTC_CheckEsp
  00048	89 45 d0	 mov	 DWORD PTR _bQuit$[ebp], eax

; 317  : 	BOOL bResult = _CrtDbgReport(_CRT_ASSERT, lpszFileName, nLine, NULL, NULL);

  0004b	6a 00		 push	 0
  0004d	6a 00		 push	 0
  0004f	ff 75 0c	 push	 DWORD PTR _nLine$[ebp]
  00052	ff 75 08	 push	 DWORD PTR _lpszFileName$[ebp]
  00055	6a 02		 push	 2
  00057	e8 00 00 00 00	 call	 __CrtDbgReport
  0005c	83 c4 14	 add	 esp, 20			; 00000014H
  0005f	89 45 c4	 mov	 DWORD PTR _bResult$[ebp], eax

; 318  : 	if (bQuit)

  00062	83 7d d0 00	 cmp	 DWORD PTR _bQuit$[ebp], 0
  00066	74 12		 je	 SHORT $LN2@AfxAssertF

; 319  : 		PostQuitMessage((int)msg.wParam);

  00068	8b f4		 mov	 esi, esp
  0006a	ff 75 e4	 push	 DWORD PTR _msg$[ebp+8]
  0006d	ff 15 00 00 00
	00		 call	 DWORD PTR __imp__PostQuitMessage@4
  00073	3b f4		 cmp	 esi, esp
  00075	e8 00 00 00 00	 call	 __RTC_CheckEsp
$LN2@AfxAssertF:

; 320  : 	return bResult;

  0007a	8b 45 c4	 mov	 eax, DWORD PTR _bResult$[ebp]

; 321  : }

  0007d	52		 push	 edx
  0007e	8b cd		 mov	 ecx, ebp
  00080	50		 push	 eax
  00081	8d 15 00 00 00
	00		 lea	 edx, DWORD PTR $LN6@AfxAssertF
  00087	e8 00 00 00 00	 call	 @_RTC_CheckStackVars@8
  0008c	58		 pop	 eax
  0008d	5a		 pop	 edx
  0008e	5f		 pop	 edi
  0008f	5e		 pop	 esi
  00090	5b		 pop	 ebx
  00091	8b 4d fc	 mov	 ecx, DWORD PTR __$ArrayPad$[ebp]
  00094	33 cd		 xor	 ecx, ebp
  00096	e8 00 00 00 00	 call	 @__security_check_cookie@4
  0009b	81 c4 00 01 00
	00		 add	 esp, 256		; 00000100H
  000a1	3b ec		 cmp	 ebp, esp
  000a3	e8 00 00 00 00	 call	 __RTC_CheckEsp
  000a8	c9		 leave
  000a9	c2 08 00	 ret	 8
$LN6@AfxAssertF:
  000ac	01 00 00 00	 DD	 1
  000b0	00 00 00 00	 DD	 $LN5@AfxAssertF
$LN5@AfxAssertF:
  000b4	dc ff ff ff	 DD	 -36			; ffffffdcH
  000b8	1c 00 00 00	 DD	 28			; 0000001cH
  000bc	00 00 00 00	 DD	 $LN4@AfxAssertF
$LN4@AfxAssertF:
  000c0	6d		 DB	 109			; 0000006dH
  000c1	73		 DB	 115			; 00000073H
  000c2	67		 DB	 103			; 00000067H
  000c3	00		 DB	 0
?AfxAssertFailedLine@@YGHPBDH@Z ENDP			; AfxAssertFailedLine
_TEXT	ENDS
; Function compile flags: /Odsp /RTCsu /ZI
; File C:\Program Files (x86)\Windows Kits\10\Include\10.0.22000.0\ucrt\stdio.h
;	COMDAT _fprintf
_TEXT	SEGMENT
__ArgList$ = -20					; size = 4
__Result$ = -8						; size = 4
__Stream$ = 8						; size = 4
__Format$ = 12						; size = 4
_fprintf PROC						; COMDAT

; 837  :     {

  00000	55		 push	 ebp
  00001	8b ec		 mov	 ebp, esp
  00003	81 ec e4 00 00
	00		 sub	 esp, 228		; 000000e4H
  00009	53		 push	 ebx
  0000a	56		 push	 esi
  0000b	57		 push	 edi
  0000c	8d 7d dc	 lea	 edi, DWORD PTR [ebp-36]
  0000f	6a 09		 push	 9
  00011	59		 pop	 ecx
  00012	b8 cc cc cc cc	 mov	 eax, -858993460		; ccccccccH
  00017	f3 ab		 rep stosd
  00019	b9 00 00 00 00	 mov	 ecx, OFFSET __B5C48800_stdio@h
  0001e	e8 00 00 00 00	 call	 @__CheckForDebuggerJustMyCode@4

; 838  :         int _Result;
; 839  :         va_list _ArgList;
; 840  :         __crt_va_start(_ArgList, _Format);

  00023	8d 45 10	 lea	 eax, DWORD PTR __Format$[ebp+4]
  00026	89 45 ec	 mov	 DWORD PTR __ArgList$[ebp], eax

; 841  :         _Result = _vfprintf_l(_Stream, _Format, NULL, _ArgList);

  00029	ff 75 ec	 push	 DWORD PTR __ArgList$[ebp]
  0002c	6a 00		 push	 0
  0002e	ff 75 0c	 push	 DWORD PTR __Format$[ebp]
  00031	ff 75 08	 push	 DWORD PTR __Stream$[ebp]
  00034	e8 00 00 00 00	 call	 __vfprintf_l
  00039	83 c4 10	 add	 esp, 16			; 00000010H
  0003c	89 45 f8	 mov	 DWORD PTR __Result$[ebp], eax

; 842  :         __crt_va_end(_ArgList);

  0003f	83 65 ec 00	 and	 DWORD PTR __ArgList$[ebp], 0

; 843  :         return _Result;

  00043	8b 45 f8	 mov	 eax, DWORD PTR __Result$[ebp]

; 844  :     }

  00046	5f		 pop	 edi
  00047	5e		 pop	 esi
  00048	5b		 pop	 ebx
  00049	81 c4 e4 00 00
	00		 add	 esp, 228		; 000000e4H
  0004f	3b ec		 cmp	 ebp, esp
  00051	e8 00 00 00 00	 call	 __RTC_CheckEsp
  00056	c9		 leave
  00057	c3		 ret	 0
_fprintf ENDP
_TEXT	ENDS
; Function compile flags: /Odsp /RTCsu /ZI
; File C:\Program Files (x86)\Windows Kits\10\Include\10.0.22000.0\ucrt\stdio.h
;	COMDAT __vfprintf_l
_TEXT	SEGMENT
__Stream$ = 8						; size = 4
__Format$ = 12						; size = 4
__Locale$ = 16						; size = 4
__ArgList$ = 20						; size = 4
__vfprintf_l PROC					; COMDAT

; 644  :     {

  00000	55		 push	 ebp
  00001	8b ec		 mov	 ebp, esp
  00003	81 ec c0 00 00
	00		 sub	 esp, 192		; 000000c0H
  00009	53		 push	 ebx
  0000a	56		 push	 esi
  0000b	57		 push	 edi
  0000c	8b fd		 mov	 edi, ebp
  0000e	33 c9		 xor	 ecx, ecx
  00010	b8 cc cc cc cc	 mov	 eax, -858993460		; ccccccccH
  00015	f3 ab		 rep stosd
  00017	b9 00 00 00 00	 mov	 ecx, OFFSET __B5C48800_stdio@h
  0001c	e8 00 00 00 00	 call	 @__CheckForDebuggerJustMyCode@4

; 645  :         return __stdio_common_vfprintf(_CRT_INTERNAL_LOCAL_PRINTF_OPTIONS, _Stream, _Format, _Locale, _ArgList);

  00021	ff 75 14	 push	 DWORD PTR __ArgList$[ebp]
  00024	ff 75 10	 push	 DWORD PTR __Locale$[ebp]
  00027	ff 75 0c	 push	 DWORD PTR __Format$[ebp]
  0002a	ff 75 08	 push	 DWORD PTR __Stream$[ebp]
  0002d	e8 00 00 00 00	 call	 ___local_stdio_printf_options
  00032	ff 70 04	 push	 DWORD PTR [eax+4]
  00035	ff 30		 push	 DWORD PTR [eax]
  00037	e8 00 00 00 00	 call	 ___stdio_common_vfprintf
  0003c	83 c4 18	 add	 esp, 24			; 00000018H

; 646  :     }

  0003f	5f		 pop	 edi
  00040	5e		 pop	 esi
  00041	5b		 pop	 ebx
  00042	81 c4 c0 00 00
	00		 add	 esp, 192		; 000000c0H
  00048	3b ec		 cmp	 ebp, esp
  0004a	e8 00 00 00 00	 call	 __RTC_CheckEsp
  0004f	c9		 leave
  00050	c3		 ret	 0
__vfprintf_l ENDP
_TEXT	ENDS
; Function compile flags: /Odsp /RTCsu /ZI
; File C:\Program Files (x86)\Windows Kits\10\Include\10.0.22000.0\ucrt\corecrt_wstdio.h
;	COMDAT _swprintf_s
_TEXT	SEGMENT
__ArgList$ = -20					; size = 4
__Result$ = -8						; size = 4
__Buffer$ = 8						; size = 4
__BufferCount$ = 12					; size = 4
__Format$ = 16						; size = 4
_swprintf_s PROC					; COMDAT

; 1523 :         {

  00000	55		 push	 ebp
  00001	8b ec		 mov	 ebp, esp
  00003	81 ec e4 00 00
	00		 sub	 esp, 228		; 000000e4H
  00009	53		 push	 ebx
  0000a	56		 push	 esi
  0000b	57		 push	 edi
  0000c	8d 7d dc	 lea	 edi, DWORD PTR [ebp-36]
  0000f	6a 09		 push	 9
  00011	59		 pop	 ecx
  00012	b8 cc cc cc cc	 mov	 eax, -858993460		; ccccccccH
  00017	f3 ab		 rep stosd
  00019	b9 00 00 00 00	 mov	 ecx, OFFSET __A7F89B2B_corecrt_wstdio@h
  0001e	e8 00 00 00 00	 call	 @__CheckForDebuggerJustMyCode@4

; 1524 :             int _Result;
; 1525 :             va_list _ArgList;
; 1526 :             __crt_va_start(_ArgList, _Format);

  00023	8d 45 14	 lea	 eax, DWORD PTR __Format$[ebp+4]
  00026	89 45 ec	 mov	 DWORD PTR __ArgList$[ebp], eax

; 1527 :             _Result = _vswprintf_s_l(_Buffer, _BufferCount, _Format, NULL, _ArgList);

  00029	ff 75 ec	 push	 DWORD PTR __ArgList$[ebp]
  0002c	6a 00		 push	 0
  0002e	ff 75 10	 push	 DWORD PTR __Format$[ebp]
  00031	ff 75 0c	 push	 DWORD PTR __BufferCount$[ebp]
  00034	ff 75 08	 push	 DWORD PTR __Buffer$[ebp]
  00037	e8 00 00 00 00	 call	 __vswprintf_s_l
  0003c	83 c4 14	 add	 esp, 20			; 00000014H
  0003f	89 45 f8	 mov	 DWORD PTR __Result$[ebp], eax

; 1528 :             __crt_va_end(_ArgList);

  00042	83 65 ec 00	 and	 DWORD PTR __ArgList$[ebp], 0

; 1529 :             return _Result;

  00046	8b 45 f8	 mov	 eax, DWORD PTR __Result$[ebp]

; 1530 :         }

  00049	5f		 pop	 edi
  0004a	5e		 pop	 esi
  0004b	5b		 pop	 ebx
  0004c	81 c4 e4 00 00
	00		 add	 esp, 228		; 000000e4H
  00052	3b ec		 cmp	 ebp, esp
  00054	e8 00 00 00 00	 call	 __RTC_CheckEsp
  00059	c9		 leave
  0005a	c3		 ret	 0
_swprintf_s ENDP
_TEXT	ENDS
; Function compile flags: /Odsp /RTCsu /ZI
; File C:\Program Files (x86)\Windows Kits\10\Include\10.0.22000.0\ucrt\corecrt_wstdio.h
;	COMDAT __vswprintf_s_l
_TEXT	SEGMENT
tv73 = -208						; size = 4
__Result$ = -8						; size = 4
__Buffer$ = 8						; size = 4
__BufferCount$ = 12					; size = 4
__Format$ = 16						; size = 4
__Locale$ = 20						; size = 4
__ArgList$ = 24						; size = 4
__vswprintf_s_l PROC					; COMDAT

; 1256 :     {

  00000	55		 push	 ebp
  00001	8b ec		 mov	 ebp, esp
  00003	81 ec d0 00 00
	00		 sub	 esp, 208		; 000000d0H
  00009	53		 push	 ebx
  0000a	56		 push	 esi
  0000b	57		 push	 edi
  0000c	8d 7d f0	 lea	 edi, DWORD PTR [ebp-16]
  0000f	6a 04		 push	 4
  00011	59		 pop	 ecx
  00012	b8 cc cc cc cc	 mov	 eax, -858993460		; ccccccccH
  00017	f3 ab		 rep stosd
  00019	b9 00 00 00 00	 mov	 ecx, OFFSET __A7F89B2B_corecrt_wstdio@h
  0001e	e8 00 00 00 00	 call	 @__CheckForDebuggerJustMyCode@4

; 1257 :         int const _Result = __stdio_common_vswprintf_s(

  00023	ff 75 18	 push	 DWORD PTR __ArgList$[ebp]
  00026	ff 75 14	 push	 DWORD PTR __Locale$[ebp]
  00029	ff 75 10	 push	 DWORD PTR __Format$[ebp]
  0002c	ff 75 0c	 push	 DWORD PTR __BufferCount$[ebp]
  0002f	ff 75 08	 push	 DWORD PTR __Buffer$[ebp]
  00032	e8 00 00 00 00	 call	 ___local_stdio_printf_options
  00037	ff 70 04	 push	 DWORD PTR [eax+4]
  0003a	ff 30		 push	 DWORD PTR [eax]
  0003c	e8 00 00 00 00	 call	 ___stdio_common_vswprintf_s
  00041	83 c4 1c	 add	 esp, 28			; 0000001cH
  00044	89 45 f8	 mov	 DWORD PTR __Result$[ebp], eax

; 1258 :             _CRT_INTERNAL_LOCAL_PRINTF_OPTIONS,
; 1259 :             _Buffer, _BufferCount, _Format, _Locale, _ArgList);
; 1260 : 
; 1261 :         return _Result < 0 ? -1 : _Result;

  00047	83 7d f8 00	 cmp	 DWORD PTR __Result$[ebp], 0
  0004b	7d 09		 jge	 SHORT $LN3@vswprintf_
  0004d	83 8d 30 ff ff
	ff ff		 or	 DWORD PTR tv73[ebp], -1
  00054	eb 09		 jmp	 SHORT $LN4@vswprintf_
$LN3@vswprintf_:
  00056	8b 45 f8	 mov	 eax, DWORD PTR __Result$[ebp]
  00059	89 85 30 ff ff
	ff		 mov	 DWORD PTR tv73[ebp], eax
$LN4@vswprintf_:
  0005f	8b 85 30 ff ff
	ff		 mov	 eax, DWORD PTR tv73[ebp]

; 1262 :     }

  00065	5f		 pop	 edi
  00066	5e		 pop	 esi
  00067	5b		 pop	 ebx
  00068	81 c4 d0 00 00
	00		 add	 esp, 208		; 000000d0H
  0006e	3b ec		 cmp	 ebp, esp
  00070	e8 00 00 00 00	 call	 __RTC_CheckEsp
  00075	c9		 leave
  00076	c3		 ret	 0
__vswprintf_s_l ENDP
_TEXT	ENDS
; Function compile flags: /Odsp /RTCsu /ZI
; File C:\Program Files (x86)\Windows Kits\10\Include\10.0.22000.0\ucrt\corecrt_stdio_config.h
;	COMDAT ___local_stdio_printf_options
_TEXT	SEGMENT
___local_stdio_printf_options PROC			; COMDAT

; 90   :     {

  00000	55		 push	 ebp
  00001	8b ec		 mov	 ebp, esp
  00003	81 ec c0 00 00
	00		 sub	 esp, 192		; 000000c0H
  00009	53		 push	 ebx
  0000a	56		 push	 esi
  0000b	57		 push	 edi
  0000c	8b fd		 mov	 edi, ebp
  0000e	33 c9		 xor	 ecx, ecx
  00010	b8 cc cc cc cc	 mov	 eax, -858993460		; ccccccccH
  00015	f3 ab		 rep stosd
  00017	b9 00 00 00 00	 mov	 ecx, OFFSET __C44F8F6B_corecrt_stdio_config@h
  0001c	e8 00 00 00 00	 call	 @__CheckForDebuggerJustMyCode@4

; 91   :         static unsigned __int64 _OptionsStorage;
; 92   :         return &_OptionsStorage;

  00021	b8 00 00 00 00	 mov	 eax, OFFSET ?_OptionsStorage@?1??__local_stdio_printf_options@@9@4_KA ; `__local_stdio_printf_options'::`2'::_OptionsStorage

; 93   :     }

  00026	5f		 pop	 edi
  00027	5e		 pop	 esi
  00028	5b		 pop	 ebx
  00029	81 c4 c0 00 00
	00		 add	 esp, 192		; 000000c0H
  0002f	3b ec		 cmp	 ebp, esp
  00031	e8 00 00 00 00	 call	 __RTC_CheckEsp
  00036	c9		 leave
  00037	c3		 ret	 0
___local_stdio_printf_options ENDP
_TEXT	ENDS
; Function compile flags: /Odsp /RTCsu /ZI
; File C:\Program Files (x86)\Windows Kits\10\Include\10.0.22000.0\shared\winerror.h
;	COMDAT _HRESULT_FROM_WIN32
_TEXT	SEGMENT
tv68 = -196						; size = 4
_x$ = 8							; size = 4
_HRESULT_FROM_WIN32 PROC				; COMDAT

; 29718: FORCEINLINE _Translates_Win32_to_HRESULT_(x) HRESULT HRESULT_FROM_WIN32(unsigned long x) { return (HRESULT)(x) <= 0 ? (HRESULT)(x) : (HRESULT) (((x) & 0x0000FFFF) | (FACILITY_WIN32 << 16) | 0x80000000);}

  00000	55		 push	 ebp
  00001	8b ec		 mov	 ebp, esp
  00003	81 ec c4 00 00
	00		 sub	 esp, 196		; 000000c4H
  00009	53		 push	 ebx
  0000a	56		 push	 esi
  0000b	57		 push	 edi
  0000c	8d 7d fc	 lea	 edi, DWORD PTR [ebp-4]
  0000f	33 c9		 xor	 ecx, ecx
  00011	41		 inc	 ecx
  00012	b8 cc cc cc cc	 mov	 eax, -858993460		; ccccccccH
  00017	f3 ab		 rep stosd
  00019	b9 00 00 00 00	 mov	 ecx, OFFSET __A8C6672F_winerror@h
  0001e	e8 00 00 00 00	 call	 @__CheckForDebuggerJustMyCode@4
  00023	83 7d 08 00	 cmp	 DWORD PTR _x$[ebp], 0
  00027	7f 0b		 jg	 SHORT $LN3@HRESULT_FR
  00029	8b 45 08	 mov	 eax, DWORD PTR _x$[ebp]
  0002c	89 85 3c ff ff
	ff		 mov	 DWORD PTR tv68[ebp], eax
  00032	eb 18		 jmp	 SHORT $LN4@HRESULT_FR
$LN3@HRESULT_FR:
  00034	8b 45 08	 mov	 eax, DWORD PTR _x$[ebp]
  00037	25 ff ff 00 00	 and	 eax, 65535		; 0000ffffH
  0003c	0d 00 00 07 00	 or	 eax, 458752		; 00070000H
  00041	0d 00 00 00 80	 or	 eax, -2147483648	; 80000000H
  00046	89 85 3c ff ff
	ff		 mov	 DWORD PTR tv68[ebp], eax
$LN4@HRESULT_FR:
  0004c	8b 85 3c ff ff
	ff		 mov	 eax, DWORD PTR tv68[ebp]
  00052	5f		 pop	 edi
  00053	5e		 pop	 esi
  00054	5b		 pop	 ebx
  00055	81 c4 c4 00 00
	00		 add	 esp, 196		; 000000c4H
  0005b	3b ec		 cmp	 ebp, esp
  0005d	e8 00 00 00 00	 call	 __RTC_CheckEsp
  00062	c9		 leave
  00063	c3		 ret	 0
_HRESULT_FROM_WIN32 ENDP
_TEXT	ENDS
; Function compile flags: /Odsp /RTCsu /ZI
; File C:\Program Files (x86)\Windows Kits\10\Include\10.0.22000.0\ucrt\corecrt_memcpy_s.h
;	COMDAT _memmove_s
_TEXT	SEGMENT
tv74 = -232						; size = 4
tv70 = -232						; size = 4
tv66 = -232						; size = 4
__Expr_val$1 = -32					; size = 4
__Expr_val$2 = -20					; size = 4
__Expr_val$3 = -8					; size = 4
__Destination$ = 8					; size = 4
__DestinationSize$ = 12					; size = 4
__Source$ = 16						; size = 4
__SourceSize$ = 20					; size = 4
_memmove_s PROC						; COMDAT

; 73   :     {

  00000	55		 push	 ebp
  00001	8b ec		 mov	 ebp, esp
  00003	81 ec e8 00 00
	00		 sub	 esp, 232		; 000000e8H
  00009	53		 push	 ebx
  0000a	56		 push	 esi
  0000b	57		 push	 edi
  0000c	8d 7d d8	 lea	 edi, DWORD PTR [ebp-40]
  0000f	6a 0a		 push	 10			; 0000000aH
  00011	59		 pop	 ecx
  00012	b8 cc cc cc cc	 mov	 eax, -858993460		; ccccccccH
  00017	f3 ab		 rep stosd
  00019	b9 00 00 00 00	 mov	 ecx, OFFSET __184F7456_corecrt_memcpy_s@h
  0001e	e8 00 00 00 00	 call	 @__CheckForDebuggerJustMyCode@4

; 74   :         if (_SourceSize == 0)

  00023	83 7d 14 00	 cmp	 DWORD PTR __SourceSize$[ebp], 0
  00027	75 07		 jne	 SHORT $LN2@memmove_s

; 75   :         {
; 76   :             return 0;

  00029	33 c0		 xor	 eax, eax
  0002b	e9 cf 00 00 00	 jmp	 $LN1@memmove_s
$LN2@memmove_s:

; 77   :         }
; 78   : 
; 79   :         _CRT_MEMCPY_S_VALIDATE_RETURN_ERRCODE(_Destination != NULL,            EINVAL);

  00030	83 7d 08 00	 cmp	 DWORD PTR __Destination$[ebp], 0
  00034	74 0c		 je	 SHORT $LN7@memmove_s
  00036	c7 85 18 ff ff
	ff 01 00 00 00	 mov	 DWORD PTR tv66[ebp], 1
  00040	eb 07		 jmp	 SHORT $LN8@memmove_s
$LN7@memmove_s:
  00042	83 a5 18 ff ff
	ff 00		 and	 DWORD PTR tv66[ebp], 0
$LN8@memmove_s:
  00049	8b 85 18 ff ff
	ff		 mov	 eax, DWORD PTR tv66[ebp]
  0004f	89 45 f8	 mov	 DWORD PTR __Expr_val$3[ebp], eax
  00052	83 7d f8 00	 cmp	 DWORD PTR __Expr_val$3[ebp], 0
  00056	75 18		 jne	 SHORT $LN3@memmove_s
  00058	e8 00 00 00 00	 call	 __errno
  0005d	c7 00 16 00 00
	00		 mov	 DWORD PTR [eax], 22	; 00000016H
  00063	e8 00 00 00 00	 call	 __invalid_parameter_noinfo
  00068	6a 16		 push	 22			; 00000016H
  0006a	58		 pop	 eax
  0006b	e9 8f 00 00 00	 jmp	 $LN1@memmove_s
$LN3@memmove_s:

; 80   :         _CRT_MEMCPY_S_VALIDATE_RETURN_ERRCODE(_Source != NULL,                 EINVAL);

  00070	83 7d 10 00	 cmp	 DWORD PTR __Source$[ebp], 0
  00074	74 0c		 je	 SHORT $LN9@memmove_s
  00076	c7 85 18 ff ff
	ff 01 00 00 00	 mov	 DWORD PTR tv70[ebp], 1
  00080	eb 07		 jmp	 SHORT $LN10@memmove_s
$LN9@memmove_s:
  00082	83 a5 18 ff ff
	ff 00		 and	 DWORD PTR tv70[ebp], 0
$LN10@memmove_s:
  00089	8b 85 18 ff ff
	ff		 mov	 eax, DWORD PTR tv70[ebp]
  0008f	89 45 ec	 mov	 DWORD PTR __Expr_val$2[ebp], eax
  00092	83 7d ec 00	 cmp	 DWORD PTR __Expr_val$2[ebp], 0
  00096	75 15		 jne	 SHORT $LN4@memmove_s
  00098	e8 00 00 00 00	 call	 __errno
  0009d	c7 00 16 00 00
	00		 mov	 DWORD PTR [eax], 22	; 00000016H
  000a3	e8 00 00 00 00	 call	 __invalid_parameter_noinfo
  000a8	6a 16		 push	 22			; 00000016H
  000aa	58		 pop	 eax
  000ab	eb 52		 jmp	 SHORT $LN1@memmove_s
$LN4@memmove_s:

; 81   :         _CRT_MEMCPY_S_VALIDATE_RETURN_ERRCODE(_DestinationSize >= _SourceSize, ERANGE);

  000ad	8b 45 0c	 mov	 eax, DWORD PTR __DestinationSize$[ebp]
  000b0	3b 45 14	 cmp	 eax, DWORD PTR __SourceSize$[ebp]
  000b3	72 0c		 jb	 SHORT $LN11@memmove_s
  000b5	c7 85 18 ff ff
	ff 01 00 00 00	 mov	 DWORD PTR tv74[ebp], 1
  000bf	eb 07		 jmp	 SHORT $LN12@memmove_s
$LN11@memmove_s:
  000c1	83 a5 18 ff ff
	ff 00		 and	 DWORD PTR tv74[ebp], 0
$LN12@memmove_s:
  000c8	8b 85 18 ff ff
	ff		 mov	 eax, DWORD PTR tv74[ebp]
  000ce	89 45 e0	 mov	 DWORD PTR __Expr_val$1[ebp], eax
  000d1	83 7d e0 00	 cmp	 DWORD PTR __Expr_val$1[ebp], 0
  000d5	75 15		 jne	 SHORT $LN5@memmove_s
  000d7	e8 00 00 00 00	 call	 __errno
  000dc	c7 00 22 00 00
	00		 mov	 DWORD PTR [eax], 34	; 00000022H
  000e2	e8 00 00 00 00	 call	 __invalid_parameter_noinfo
  000e7	6a 22		 push	 34			; 00000022H
  000e9	58		 pop	 eax
  000ea	eb 13		 jmp	 SHORT $LN1@memmove_s
$LN5@memmove_s:

; 82   : 
; 83   :         memmove(_Destination, _Source, _SourceSize);

  000ec	ff 75 14	 push	 DWORD PTR __SourceSize$[ebp]
  000ef	ff 75 10	 push	 DWORD PTR __Source$[ebp]
  000f2	ff 75 08	 push	 DWORD PTR __Destination$[ebp]
  000f5	e8 00 00 00 00	 call	 _memmove
  000fa	83 c4 0c	 add	 esp, 12			; 0000000cH

; 84   :         return 0;

  000fd	33 c0		 xor	 eax, eax
$LN1@memmove_s:

; 85   :     }

  000ff	5f		 pop	 edi
  00100	5e		 pop	 esi
  00101	5b		 pop	 ebx
  00102	81 c4 e8 00 00
	00		 add	 esp, 232		; 000000e8H
  00108	3b ec		 cmp	 ebp, esp
  0010a	e8 00 00 00 00	 call	 __RTC_CheckEsp
  0010f	c9		 leave
  00110	c3		 ret	 0
_memmove_s ENDP
_TEXT	ENDS
; Function compile flags: /Odsp /RTCsu /ZI
; File C:\Program Files (x86)\Windows Kits\10\Include\10.0.22000.0\ucrt\corecrt_memcpy_s.h
;	COMDAT _memcpy_s
_TEXT	SEGMENT
tv79 = -232						; size = 4
tv75 = -232						; size = 4
tv66 = -232						; size = 4
__Expr_val$1 = -32					; size = 4
__Expr_val$2 = -20					; size = 4
__Expr_val$3 = -8					; size = 4
__Destination$ = 8					; size = 4
__DestinationSize$ = 12					; size = 4
__Source$ = 16						; size = 4
__SourceSize$ = 20					; size = 4
_memcpy_s PROC						; COMDAT

; 45   :     {

  00000	55		 push	 ebp
  00001	8b ec		 mov	 ebp, esp
  00003	81 ec e8 00 00
	00		 sub	 esp, 232		; 000000e8H
  00009	53		 push	 ebx
  0000a	56		 push	 esi
  0000b	57		 push	 edi
  0000c	8d 7d d8	 lea	 edi, DWORD PTR [ebp-40]
  0000f	6a 0a		 push	 10			; 0000000aH
  00011	59		 pop	 ecx
  00012	b8 cc cc cc cc	 mov	 eax, -858993460		; ccccccccH
  00017	f3 ab		 rep stosd
  00019	b9 00 00 00 00	 mov	 ecx, OFFSET __184F7456_corecrt_memcpy_s@h
  0001e	e8 00 00 00 00	 call	 @__CheckForDebuggerJustMyCode@4

; 46   :         if (_SourceSize == 0)

  00023	83 7d 14 00	 cmp	 DWORD PTR __SourceSize$[ebp], 0
  00027	75 07		 jne	 SHORT $LN2@memcpy_s

; 47   :         {
; 48   :             return 0;

  00029	33 c0		 xor	 eax, eax
  0002b	e9 f6 00 00 00	 jmp	 $LN1@memcpy_s
$LN2@memcpy_s:

; 49   :         }
; 50   : 
; 51   :         _CRT_MEMCPY_S_VALIDATE_RETURN_ERRCODE(_Destination != NULL, EINVAL);

  00030	83 7d 08 00	 cmp	 DWORD PTR __Destination$[ebp], 0
  00034	74 0c		 je	 SHORT $LN9@memcpy_s
  00036	c7 85 18 ff ff
	ff 01 00 00 00	 mov	 DWORD PTR tv66[ebp], 1
  00040	eb 07		 jmp	 SHORT $LN10@memcpy_s
$LN9@memcpy_s:
  00042	83 a5 18 ff ff
	ff 00		 and	 DWORD PTR tv66[ebp], 0
$LN10@memcpy_s:
  00049	8b 85 18 ff ff
	ff		 mov	 eax, DWORD PTR tv66[ebp]
  0004f	89 45 f8	 mov	 DWORD PTR __Expr_val$3[ebp], eax
  00052	83 7d f8 00	 cmp	 DWORD PTR __Expr_val$3[ebp], 0
  00056	75 18		 jne	 SHORT $LN3@memcpy_s
  00058	e8 00 00 00 00	 call	 __errno
  0005d	c7 00 16 00 00
	00		 mov	 DWORD PTR [eax], 22	; 00000016H
  00063	e8 00 00 00 00	 call	 __invalid_parameter_noinfo
  00068	6a 16		 push	 22			; 00000016H
  0006a	58		 pop	 eax
  0006b	e9 b6 00 00 00	 jmp	 $LN1@memcpy_s
$LN3@memcpy_s:

; 52   :         if (_Source == NULL || _DestinationSize < _SourceSize)

  00070	83 7d 10 00	 cmp	 DWORD PTR __Source$[ebp], 0
  00074	74 0c		 je	 SHORT $LN5@memcpy_s
  00076	8b 45 0c	 mov	 eax, DWORD PTR __DestinationSize$[ebp]
  00079	3b 45 14	 cmp	 eax, DWORD PTR __SourceSize$[ebp]
  0007c	0f 83 91 00 00
	00		 jae	 $LN4@memcpy_s
$LN5@memcpy_s:

; 53   :         {
; 54   :             memset(_Destination, 0, _DestinationSize);

  00082	ff 75 0c	 push	 DWORD PTR __DestinationSize$[ebp]
  00085	6a 00		 push	 0
  00087	ff 75 08	 push	 DWORD PTR __Destination$[ebp]
  0008a	e8 00 00 00 00	 call	 _memset
  0008f	83 c4 0c	 add	 esp, 12			; 0000000cH

; 55   : 
; 56   :             _CRT_MEMCPY_S_VALIDATE_RETURN_ERRCODE(_Source != NULL,                 EINVAL);

  00092	83 7d 10 00	 cmp	 DWORD PTR __Source$[ebp], 0
  00096	74 0c		 je	 SHORT $LN11@memcpy_s
  00098	c7 85 18 ff ff
	ff 01 00 00 00	 mov	 DWORD PTR tv75[ebp], 1
  000a2	eb 07		 jmp	 SHORT $LN12@memcpy_s
$LN11@memcpy_s:
  000a4	83 a5 18 ff ff
	ff 00		 and	 DWORD PTR tv75[ebp], 0
$LN12@memcpy_s:
  000ab	8b 85 18 ff ff
	ff		 mov	 eax, DWORD PTR tv75[ebp]
  000b1	89 45 ec	 mov	 DWORD PTR __Expr_val$2[ebp], eax
  000b4	83 7d ec 00	 cmp	 DWORD PTR __Expr_val$2[ebp], 0
  000b8	75 15		 jne	 SHORT $LN6@memcpy_s
  000ba	e8 00 00 00 00	 call	 __errno
  000bf	c7 00 16 00 00
	00		 mov	 DWORD PTR [eax], 22	; 00000016H
  000c5	e8 00 00 00 00	 call	 __invalid_parameter_noinfo
  000ca	6a 16		 push	 22			; 00000016H
  000cc	58		 pop	 eax
  000cd	eb 57		 jmp	 SHORT $LN1@memcpy_s
$LN6@memcpy_s:

; 57   :             _CRT_MEMCPY_S_VALIDATE_RETURN_ERRCODE(_DestinationSize >= _SourceSize, ERANGE);

  000cf	8b 45 0c	 mov	 eax, DWORD PTR __DestinationSize$[ebp]
  000d2	3b 45 14	 cmp	 eax, DWORD PTR __SourceSize$[ebp]
  000d5	72 0c		 jb	 SHORT $LN13@memcpy_s
  000d7	c7 85 18 ff ff
	ff 01 00 00 00	 mov	 DWORD PTR tv79[ebp], 1
  000e1	eb 07		 jmp	 SHORT $LN14@memcpy_s
$LN13@memcpy_s:
  000e3	83 a5 18 ff ff
	ff 00		 and	 DWORD PTR tv79[ebp], 0
$LN14@memcpy_s:
  000ea	8b 85 18 ff ff
	ff		 mov	 eax, DWORD PTR tv79[ebp]
  000f0	89 45 e0	 mov	 DWORD PTR __Expr_val$1[ebp], eax
  000f3	83 7d e0 00	 cmp	 DWORD PTR __Expr_val$1[ebp], 0
  000f7	75 15		 jne	 SHORT $LN7@memcpy_s
  000f9	e8 00 00 00 00	 call	 __errno
  000fe	c7 00 22 00 00
	00		 mov	 DWORD PTR [eax], 34	; 00000022H
  00104	e8 00 00 00 00	 call	 __invalid_parameter_noinfo
  00109	6a 22		 push	 34			; 00000022H
  0010b	58		 pop	 eax
  0010c	eb 18		 jmp	 SHORT $LN1@memcpy_s
$LN7@memcpy_s:

; 58   : 
; 59   :             // Unreachable, but required to suppress /analyze warnings:
; 60   :             return EINVAL;

  0010e	6a 16		 push	 22			; 00000016H
  00110	58		 pop	 eax
  00111	eb 13		 jmp	 SHORT $LN1@memcpy_s
$LN4@memcpy_s:

; 61   :         }
; 62   :         memcpy(_Destination, _Source, _SourceSize);

  00113	ff 75 14	 push	 DWORD PTR __SourceSize$[ebp]
  00116	ff 75 10	 push	 DWORD PTR __Source$[ebp]
  00119	ff 75 08	 push	 DWORD PTR __Destination$[ebp]
  0011c	e8 00 00 00 00	 call	 _memcpy
  00121	83 c4 0c	 add	 esp, 12			; 0000000cH

; 63   :         return 0;

  00124	33 c0		 xor	 eax, eax
$LN1@memcpy_s:

; 64   :     }

  00126	5f		 pop	 edi
  00127	5e		 pop	 esi
  00128	5b		 pop	 ebx
  00129	81 c4 e8 00 00
	00		 add	 esp, 232		; 000000e8H
  0012f	3b ec		 cmp	 ebp, esp
  00131	e8 00 00 00 00	 call	 __RTC_CheckEsp
  00136	c9		 leave
  00137	c3		 ret	 0
_memcpy_s ENDP
_TEXT	ENDS
; Function compile flags: /Odsp /RTCsu /ZI
; File J:\work\SUDOKU\SUDOKU\SUDOKU\Solution.cpp
;	COMDAT ?__empty_global_delete@@YAXPAXI@Z
_TEXT	SEGMENT
___formal$ = 8						; size = 4
___formal$ = 12						; size = 4
?__empty_global_delete@@YAXPAXI@Z PROC			; __empty_global_delete, COMDAT

  00000	55		 push	 ebp
  00001	8b ec		 mov	 ebp, esp
  00003	81 ec c0 00 00
	00		 sub	 esp, 192		; 000000c0H
  00009	53		 push	 ebx
  0000a	56		 push	 esi
  0000b	57		 push	 edi
  0000c	8b fd		 mov	 edi, ebp
  0000e	33 c9		 xor	 ecx, ecx
  00010	b8 cc cc cc cc	 mov	 eax, -858993460		; ccccccccH
  00015	f3 ab		 rep stosd
  00017	b9 00 00 00 00	 mov	 ecx, OFFSET __CBE53D1F_Solution@cpp
  0001c	e8 00 00 00 00	 call	 @__CheckForDebuggerJustMyCode@4
  00021	5f		 pop	 edi
  00022	5e		 pop	 esi
  00023	5b		 pop	 ebx
  00024	81 c4 c0 00 00
	00		 add	 esp, 192		; 000000c0H
  0002a	3b ec		 cmp	 ebp, esp
  0002c	e8 00 00 00 00	 call	 __RTC_CheckEsp
  00031	c9		 leave
  00032	c3		 ret	 0
?__empty_global_delete@@YAXPAXI@Z ENDP			; __empty_global_delete
_TEXT	ENDS
; Function compile flags: /Odsp /RTCsu /ZI
; File J:\work\SUDOKU\SUDOKU\SUDOKU\Solution.cpp
;	COMDAT ?__empty_global_delete@@YAXPAX@Z
_TEXT	SEGMENT
___formal$ = 8						; size = 4
?__empty_global_delete@@YAXPAX@Z PROC			; __empty_global_delete, COMDAT

  00000	55		 push	 ebp
  00001	8b ec		 mov	 ebp, esp
  00003	81 ec c0 00 00
	00		 sub	 esp, 192		; 000000c0H
  00009	53		 push	 ebx
  0000a	56		 push	 esi
  0000b	57		 push	 edi
  0000c	8b fd		 mov	 edi, ebp
  0000e	33 c9		 xor	 ecx, ecx
  00010	b8 cc cc cc cc	 mov	 eax, -858993460		; ccccccccH
  00015	f3 ab		 rep stosd
  00017	b9 00 00 00 00	 mov	 ecx, OFFSET __CBE53D1F_Solution@cpp
  0001c	e8 00 00 00 00	 call	 @__CheckForDebuggerJustMyCode@4
  00021	5f		 pop	 edi
  00022	5e		 pop	 esi
  00023	5b		 pop	 ebx
  00024	81 c4 c0 00 00
	00		 add	 esp, 192		; 000000c0H
  0002a	3b ec		 cmp	 ebp, esp
  0002c	e8 00 00 00 00	 call	 __RTC_CheckEsp
  00031	c9		 leave
  00032	c3		 ret	 0
?__empty_global_delete@@YAXPAX@Z ENDP			; __empty_global_delete
_TEXT	ENDS
END
