; Listing generated by Microsoft (R) Optimizing Compiler Version 19.34.31937.0 

	TITLE	J:\work\SUDOKU\SUDOKU\SUDOKU\Debug\Solution.obj
	.686P
	.XMM
	include listing.inc
	.model	flat

INCLUDELIB LIBCMTD
INCLUDELIB OLDNAMES

PUBLIC	?grid@@3PAY08HA					; grid
_BSS	SEGMENT
?grid@@3PAY08HA DD 051H DUP (?)				; grid
_BSS	ENDS
msvcjmc	SEGMENT
__7723FEDF_SUDOKU@pch DB 01H
__3E101F51_comutil@h DB 01H
__B5C48800_stdio@h DB 01H
__B64CFDC3_atlconv@h DB 01H
__B2E308CD_atlcore@h DB 01H
__7381F871_atlchecked@h DB 01H
__184F7456_corecrt_memcpy_s@h DB 01H
__2B0A8887_atltime@h DB 01H
__981866FA_afx@h DB 01H
__B625A68F_cstringt@h DB 01H
__AA932BE8_atlexcept@h DB 01H
__A8C6672F_winerror@h DB 01H
__A7F89B2B_corecrt_wstdio@h DB 01H
__C44F8F6B_corecrt_stdio_config@h DB 01H
__D909E87F_atlalloc@h DB 01H
__63F83F46_atltrace@h DB 01H
__5DCF1DCC_afxstr@h DB 01H
__05D8B7B7_atlsimpstr@h DB 01H
__A700C7EB_Solution@h DB 01H
__BB6863C9_timeb@h DB 01H
__3C941363_Calcul_temps@h DB 01H
__CBE53D1F_Solution@cpp DB 01H
__6E6BE0F3_resource@h DB 01H
__3EA9D4DA_stdafx@h DB 01H
__8906E2DA_stdafx@cpp DB 01H
msvcjmc	ENDS
PUBLIC	?__empty_global_delete@@YAXPAX@Z		; __empty_global_delete
PUBLIC	?__empty_global_delete@@YAXPAXI@Z		; __empty_global_delete
PUBLIC	_HRESULT_FROM_WIN32
PUBLIC	___local_stdio_printf_options
PUBLIC	__vswprintf_s_l
PUBLIC	_swprintf_s
PUBLIC	__vfprintf_l
PUBLIC	_fprintf
PUBLIC	?AfxAssertFailedLine@@YGHPBDH@Z			; AfxAssertFailedLine
PUBLIC	?AtlThrowImpl@ATL@@YGXJ@Z			; ATL::AtlThrowImpl
PUBLIC	??$AtlMultiply@I@ATL@@YAJPAIII@Z		; ATL::AtlMultiply<unsigned int>
PUBLIC	?Allocate@CCRTAllocator@ATL@@SAPAXI@Z		; ATL::CCRTAllocator::Allocate
PUBLIC	?Free@CCRTAllocator@ATL@@SAXPAX@Z		; ATL::CCRTAllocator::Free
PUBLIC	?_AtlGetConversionACP@ATL@@YGIXZ		; ATL::_AtlGetConversionACP
PUBLIC	??0?$CTraceCategoryEx@$0CAAA@$0A@@ATL@@QAE@PB_W@Z ; ATL::CTraceCategoryEx<8192,0>::CTraceCategoryEx<8192,0>
PUBLIC	??B?$CTraceCategoryEx@$0CAAA@$0A@@ATL@@QAEIXZ	; ATL::CTraceCategoryEx<8192,0>::operator unsigned int
PUBLIC	??0?$CTraceCategoryEx@$0CAAAA@$0A@@ATL@@QAE@PB_W@Z ; ATL::CTraceCategoryEx<131072,0>::CTraceCategoryEx<131072,0>
PUBLIC	??B?$CTraceCategoryEx@$0CAAAA@$0A@@ATL@@QAEIXZ	; ATL::CTraceCategoryEx<131072,0>::operator unsigned int
PUBLIC	?GetCategoryName@CTrace@ATL@@CAPA_WI@Z		; ATL::CTrace::GetCategoryName
PUBLIC	?TraceV@CTrace@ATL@@CAXPBDHIIPB_W@Z		; ATL::CTrace::TraceV
PUBLIC	?TraceV@CTrace@ATL@@SAXPBDHIIPB_WPAD@Z		; ATL::CTrace::TraceV
PUBLIC	?RegisterCategory@CTrace@ATL@@SAXPB_WI@Z	; ATL::CTrace::RegisterCategory
PUBLIC	??0?$CHeapPtrBase@_WVCCRTAllocator@ATL@@@ATL@@IAE@XZ ; ATL::CHeapPtrBase<wchar_t,ATL::CCRTAllocator>::CHeapPtrBase<wchar_t,ATL::CCRTAllocator>
PUBLIC	??1?$CHeapPtrBase@_WVCCRTAllocator@ATL@@@ATL@@QAE@XZ ; ATL::CHeapPtrBase<wchar_t,ATL::CCRTAllocator>::~CHeapPtrBase<wchar_t,ATL::CCRTAllocator>
PUBLIC	??B?$CHeapPtrBase@_WVCCRTAllocator@ATL@@@ATL@@QBEPA_WXZ ; ATL::CHeapPtrBase<wchar_t,ATL::CCRTAllocator>::operator wchar_t *
PUBLIC	?AllocateBytes@?$CHeapPtrBase@_WVCCRTAllocator@ATL@@@ATL@@QAE_NI@Z ; ATL::CHeapPtrBase<wchar_t,ATL::CCRTAllocator>::AllocateBytes
PUBLIC	?Free@?$CHeapPtrBase@_WVCCRTAllocator@ATL@@@ATL@@QAEXXZ ; ATL::CHeapPtrBase<wchar_t,ATL::CCRTAllocator>::Free
PUBLIC	??0?$CHeapPtr@_WVCCRTAllocator@ATL@@@ATL@@QAE@XZ ; ATL::CHeapPtr<wchar_t,ATL::CCRTAllocator>::CHeapPtr<wchar_t,ATL::CCRTAllocator>
PUBLIC	?Allocate@?$CHeapPtr@_WVCCRTAllocator@ATL@@@ATL@@QAE_NI@Z ; ATL::CHeapPtr<wchar_t,ATL::CCRTAllocator>::Allocate
PUBLIC	??1?$CHeapPtr@_WVCCRTAllocator@ATL@@@ATL@@QAE@XZ ; ATL::CHeapPtr<wchar_t,ATL::CCRTAllocator>::~CHeapPtr<wchar_t,ATL::CCRTAllocator>
PUBLIC	?__autoclassinit2@?$CHeapPtr@_WVCCRTAllocator@ATL@@@ATL@@QAEXI@Z ; ATL::CHeapPtr<wchar_t,ATL::CCRTAllocator>::__autoclassinit2
PUBLIC	??0CPreserveLastError@ATL@@QAE@XZ		; ATL::CPreserveLastError::CPreserveLastError
PUBLIC	??1CPreserveLastError@ATL@@QAE@XZ		; ATL::CPreserveLastError::~CPreserveLastError
PUBLIC	??0CTraceFileAndLineInfo@ATL@@QAE@PBDH@Z	; ATL::CTraceFileAndLineInfo::CTraceFileAndLineInfo
PUBLIC	??RCTraceFileAndLineInfo@ATL@@QBAXHIPB_WZZ	; ATL::CTraceFileAndLineInfo::operator()
PUBLIC	?AfxCrtErrorCheck@@YAHH@Z			; AfxCrtErrorCheck
PUBLIC	?wmemcpy_s@Checked@ATL@@YAXPA_WIPB_WI@Z		; ATL::Checked::wmemcpy_s
PUBLIC	?AtlStrLen@ATL@@YAHPB_W@Z			; ATL::AtlStrLen
PUBLIC	?AtlIsValidString@ATL@@YAHPB_WI@Z		; ATL::AtlIsValidString
PUBLIC	?_AtlGetStringResourceImage@ATL@@YAPBUATLSTRINGRESOURCEIMAGE@1@PAUHINSTANCE__@@PAUHRSRC__@@I@Z ; ATL::_AtlGetStringResourceImage
PUBLIC	?AtlGetStringResourceImage@ATL@@YAPBUATLSTRINGRESOURCEIMAGE@1@PAUHINSTANCE__@@I@Z ; ATL::AtlGetStringResourceImage
PUBLIC	?data@CStringData@ATL@@QAEPAXXZ			; ATL::CStringData::data
PUBLIC	?AddRef@CStringData@ATL@@QAEXXZ			; ATL::CStringData::AddRef
PUBLIC	?IsLocked@CStringData@ATL@@QBE_NXZ		; ATL::CStringData::IsLocked
PUBLIC	?IsShared@CStringData@ATL@@QBE_NXZ		; ATL::CStringData::IsShared
PUBLIC	?Release@CStringData@ATL@@QAEXXZ		; ATL::CStringData::Release
PUBLIC	?GetFormattedLength@?$ChTraitsCRT@_W@ATL@@SAHPB_WPAD@Z ; ATL::ChTraitsCRT<wchar_t>::GetFormattedLength
PUBLIC	?Format@?$ChTraitsCRT@_W@ATL@@SAHPA_WIPB_WPAD@Z	; ATL::ChTraitsCRT<wchar_t>::Format
PUBLIC	?GetBaseTypeLength@?$ChTraitsCRT@_W@ATL@@SAHPBD@Z ; ATL::ChTraitsCRT<wchar_t>::GetBaseTypeLength
PUBLIC	?GetBaseTypeLength@?$ChTraitsCRT@_W@ATL@@SAHPB_W@Z ; ATL::ChTraitsCRT<wchar_t>::GetBaseTypeLength
PUBLIC	?GetBaseTypeLength@?$ChTraitsCRT@_W@ATL@@SAHPB_WH@Z ; ATL::ChTraitsCRT<wchar_t>::GetBaseTypeLength
PUBLIC	?ConvertToBaseType@?$ChTraitsCRT@_W@ATL@@SAXPA_WHPBDH@Z ; ATL::ChTraitsCRT<wchar_t>::ConvertToBaseType
PUBLIC	?ConvertToBaseType@?$ChTraitsCRT@_W@ATL@@SAXPA_WHPB_WH@Z ; ATL::ChTraitsCRT<wchar_t>::ConvertToBaseType
PUBLIC	??0?$CSimpleStringT@_W$0A@@ATL@@QAE@PAUIAtlStringMgr@1@@Z ; ATL::CSimpleStringT<wchar_t,0>::CSimpleStringT<wchar_t,0>
PUBLIC	??0?$CSimpleStringT@_W$0A@@ATL@@QAE@ABV01@@Z	; ATL::CSimpleStringT<wchar_t,0>::CSimpleStringT<wchar_t,0>
PUBLIC	??1?$CSimpleStringT@_W$0A@@ATL@@QAE@XZ		; ATL::CSimpleStringT<wchar_t,0>::~CSimpleStringT<wchar_t,0>
PUBLIC	??4?$CSimpleStringT@_W$0A@@ATL@@QAEAAV01@PB_W@Z	; ATL::CSimpleStringT<wchar_t,0>::operator=
PUBLIC	??Y?$CSimpleStringT@_W$0A@@ATL@@QAEAAV01@ABV01@@Z ; ATL::CSimpleStringT<wchar_t,0>::operator+=
PUBLIC	??B?$CSimpleStringT@_W$0A@@ATL@@QBEPB_WXZ	; ATL::CSimpleStringT<wchar_t,0>::operator wchar_t const *
PUBLIC	?Append@?$CSimpleStringT@_W$0A@@ATL@@QAEXPB_WH@Z ; ATL::CSimpleStringT<wchar_t,0>::Append
PUBLIC	?Append@?$CSimpleStringT@_W$0A@@ATL@@QAEXABV12@@Z ; ATL::CSimpleStringT<wchar_t,0>::Append
PUBLIC	?Empty@?$CSimpleStringT@_W$0A@@ATL@@QAEXXZ	; ATL::CSimpleStringT<wchar_t,0>::Empty
PUBLIC	?GetAllocLength@?$CSimpleStringT@_W$0A@@ATL@@QBEHXZ ; ATL::CSimpleStringT<wchar_t,0>::GetAllocLength
PUBLIC	?GetBuffer@?$CSimpleStringT@_W$0A@@ATL@@QAEPA_WXZ ; ATL::CSimpleStringT<wchar_t,0>::GetBuffer
PUBLIC	?GetBuffer@?$CSimpleStringT@_W$0A@@ATL@@QAEPA_WH@Z ; ATL::CSimpleStringT<wchar_t,0>::GetBuffer
PUBLIC	?GetLength@?$CSimpleStringT@_W$0A@@ATL@@QBEHXZ	; ATL::CSimpleStringT<wchar_t,0>::GetLength
PUBLIC	?GetManager@?$CSimpleStringT@_W$0A@@ATL@@QBEPAUIAtlStringMgr@2@XZ ; ATL::CSimpleStringT<wchar_t,0>::GetManager
PUBLIC	?GetString@?$CSimpleStringT@_W$0A@@ATL@@QBEPB_WXZ ; ATL::CSimpleStringT<wchar_t,0>::GetString
PUBLIC	?ReleaseBuffer@?$CSimpleStringT@_W$0A@@ATL@@QAEXH@Z ; ATL::CSimpleStringT<wchar_t,0>::ReleaseBuffer
PUBLIC	?ReleaseBufferSetLength@?$CSimpleStringT@_W$0A@@ATL@@QAEXH@Z ; ATL::CSimpleStringT<wchar_t,0>::ReleaseBufferSetLength
PUBLIC	?SetString@?$CSimpleStringT@_W$0A@@ATL@@QAEXPB_W@Z ; ATL::CSimpleStringT<wchar_t,0>::SetString
PUBLIC	?SetString@?$CSimpleStringT@_W$0A@@ATL@@QAEXPB_WH@Z ; ATL::CSimpleStringT<wchar_t,0>::SetString
PUBLIC	?CopyCharsOverlapped@?$CSimpleStringT@_W$0A@@ATL@@SAXPA_WIPB_WH@Z ; ATL::CSimpleStringT<wchar_t,0>::CopyCharsOverlapped
PUBLIC	?StringLength@?$CSimpleStringT@_W$0A@@ATL@@SAHPB_W@Z ; ATL::CSimpleStringT<wchar_t,0>::StringLength
PUBLIC	?StringLengthN@?$CSimpleStringT@_W$0A@@ATL@@SAHPB_WI@Z ; ATL::CSimpleStringT<wchar_t,0>::StringLengthN
PUBLIC	?Concatenate@?$CSimpleStringT@_W$0A@@ATL@@KAXAAV12@PB_WH1H@Z ; ATL::CSimpleStringT<wchar_t,0>::Concatenate
PUBLIC	?ThrowMemoryException@?$CSimpleStringT@_W$0A@@ATL@@KAXXZ ; ATL::CSimpleStringT<wchar_t,0>::ThrowMemoryException
PUBLIC	?Attach@?$CSimpleStringT@_W$0A@@ATL@@AAEXPAUCStringData@2@@Z ; ATL::CSimpleStringT<wchar_t,0>::Attach
PUBLIC	?Fork@?$CSimpleStringT@_W$0A@@ATL@@AAEXH@Z	; ATL::CSimpleStringT<wchar_t,0>::Fork
PUBLIC	?GetData@?$CSimpleStringT@_W$0A@@ATL@@ABEPAUCStringData@2@XZ ; ATL::CSimpleStringT<wchar_t,0>::GetData
PUBLIC	?PrepareWrite@?$CSimpleStringT@_W$0A@@ATL@@AAEPA_WH@Z ; ATL::CSimpleStringT<wchar_t,0>::PrepareWrite
PUBLIC	?PrepareWrite2@?$CSimpleStringT@_W$0A@@ATL@@AAEXH@Z ; ATL::CSimpleStringT<wchar_t,0>::PrepareWrite2
PUBLIC	?Reallocate@?$CSimpleStringT@_W$0A@@ATL@@AAEXH@Z ; ATL::CSimpleStringT<wchar_t,0>::Reallocate
PUBLIC	?SetLength@?$CSimpleStringT@_W$0A@@ATL@@AAEXH@Z	; ATL::CSimpleStringT<wchar_t,0>::SetLength
PUBLIC	?CloneData@?$CSimpleStringT@_W$0A@@ATL@@CAPAUCStringData@2@PAU32@@Z ; ATL::CSimpleStringT<wchar_t,0>::CloneData
PUBLIC	??0?$CStringT@_WV?$StrTraitMFC@_WV?$ChTraitsCRT@_W@ATL@@@@@ATL@@QAE@XZ ; ATL::CStringT<wchar_t,StrTraitMFC<wchar_t,ATL::ChTraitsCRT<wchar_t> > >::CStringT<wchar_t,StrTraitMFC<wchar_t,ATL::ChTraitsCRT<wchar_t> > >
PUBLIC	??0?$CStringT@_WV?$StrTraitMFC@_WV?$ChTraitsCRT@_W@ATL@@@@@ATL@@QAE@PAUIAtlStringMgr@1@@Z ; ATL::CStringT<wchar_t,StrTraitMFC<wchar_t,ATL::ChTraitsCRT<wchar_t> > >::CStringT<wchar_t,StrTraitMFC<wchar_t,ATL::ChTraitsCRT<wchar_t> > >
PUBLIC	??0?$CStringT@_WV?$StrTraitMFC@_WV?$ChTraitsCRT@_W@ATL@@@@@ATL@@QAE@ABV01@@Z ; ATL::CStringT<wchar_t,StrTraitMFC<wchar_t,ATL::ChTraitsCRT<wchar_t> > >::CStringT<wchar_t,StrTraitMFC<wchar_t,ATL::ChTraitsCRT<wchar_t> > >
PUBLIC	??0?$CStringT@_WV?$StrTraitMFC@_WV?$ChTraitsCRT@_W@ATL@@@@@ATL@@QAE@PB_W@Z ; ATL::CStringT<wchar_t,StrTraitMFC<wchar_t,ATL::ChTraitsCRT<wchar_t> > >::CStringT<wchar_t,StrTraitMFC<wchar_t,ATL::ChTraitsCRT<wchar_t> > >
PUBLIC	??0?$CStringT@_WV?$StrTraitMFC@_WV?$ChTraitsCRT@_W@ATL@@@@@ATL@@QAE@PB_WPAUIAtlStringMgr@1@@Z ; ATL::CStringT<wchar_t,StrTraitMFC<wchar_t,ATL::ChTraitsCRT<wchar_t> > >::CStringT<wchar_t,StrTraitMFC<wchar_t,ATL::ChTraitsCRT<wchar_t> > >
PUBLIC	??0?$CStringT@_WV?$StrTraitMFC@_WV?$ChTraitsCRT@_W@ATL@@@@@ATL@@QAE@PBDPAUIAtlStringMgr@1@@Z ; ATL::CStringT<wchar_t,StrTraitMFC<wchar_t,ATL::ChTraitsCRT<wchar_t> > >::CStringT<wchar_t,StrTraitMFC<wchar_t,ATL::ChTraitsCRT<wchar_t> > >
PUBLIC	??1?$CStringT@_WV?$StrTraitMFC@_WV?$ChTraitsCRT@_W@ATL@@@@@ATL@@QAE@XZ ; ATL::CStringT<wchar_t,StrTraitMFC<wchar_t,ATL::ChTraitsCRT<wchar_t> > >::~CStringT<wchar_t,StrTraitMFC<wchar_t,ATL::ChTraitsCRT<wchar_t> > >
PUBLIC	??4?$CStringT@_WV?$StrTraitMFC@_WV?$ChTraitsCRT@_W@ATL@@@@@ATL@@QAEAAV01@PB_W@Z ; ATL::CStringT<wchar_t,StrTraitMFC<wchar_t,ATL::ChTraitsCRT<wchar_t> > >::operator=
PUBLIC	??4?$CStringT@_WV?$StrTraitMFC@_WV?$ChTraitsCRT@_W@ATL@@@@@ATL@@QAEAAV01@PBD@Z ; ATL::CStringT<wchar_t,StrTraitMFC<wchar_t,ATL::ChTraitsCRT<wchar_t> > >::operator=
PUBLIC	??Y?$CStringT@_WV?$StrTraitMFC@_WV?$ChTraitsCRT@_W@ATL@@@@@ATL@@QAEAAV01@ABV?$CSimpleStringT@_W$0A@@1@@Z ; ATL::CStringT<wchar_t,StrTraitMFC<wchar_t,ATL::ChTraitsCRT<wchar_t> > >::operator+=
PUBLIC	??Y?$CStringT@_WV?$StrTraitMFC@_WV?$ChTraitsCRT@_W@ATL@@@@@ATL@@QAEAAV01@PBD@Z ; ATL::CStringT<wchar_t,StrTraitMFC<wchar_t,ATL::ChTraitsCRT<wchar_t> > >::operator+=
PUBLIC	?GetManager@?$CStringT@_WV?$StrTraitMFC@_WV?$ChTraitsCRT@_W@ATL@@@@@ATL@@QBEPAUIAtlStringMgr@2@XZ ; ATL::CStringT<wchar_t,StrTraitMFC<wchar_t,ATL::ChTraitsCRT<wchar_t> > >::GetManager
PUBLIC	?Format@?$CStringT@_WV?$StrTraitMFC@_WV?$ChTraitsCRT@_W@ATL@@@@@ATL@@QAAXPB_WZZ ; ATL::CStringT<wchar_t,StrTraitMFC<wchar_t,ATL::ChTraitsCRT<wchar_t> > >::Format
PUBLIC	?FormatV@?$CStringT@_WV?$StrTraitMFC@_WV?$ChTraitsCRT@_W@ATL@@@@@ATL@@QAEXPB_WPAD@Z ; ATL::CStringT<wchar_t,StrTraitMFC<wchar_t,ATL::ChTraitsCRT<wchar_t> > >::FormatV
PUBLIC	?LoadStringW@?$CStringT@_WV?$StrTraitMFC@_WV?$ChTraitsCRT@_W@ATL@@@@@ATL@@QAEHI@Z ; ATL::CStringT<wchar_t,StrTraitMFC<wchar_t,ATL::ChTraitsCRT<wchar_t> > >::LoadStringW
PUBLIC	?LoadStringW@?$CStringT@_WV?$StrTraitMFC@_WV?$ChTraitsCRT@_W@ATL@@@@@ATL@@QAEHPAUHINSTANCE__@@I@Z ; ATL::CStringT<wchar_t,StrTraitMFC<wchar_t,ATL::ChTraitsCRT<wchar_t> > >::LoadStringW
PUBLIC	??HATL@@YA?AV?$CStringT@_WV?$StrTraitMFC@_WV?$ChTraitsCRT@_W@ATL@@@@@0@ABV10@0@Z ; ATL::operator+
PUBLIC	?CheckImplicitLoad@?$CStringT@_WV?$StrTraitMFC@_WV?$ChTraitsCRT@_W@ATL@@@@@ATL@@AAE_NPBX@Z ; ATL::CStringT<wchar_t,StrTraitMFC<wchar_t,ATL::ChTraitsCRT<wchar_t> > >::CheckImplicitLoad
PUBLIC	?__autoclassinit2@?$CStringT@_WV?$StrTraitMFC@_WV?$ChTraitsCRT@_W@ATL@@@@@ATL@@QAEXI@Z ; ATL::CStringT<wchar_t,StrTraitMFC<wchar_t,ATL::ChTraitsCRT<wchar_t> > >::__autoclassinit2
PUBLIC	?FindStringResourceInstance@?$StrTraitMFC@_WV?$ChTraitsCRT@_W@ATL@@@@SAPAUHINSTANCE__@@I@Z ; StrTraitMFC<wchar_t,ATL::ChTraitsCRT<wchar_t> >::FindStringResourceInstance
PUBLIC	?GetDefaultManager@?$StrTraitMFC@_WV?$ChTraitsCRT@_W@ATL@@@@SAPAUIAtlStringMgr@ATL@@XZ ; StrTraitMFC<wchar_t,ATL::ChTraitsCRT<wchar_t> >::GetDefaultManager
PUBLIC	?__autoclassinit2@CFileDialog@@QAEXI@Z		; CFileDialog::__autoclassinit2
PUBLIC	??0_bstr_t@@QAE@ABV0@@Z				; _bstr_t::_bstr_t
PUBLIC	??0_bstr_t@@QAE@PBD@Z				; _bstr_t::_bstr_t
PUBLIC	??0_bstr_t@@QAE@PB_W@Z				; _bstr_t::_bstr_t
PUBLIC	??1_bstr_t@@QAE@XZ				; _bstr_t::~_bstr_t
PUBLIC	??Y_bstr_t@@QAEAAV0@ABV0@@Z			; _bstr_t::operator+=
PUBLIC	??H@YA?AV_bstr_t@@PB_WABV0@@Z			; operator+
PUBLIC	??B_bstr_t@@QBEPB_WXZ				; _bstr_t::operator wchar_t const *
PUBLIC	?length@_bstr_t@@QBEIXZ				; _bstr_t::length
PUBLIC	??0Data_t@_bstr_t@@QAE@PBD@Z			; _bstr_t::Data_t::Data_t
PUBLIC	??0Data_t@_bstr_t@@QAE@PB_W@Z			; _bstr_t::Data_t::Data_t
PUBLIC	??0Data_t@_bstr_t@@QAE@ABV1@0@Z			; _bstr_t::Data_t::Data_t
PUBLIC	?AddRef@Data_t@_bstr_t@@QAEKXZ			; _bstr_t::Data_t::AddRef
PUBLIC	?Release@Data_t@_bstr_t@@QAEKXZ			; _bstr_t::Data_t::Release
PUBLIC	?GetWString@Data_t@_bstr_t@@QAEAAPA_WXZ		; _bstr_t::Data_t::GetWString
PUBLIC	?Length@Data_t@_bstr_t@@QBEIXZ			; _bstr_t::Data_t::Length
PUBLIC	??2Data_t@_bstr_t@@SAPAXI@Z			; _bstr_t::Data_t::operator new
PUBLIC	??1Data_t@_bstr_t@@AAE@XZ			; _bstr_t::Data_t::~Data_t
PUBLIC	?_Free@Data_t@_bstr_t@@AAEXXZ			; _bstr_t::Data_t::_Free
PUBLIC	?__autoclassinit2@Data_t@_bstr_t@@QAEXI@Z	; _bstr_t::Data_t::__autoclassinit2
PUBLIC	??_GData_t@_bstr_t@@AAEPAXI@Z			; _bstr_t::Data_t::`scalar deleting destructor'
PUBLIC	?_AddRef@_bstr_t@@AAEXXZ			; _bstr_t::_AddRef
PUBLIC	?_Free@_bstr_t@@AAEXXZ				; _bstr_t::_Free
PUBLIC	?__autoclassinit2@_bstr_t@@QAEXI@Z		; _bstr_t::__autoclassinit2
PUBLIC	??_GCalcul_temps@@QAEPAXI@Z			; Calcul_temps::`scalar deleting destructor'
PUBLIC	??0Solution@@QAE@XZ				; Solution::Solution
PUBLIC	??0Solution@@QAE@PAUHWND__@@@Z			; Solution::Solution
PUBLIC	??1Solution@@UAE@XZ				; Solution::~Solution
PUBLIC	?Charger_valeur_saisie@Solution@@QAEHPAUHWND__@@@Z ; Solution::Charger_valeur_saisie
PUBLIC	?Charger_From_a_File@Solution@@QAEHPAUHWND__@@@Z ; Solution::Charger_From_a_File
PUBLIC	?Raz@Solution@@AAEXXZ				; Solution::Raz
PUBLIC	?Check_input_grid@Solution@@AAEHXZ		; Solution::Check_input_grid
PUBLIC	?Check_input_rows@Solution@@AAEHXZ		; Solution::Check_input_rows
PUBLIC	?Check_input_a_row@Solution@@AAEHH@Z		; Solution::Check_input_a_row
PUBLIC	?Check_input_columns@Solution@@AAEHXZ		; Solution::Check_input_columns
PUBLIC	?Check_input_a_column@Solution@@AAEHH@Z		; Solution::Check_input_a_column
PUBLIC	?Check_input_sub_squares@Solution@@AAEHXZ	; Solution::Check_input_sub_squares
PUBLIC	?Check_input_a_sub_square@Solution@@AAEHH@Z	; Solution::Check_input_a_sub_square
PUBLIC	?Trans_sub_square@Solution@@AAEXQADH@Z		; Solution::Trans_sub_square
PUBLIC	?Resolve@Solution@@AAEXXZ			; Solution::Resolve
PUBLIC	?Free_cell_for_number@Solution@@AAEHHHH@Z	; Solution::Free_cell_for_number
PUBLIC	?Trans_sub_square_of_cell@Solution@@AAEXQADHH@Z	; Solution::Trans_sub_square_of_cell
PUBLIC	?Finished_grid@Solution@@AAEHXZ			; Solution::Finished_grid
PUBLIC	?Display_grille@Solution@@AAEXPAUHWND__@@@Z	; Solution::Display_grille
PUBLIC	?Print@Solution@@AAEXXZ				; Solution::Print
PUBLIC	?Charge_tableau_relation@Solution@@AAEXXZ	; Solution::Charge_tableau_relation
PUBLIC	?Definition_limite@Solution@@AAEXPAUHWND__@@@Z	; Solution::Definition_limite
PUBLIC	?Current_Dir@Solution@@AAE?AV?$CStringT@_WV?$StrTraitMFC@_WV?$ChTraitsCRT@_W@ATL@@@@@ATL@@XZ ; Solution::Current_Dir
PUBLIC	?Save_Load_Data@Solution@@AAEHXZ		; Solution::Save_Load_Data
PUBLIC	?Save_File@Solution@@AAEHPA_W@Z			; Solution::Save_File
PUBLIC	?Open_File@Solution@@AAEHPA_W@Z			; Solution::Open_File
PUBLIC	?WriteFile@Solution@@AAEHPAU_iobuf@@@Z		; Solution::WriteFile
PUBLIC	?Folder@Solution@@AAE?AV?$CStringT@_WV?$StrTraitMFC@_WV?$ChTraitsCRT@_W@ATL@@@@@ATL@@XZ ; Solution::Folder
PUBLIC	?Sepcial_Folder@Solution@@AAE?AV?$CStringT@_WV?$StrTraitMFC@_WV?$ChTraitsCRT@_W@ATL@@@@@ATL@@H@Z ; Solution::Sepcial_Folder
PUBLIC	?Dur_Dur@Solution@@AAEXXZ			; Solution::Dur_Dur
PUBLIC	?Conversion@Solution@@AAEXV?$CStringT@_WV?$StrTraitMFC@_WV?$ChTraitsCRT@_W@ATL@@@@@ATL@@@Z ; Solution::Conversion
PUBLIC	?Affiche_Synchro@Solution@@AAEX_K@Z		; Solution::Affiche_Synchro
PUBLIC	??_GSolution@@UAEPAXI@Z				; Solution::`scalar deleting destructor'
PUBLIC	__JustMyCode_Default
PUBLIC	?_OptionsStorage@?1??__local_stdio_printf_options@@9@4_KA ; `__local_stdio_printf_options'::`2'::_OptionsStorage
PUBLIC	??_C@_17CNPHIMPH@?$AA?$CF?$AAl?$AAs@		; `string'
PUBLIC	??_C@_1NK@JCBLKNMO@?$AAC?$AA?3?$AA?2?$AAP?$AAr?$AAo?$AAg?$AAr?$AAa?$AAm?$AA?5?$AAF?$AAi?$AAl?$AAe@ ; `string'
PUBLIC	?atlTraceException@ATL@@3V?$CTraceCategoryEx@$0CAAA@$0A@@1@A ; ATL::atlTraceException
PUBLIC	??_C@_1CE@IMMADNAP@?$AAa?$AAt?$AAl?$AAT?$AAr?$AAa?$AAc?$AAe?$AAE?$AAx?$AAc?$AAe?$AAp?$AAt?$AAi@ ; `string'
PUBLIC	?atlTraceString@ATL@@3V?$CTraceCategoryEx@$0CAAAA@$0A@@1@A ; ATL::atlTraceString
PUBLIC	??_C@_1BO@GMLILNDJ@?$AAa?$AAt?$AAl?$AAT?$AAr?$AAa?$AAc?$AAe?$AAS?$AAt?$AAr?$AAi?$AAn?$AAg@ ; `string'
PUBLIC	?m_nLevel@CTrace@ATL@@1IA			; ATL::CTrace::m_nLevel
PUBLIC	?m_nCategory@CTrace@ATL@@1IA			; ATL::CTrace::m_nCategory
PUBLIC	?m_nLastCategory@CTrace@ATL@@1IA		; ATL::CTrace::m_nLastCategory
PUBLIC	?m_nMap@CTrace@ATL@@1PAUCategoryMap@12@A	; ATL::CTrace::m_nMap
PUBLIC	??_C@_1O@LFNDFEBP@?$AA?$CF?$AAl?$AAs?$AA?5?$AA?9?$AA?5@ ; `string'
PUBLIC	??_C@_1M@PGKOAACE@?$AA?$CF?$AAu?$AA?5?$AA?9?$AA?5@ ; `string'
PUBLIC	??_C@_1O@OAIPCDPO@?$AA?$CF?$AAl?$AAs?$AA?$CF?$AAl?$AAs@ ; `string'
PUBLIC	??_C@_17LGGGMOOB@?$AA?$CF?$AAh?$AAs@		; `string'
PUBLIC	??_C@_1EO@EBPPKGOM@?$AAf?$AAa?$AAl?$AAs?$AAe?$AA?5?$AA?$CG?$AA?$CG?$AA?5?$AA?$CC?$AAT?$AAo?$AAo?$AA?5?$AAm@ ; `string'
PUBLIC	??_C@_1NK@OBLAMPEN@?$AAC?$AA?3?$AA?2?$AAP?$AAr?$AAo?$AAg?$AAr?$AAa?$AAm?$AA?5?$AAF?$AAi?$AAl?$AAe@ ; `string'
PUBLIC	?__LINE__Var@?0??AtlThrowImpl@ATL@@YGXJ@Z@4JA	; `ATL::AtlThrowImpl'::`1'::__LINE__Var
PUBLIC	??_C@_0GO@OMMACHMC@C?3?2Program?5Files?2Microsoft?5Visu@ ; `string'
PUBLIC	??_C@_1CK@DFMKPFAK@?$AAA?$AAt?$AAl?$AAT?$AAh?$AAr?$AAo?$AAw?$AA?3?$AA?5?$AAh?$AAr?$AA?5?$AA?$DN?$AA?5@ ; `string'
PUBLIC	??_C@_1BM@GBBOFEAE@?$AA_?$AA_?$AAa?$AAt?$AAl?$AA_?$AAc?$AAo?$AAn?$AAd?$AAV?$AAa?$AAl@ ; `string'
PUBLIC	??_C@_13FPGAJAPJ@?$AA?2@			; `string'
PUBLIC	??_C@_1BE@BLGCOAPB@?$AAn?$AAR?$AAe?$AAf?$AAs?$AA?5?$AA?$DO?$AA?5?$AA0@ ; `string'
PUBLIC	??_C@_1NO@CMNIKGIF@?$AAC?$AA?3?$AA?2?$AAP?$AAr?$AAo?$AAg?$AAr?$AAa?$AAm?$AA?5?$AAF?$AAi?$AAl?$AAe@ ; `string'
PUBLIC	??_C@_1BG@GPELCNED@?$AAn?$AAR?$AAe?$AAf?$AAs?$AA?5?$AA?$CB?$AA?$DN?$AA?5?$AA0@ ; `string'
PUBLIC	??_C@_1NK@KGCDDCJB@?$AAC?$AA?3?$AA?2?$AAP?$AAr?$AAo?$AAg?$AAr?$AAa?$AAm?$AA?5?$AAF?$AAi?$AAl?$AAe@ ; `string'
PUBLIC	??_C@_0GN@HEPHHEDO@C?3?2Program?5Files?2Microsoft?5Visu@ ; `string'
PUBLIC	??_C@_15KNBIKKIN@?$AA?$CF?$AAd@			; `string'
PUBLIC	??_C@_11LOCGONAA@@				; `string'
PUBLIC	??_C@_1FC@BMOLDHIO@?$AAW?$AAa?$AAr?$AAn?$AAi?$AAn?$AAg?$AA?3?$AA?5?$AAi?$AAm?$AAp?$AAl?$AAi?$AAc@ ; `string'
PUBLIC	??_C@_1BK@OGOKLNEF@?$AAn?$AAL?$AAe?$AAn?$AAg?$AAt?$AAh?$AA?5?$AA?$DO?$AA?$DN?$AA?5?$AA0@ ; `string'
PUBLIC	??_C@_1EG@PELIOAAG@?$AAn?$AAL?$AAe?$AAn?$AAg?$AAt?$AAh?$AA?5?$AA?$DM?$AA?$DN?$AA?5?$AAG?$AAe?$AAt?$AAD@ ; `string'
PUBLIC	??_C@_1BK@NHECDDNK@?$AAm?$AA_?$AAp?$AAD?$AAa?$AAt?$AAa?$AA?5?$AA?$DN?$AA?$DN?$AA?5?$AA0@ ; `string'
PUBLIC	??_C@_1CA@FILBIMGF@?$AAn?$AAN?$AAe?$AAw?$AAL?$AAe?$AAn?$AAg?$AAt?$AAh?$AA?5?$AA?$DO?$AA?$DN?$AA?5?$AA0@ ; `string'
PUBLIC	??_C@_1EC@BCBEFJPM@?$AAp?$AAO?$AAl?$AAd?$AAD?$AAa?$AAt?$AAa?$AA?9?$AA?$DO?$AAn?$AAA?$AAl?$AAl?$AAo@ ; `string'
PUBLIC	??_C@_1DM@KPGCKOJB@?$AAA?$AAt?$AAl?$AAI?$AAs?$AAV?$AAa?$AAl?$AAi?$AAd?$AAS?$AAt?$AAr?$AAi?$AAn@ ; `string'
PUBLIC	??_C@_01EEMJAFIK@?6@				; `string'
PUBLIC	??_7Solution@@6B@				; Solution::`vftable'
PUBLIC	?__LINE__Var@?0??Definition_limite@Solution@@AAEXPAUHWND__@@@Z@4JA ; `Solution::Definition_limite'::`1'::__LINE__Var
PUBLIC	??_C@_0CK@JGFDDPMM@J?3?2work?2SUDOKU?2SUDOKU?2SUDOKU?2So@ ; `string'
PUBLIC	??_C@_0BJ@LICJPAK@Text?5File?5?$CI?$CK?4txt?$CJ?$HM?$CK?4txt?$HM@ ; `string'
PUBLIC	??_C@_0BG@FALAGNOM@All?5Files?5?$CI?$CK?4?$CK?$CJ?$HM?$CK?4?$CK?$HM?$HM@ ; `string'
PUBLIC	??_C@_1BI@LHMMMGAL@?$AAS?$AAu?$AAd?$AAo?$AAk?$AAu?$AA?5?$AAF?$AAi?$AAl?$AAe@ ; `string'
PUBLIC	??_C@_1CC@DBEOBEPH@?$AAS?$AAu?$AAd?$AAo?$AAk?$AAu?$AA_?$AAi?$AAn?$AAp?$AAu?$AAt?$AA?4?$AAt?$AAx@ ; `string'
PUBLIC	??_C@_15OMIKMFFN@?$AAr?$AAt@			; `string'
PUBLIC	??_C@_1DI@PECEIFDA@?$AAT?$AAe?$AAm?$AAp?$AAs?$AA?5?$AAd?$AAe?$AA?5?$AAr?$PP?i?$AAs?$AAo?$AAl?$AAu@ ; `string'
PUBLIC	??_C@_1DG@BPKNNOLH@?$AAT?$AAe?$AAm?$AAp?$AAs?$AA?5?$AAd?$AAe?$AA?5?$AAr?$PP?i?$AAs?$AAo?$AAl?$AAu@ ; `string'
PUBLIC	??_C@_0BH@JLAFPNCO@Nombre?5d?8essais?5?3?5?$CFd?6?6@ ; `string'
PUBLIC	??_C@_1CK@FIOBKKHN@?$AAN?$AAo?$AAm?$AAb?$AAr?$AAe?$AA?5?$AAd?$AA?8?$AAe?$AAs?$AAs?$AAa?$AAi?$AAs@ ; `string'
PUBLIC	??_C@_03JDANDILB@?$CFd?5@			; `string'
PUBLIC	??_C@_03EGHOKNNL@?6?6?6@			; `string'
PUBLIC	?__LINE__Var@?0???0Solution@@QAE@PAUHWND__@@@Z@4JA ; `Solution::Solution'::`1'::__LINE__Var
PUBLIC	??_C@_0BL@JGGBKHK@resultat_grille_Sudoku?4txt@	; `string'
PUBLIC	??_C@_17LFHOHKCB@?$AAw?$AA?$CL?$AAt@		; `string'
PUBLIC	?__LINE__Var@?0??Charger_valeur_saisie@Solution@@QAEHPAUHWND__@@@Z@4JA ; `Solution::Charger_valeur_saisie'::`1'::__LINE__Var
PUBLIC	??_C@_1CC@NLMIMJJF@?$AAS?$AAu?$AAd?$AAo?$AAk?$AAu?$AA_?$AAi?$AAm?$AAp?$AAu?$AAt?$AA?4?$AAt?$AAx@ ; `string'
PUBLIC	??_C@_15LMEHFEOO@?$AAw?$AAt@			; `string'
PUBLIC	?__LINE__Var@?0??Display_grille@Solution@@AAEXPAUHWND__@@@Z@4JA ; `Solution::Display_grille'::`1'::__LINE__Var
PUBLIC	??_C@_1DM@DDLFPJCI@?$AAE?$AAr?$AAr?$AAe?$AAu?$AAr?$AA?5?$AAl?$AAi?$AAg?$AAn?$AAe?$AA?5?$AA?$CF?$AAd@ ; `string'
PUBLIC	??_C@_1EA@OLIANHL@?$AAE?$AAr?$AAr?$AAe?$AAu?$AAr?$AA?5?$AAc?$AAo?$AAl?$AAo?$AAn?$AAn?$AAe?$AA?5@ ; `string'
PUBLIC	??_C@_1EG@ECKKEMMN@?$AAE?$AAr?$AAr?$AAe?$AAu?$AAr?$AA?5?$AAs?$AAo?$AAu?$AAs?$AA?5?$AAc?$AAa?$AAr@ ; `string'
PUBLIC	??_C@_03OFAPEBGM@?$CFs?6@			; `string'
PUBLIC	??_R4Solution@@6B@				; Solution::`RTTI Complete Object Locator'
PUBLIC	??_R0?AVSolution@@@8				; Solution `RTTI Type Descriptor'
PUBLIC	??_R3Solution@@8				; Solution::`RTTI Class Hierarchy Descriptor'
PUBLIC	??_R2Solution@@8				; Solution::`RTTI Base Class Array'
PUBLIC	??_R1A@?0A@EA@Solution@@8			; Solution::`RTTI Base Class Descriptor at (0,-1,0,64)'
EXTRN	??2@YAPAXI@Z:PROC				; operator new
EXTRN	??3@YAXPAXI@Z:PROC				; operator delete
EXTRN	??_U@YAPAXI@Z:PROC				; operator new[]
EXTRN	??_V@YAXPAX@Z:PROC				; operator delete[]
EXTRN	__invalid_parameter_noinfo:PROC
EXTRN	__errno:PROC
EXTRN	_memcpy:PROC
EXTRN	_memmove:PROC
EXTRN	_memset:PROC
EXTRN	_wcscpy_s:PROC
EXTRN	_wcslen:PROC
EXTRN	_wcsnlen:PROC
EXTRN	__imp__GetCurrentDirectoryW@8:PROC
EXTRN	__imp__GetLastError@0:PROC
EXTRN	__imp__SetLastError@4:PROC
EXTRN	__imp__LoadResource@8:PROC
EXTRN	__imp__LockResource@4:PROC
EXTRN	__imp__SizeofResource@8:PROC
EXTRN	__imp__FindResourceW@12:PROC
EXTRN	__imp__PeekMessageW@20:PROC
EXTRN	__imp__SendMessageW@16:PROC
EXTRN	__imp__PostQuitMessage@4:PROC
EXTRN	__imp__IsWindow@4:PROC
EXTRN	__imp__GetDlgItem@8:PROC
EXTRN	__imp__SetDlgItemTextW@12:PROC
EXTRN	__imp__GetDlgItemTextW@16:PROC
EXTRN	__imp__MultiByteToWideChar@24:PROC
EXTRN	__wfopen:PROC
EXTRN	___stdio_common_vswprintf:PROC
EXTRN	___stdio_common_vswprintf_s:PROC
EXTRN	___stdio_common_vsnwprintf_s:PROC
EXTRN	_wmemcpy_s:PROC
EXTRN	_fclose:PROC
EXTRN	_fgets:PROC
EXTRN	___stdio_common_vfprintf:PROC
EXTRN	_free:PROC
EXTRN	_malloc:PROC
EXTRN	_atoi:PROC
EXTRN	_wcstombs_s:PROC
EXTRN	__CrtDbgReport:PROC
EXTRN	__CrtDbgReportW:PROC
EXTRN	__imp__SysAllocString@4:PROC
EXTRN	__imp__SysFreeString@4:PROC
EXTRN	__imp__SysStringLen@4:PROC
EXTRN	__imp__SysAllocStringByteLen@8:PROC
EXTRN	?AfxThrowMemoryException@@YGXXZ:PROC		; AfxThrowMemoryException
EXTRN	?AfxThrowInvalidArgException@@YGXXZ:PROC	; AfxThrowInvalidArgException
EXTRN	?AfxThrowOleException@@YGXJ@Z:PROC		; AfxThrowOleException
EXTRN	?AfxFindStringResourceHandle@@YGPAUHINSTANCE__@@I@Z:PROC ; AfxFindStringResourceHandle
EXTRN	?AfxGetStringManager@@YGPAUIAtlStringMgr@ATL@@XZ:PROC ; AfxGetStringManager
EXTRN	?AfxGetMainWnd@@YGPAVCWnd@@XZ:PROC		; AfxGetMainWnd
EXTRN	?AfxMessageBox@@YGHPB_WII@Z:PROC		; AfxMessageBox
EXTRN	?GetOFN@CFileDialog@@QAEAAUtagOFNW@@XZ:PROC	; CFileDialog::GetOFN
EXTRN	??0CFileDialog@@QAE@HPB_W0K0PAVCWnd@@KH@Z:PROC	; CFileDialog::CFileDialog
EXTRN	??1CFileDialog@@UAE@XZ:PROC			; CFileDialog::~CFileDialog
EXTRN	?DoModal@CFileDialog@@UAEHXZ:PROC		; CFileDialog::DoModal
EXTRN	__imp__SHGetFolderPathW@20:PROC
EXTRN	?_com_issue_error@@YGXJ@Z:PROC			; _com_issue_error
EXTRN	?ConvertStringToBSTR@_com_util@@YGPA_WPBD@Z:PROC ; _com_util::ConvertStringToBSTR
EXTRN	??0Calcul_temps@@QAE@XZ:PROC			; Calcul_temps::Calcul_temps
EXTRN	??1Calcul_temps@@QAE@XZ:PROC			; Calcul_temps::~Calcul_temps
EXTRN	?Start_time@Calcul_temps@@QAEXXZ:PROC		; Calcul_temps::Start_time
EXTRN	?Stop_time@Calcul_temps@@QAEXXZ:PROC		; Calcul_temps::Stop_time
EXTRN	?Read_time@Calcul_temps@@QAE_KXZ:PROC		; Calcul_temps::Read_time
EXTRN	??_ESolution@@UAEPAXI@Z:PROC			; Solution::`vector deleting destructor'
EXTRN	@_RTC_CheckStackVars@8:PROC
EXTRN	@__CheckForDebuggerJustMyCode@4:PROC
EXTRN	@__security_check_cookie@4:PROC
EXTRN	__RTC_CheckEsp:PROC
EXTRN	__RTC_InitBase:PROC
EXTRN	__RTC_Shutdown:PROC
EXTRN	___CxxFrameHandler3:PROC
EXTRN	_memset:PROC
EXTRN	??_7type_info@@6B@:QWORD			; type_info::`vftable'
EXTRN	___security_cookie:DWORD
;	COMDAT ?_OptionsStorage@?1??__local_stdio_printf_options@@9@4_KA
_BSS	SEGMENT
?_OptionsStorage@?1??__local_stdio_printf_options@@9@4_KA DQ 01H DUP (?) ; `__local_stdio_printf_options'::`2'::_OptionsStorage
_BSS	ENDS
;	COMDAT ?atlTraceException@ATL@@3V?$CTraceCategoryEx@$0CAAA@$0A@@1@A
_BSS	SEGMENT
?atlTraceException@ATL@@3V?$CTraceCategoryEx@$0CAAA@$0A@@1@A DD 01H DUP (?) ; ATL::atlTraceException
_BSS	ENDS
;	COMDAT ?atlTraceString@ATL@@3V?$CTraceCategoryEx@$0CAAAA@$0A@@1@A
_BSS	SEGMENT
?atlTraceString@ATL@@3V?$CTraceCategoryEx@$0CAAAA@$0A@@1@A DD 01H DUP (?) ; ATL::atlTraceString
_BSS	ENDS
;	COMDAT ?m_nLevel@CTrace@ATL@@1IA
_BSS	SEGMENT
?m_nLevel@CTrace@ATL@@1IA DD 01H DUP (?)		; ATL::CTrace::m_nLevel
_BSS	ENDS
;	COMDAT ?m_nLastCategory@CTrace@ATL@@1IA
_BSS	SEGMENT
?m_nLastCategory@CTrace@ATL@@1IA DD 01H DUP (?)		; ATL::CTrace::m_nLastCategory
_BSS	ENDS
;	COMDAT ?m_nMap@CTrace@ATL@@1PAUCategoryMap@12@A
_BSS	SEGMENT
?m_nMap@CTrace@ATL@@1PAUCategoryMap@12@A DB 02080H DUP (?) ; ATL::CTrace::m_nMap
_BSS	ENDS
;	COMDAT CRT$XCU
CRT$XCU	SEGMENT
?atlTraceException$initializer$@ATL@@3P6AXXZA DD FLAT:??__EatlTraceException@ATL@@YAXXZ ; ATL::atlTraceException$initializer$
CRT$XCU	ENDS
;	COMDAT rtc$TMZ
rtc$TMZ	SEGMENT
__RTC_Shutdown.rtc$TMZ DD FLAT:__RTC_Shutdown
rtc$TMZ	ENDS
;	COMDAT rtc$IMZ
rtc$IMZ	SEGMENT
__RTC_InitBase.rtc$IMZ DD FLAT:__RTC_InitBase
rtc$IMZ	ENDS
;	COMDAT ??_R1A@?0A@EA@Solution@@8
rdata$r	SEGMENT
??_R1A@?0A@EA@Solution@@8 DD FLAT:??_R0?AVSolution@@@8	; Solution::`RTTI Base Class Descriptor at (0,-1,0,64)'
	DD	00H
	DD	00H
	DD	0ffffffffH
	DD	00H
	DD	040H
	DD	FLAT:??_R3Solution@@8
rdata$r	ENDS
;	COMDAT ??_R2Solution@@8
rdata$r	SEGMENT
??_R2Solution@@8 DD FLAT:??_R1A@?0A@EA@Solution@@8	; Solution::`RTTI Base Class Array'
rdata$r	ENDS
;	COMDAT ??_R3Solution@@8
rdata$r	SEGMENT
??_R3Solution@@8 DD 00H					; Solution::`RTTI Class Hierarchy Descriptor'
	DD	00H
	DD	01H
	DD	FLAT:??_R2Solution@@8
rdata$r	ENDS
;	COMDAT ??_R0?AVSolution@@@8
data$rs	SEGMENT
??_R0?AVSolution@@@8 DD FLAT:??_7type_info@@6B@		; Solution `RTTI Type Descriptor'
	DD	00H
	DB	'.?AVSolution@@', 00H
data$rs	ENDS
;	COMDAT ??_R4Solution@@6B@
rdata$r	SEGMENT
??_R4Solution@@6B@ DD 00H				; Solution::`RTTI Complete Object Locator'
	DD	00H
	DD	00H
	DD	FLAT:??_R0?AVSolution@@@8
	DD	FLAT:??_R3Solution@@8
rdata$r	ENDS
;	COMDAT ??_C@_03OFAPEBGM@?$CFs?6@
CONST	SEGMENT
??_C@_03OFAPEBGM@?$CFs?6@ DB '%s', 0aH, 00H		; `string'
CONST	ENDS
;	COMDAT ??_C@_1EG@ECKKEMMN@?$AAE?$AAr?$AAr?$AAe?$AAu?$AAr?$AA?5?$AAs?$AAo?$AAu?$AAs?$AA?5?$AAc?$AAa?$AAr@
CONST	SEGMENT
??_C@_1EG@ECKKEMMN@?$AAE?$AAr?$AAr?$AAe?$AAu?$AAr?$AA?5?$AAs?$AAo?$AAu?$AAs?$AA?5?$AAc?$AAa?$AAr@ DB 'E'
	DB	00H, 'r', 00H, 'r', 00H, 'e', 00H, 'u', 00H, 'r', 00H, ' ', 00H
	DB	's', 00H, 'o', 00H, 'u', 00H, 's', 00H, ' ', 00H, 'c', 00H, 'a'
	DB	00H, 'r', 00H, 'r', 00H, 0e9H, 00H, ' ', 00H, '%', 00H, 'd', 00H
	DB	':', 00H, ' ', 00H, 'n', 00H, 'o', 00H, 'm', 00H, 'b', 00H, 'r'
	DB	00H, 'e', 00H, ' ', 00H, 'e', 00H, 'g', 00H, 'a', 00H, 'u', 00H
	DB	'x', 00H, 00H, 00H				; `string'
CONST	ENDS
;	COMDAT ??_C@_1EA@OLIANHL@?$AAE?$AAr?$AAr?$AAe?$AAu?$AAr?$AA?5?$AAc?$AAo?$AAl?$AAo?$AAn?$AAn?$AAe?$AA?5@
CONST	SEGMENT
??_C@_1EA@OLIANHL@?$AAE?$AAr?$AAr?$AAe?$AAu?$AAr?$AA?5?$AAc?$AAo?$AAl?$AAo?$AAn?$AAn?$AAe?$AA?5@ DB 'E'
	DB	00H, 'r', 00H, 'r', 00H, 'e', 00H, 'u', 00H, 'r', 00H, ' ', 00H
	DB	'c', 00H, 'o', 00H, 'l', 00H, 'o', 00H, 'n', 00H, 'n', 00H, 'e'
	DB	00H, ' ', 00H, '%', 00H, 'd', 00H, ':', 00H, ' ', 00H, 'n', 00H
	DB	'o', 00H, 'm', 00H, 'b', 00H, 'r', 00H, 'e', 00H, ' ', 00H, 'e'
	DB	00H, 'g', 00H, 'a', 00H, 'u', 00H, 'x', 00H, 00H, 00H ; `string'
CONST	ENDS
;	COMDAT ??_C@_1DM@DDLFPJCI@?$AAE?$AAr?$AAr?$AAe?$AAu?$AAr?$AA?5?$AAl?$AAi?$AAg?$AAn?$AAe?$AA?5?$AA?$CF?$AAd@
CONST	SEGMENT
??_C@_1DM@DDLFPJCI@?$AAE?$AAr?$AAr?$AAe?$AAu?$AAr?$AA?5?$AAl?$AAi?$AAg?$AAn?$AAe?$AA?5?$AA?$CF?$AAd@ DB 'E'
	DB	00H, 'r', 00H, 'r', 00H, 'e', 00H, 'u', 00H, 'r', 00H, ' ', 00H
	DB	'l', 00H, 'i', 00H, 'g', 00H, 'n', 00H, 'e', 00H, ' ', 00H, '%'
	DB	00H, 'd', 00H, ':', 00H, ' ', 00H, 'n', 00H, 'o', 00H, 'm', 00H
	DB	'b', 00H, 'r', 00H, 'e', 00H, ' ', 00H, 'e', 00H, 'g', 00H, 'a'
	DB	00H, 'u', 00H, 'x', 00H, 00H, 00H		; `string'
CONST	ENDS
;	COMDAT ?__LINE__Var@?0??Display_grille@Solution@@AAEXPAUHWND__@@@Z@4JA
_DATA	SEGMENT
?__LINE__Var@?0??Display_grille@Solution@@AAEXPAUHWND__@@@Z@4JA DD 017fH ; `Solution::Display_grille'::`1'::__LINE__Var
_DATA	ENDS
;	COMDAT ??_C@_15LMEHFEOO@?$AAw?$AAt@
CONST	SEGMENT
??_C@_15LMEHFEOO@?$AAw?$AAt@ DB 'w', 00H, 't', 00H, 00H, 00H ; `string'
CONST	ENDS
;	COMDAT ??_C@_1CC@NLMIMJJF@?$AAS?$AAu?$AAd?$AAo?$AAk?$AAu?$AA_?$AAi?$AAm?$AAp?$AAu?$AAt?$AA?4?$AAt?$AAx@
CONST	SEGMENT
??_C@_1CC@NLMIMJJF@?$AAS?$AAu?$AAd?$AAo?$AAk?$AAu?$AA_?$AAi?$AAm?$AAp?$AAu?$AAt?$AA?4?$AAt?$AAx@ DB 'S'
	DB	00H, 'u', 00H, 'd', 00H, 'o', 00H, 'k', 00H, 'u', 00H, '_', 00H
	DB	'i', 00H, 'm', 00H, 'p', 00H, 'u', 00H, 't', 00H, '.', 00H, 't'
	DB	00H, 'x', 00H, 't', 00H, 00H, 00H		; `string'
CONST	ENDS
;	COMDAT ?__LINE__Var@?0??Charger_valeur_saisie@Solution@@QAEHPAUHWND__@@@Z@4JA
_DATA	SEGMENT
?__LINE__Var@?0??Charger_valeur_saisie@Solution@@QAEHPAUHWND__@@@Z@4JA DD 011fH ; `Solution::Charger_valeur_saisie'::`1'::__LINE__Var
_DATA	ENDS
;	COMDAT ??_C@_17LFHOHKCB@?$AAw?$AA?$CL?$AAt@
CONST	SEGMENT
??_C@_17LFHOHKCB@?$AAw?$AA?$CL?$AAt@ DB 'w', 00H, '+', 00H, 't', 00H, 00H
	DB	00H						; `string'
CONST	ENDS
;	COMDAT ??_C@_0BL@JGGBKHK@resultat_grille_Sudoku?4txt@
CONST	SEGMENT
??_C@_0BL@JGGBKHK@resultat_grille_Sudoku?4txt@ DB 'resultat_grille_Sudoku'
	DB	'.txt', 00H					; `string'
CONST	ENDS
;	COMDAT ?__LINE__Var@?0???0Solution@@QAE@PAUHWND__@@@Z@4JA
_DATA	SEGMENT
?__LINE__Var@?0???0Solution@@QAE@PAUHWND__@@@Z@4JA DD 0104H ; `Solution::Solution'::`1'::__LINE__Var
_DATA	ENDS
;	COMDAT ??_C@_03EGHOKNNL@?6?6?6@
CONST	SEGMENT
??_C@_03EGHOKNNL@?6?6?6@ DB 0aH, 0aH, 0aH, 00H		; `string'
CONST	ENDS
;	COMDAT ??_C@_03JDANDILB@?$CFd?5@
CONST	SEGMENT
??_C@_03JDANDILB@?$CFd?5@ DB '%d ', 00H			; `string'
CONST	ENDS
;	COMDAT ??_C@_1CK@FIOBKKHN@?$AAN?$AAo?$AAm?$AAb?$AAr?$AAe?$AA?5?$AAd?$AA?8?$AAe?$AAs?$AAs?$AAa?$AAi?$AAs@
CONST	SEGMENT
??_C@_1CK@FIOBKKHN@?$AAN?$AAo?$AAm?$AAb?$AAr?$AAe?$AA?5?$AAd?$AA?8?$AAe?$AAs?$AAs?$AAa?$AAi?$AAs@ DB 'N'
	DB	00H, 'o', 00H, 'm', 00H, 'b', 00H, 'r', 00H, 'e', 00H, ' ', 00H
	DB	'd', 00H, '''', 00H, 'e', 00H, 's', 00H, 's', 00H, 'a', 00H, 'i'
	DB	00H, 's', 00H, ' ', 00H, ':', 00H, ' ', 00H, '%', 00H, 'd', 00H
	DB	00H, 00H					; `string'
CONST	ENDS
;	COMDAT ??_C@_0BH@JLAFPNCO@Nombre?5d?8essais?5?3?5?$CFd?6?6@
CONST	SEGMENT
??_C@_0BH@JLAFPNCO@Nombre?5d?8essais?5?3?5?$CFd?6?6@ DB 'Nombre d''essais'
	DB	' : %d', 0aH, 0aH, 00H			; `string'
CONST	ENDS
;	COMDAT ??_C@_1DG@BPKNNOLH@?$AAT?$AAe?$AAm?$AAp?$AAs?$AA?5?$AAd?$AAe?$AA?5?$AAr?$PP?i?$AAs?$AAo?$AAl?$AAu@
CONST	SEGMENT
??_C@_1DG@BPKNNOLH@?$AAT?$AAe?$AAm?$AAp?$AAs?$AA?5?$AAd?$AAe?$AA?5?$AAr?$PP?i?$AAs?$AAo?$AAl?$AAu@ DB 'T'
	DB	00H, 'e', 00H, 'm', 00H, 'p', 00H, 's', 00H, ' ', 00H, 'd', 00H
	DB	'e', 00H, ' ', 00H, 'r', 00H, 0e9H, 00H, 's', 00H, 'o', 00H, 'l'
	DB	00H, 'u', 00H, 't', 00H, 'i', 00H, 'o', 00H, 'n', 00H, ' ', 00H
	DB	'<', 00H, ' ', 00H, '1', 00H, ' ', 00H, 'm', 00H, 's', 00H, 00H
	DB	00H						; `string'
CONST	ENDS
;	COMDAT ??_C@_1DI@PECEIFDA@?$AAT?$AAe?$AAm?$AAp?$AAs?$AA?5?$AAd?$AAe?$AA?5?$AAr?$PP?i?$AAs?$AAo?$AAl?$AAu@
CONST	SEGMENT
??_C@_1DI@PECEIFDA@?$AAT?$AAe?$AAm?$AAp?$AAs?$AA?5?$AAd?$AAe?$AA?5?$AAr?$PP?i?$AAs?$AAo?$AAl?$AAu@ DB 'T'
	DB	00H, 'e', 00H, 'm', 00H, 'p', 00H, 's', 00H, ' ', 00H, 'd', 00H
	DB	'e', 00H, ' ', 00H, 'r', 00H, 0e9H, 00H, 's', 00H, 'o', 00H, 'l'
	DB	00H, 'u', 00H, 't', 00H, 'i', 00H, 'o', 00H, 'n', 00H, ':', 00H
	DB	' ', 00H, '%', 00H, 'l', 00H, 'd', 00H, ' ', 00H, 'm', 00H, 's'
	DB	00H, 00H, 00H				; `string'
CONST	ENDS
;	COMDAT ??_C@_15OMIKMFFN@?$AAr?$AAt@
CONST	SEGMENT
??_C@_15OMIKMFFN@?$AAr?$AAt@ DB 'r', 00H, 't', 00H, 00H, 00H ; `string'
CONST	ENDS
;	COMDAT ??_C@_1CC@DBEOBEPH@?$AAS?$AAu?$AAd?$AAo?$AAk?$AAu?$AA_?$AAi?$AAn?$AAp?$AAu?$AAt?$AA?4?$AAt?$AAx@
CONST	SEGMENT
??_C@_1CC@DBEOBEPH@?$AAS?$AAu?$AAd?$AAo?$AAk?$AAu?$AA_?$AAi?$AAn?$AAp?$AAu?$AAt?$AA?4?$AAt?$AAx@ DB 'S'
	DB	00H, 'u', 00H, 'd', 00H, 'o', 00H, 'k', 00H, 'u', 00H, '_', 00H
	DB	'i', 00H, 'n', 00H, 'p', 00H, 'u', 00H, 't', 00H, '.', 00H, 't'
	DB	00H, 'x', 00H, 't', 00H, 00H, 00H		; `string'
CONST	ENDS
;	COMDAT ??_C@_1BI@LHMMMGAL@?$AAS?$AAu?$AAd?$AAo?$AAk?$AAu?$AA?5?$AAF?$AAi?$AAl?$AAe@
CONST	SEGMENT
??_C@_1BI@LHMMMGAL@?$AAS?$AAu?$AAd?$AAo?$AAk?$AAu?$AA?5?$AAF?$AAi?$AAl?$AAe@ DB 'S'
	DB	00H, 'u', 00H, 'd', 00H, 'o', 00H, 'k', 00H, 'u', 00H, ' ', 00H
	DB	'F', 00H, 'i', 00H, 'l', 00H, 'e', 00H, 00H, 00H ; `string'
CONST	ENDS
;	COMDAT ??_C@_0BG@FALAGNOM@All?5Files?5?$CI?$CK?4?$CK?$CJ?$HM?$CK?4?$CK?$HM?$HM@
CONST	SEGMENT
??_C@_0BG@FALAGNOM@All?5Files?5?$CI?$CK?4?$CK?$CJ?$HM?$CK?4?$CK?$HM?$HM@ DB 'A'
	DB	'll Files (*.*)|*.*||', 00H			; `string'
CONST	ENDS
;	COMDAT ??_C@_0BJ@LICJPAK@Text?5File?5?$CI?$CK?4txt?$CJ?$HM?$CK?4txt?$HM@
CONST	SEGMENT
??_C@_0BJ@LICJPAK@Text?5File?5?$CI?$CK?4txt?$CJ?$HM?$CK?4txt?$HM@ DB 'Tex'
	DB	't File (*.txt)|*.txt|', 00H			; `string'
CONST	ENDS
;	COMDAT ??_C@_0CK@JGFDDPMM@J?3?2work?2SUDOKU?2SUDOKU?2SUDOKU?2So@
CONST	SEGMENT
??_C@_0CK@JGFDDPMM@J?3?2work?2SUDOKU?2SUDOKU?2SUDOKU?2So@ DB 'J:\work\SUD'
	DB	'OKU\SUDOKU\SUDOKU\Solution.cpp', 00H	; `string'
CONST	ENDS
;	COMDAT ?__LINE__Var@?0??Definition_limite@Solution@@AAEXPAUHWND__@@@Z@4JA
_DATA	SEGMENT
?__LINE__Var@?0??Definition_limite@Solution@@AAEXPAUHWND__@@@Z@4JA DD 01eH ; `Solution::Definition_limite'::`1'::__LINE__Var
_DATA	ENDS
;	COMDAT ??_7Solution@@6B@
CONST	SEGMENT
??_7Solution@@6B@ DD FLAT:??_R4Solution@@6B@		; Solution::`vftable'
	DD	FLAT:??_ESolution@@UAEPAXI@Z
CONST	ENDS
;	COMDAT ??_C@_01EEMJAFIK@?6@
CONST	SEGMENT
??_C@_01EEMJAFIK@?6@ DB 0aH, 00H			; `string'
CONST	ENDS
;	COMDAT ??_C@_1DM@KPGCKOJB@?$AAA?$AAt?$AAl?$AAI?$AAs?$AAV?$AAa?$AAl?$AAi?$AAd?$AAS?$AAt?$AAr?$AAi?$AAn@
CONST	SEGMENT
??_C@_1DM@KPGCKOJB@?$AAA?$AAt?$AAl?$AAI?$AAs?$AAV?$AAa?$AAl?$AAi?$AAd?$AAS?$AAt?$AAr?$AAi?$AAn@ DB 'A'
	DB	00H, 't', 00H, 'l', 00H, 'I', 00H, 's', 00H, 'V', 00H, 'a', 00H
	DB	'l', 00H, 'i', 00H, 'd', 00H, 'S', 00H, 't', 00H, 'r', 00H, 'i'
	DB	00H, 'n', 00H, 'g', 00H, '(', 00H, ' ', 00H, 'p', 00H, 's', 00H
	DB	'z', 00H, 'F', 00H, 'o', 00H, 'r', 00H, 'm', 00H, 'a', 00H, 't'
	DB	00H, ' ', 00H, ')', 00H, 00H, 00H		; `string'
CONST	ENDS
;	COMDAT ??_C@_1EC@BCBEFJPM@?$AAp?$AAO?$AAl?$AAd?$AAD?$AAa?$AAt?$AAa?$AA?9?$AA?$DO?$AAn?$AAA?$AAl?$AAl?$AAo@
CONST	SEGMENT
??_C@_1EC@BCBEFJPM@?$AAp?$AAO?$AAl?$AAd?$AAD?$AAa?$AAt?$AAa?$AA?9?$AA?$DO?$AAn?$AAA?$AAl?$AAl?$AAo@ DB 'p'
	DB	00H, 'O', 00H, 'l', 00H, 'd', 00H, 'D', 00H, 'a', 00H, 't', 00H
	DB	'a', 00H, '-', 00H, '>', 00H, 'n', 00H, 'A', 00H, 'l', 00H, 'l'
	DB	00H, 'o', 00H, 'c', 00H, 'L', 00H, 'e', 00H, 'n', 00H, 'g', 00H
	DB	't', 00H, 'h', 00H, ' ', 00H, '<', 00H, ' ', 00H, 'n', 00H, 'L'
	DB	00H, 'e', 00H, 'n', 00H, 'g', 00H, 't', 00H, 'h', 00H, 00H, 00H ; `string'
CONST	ENDS
;	COMDAT ??_C@_1CA@FILBIMGF@?$AAn?$AAN?$AAe?$AAw?$AAL?$AAe?$AAn?$AAg?$AAt?$AAh?$AA?5?$AA?$DO?$AA?$DN?$AA?5?$AA0@
CONST	SEGMENT
??_C@_1CA@FILBIMGF@?$AAn?$AAN?$AAe?$AAw?$AAL?$AAe?$AAn?$AAg?$AAt?$AAh?$AA?5?$AA?$DO?$AA?$DN?$AA?5?$AA0@ DB 'n'
	DB	00H, 'N', 00H, 'e', 00H, 'w', 00H, 'L', 00H, 'e', 00H, 'n', 00H
	DB	'g', 00H, 't', 00H, 'h', 00H, ' ', 00H, '>', 00H, '=', 00H, ' '
	DB	00H, '0', 00H, 00H, 00H			; `string'
CONST	ENDS
;	COMDAT ??_C@_1BK@NHECDDNK@?$AAm?$AA_?$AAp?$AAD?$AAa?$AAt?$AAa?$AA?5?$AA?$DN?$AA?$DN?$AA?5?$AA0@
CONST	SEGMENT
??_C@_1BK@NHECDDNK@?$AAm?$AA_?$AAp?$AAD?$AAa?$AAt?$AAa?$AA?5?$AA?$DN?$AA?$DN?$AA?5?$AA0@ DB 'm'
	DB	00H, '_', 00H, 'p', 00H, 'D', 00H, 'a', 00H, 't', 00H, 'a', 00H
	DB	' ', 00H, '=', 00H, '=', 00H, ' ', 00H, '0', 00H, 00H, 00H ; `string'
CONST	ENDS
;	COMDAT ??_C@_1EG@PELIOAAG@?$AAn?$AAL?$AAe?$AAn?$AAg?$AAt?$AAh?$AA?5?$AA?$DM?$AA?$DN?$AA?5?$AAG?$AAe?$AAt?$AAD@
CONST	SEGMENT
??_C@_1EG@PELIOAAG@?$AAn?$AAL?$AAe?$AAn?$AAg?$AAt?$AAh?$AA?5?$AA?$DM?$AA?$DN?$AA?5?$AAG?$AAe?$AAt?$AAD@ DB 'n'
	DB	00H, 'L', 00H, 'e', 00H, 'n', 00H, 'g', 00H, 't', 00H, 'h', 00H
	DB	' ', 00H, '<', 00H, '=', 00H, ' ', 00H, 'G', 00H, 'e', 00H, 't'
	DB	00H, 'D', 00H, 'a', 00H, 't', 00H, 'a', 00H, '(', 00H, ')', 00H
	DB	'-', 00H, '>', 00H, 'n', 00H, 'A', 00H, 'l', 00H, 'l', 00H, 'o'
	DB	00H, 'c', 00H, 'L', 00H, 'e', 00H, 'n', 00H, 'g', 00H, 't', 00H
	DB	'h', 00H, 00H, 00H				; `string'
CONST	ENDS
;	COMDAT ??_C@_1BK@OGOKLNEF@?$AAn?$AAL?$AAe?$AAn?$AAg?$AAt?$AAh?$AA?5?$AA?$DO?$AA?$DN?$AA?5?$AA0@
CONST	SEGMENT
??_C@_1BK@OGOKLNEF@?$AAn?$AAL?$AAe?$AAn?$AAg?$AAt?$AAh?$AA?5?$AA?$DO?$AA?$DN?$AA?5?$AA0@ DB 'n'
	DB	00H, 'L', 00H, 'e', 00H, 'n', 00H, 'g', 00H, 't', 00H, 'h', 00H
	DB	' ', 00H, '>', 00H, '=', 00H, ' ', 00H, '0', 00H, 00H, 00H ; `string'
CONST	ENDS
;	COMDAT ??_C@_1FC@BMOLDHIO@?$AAW?$AAa?$AAr?$AAn?$AAi?$AAn?$AAg?$AA?3?$AA?5?$AAi?$AAm?$AAp?$AAl?$AAi?$AAc@
CONST	SEGMENT
??_C@_1FC@BMOLDHIO@?$AAW?$AAa?$AAr?$AAn?$AAi?$AAn?$AAg?$AA?3?$AA?5?$AAi?$AAm?$AAp?$AAl?$AAi?$AAc@ DB 'W'
	DB	00H, 'a', 00H, 'r', 00H, 'n', 00H, 'i', 00H, 'n', 00H, 'g', 00H
	DB	':', 00H, ' ', 00H, 'i', 00H, 'm', 00H, 'p', 00H, 'l', 00H, 'i'
	DB	00H, 'c', 00H, 'i', 00H, 't', 00H, ' ', 00H, 'L', 00H, 'o', 00H
	DB	'a', 00H, 'd', 00H, 'S', 00H, 't', 00H, 'r', 00H, 'i', 00H, 'n'
	DB	00H, 'g', 00H, '(', 00H, '%', 00H, 'u', 00H, ')', 00H, ' ', 00H
	DB	'f', 00H, 'a', 00H, 'i', 00H, 'l', 00H, 'e', 00H, 'd', 00H, 0aH
	DB	00H, 00H, 00H				; `string'
CONST	ENDS
;	COMDAT ??_C@_11LOCGONAA@@
CONST	SEGMENT
??_C@_11LOCGONAA@@ DB 00H, 00H				; `string'
CONST	ENDS
;	COMDAT ??_C@_15KNBIKKIN@?$AA?$CF?$AAd@
CONST	SEGMENT
??_C@_15KNBIKKIN@?$AA?$CF?$AAd@ DB '%', 00H, 'd', 00H, 00H, 00H ; `string'
CONST	ENDS
;	COMDAT ??_C@_0GN@HEPHHEDO@C?3?2Program?5Files?2Microsoft?5Visu@
CONST	SEGMENT
??_C@_0GN@HEPHHEDO@C?3?2Program?5Files?2Microsoft?5Visu@ DB 'C:\Program F'
	DB	'iles\Microsoft Visual Studio\2022\Enterprise\VC\Tools\MSVC\14'
	DB	'.34.31933\atlmfc\include\cstringt.h', 00H	; `string'
CONST	ENDS
;	COMDAT ??_C@_1NK@KGCDDCJB@?$AAC?$AA?3?$AA?2?$AAP?$AAr?$AAo?$AAg?$AAr?$AAa?$AAm?$AA?5?$AAF?$AAi?$AAl?$AAe@
CONST	SEGMENT
??_C@_1NK@KGCDDCJB@?$AAC?$AA?3?$AA?2?$AAP?$AAr?$AAo?$AAg?$AAr?$AAa?$AAm?$AA?5?$AAF?$AAi?$AAl?$AAe@ DB 'C'
	DB	00H, ':', 00H, '\', 00H, 'P', 00H, 'r', 00H, 'o', 00H, 'g', 00H
	DB	'r', 00H, 'a', 00H, 'm', 00H, ' ', 00H, 'F', 00H, 'i', 00H, 'l'
	DB	00H, 'e', 00H, 's', 00H, '\', 00H, 'M', 00H, 'i', 00H, 'c', 00H
	DB	'r', 00H, 'o', 00H, 's', 00H, 'o', 00H, 'f', 00H, 't', 00H, ' '
	DB	00H, 'V', 00H, 'i', 00H, 's', 00H, 'u', 00H, 'a', 00H, 'l', 00H
	DB	' ', 00H, 'S', 00H, 't', 00H, 'u', 00H, 'd', 00H, 'i', 00H, 'o'
	DB	00H, '\', 00H, '2', 00H, '0', 00H, '2', 00H, '2', 00H, '\', 00H
	DB	'E', 00H, 'n', 00H, 't', 00H, 'e', 00H, 'r', 00H, 'p', 00H, 'r'
	DB	00H, 'i', 00H, 's', 00H, 'e', 00H, '\', 00H, 'V', 00H, 'C', 00H
	DB	'\', 00H, 'T', 00H, 'o', 00H, 'o', 00H, 'l', 00H, 's', 00H, '\'
	DB	00H, 'M', 00H, 'S', 00H, 'V', 00H, 'C', 00H, '\', 00H, '1', 00H
	DB	'4', 00H, '.', 00H, '3', 00H, '4', 00H, '.', 00H, '3', 00H, '1'
	DB	00H, '9', 00H, '3', 00H, '3', 00H, '\', 00H, 'a', 00H, 't', 00H
	DB	'l', 00H, 'm', 00H, 'f', 00H, 'c', 00H, '\', 00H, 'i', 00H, 'n'
	DB	00H, 'c', 00H, 'l', 00H, 'u', 00H, 'd', 00H, 'e', 00H, '\', 00H
	DB	'c', 00H, 's', 00H, 't', 00H, 'r', 00H, 'i', 00H, 'n', 00H, 'g'
	DB	00H, 't', 00H, '.', 00H, 'h', 00H, 00H, 00H	; `string'
CONST	ENDS
;	COMDAT ??_C@_1BG@GPELCNED@?$AAn?$AAR?$AAe?$AAf?$AAs?$AA?5?$AA?$CB?$AA?$DN?$AA?5?$AA0@
CONST	SEGMENT
??_C@_1BG@GPELCNED@?$AAn?$AAR?$AAe?$AAf?$AAs?$AA?5?$AA?$CB?$AA?$DN?$AA?5?$AA0@ DB 'n'
	DB	00H, 'R', 00H, 'e', 00H, 'f', 00H, 's', 00H, ' ', 00H, '!', 00H
	DB	'=', 00H, ' ', 00H, '0', 00H, 00H, 00H	; `string'
CONST	ENDS
;	COMDAT ??_C@_1NO@CMNIKGIF@?$AAC?$AA?3?$AA?2?$AAP?$AAr?$AAo?$AAg?$AAr?$AAa?$AAm?$AA?5?$AAF?$AAi?$AAl?$AAe@
CONST	SEGMENT
??_C@_1NO@CMNIKGIF@?$AAC?$AA?3?$AA?2?$AAP?$AAr?$AAo?$AAg?$AAr?$AAa?$AAm?$AA?5?$AAF?$AAi?$AAl?$AAe@ DB 'C'
	DB	00H, ':', 00H, '\', 00H, 'P', 00H, 'r', 00H, 'o', 00H, 'g', 00H
	DB	'r', 00H, 'a', 00H, 'm', 00H, ' ', 00H, 'F', 00H, 'i', 00H, 'l'
	DB	00H, 'e', 00H, 's', 00H, '\', 00H, 'M', 00H, 'i', 00H, 'c', 00H
	DB	'r', 00H, 'o', 00H, 's', 00H, 'o', 00H, 'f', 00H, 't', 00H, ' '
	DB	00H, 'V', 00H, 'i', 00H, 's', 00H, 'u', 00H, 'a', 00H, 'l', 00H
	DB	' ', 00H, 'S', 00H, 't', 00H, 'u', 00H, 'd', 00H, 'i', 00H, 'o'
	DB	00H, '\', 00H, '2', 00H, '0', 00H, '2', 00H, '2', 00H, '\', 00H
	DB	'E', 00H, 'n', 00H, 't', 00H, 'e', 00H, 'r', 00H, 'p', 00H, 'r'
	DB	00H, 'i', 00H, 's', 00H, 'e', 00H, '\', 00H, 'V', 00H, 'C', 00H
	DB	'\', 00H, 'T', 00H, 'o', 00H, 'o', 00H, 'l', 00H, 's', 00H, '\'
	DB	00H, 'M', 00H, 'S', 00H, 'V', 00H, 'C', 00H, '\', 00H, '1', 00H
	DB	'4', 00H, '.', 00H, '3', 00H, '4', 00H, '.', 00H, '3', 00H, '1'
	DB	00H, '9', 00H, '3', 00H, '3', 00H, '\', 00H, 'a', 00H, 't', 00H
	DB	'l', 00H, 'm', 00H, 'f', 00H, 'c', 00H, '\', 00H, 'i', 00H, 'n'
	DB	00H, 'c', 00H, 'l', 00H, 'u', 00H, 'd', 00H, 'e', 00H, '\', 00H
	DB	'a', 00H, 't', 00H, 'l', 00H, 's', 00H, 'i', 00H, 'm', 00H, 'p'
	DB	00H, 's', 00H, 't', 00H, 'r', 00H, '.', 00H, 'h', 00H, 00H, 00H ; `string'
CONST	ENDS
;	COMDAT ??_C@_1BE@BLGCOAPB@?$AAn?$AAR?$AAe?$AAf?$AAs?$AA?5?$AA?$DO?$AA?5?$AA0@
CONST	SEGMENT
??_C@_1BE@BLGCOAPB@?$AAn?$AAR?$AAe?$AAf?$AAs?$AA?5?$AA?$DO?$AA?5?$AA0@ DB 'n'
	DB	00H, 'R', 00H, 'e', 00H, 'f', 00H, 's', 00H, ' ', 00H, '>', 00H
	DB	' ', 00H, '0', 00H, 00H, 00H			; `string'
CONST	ENDS
;	COMDAT ??_C@_13FPGAJAPJ@?$AA?2@
CONST	SEGMENT
??_C@_13FPGAJAPJ@?$AA?2@ DB '\', 00H, 00H, 00H		; `string'
CONST	ENDS
;	COMDAT ??_C@_1BM@GBBOFEAE@?$AA_?$AA_?$AAa?$AAt?$AAl?$AA_?$AAc?$AAo?$AAn?$AAd?$AAV?$AAa?$AAl@
CONST	SEGMENT
??_C@_1BM@GBBOFEAE@?$AA_?$AA_?$AAa?$AAt?$AAl?$AA_?$AAc?$AAo?$AAn?$AAd?$AAV?$AAa?$AAl@ DB '_'
	DB	00H, '_', 00H, 'a', 00H, 't', 00H, 'l', 00H, '_', 00H, 'c', 00H
	DB	'o', 00H, 'n', 00H, 'd', 00H, 'V', 00H, 'a', 00H, 'l', 00H, 00H
	DB	00H						; `string'
CONST	ENDS
;	COMDAT ??_C@_1CK@DFMKPFAK@?$AAA?$AAt?$AAl?$AAT?$AAh?$AAr?$AAo?$AAw?$AA?3?$AA?5?$AAh?$AAr?$AA?5?$AA?$DN?$AA?5@
CONST	SEGMENT
??_C@_1CK@DFMKPFAK@?$AAA?$AAt?$AAl?$AAT?$AAh?$AAr?$AAo?$AAw?$AA?3?$AA?5?$AAh?$AAr?$AA?5?$AA?$DN?$AA?5@ DB 'A'
	DB	00H, 't', 00H, 'l', 00H, 'T', 00H, 'h', 00H, 'r', 00H, 'o', 00H
	DB	'w', 00H, ':', 00H, ' ', 00H, 'h', 00H, 'r', 00H, ' ', 00H, '='
	DB	00H, ' ', 00H, '0', 00H, 'x', 00H, '%', 00H, 'x', 00H, 0aH, 00H
	DB	00H, 00H					; `string'
CONST	ENDS
;	COMDAT ??_C@_0GO@OMMACHMC@C?3?2Program?5Files?2Microsoft?5Visu@
CONST	SEGMENT
??_C@_0GO@OMMACHMC@C?3?2Program?5Files?2Microsoft?5Visu@ DB 'C:\Program F'
	DB	'iles\Microsoft Visual Studio\2022\Enterprise\VC\Tools\MSVC\14'
	DB	'.34.31933\atlmfc\include\atlexcept.h', 00H	; `string'
CONST	ENDS
;	COMDAT ?__LINE__Var@?0??AtlThrowImpl@ATL@@YGXJ@Z@4JA
_DATA	SEGMENT
?__LINE__Var@?0??AtlThrowImpl@ATL@@YGXJ@Z@4JA DD 041H	; `ATL::AtlThrowImpl'::`1'::__LINE__Var
_DATA	ENDS
;	COMDAT ??_C@_1NK@OBLAMPEN@?$AAC?$AA?3?$AA?2?$AAP?$AAr?$AAo?$AAg?$AAr?$AAa?$AAm?$AA?5?$AAF?$AAi?$AAl?$AAe@
CONST	SEGMENT
??_C@_1NK@OBLAMPEN@?$AAC?$AA?3?$AA?2?$AAP?$AAr?$AAo?$AAg?$AAr?$AAa?$AAm?$AA?5?$AAF?$AAi?$AAl?$AAe@ DB 'C'
	DB	00H, ':', 00H, '\', 00H, 'P', 00H, 'r', 00H, 'o', 00H, 'g', 00H
	DB	'r', 00H, 'a', 00H, 'm', 00H, ' ', 00H, 'F', 00H, 'i', 00H, 'l'
	DB	00H, 'e', 00H, 's', 00H, '\', 00H, 'M', 00H, 'i', 00H, 'c', 00H
	DB	'r', 00H, 'o', 00H, 's', 00H, 'o', 00H, 'f', 00H, 't', 00H, ' '
	DB	00H, 'V', 00H, 'i', 00H, 's', 00H, 'u', 00H, 'a', 00H, 'l', 00H
	DB	' ', 00H, 'S', 00H, 't', 00H, 'u', 00H, 'd', 00H, 'i', 00H, 'o'
	DB	00H, '\', 00H, '2', 00H, '0', 00H, '2', 00H, '2', 00H, '\', 00H
	DB	'E', 00H, 'n', 00H, 't', 00H, 'e', 00H, 'r', 00H, 'p', 00H, 'r'
	DB	00H, 'i', 00H, 's', 00H, 'e', 00H, '\', 00H, 'V', 00H, 'C', 00H
	DB	'\', 00H, 'T', 00H, 'o', 00H, 'o', 00H, 'l', 00H, 's', 00H, '\'
	DB	00H, 'M', 00H, 'S', 00H, 'V', 00H, 'C', 00H, '\', 00H, '1', 00H
	DB	'4', 00H, '.', 00H, '3', 00H, '4', 00H, '.', 00H, '3', 00H, '1'
	DB	00H, '9', 00H, '3', 00H, '3', 00H, '\', 00H, 'a', 00H, 't', 00H
	DB	'l', 00H, 'm', 00H, 'f', 00H, 'c', 00H, '\', 00H, 'i', 00H, 'n'
	DB	00H, 'c', 00H, 'l', 00H, 'u', 00H, 'd', 00H, 'e', 00H, '\', 00H
	DB	'a', 00H, 't', 00H, 'l', 00H, 't', 00H, 'r', 00H, 'a', 00H, 'c'
	DB	00H, 'e', 00H, '.', 00H, 'h', 00H, 00H, 00H	; `string'
CONST	ENDS
;	COMDAT ??_C@_1EO@EBPPKGOM@?$AAf?$AAa?$AAl?$AAs?$AAe?$AA?5?$AA?$CG?$AA?$CG?$AA?5?$AA?$CC?$AAT?$AAo?$AAo?$AA?5?$AAm@
CONST	SEGMENT
??_C@_1EO@EBPPKGOM@?$AAf?$AAa?$AAl?$AAs?$AAe?$AA?5?$AA?$CG?$AA?$CG?$AA?5?$AA?$CC?$AAT?$AAo?$AAo?$AA?5?$AAm@ DB 'f'
	DB	00H, 'a', 00H, 'l', 00H, 's', 00H, 'e', 00H, ' ', 00H, '&', 00H
	DB	'&', 00H, ' ', 00H, '"', 00H, 'T', 00H, 'o', 00H, 'o', 00H, ' '
	DB	00H, 'm', 00H, 'a', 00H, 'n', 00H, 'y', 00H, ' ', 00H, 'c', 00H
	DB	'a', 00H, 't', 00H, 'e', 00H, 'g', 00H, 'o', 00H, 'r', 00H, 'i'
	DB	00H, 'e', 00H, 's', 00H, ' ', 00H, 'd', 00H, 'e', 00H, 'f', 00H
	DB	'i', 00H, 'n', 00H, 'e', 00H, 'd', 00H, '"', 00H, 00H, 00H ; `string'
CONST	ENDS
;	COMDAT ??_C@_17LGGGMOOB@?$AA?$CF?$AAh?$AAs@
CONST	SEGMENT
??_C@_17LGGGMOOB@?$AA?$CF?$AAh?$AAs@ DB '%', 00H, 'h', 00H, 's', 00H, 00H
	DB	00H						; `string'
CONST	ENDS
;	COMDAT ??_C@_1O@OAIPCDPO@?$AA?$CF?$AAl?$AAs?$AA?$CF?$AAl?$AAs@
CONST	SEGMENT
??_C@_1O@OAIPCDPO@?$AA?$CF?$AAl?$AAs?$AA?$CF?$AAl?$AAs@ DB '%', 00H, 'l', 00H
	DB	's', 00H, '%', 00H, 'l', 00H, 's', 00H, 00H, 00H ; `string'
CONST	ENDS
;	COMDAT ??_C@_1M@PGKOAACE@?$AA?$CF?$AAu?$AA?5?$AA?9?$AA?5@
CONST	SEGMENT
??_C@_1M@PGKOAACE@?$AA?$CF?$AAu?$AA?5?$AA?9?$AA?5@ DB '%', 00H, 'u', 00H, ' '
	DB	00H, '-', 00H, ' ', 00H, 00H, 00H		; `string'
CONST	ENDS
;	COMDAT ??_C@_1O@LFNDFEBP@?$AA?$CF?$AAl?$AAs?$AA?5?$AA?9?$AA?5@
CONST	SEGMENT
??_C@_1O@LFNDFEBP@?$AA?$CF?$AAl?$AAs?$AA?5?$AA?9?$AA?5@ DB '%', 00H, 'l', 00H
	DB	's', 00H, ' ', 00H, '-', 00H, ' ', 00H, 00H, 00H ; `string'
CONST	ENDS
;	COMDAT ?m_nCategory@CTrace@ATL@@1IA
_DATA	SEGMENT
?m_nCategory@CTrace@ATL@@1IA DD 0ffffffffH		; ATL::CTrace::m_nCategory
_DATA	ENDS
;	COMDAT ??_C@_1BO@GMLILNDJ@?$AAa?$AAt?$AAl?$AAT?$AAr?$AAa?$AAc?$AAe?$AAS?$AAt?$AAr?$AAi?$AAn?$AAg@
CONST	SEGMENT
??_C@_1BO@GMLILNDJ@?$AAa?$AAt?$AAl?$AAT?$AAr?$AAa?$AAc?$AAe?$AAS?$AAt?$AAr?$AAi?$AAn?$AAg@ DB 'a'
	DB	00H, 't', 00H, 'l', 00H, 'T', 00H, 'r', 00H, 'a', 00H, 'c', 00H
	DB	'e', 00H, 'S', 00H, 't', 00H, 'r', 00H, 'i', 00H, 'n', 00H, 'g'
	DB	00H, 00H, 00H				; `string'
CONST	ENDS
;	COMDAT ??_C@_1CE@IMMADNAP@?$AAa?$AAt?$AAl?$AAT?$AAr?$AAa?$AAc?$AAe?$AAE?$AAx?$AAc?$AAe?$AAp?$AAt?$AAi@
CONST	SEGMENT
??_C@_1CE@IMMADNAP@?$AAa?$AAt?$AAl?$AAT?$AAr?$AAa?$AAc?$AAe?$AAE?$AAx?$AAc?$AAe?$AAp?$AAt?$AAi@ DB 'a'
	DB	00H, 't', 00H, 'l', 00H, 'T', 00H, 'r', 00H, 'a', 00H, 'c', 00H
	DB	'e', 00H, 'E', 00H, 'x', 00H, 'c', 00H, 'e', 00H, 'p', 00H, 't'
	DB	00H, 'i', 00H, 'o', 00H, 'n', 00H, 00H, 00H	; `string'
CONST	ENDS
;	COMDAT ??_C@_1NK@JCBLKNMO@?$AAC?$AA?3?$AA?2?$AAP?$AAr?$AAo?$AAg?$AAr?$AAa?$AAm?$AA?5?$AAF?$AAi?$AAl?$AAe@
CONST	SEGMENT
??_C@_1NK@JCBLKNMO@?$AAC?$AA?3?$AA?2?$AAP?$AAr?$AAo?$AAg?$AAr?$AAa?$AAm?$AA?5?$AAF?$AAi?$AAl?$AAe@ DB 'C'
	DB	00H, ':', 00H, '\', 00H, 'P', 00H, 'r', 00H, 'o', 00H, 'g', 00H
	DB	'r', 00H, 'a', 00H, 'm', 00H, ' ', 00H, 'F', 00H, 'i', 00H, 'l'
	DB	00H, 'e', 00H, 's', 00H, '\', 00H, 'M', 00H, 'i', 00H, 'c', 00H
	DB	'r', 00H, 'o', 00H, 's', 00H, 'o', 00H, 'f', 00H, 't', 00H, ' '
	DB	00H, 'V', 00H, 'i', 00H, 's', 00H, 'u', 00H, 'a', 00H, 'l', 00H
	DB	' ', 00H, 'S', 00H, 't', 00H, 'u', 00H, 'd', 00H, 'i', 00H, 'o'
	DB	00H, '\', 00H, '2', 00H, '0', 00H, '2', 00H, '2', 00H, '\', 00H
	DB	'E', 00H, 'n', 00H, 't', 00H, 'e', 00H, 'r', 00H, 'p', 00H, 'r'
	DB	00H, 'i', 00H, 's', 00H, 'e', 00H, '\', 00H, 'V', 00H, 'C', 00H
	DB	'\', 00H, 'T', 00H, 'o', 00H, 'o', 00H, 'l', 00H, 's', 00H, '\'
	DB	00H, 'M', 00H, 'S', 00H, 'V', 00H, 'C', 00H, '\', 00H, '1', 00H
	DB	'4', 00H, '.', 00H, '3', 00H, '4', 00H, '.', 00H, '3', 00H, '1'
	DB	00H, '9', 00H, '3', 00H, '3', 00H, '\', 00H, 'a', 00H, 't', 00H
	DB	'l', 00H, 'm', 00H, 'f', 00H, 'c', 00H, '\', 00H, 'i', 00H, 'n'
	DB	00H, 'c', 00H, 'l', 00H, 'u', 00H, 'd', 00H, 'e', 00H, '\', 00H
	DB	'a', 00H, 't', 00H, 'l', 00H, 'a', 00H, 'l', 00H, 'l', 00H, 'o'
	DB	00H, 'c', 00H, '.', 00H, 'h', 00H, 00H, 00H	; `string'
CONST	ENDS
;	COMDAT ??_C@_17CNPHIMPH@?$AA?$CF?$AAl?$AAs@
CONST	SEGMENT
??_C@_17CNPHIMPH@?$AA?$CF?$AAl?$AAs@ DB '%', 00H, 'l', 00H, 's', 00H, 00H
	DB	00H						; `string'
CONST	ENDS
;	COMDAT voltbl
voltbl	SEGMENT
_volmd	DB	016H
	DB	023H
voltbl	ENDS
;	COMDAT voltbl
voltbl	SEGMENT
_volmd	DB	030H
	DB	0e5H
voltbl	ENDS
;	COMDAT xdata$x
xdata$x	SEGMENT
__unwindtable$?Affiche_Synchro@Solution@@AAEX_K@Z DD 0ffffffffH
	DD	FLAT:__unwindfunclet$?Affiche_Synchro@Solution@@AAEX_K@Z$0
__ehfuncinfo$?Affiche_Synchro@Solution@@AAEX_K@Z DD 019930522H
	DD	01H
	DD	FLAT:__unwindtable$?Affiche_Synchro@Solution@@AAEX_K@Z
	DD	2 DUP(00H)
	DD	2 DUP(00H)
	DD	00H
	DD	01H
xdata$x	ENDS
;	COMDAT voltbl
voltbl	SEGMENT
_volmd	DB	016H
	DB	023H
voltbl	ENDS
;	COMDAT voltbl
voltbl	SEGMENT
_volmd	DW	030H
	DW	0114H
voltbl	ENDS
;	COMDAT xdata$x
xdata$x	SEGMENT
__unwindtable$?Conversion@Solution@@AAEXV?$CStringT@_WV?$StrTraitMFC@_WV?$ChTraitsCRT@_W@ATL@@@@@ATL@@@Z DD 0ffffffffH
	DD	FLAT:__unwindfunclet$?Conversion@Solution@@AAEXV?$CStringT@_WV?$StrTraitMFC@_WV?$ChTraitsCRT@_W@ATL@@@@@ATL@@@Z$0
__ehfuncinfo$?Conversion@Solution@@AAEXV?$CStringT@_WV?$StrTraitMFC@_WV?$ChTraitsCRT@_W@ATL@@@@@ATL@@@Z DD 019930522H
	DD	01H
	DD	FLAT:__unwindtable$?Conversion@Solution@@AAEXV?$CStringT@_WV?$StrTraitMFC@_WV?$ChTraitsCRT@_W@ATL@@@@@ATL@@@Z
	DD	2 DUP(00H)
	DD	2 DUP(00H)
	DD	00H
	DD	01H
xdata$x	ENDS
;	COMDAT voltbl
voltbl	SEGMENT
_volmd	DB	01eH
voltbl	ENDS
;	COMDAT xdata$x
xdata$x	SEGMENT
__unwindtable$?Dur_Dur@Solution@@AAEXXZ DD 0ffffffffH
	DD	FLAT:__unwindfunclet$?Dur_Dur@Solution@@AAEXXZ$0
__ehfuncinfo$?Dur_Dur@Solution@@AAEXXZ DD 019930522H
	DD	01H
	DD	FLAT:__unwindtable$?Dur_Dur@Solution@@AAEXXZ
	DD	2 DUP(00H)
	DD	2 DUP(00H)
	DD	00H
	DD	01H
xdata$x	ENDS
;	COMDAT voltbl
voltbl	SEGMENT
_volmd	DB	019H
	DB	026H
voltbl	ENDS
;	COMDAT voltbl
voltbl	SEGMENT
_volmd	DB	035H
	DB	0e7H
voltbl	ENDS
;	COMDAT xdata$x
xdata$x	SEGMENT
__unwindtable$?Sepcial_Folder@Solution@@AAE?AV?$CStringT@_WV?$StrTraitMFC@_WV?$ChTraitsCRT@_W@ATL@@@@@ATL@@H@Z DD 0ffffffffH
	DD	FLAT:__unwindfunclet$?Sepcial_Folder@Solution@@AAE?AV?$CStringT@_WV?$StrTraitMFC@_WV?$ChTraitsCRT@_W@ATL@@@@@ATL@@H@Z$0
__ehfuncinfo$?Sepcial_Folder@Solution@@AAE?AV?$CStringT@_WV?$StrTraitMFC@_WV?$ChTraitsCRT@_W@ATL@@@@@ATL@@H@Z DD 019930522H
	DD	01H
	DD	FLAT:__unwindtable$?Sepcial_Folder@Solution@@AAE?AV?$CStringT@_WV?$StrTraitMFC@_WV?$ChTraitsCRT@_W@ATL@@@@@ATL@@H@Z
	DD	2 DUP(00H)
	DD	2 DUP(00H)
	DD	00H
	DD	01H
xdata$x	ENDS
;	COMDAT voltbl
voltbl	SEGMENT
_volmd	DB	029H
	DB	036H
voltbl	ENDS
;	COMDAT voltbl
voltbl	SEGMENT
_volmd	DW	030H
	DW	0117H
voltbl	ENDS
;	COMDAT xdata$x
xdata$x	SEGMENT
__unwindtable$?Folder@Solution@@AAE?AV?$CStringT@_WV?$StrTraitMFC@_WV?$ChTraitsCRT@_W@ATL@@@@@ATL@@XZ DD 0ffffffffH
	DD	FLAT:__unwindfunclet$?Folder@Solution@@AAE?AV?$CStringT@_WV?$StrTraitMFC@_WV?$ChTraitsCRT@_W@ATL@@@@@ATL@@XZ$0
	DD	00H
	DD	FLAT:__unwindfunclet$?Folder@Solution@@AAE?AV?$CStringT@_WV?$StrTraitMFC@_WV?$ChTraitsCRT@_W@ATL@@@@@ATL@@XZ$1
	DD	01H
	DD	FLAT:__unwindfunclet$?Folder@Solution@@AAE?AV?$CStringT@_WV?$StrTraitMFC@_WV?$ChTraitsCRT@_W@ATL@@@@@ATL@@XZ$2
	DD	00H
	DD	FLAT:__unwindfunclet$?Folder@Solution@@AAE?AV?$CStringT@_WV?$StrTraitMFC@_WV?$ChTraitsCRT@_W@ATL@@@@@ATL@@XZ$2
__ehfuncinfo$?Folder@Solution@@AAE?AV?$CStringT@_WV?$StrTraitMFC@_WV?$ChTraitsCRT@_W@ATL@@@@@ATL@@XZ DD 019930522H
	DD	04H
	DD	FLAT:__unwindtable$?Folder@Solution@@AAE?AV?$CStringT@_WV?$StrTraitMFC@_WV?$ChTraitsCRT@_W@ATL@@@@@ATL@@XZ
	DD	2 DUP(00H)
	DD	2 DUP(00H)
	DD	00H
	DD	01H
xdata$x	ENDS
;	COMDAT voltbl
voltbl	SEGMENT
_volmd	DB	034H
	DB	041H
voltbl	ENDS
;	COMDAT voltbl
voltbl	SEGMENT
_volmd	DW	035H
	DW	01ffH
voltbl	ENDS
;	COMDAT xdata$x
xdata$x	SEGMENT
__unwindtable$?Open_File@Solution@@AAEHPA_W@Z DD 0ffffffffH
	DD	FLAT:__unwindfunclet$?Open_File@Solution@@AAEHPA_W@Z$0
	DD	00H
	DD	FLAT:__unwindfunclet$?Open_File@Solution@@AAEHPA_W@Z$1
	DD	01H
	DD	FLAT:__unwindfunclet$?Open_File@Solution@@AAEHPA_W@Z$2
	DD	02H
	DD	FLAT:__unwindfunclet$?Open_File@Solution@@AAEHPA_W@Z$3
__ehfuncinfo$?Open_File@Solution@@AAEHPA_W@Z DD 019930522H
	DD	04H
	DD	FLAT:__unwindtable$?Open_File@Solution@@AAEHPA_W@Z
	DD	2 DUP(00H)
	DD	2 DUP(00H)
	DD	00H
	DD	01H
xdata$x	ENDS
;	COMDAT voltbl
voltbl	SEGMENT
_volmd	DB	034H
	DB	041H
voltbl	ENDS
;	COMDAT voltbl
voltbl	SEGMENT
_volmd	DW	035H
	DW	01ffH
voltbl	ENDS
;	COMDAT xdata$x
xdata$x	SEGMENT
__unwindtable$?Save_File@Solution@@AAEHPA_W@Z DD 0ffffffffH
	DD	FLAT:__unwindfunclet$?Save_File@Solution@@AAEHPA_W@Z$0
	DD	00H
	DD	FLAT:__unwindfunclet$?Save_File@Solution@@AAEHPA_W@Z$1
	DD	01H
	DD	FLAT:__unwindfunclet$?Save_File@Solution@@AAEHPA_W@Z$2
	DD	02H
	DD	FLAT:__unwindfunclet$?Save_File@Solution@@AAEHPA_W@Z$3
__ehfuncinfo$?Save_File@Solution@@AAEHPA_W@Z DD 019930522H
	DD	04H
	DD	FLAT:__unwindtable$?Save_File@Solution@@AAEHPA_W@Z
	DD	2 DUP(00H)
	DD	2 DUP(00H)
	DD	00H
	DD	01H
xdata$x	ENDS
;	COMDAT voltbl
voltbl	SEGMENT
_volmd	DB	016H
	DB	023H
voltbl	ENDS
;	COMDAT voltbl
voltbl	SEGMENT
_volmd	DB	030H
	DB	0dcH
voltbl	ENDS
;	COMDAT xdata$x
xdata$x	SEGMENT
__unwindtable$?Current_Dir@Solution@@AAE?AV?$CStringT@_WV?$StrTraitMFC@_WV?$ChTraitsCRT@_W@ATL@@@@@ATL@@XZ DD 0ffffffffH
	DD	FLAT:__unwindfunclet$?Current_Dir@Solution@@AAE?AV?$CStringT@_WV?$StrTraitMFC@_WV?$ChTraitsCRT@_W@ATL@@@@@ATL@@XZ$0
__ehfuncinfo$?Current_Dir@Solution@@AAE?AV?$CStringT@_WV?$StrTraitMFC@_WV?$ChTraitsCRT@_W@ATL@@@@@ATL@@XZ DD 019930522H
	DD	01H
	DD	FLAT:__unwindtable$?Current_Dir@Solution@@AAE?AV?$CStringT@_WV?$StrTraitMFC@_WV?$ChTraitsCRT@_W@ATL@@@@@ATL@@XZ
	DD	2 DUP(00H)
	DD	2 DUP(00H)
	DD	00H
	DD	01H
xdata$x	ENDS
;	COMDAT voltbl
voltbl	SEGMENT
_volmd	DB	016H
	DB	023H
voltbl	ENDS
;	COMDAT voltbl
voltbl	SEGMENT
_volmd	DW	030H
	DW	015fH
voltbl	ENDS
;	COMDAT xdata$x
xdata$x	SEGMENT
__unwindtable$?Print@Solution@@AAEXXZ DD 0ffffffffH
	DD	FLAT:__unwindfunclet$?Print@Solution@@AAEXXZ$0
__ehfuncinfo$?Print@Solution@@AAEXXZ DD 019930522H
	DD	01H
	DD	FLAT:__unwindtable$?Print@Solution@@AAEXXZ
	DD	2 DUP(00H)
	DD	2 DUP(00H)
	DD	00H
	DD	01H
xdata$x	ENDS
;	COMDAT voltbl
voltbl	SEGMENT
_volmd	DB	016H
	DB	023H
voltbl	ENDS
;	COMDAT voltbl
voltbl	SEGMENT
_volmd	DW	030H
	DW	0174H
voltbl	ENDS
;	COMDAT xdata$x
xdata$x	SEGMENT
__unwindtable$?Display_grille@Solution@@AAEXPAUHWND__@@@Z DD 0ffffffffH
	DD	FLAT:__unwindfunclet$?Display_grille@Solution@@AAEXPAUHWND__@@@Z$0
__ehfuncinfo$?Display_grille@Solution@@AAEXPAUHWND__@@@Z DD 019930522H
	DD	01H
	DD	FLAT:__unwindtable$?Display_grille@Solution@@AAEXPAUHWND__@@@Z
	DD	2 DUP(00H)
	DD	2 DUP(00H)
	DD	00H
	DD	01H
xdata$x	ENDS
;	COMDAT voltbl
voltbl	SEGMENT
_volmd	DB	022H
	DB	0e8H
voltbl	ENDS
;	COMDAT voltbl
voltbl	SEGMENT
_volmd	DB	016H
	DB	023H
voltbl	ENDS
;	COMDAT voltbl
voltbl	SEGMENT
_volmd	DW	030H
	DW	012aH
voltbl	ENDS
;	COMDAT xdata$x
xdata$x	SEGMENT
__unwindtable$?Check_input_a_sub_square@Solution@@AAEHH@Z DD 0ffffffffH
	DD	FLAT:__unwindfunclet$?Check_input_a_sub_square@Solution@@AAEHH@Z$0
__ehfuncinfo$?Check_input_a_sub_square@Solution@@AAEHH@Z DD 019930522H
	DD	01H
	DD	FLAT:__unwindtable$?Check_input_a_sub_square@Solution@@AAEHH@Z
	DD	2 DUP(00H)
	DD	2 DUP(00H)
	DD	00H
	DD	01H
xdata$x	ENDS
;	COMDAT voltbl
voltbl	SEGMENT
_volmd	DB	016H
	DB	023H
voltbl	ENDS
;	COMDAT voltbl
voltbl	SEGMENT
_volmd	DW	030H
	DW	012dH
voltbl	ENDS
;	COMDAT xdata$x
xdata$x	SEGMENT
__unwindtable$?Check_input_a_column@Solution@@AAEHH@Z DD 0ffffffffH
	DD	FLAT:__unwindfunclet$?Check_input_a_column@Solution@@AAEHH@Z$0
__ehfuncinfo$?Check_input_a_column@Solution@@AAEHH@Z DD 019930522H
	DD	01H
	DD	FLAT:__unwindtable$?Check_input_a_column@Solution@@AAEHH@Z
	DD	2 DUP(00H)
	DD	2 DUP(00H)
	DD	00H
	DD	01H
xdata$x	ENDS
;	COMDAT voltbl
voltbl	SEGMENT
_volmd	DB	016H
	DB	023H
voltbl	ENDS
;	COMDAT voltbl
voltbl	SEGMENT
_volmd	DW	030H
	DW	012dH
voltbl	ENDS
;	COMDAT xdata$x
xdata$x	SEGMENT
__unwindtable$?Check_input_a_row@Solution@@AAEHH@Z DD 0ffffffffH
	DD	FLAT:__unwindfunclet$?Check_input_a_row@Solution@@AAEHH@Z$0
__ehfuncinfo$?Check_input_a_row@Solution@@AAEHH@Z DD 019930522H
	DD	01H
	DD	FLAT:__unwindtable$?Check_input_a_row@Solution@@AAEHH@Z
	DD	2 DUP(00H)
	DD	2 DUP(00H)
	DD	00H
	DD	01H
xdata$x	ENDS
;	COMDAT voltbl
voltbl	SEGMENT
_volmd	DW	025H
	DW	01abH
voltbl	ENDS
;	COMDAT voltbl
voltbl	SEGMENT
_volmd	DB	016H
	DB	023H
voltbl	ENDS
;	COMDAT voltbl
voltbl	SEGMENT
_volmd	DW	030H
	DW	01d2H
voltbl	ENDS
;	COMDAT xdata$x
xdata$x	SEGMENT
__unwindtable$?Charger_valeur_saisie@Solution@@QAEHPAUHWND__@@@Z DD 0ffffffffH
	DD	FLAT:__unwindfunclet$?Charger_valeur_saisie@Solution@@QAEHPAUHWND__@@@Z$0
__ehfuncinfo$?Charger_valeur_saisie@Solution@@QAEHPAUHWND__@@@Z DD 019930522H
	DD	01H
	DD	FLAT:__unwindtable$?Charger_valeur_saisie@Solution@@QAEHPAUHWND__@@@Z
	DD	2 DUP(00H)
	DD	2 DUP(00H)
	DD	00H
	DD	01H
xdata$x	ENDS
;	COMDAT voltbl
voltbl	SEGMENT
_volmd	DB	061H
	DB	06eH
voltbl	ENDS
;	COMDAT voltbl
voltbl	SEGMENT
_volmd	DW	030H
	DW	01f2H
voltbl	ENDS
;	COMDAT xdata$x
xdata$x	SEGMENT
__ehfuncinfo$??0Solution@@QAE@PAUHWND__@@@Z DD 019930522H
	DD	0aH
	DD	FLAT:__unwindtable$??0Solution@@QAE@PAUHWND__@@@Z
	DD	2 DUP(00H)
	DD	2 DUP(00H)
	DD	00H
	DD	01H
__unwindtable$??0Solution@@QAE@PAUHWND__@@@Z DD 0ffffffffH
	DD	FLAT:__unwindfunclet$??0Solution@@QAE@PAUHWND__@@@Z$0
	DD	00H
	DD	FLAT:__unwindfunclet$??0Solution@@QAE@PAUHWND__@@@Z$1
	DD	01H
	DD	FLAT:__unwindfunclet$??0Solution@@QAE@PAUHWND__@@@Z$2
	DD	02H
	DD	FLAT:__unwindfunclet$??0Solution@@QAE@PAUHWND__@@@Z$3
	DD	03H
	DD	FLAT:__unwindfunclet$??0Solution@@QAE@PAUHWND__@@@Z$4
	DD	04H
	DD	FLAT:__unwindfunclet$??0Solution@@QAE@PAUHWND__@@@Z$5
	DD	05H
	DD	FLAT:__unwindfunclet$??0Solution@@QAE@PAUHWND__@@@Z$6
	DD	04H
	DD	FLAT:__unwindfunclet$??0Solution@@QAE@PAUHWND__@@@Z$6
	DD	03H
	DD	FLAT:__unwindfunclet$??0Solution@@QAE@PAUHWND__@@@Z$6
	DD	02H
	DD	FLAT:__unwindfunclet$??0Solution@@QAE@PAUHWND__@@@Z$6
xdata$x	ENDS
;	COMDAT voltbl
voltbl	SEGMENT
_volmd	DW	022H
	DW	0153H
voltbl	ENDS
;	COMDAT voltbl
voltbl	SEGMENT
_volmd	DB	016H
	DB	023H
voltbl	ENDS
;	COMDAT voltbl
voltbl	SEGMENT
_volmd	DB	02eH
	DB	0b9H
voltbl	ENDS
;	COMDAT xdata$x
xdata$x	SEGMENT
__unwindtable$??H@YA?AV_bstr_t@@PB_WABV0@@Z DD 0ffffffffH
	DD	FLAT:__unwindfunclet$??H@YA?AV_bstr_t@@PB_WABV0@@Z$0
__ehfuncinfo$??H@YA?AV_bstr_t@@PB_WABV0@@Z DD 019930522H
	DD	01H
	DD	FLAT:__unwindtable$??H@YA?AV_bstr_t@@PB_WABV0@@Z
	DD	2 DUP(00H)
	DD	2 DUP(00H)
	DD	00H
	DD	01H
xdata$x	ENDS
;	COMDAT voltbl
voltbl	SEGMENT
_volmd	DB	01eH
voltbl	ENDS
;	COMDAT xdata$x
xdata$x	SEGMENT
__unwindtable$??Y_bstr_t@@QAEAAV0@ABV0@@Z DD 0ffffffffH
	DD	FLAT:__unwindfunclet$??Y_bstr_t@@QAEAAV0@ABV0@@Z$0
__ehfuncinfo$??Y_bstr_t@@QAEAAV0@ABV0@@Z DD 019930522H
	DD	01H
	DD	FLAT:__unwindtable$??Y_bstr_t@@QAEAAV0@ABV0@@Z
	DD	2 DUP(00H)
	DD	2 DUP(00H)
	DD	00H
	DD	01H
xdata$x	ENDS
;	COMDAT voltbl
voltbl	SEGMENT
_volmd	DB	01eH
voltbl	ENDS
;	COMDAT xdata$x
xdata$x	SEGMENT
__unwindtable$??0_bstr_t@@QAE@PB_W@Z DD 0ffffffffH
	DD	FLAT:__unwindfunclet$??0_bstr_t@@QAE@PB_W@Z$0
__ehfuncinfo$??0_bstr_t@@QAE@PB_W@Z DD 019930522H
	DD	01H
	DD	FLAT:__unwindtable$??0_bstr_t@@QAE@PB_W@Z
	DD	2 DUP(00H)
	DD	2 DUP(00H)
	DD	00H
	DD	01H
xdata$x	ENDS
;	COMDAT voltbl
voltbl	SEGMENT
_volmd	DB	01eH
voltbl	ENDS
;	COMDAT xdata$x
xdata$x	SEGMENT
__unwindtable$??0_bstr_t@@QAE@PBD@Z DD 0ffffffffH
	DD	FLAT:__unwindfunclet$??0_bstr_t@@QAE@PBD@Z$0
__ehfuncinfo$??0_bstr_t@@QAE@PBD@Z DD 019930522H
	DD	01H
	DD	FLAT:__unwindtable$??0_bstr_t@@QAE@PBD@Z
	DD	2 DUP(00H)
	DD	2 DUP(00H)
	DD	00H
	DD	01H
xdata$x	ENDS
;	COMDAT voltbl
voltbl	SEGMENT
_volmd	DB	016H
	DB	023H
voltbl	ENDS
;	COMDAT voltbl
voltbl	SEGMENT
_volmd	DB	02eH
	DB	0e4H
voltbl	ENDS
;	COMDAT xdata$x
xdata$x	SEGMENT
__unwindtable$??HATL@@YA?AV?$CStringT@_WV?$StrTraitMFC@_WV?$ChTraitsCRT@_W@ATL@@@@@0@ABV10@0@Z DD 0ffffffffH
	DD	FLAT:__unwindfunclet$??HATL@@YA?AV?$CStringT@_WV?$StrTraitMFC@_WV?$ChTraitsCRT@_W@ATL@@@@@0@ABV10@0@Z$0
__ehfuncinfo$??HATL@@YA?AV?$CStringT@_WV?$StrTraitMFC@_WV?$ChTraitsCRT@_W@ATL@@@@@0@ABV10@0@Z DD 019930522H
	DD	01H
	DD	FLAT:__unwindtable$??HATL@@YA?AV?$CStringT@_WV?$StrTraitMFC@_WV?$ChTraitsCRT@_W@ATL@@@@@0@ABV10@0@Z
	DD	2 DUP(00H)
	DD	2 DUP(00H)
	DD	00H
	DD	01H
xdata$x	ENDS
;	COMDAT voltbl
voltbl	SEGMENT
_volmd	DB	016H
	DB	023H
voltbl	ENDS
;	COMDAT voltbl
voltbl	SEGMENT
_volmd	DW	030H
	DW	0135H
voltbl	ENDS
;	COMDAT xdata$x
xdata$x	SEGMENT
__unwindtable$?FormatV@?$CStringT@_WV?$StrTraitMFC@_WV?$ChTraitsCRT@_W@ATL@@@@@ATL@@QAEXPB_WPAD@Z DD 0ffffffffH
	DD	FLAT:__unwindfunclet$?FormatV@?$CStringT@_WV?$StrTraitMFC@_WV?$ChTraitsCRT@_W@ATL@@@@@ATL@@QAEXPB_WPAD@Z$0
__ehfuncinfo$?FormatV@?$CStringT@_WV?$StrTraitMFC@_WV?$ChTraitsCRT@_W@ATL@@@@@ATL@@QAEXPB_WPAD@Z DD 019930522H
	DD	01H
	DD	FLAT:__unwindtable$?FormatV@?$CStringT@_WV?$StrTraitMFC@_WV?$ChTraitsCRT@_W@ATL@@@@@ATL@@QAEXPB_WPAD@Z
	DD	2 DUP(00H)
	DD	2 DUP(00H)
	DD	00H
	DD	01H
xdata$x	ENDS
;	COMDAT voltbl
voltbl	SEGMENT
_volmd	DB	016H
	DB	023H
voltbl	ENDS
;	COMDAT voltbl
voltbl	SEGMENT
_volmd	DB	030H
	DB	0afH
voltbl	ENDS
;	COMDAT xdata$x
xdata$x	SEGMENT
__unwindtable$??Y?$CStringT@_WV?$StrTraitMFC@_WV?$ChTraitsCRT@_W@ATL@@@@@ATL@@QAEAAV01@PBD@Z DD 0ffffffffH
	DD	FLAT:__unwindfunclet$??Y?$CStringT@_WV?$StrTraitMFC@_WV?$ChTraitsCRT@_W@ATL@@@@@ATL@@QAEAAV01@PBD@Z$0
__ehfuncinfo$??Y?$CStringT@_WV?$StrTraitMFC@_WV?$ChTraitsCRT@_W@ATL@@@@@ATL@@QAEAAV01@PBD@Z DD 019930522H
	DD	01H
	DD	FLAT:__unwindtable$??Y?$CStringT@_WV?$StrTraitMFC@_WV?$ChTraitsCRT@_W@ATL@@@@@ATL@@QAEAAV01@PBD@Z
	DD	2 DUP(00H)
	DD	2 DUP(00H)
	DD	00H
	DD	01H
xdata$x	ENDS
;	COMDAT voltbl
voltbl	SEGMENT
_volmd	DB	016H
voltbl	ENDS
;	COMDAT xdata$x
xdata$x	SEGMENT
__unwindtable$??0?$CStringT@_WV?$StrTraitMFC@_WV?$ChTraitsCRT@_W@ATL@@@@@ATL@@QAE@PBDPAUIAtlStringMgr@1@@Z DD 0ffffffffH
	DD	FLAT:__unwindfunclet$??0?$CStringT@_WV?$StrTraitMFC@_WV?$ChTraitsCRT@_W@ATL@@@@@ATL@@QAE@PBDPAUIAtlStringMgr@1@@Z$0
__ehfuncinfo$??0?$CStringT@_WV?$StrTraitMFC@_WV?$ChTraitsCRT@_W@ATL@@@@@ATL@@QAE@PBDPAUIAtlStringMgr@1@@Z DD 019930522H
	DD	01H
	DD	FLAT:__unwindtable$??0?$CStringT@_WV?$StrTraitMFC@_WV?$ChTraitsCRT@_W@ATL@@@@@ATL@@QAE@PBDPAUIAtlStringMgr@1@@Z
	DD	2 DUP(00H)
	DD	2 DUP(00H)
	DD	00H
	DD	01H
xdata$x	ENDS
;	COMDAT voltbl
voltbl	SEGMENT
_volmd	DB	016H
voltbl	ENDS
;	COMDAT xdata$x
xdata$x	SEGMENT
__unwindtable$??0?$CStringT@_WV?$StrTraitMFC@_WV?$ChTraitsCRT@_W@ATL@@@@@ATL@@QAE@PB_WPAUIAtlStringMgr@1@@Z DD 0ffffffffH
	DD	FLAT:__unwindfunclet$??0?$CStringT@_WV?$StrTraitMFC@_WV?$ChTraitsCRT@_W@ATL@@@@@ATL@@QAE@PB_WPAUIAtlStringMgr@1@@Z$0
__ehfuncinfo$??0?$CStringT@_WV?$StrTraitMFC@_WV?$ChTraitsCRT@_W@ATL@@@@@ATL@@QAE@PB_WPAUIAtlStringMgr@1@@Z DD 019930522H
	DD	01H
	DD	FLAT:__unwindtable$??0?$CStringT@_WV?$StrTraitMFC@_WV?$ChTraitsCRT@_W@ATL@@@@@ATL@@QAE@PB_WPAUIAtlStringMgr@1@@Z
	DD	2 DUP(00H)
	DD	2 DUP(00H)
	DD	00H
	DD	01H
xdata$x	ENDS
;	COMDAT voltbl
voltbl	SEGMENT
_volmd	DB	016H
voltbl	ENDS
;	COMDAT xdata$x
xdata$x	SEGMENT
__unwindtable$??0?$CStringT@_WV?$StrTraitMFC@_WV?$ChTraitsCRT@_W@ATL@@@@@ATL@@QAE@PB_W@Z DD 0ffffffffH
	DD	FLAT:__unwindfunclet$??0?$CStringT@_WV?$StrTraitMFC@_WV?$ChTraitsCRT@_W@ATL@@@@@ATL@@QAE@PB_W@Z$0
__ehfuncinfo$??0?$CStringT@_WV?$StrTraitMFC@_WV?$ChTraitsCRT@_W@ATL@@@@@ATL@@QAE@PB_W@Z DD 019930522H
	DD	01H
	DD	FLAT:__unwindtable$??0?$CStringT@_WV?$StrTraitMFC@_WV?$ChTraitsCRT@_W@ATL@@@@@ATL@@QAE@PB_W@Z
	DD	2 DUP(00H)
	DD	2 DUP(00H)
	DD	00H
	DD	01H
xdata$x	ENDS
;	COMDAT voltbl
voltbl	SEGMENT
_volmd	DB	016H
	DB	023H
voltbl	ENDS
;	COMDAT voltbl
voltbl	SEGMENT
_volmd	DB	02eH
	DB	0a5H
voltbl	ENDS
;	COMDAT xdata$x
xdata$x	SEGMENT
__unwindtable$??RCTraceFileAndLineInfo@ATL@@QBAXHIPB_WZZ DD 0ffffffffH
	DD	FLAT:__unwindfunclet$??RCTraceFileAndLineInfo@ATL@@QBAXHIPB_WZZ$0
__ehfuncinfo$??RCTraceFileAndLineInfo@ATL@@QBAXHIPB_WZZ DD 019930522H
	DD	01H
	DD	FLAT:__unwindtable$??RCTraceFileAndLineInfo@ATL@@QBAXHIPB_WZZ
	DD	2 DUP(00H)
	DD	2 DUP(00H)
	DD	00H
	DD	01H
xdata$x	ENDS
;	COMDAT voltbl
voltbl	SEGMENT
_volmd	DB	022H
	DB	06eH
voltbl	ENDS
;	COMDAT voltbl
voltbl	SEGMENT
_volmd	DB	016H
	DB	023H
voltbl	ENDS
;	COMDAT voltbl
voltbl	SEGMENT
_volmd	DW	02eH
	DW	0157H
voltbl	ENDS
;	COMDAT xdata$x
xdata$x	SEGMENT
__unwindtable$?TraceV@CTrace@ATL@@SAXPBDHIIPB_WPAD@Z DD 0ffffffffH
	DD	FLAT:__unwindfunclet$?TraceV@CTrace@ATL@@SAXPBDHIIPB_WPAD@Z$0
__ehfuncinfo$?TraceV@CTrace@ATL@@SAXPBDHIIPB_WPAD@Z DD 019930522H
	DD	01H
	DD	FLAT:__unwindtable$?TraceV@CTrace@ATL@@SAXPBDHIIPB_WPAD@Z
	DD	2 DUP(00H)
	DD	2 DUP(00H)
	DD	00H
	DD	01H
xdata$x	ENDS
;	COMDAT voltbl
voltbl	SEGMENT
_volmd	DW	025H
	DW	0223H
voltbl	ENDS
;	COMDAT voltbl
voltbl	SEGMENT
_volmd	DB	020H
	DB	091H
voltbl	ENDS
;	COMDAT CRT$XCU
CRT$XCU	SEGMENT
?atlTraceString$initializer$@ATL@@3P6AXXZA DD FLAT:??__EatlTraceString@ATL@@YAXXZ ; ATL::atlTraceString$initializer$
CRT$XCU	ENDS
; Function compile flags: /Odt
;	COMDAT __JustMyCode_Default
_TEXT	SEGMENT
__JustMyCode_Default PROC				; COMDAT
  00000	55		 push	 ebp
  00001	8b ec		 mov	 ebp, esp
  00003	5d		 pop	 ebp
  00004	c3		 ret	 0
__JustMyCode_Default ENDP
_TEXT	ENDS
; Function compile flags: /Odsp /RTCsu /ZI
;	COMDAT ??_GSolution@@UAEPAXI@Z
_TEXT	SEGMENT
_this$ = -8						; size = 4
___flags$ = 8						; size = 4
??_GSolution@@UAEPAXI@Z PROC				; Solution::`scalar deleting destructor', COMDAT
; _this$ = ecx
  00000	55		 push	 ebp
  00001	8b ec		 mov	 ebp, esp
  00003	81 ec cc 00 00
	00		 sub	 esp, 204		; 000000ccH
  00009	53		 push	 ebx
  0000a	56		 push	 esi
  0000b	57		 push	 edi
  0000c	51		 push	 ecx
  0000d	8d 7d f4	 lea	 edi, DWORD PTR [ebp-12]
  00010	6a 03		 push	 3
  00012	59		 pop	 ecx
  00013	b8 cc cc cc cc	 mov	 eax, -858993460		; ccccccccH
  00018	f3 ab		 rep stosd
  0001a	59		 pop	 ecx
  0001b	89 4d f8	 mov	 DWORD PTR _this$[ebp], ecx
  0001e	8b 4d f8	 mov	 ecx, DWORD PTR _this$[ebp]
  00021	e8 00 00 00 00	 call	 ??1Solution@@UAE@XZ	; Solution::~Solution
  00026	8b 45 08	 mov	 eax, DWORD PTR ___flags$[ebp]
  00029	83 e0 01	 and	 eax, 1
  0002c	74 0f		 je	 SHORT $LN2@scalar
  0002e	68 60 01 00 00	 push	 352			; 00000160H
  00033	ff 75 f8	 push	 DWORD PTR _this$[ebp]
  00036	e8 00 00 00 00	 call	 ??3@YAXPAXI@Z		; operator delete
  0003b	59		 pop	 ecx
  0003c	59		 pop	 ecx
$LN2@scalar:
  0003d	8b 45 f8	 mov	 eax, DWORD PTR _this$[ebp]
  00040	5f		 pop	 edi
  00041	5e		 pop	 esi
  00042	5b		 pop	 ebx
  00043	81 c4 cc 00 00
	00		 add	 esp, 204		; 000000ccH
  00049	3b ec		 cmp	 ebp, esp
  0004b	e8 00 00 00 00	 call	 __RTC_CheckEsp
  00050	c9		 leave
  00051	c2 04 00	 ret	 4
??_GSolution@@UAEPAXI@Z ENDP				; Solution::`scalar deleting destructor'
_TEXT	ENDS
; Function compile flags: /Odsp /RTCsu /ZI
; File J:\work\SUDOKU\SUDOKU\SUDOKU\Solution.cpp
;	COMDAT ?Affiche_Synchro@Solution@@AAEX_K@Z
_TEXT	SEGMENT
_Affiche$ = -36						; size = 4
_this$ = -24						; size = 4
__$ArrayPad$ = -16					; size = 4
__$EHRec$ = -12						; size = 12
___Time$ = 8						; size = 8
?Affiche_Synchro@Solution@@AAEX_K@Z PROC		; Solution::Affiche_Synchro, COMDAT
; _this$ = ecx

; 197  : {	

  00000	55		 push	 ebp
  00001	8b ec		 mov	 ebp, esp
  00003	6a ff		 push	 -1
  00005	68 00 00 00 00	 push	 __ehhandler$?Affiche_Synchro@Solution@@AAEX_K@Z
  0000a	64 a1 00 00 00
	00		 mov	 eax, DWORD PTR fs:0
  00010	50		 push	 eax
  00011	81 ec dc 00 00
	00		 sub	 esp, 220		; 000000dcH
  00017	53		 push	 ebx
  00018	56		 push	 esi
  00019	57		 push	 edi
  0001a	51		 push	 ecx
  0001b	8d 7d d8	 lea	 edi, DWORD PTR [ebp-40]
  0001e	6a 07		 push	 7
  00020	59		 pop	 ecx
  00021	b8 cc cc cc cc	 mov	 eax, -858993460		; ccccccccH
  00026	f3 ab		 rep stosd
  00028	59		 pop	 ecx
  00029	a1 00 00 00 00	 mov	 eax, DWORD PTR ___security_cookie
  0002e	33 c5		 xor	 eax, ebp
  00030	89 45 f0	 mov	 DWORD PTR __$ArrayPad$[ebp], eax
  00033	50		 push	 eax
  00034	8d 45 f4	 lea	 eax, DWORD PTR __$EHRec$[ebp]
  00037	64 a3 00 00 00
	00		 mov	 DWORD PTR fs:0, eax
  0003d	89 4d e8	 mov	 DWORD PTR _this$[ebp], ecx
  00040	b9 00 00 00 00	 mov	 ecx, OFFSET __CBE53D1F_Solution@cpp
  00045	e8 00 00 00 00	 call	 @__CheckForDebuggerJustMyCode@4

; 198  : 	CString Affiche = _T("");

  0004a	6a 04		 push	 4
  0004c	8d 4d dc	 lea	 ecx, DWORD PTR _Affiche$[ebp]
  0004f	e8 00 00 00 00	 call	 ?__autoclassinit2@?$CStringT@_WV?$StrTraitMFC@_WV?$ChTraitsCRT@_W@ATL@@@@@ATL@@QAEXI@Z
  00054	68 00 00 00 00	 push	 OFFSET ??_C@_11LOCGONAA@@
  00059	8d 4d dc	 lea	 ecx, DWORD PTR _Affiche$[ebp]
  0005c	e8 00 00 00 00	 call	 ??0?$CStringT@_WV?$StrTraitMFC@_WV?$ChTraitsCRT@_W@ATL@@@@@ATL@@QAE@PB_W@Z ; ATL::CStringT<wchar_t,StrTraitMFC<wchar_t,ATL::ChTraitsCRT<wchar_t> > >::CStringT<wchar_t,StrTraitMFC<wchar_t,ATL::ChTraitsCRT<wchar_t> > >
  00061	83 65 fc 00	 and	 DWORD PTR __$EHRec$[ebp+8], 0

; 199  : 	if (__Time > 0)

  00065	83 7d 0c 00	 cmp	 DWORD PTR ___Time$[ebp+4], 0
  00069	77 06		 ja	 SHORT $LN6@Affiche_Sy
  0006b	83 7d 08 00	 cmp	 DWORD PTR ___Time$[ebp], 0
  0006f	76 16		 jbe	 SHORT $LN2@Affiche_Sy
$LN6@Affiche_Sy:

; 200  : 	{
; 201  : 		Affiche.Format(_T("Temps de rsolution: %ld ms"), (long) __Time);

  00071	ff 75 08	 push	 DWORD PTR ___Time$[ebp]
  00074	68 00 00 00 00	 push	 OFFSET ??_C@_1DI@PECEIFDA@?$AAT?$AAe?$AAm?$AAp?$AAs?$AA?5?$AAd?$AAe?$AA?5?$AAr?$PP?i?$AAs?$AAo?$AAl?$AAu@
  00079	8d 45 dc	 lea	 eax, DWORD PTR _Affiche$[ebp]
  0007c	50		 push	 eax
  0007d	e8 00 00 00 00	 call	 ?Format@?$CStringT@_WV?$StrTraitMFC@_WV?$ChTraitsCRT@_W@ATL@@@@@ATL@@QAAXPB_WZZ ; ATL::CStringT<wchar_t,StrTraitMFC<wchar_t,ATL::ChTraitsCRT<wchar_t> > >::Format
  00082	83 c4 0c	 add	 esp, 12			; 0000000cH

; 202  : 	}

  00085	eb 0d		 jmp	 SHORT $LN3@Affiche_Sy
$LN2@Affiche_Sy:

; 203  : 	else
; 204  : 	{
; 205  : 		Affiche = _T("Temps de rsolution < 1 ms");

  00087	68 00 00 00 00	 push	 OFFSET ??_C@_1DG@BPKNNOLH@?$AAT?$AAe?$AAm?$AAp?$AAs?$AA?5?$AAd?$AAe?$AA?5?$AAr?$PP?i?$AAs?$AAo?$AAl?$AAu@
  0008c	8d 4d dc	 lea	 ecx, DWORD PTR _Affiche$[ebp]
  0008f	e8 00 00 00 00	 call	 ??4?$CStringT@_WV?$StrTraitMFC@_WV?$ChTraitsCRT@_W@ATL@@@@@ATL@@QAEAAV01@PB_W@Z ; ATL::CStringT<wchar_t,StrTraitMFC<wchar_t,ATL::ChTraitsCRT<wchar_t> > >::operator=
$LN3@Affiche_Sy:

; 206  : 	}
; 207  : 	
; 208  : 	::SetDlgItemTextW(Save_Curent_windows, IDC_STATIC3, (LPWSTR)Affiche.GetBuffer());

  00094	8d 4d dc	 lea	 ecx, DWORD PTR _Affiche$[ebp]
  00097	e8 00 00 00 00	 call	 ?GetBuffer@?$CSimpleStringT@_W$0A@@ATL@@QAEPA_WXZ ; ATL::CSimpleStringT<wchar_t,0>::GetBuffer
  0009c	8b f4		 mov	 esi, esp
  0009e	50		 push	 eax
  0009f	68 3b 04 00 00	 push	 1083			; 0000043bH
  000a4	8b 45 e8	 mov	 eax, DWORD PTR _this$[ebp]
  000a7	ff b0 48 01 00
	00		 push	 DWORD PTR [eax+328]
  000ad	ff 15 00 00 00
	00		 call	 DWORD PTR __imp__SetDlgItemTextW@12
  000b3	3b f4		 cmp	 esi, esp
  000b5	e8 00 00 00 00	 call	 __RTC_CheckEsp

; 209  : 	
; 210  : 	// AfxMessageBox(Affiche, MB_OK);
; 211  : }

  000ba	83 4d fc ff	 or	 DWORD PTR __$EHRec$[ebp+8], -1
  000be	8d 4d dc	 lea	 ecx, DWORD PTR _Affiche$[ebp]
  000c1	e8 00 00 00 00	 call	 ??1?$CStringT@_WV?$StrTraitMFC@_WV?$ChTraitsCRT@_W@ATL@@@@@ATL@@QAE@XZ ; ATL::CStringT<wchar_t,StrTraitMFC<wchar_t,ATL::ChTraitsCRT<wchar_t> > >::~CStringT<wchar_t,StrTraitMFC<wchar_t,ATL::ChTraitsCRT<wchar_t> > >
  000c6	52		 push	 edx
  000c7	8b cd		 mov	 ecx, ebp
  000c9	50		 push	 eax
  000ca	8d 15 00 00 00
	00		 lea	 edx, DWORD PTR $LN10@Affiche_Sy
  000d0	e8 00 00 00 00	 call	 @_RTC_CheckStackVars@8
  000d5	58		 pop	 eax
  000d6	5a		 pop	 edx
  000d7	8b 4d f4	 mov	 ecx, DWORD PTR __$EHRec$[ebp]
  000da	64 89 0d 00 00
	00 00		 mov	 DWORD PTR fs:0, ecx
  000e1	59		 pop	 ecx
  000e2	5f		 pop	 edi
  000e3	5e		 pop	 esi
  000e4	5b		 pop	 ebx
  000e5	8b 4d f0	 mov	 ecx, DWORD PTR __$ArrayPad$[ebp]
  000e8	33 cd		 xor	 ecx, ebp
  000ea	e8 00 00 00 00	 call	 @__security_check_cookie@4
  000ef	81 c4 e8 00 00
	00		 add	 esp, 232		; 000000e8H
  000f5	3b ec		 cmp	 ebp, esp
  000f7	e8 00 00 00 00	 call	 __RTC_CheckEsp
  000fc	c9		 leave
  000fd	c2 08 00	 ret	 8
$LN10@Affiche_Sy:
  00100	01 00 00 00	 DD	 1
  00104	00 00 00 00	 DD	 $LN9@Affiche_Sy
$LN9@Affiche_Sy:
  00108	dc ff ff ff	 DD	 -36			; ffffffdcH
  0010c	04 00 00 00	 DD	 4
  00110	00 00 00 00	 DD	 $LN7@Affiche_Sy
$LN7@Affiche_Sy:
  00114	41		 DB	 65			; 00000041H
  00115	66		 DB	 102			; 00000066H
  00116	66		 DB	 102			; 00000066H
  00117	69		 DB	 105			; 00000069H
  00118	63		 DB	 99			; 00000063H
  00119	68		 DB	 104			; 00000068H
  0011a	65		 DB	 101			; 00000065H
  0011b	00		 DB	 0
_TEXT	ENDS
;	COMDAT text$x
text$x	SEGMENT
__unwindfunclet$?Affiche_Synchro@Solution@@AAEX_K@Z$0:
  00000	8d 4d dc	 lea	 ecx, DWORD PTR _Affiche$[ebp]
  00003	e9 00 00 00 00	 jmp	 ??1?$CStringT@_WV?$StrTraitMFC@_WV?$ChTraitsCRT@_W@ATL@@@@@ATL@@QAE@XZ ; ATL::CStringT<wchar_t,StrTraitMFC<wchar_t,ATL::ChTraitsCRT<wchar_t> > >::~CStringT<wchar_t,StrTraitMFC<wchar_t,ATL::ChTraitsCRT<wchar_t> > >
  00008	cc		 int	 3
  00009	cc		 int	 3
  0000a	cc		 int	 3
  0000b	cc		 int	 3
  0000c	cc		 int	 3
__ehhandler$?Affiche_Synchro@Solution@@AAEX_K@Z:
  0000d	90		 npad	 1
  0000e	90		 npad	 1
  0000f	8b 54 24 08	 mov	 edx, DWORD PTR [esp+8]
  00013	8d 42 0c	 lea	 eax, DWORD PTR [edx+12]
  00016	8b 8a 14 ff ff
	ff		 mov	 ecx, DWORD PTR [edx-236]
  0001c	33 c8		 xor	 ecx, eax
  0001e	e8 00 00 00 00	 call	 @__security_check_cookie@4
  00023	8b 4a fc	 mov	 ecx, DWORD PTR [edx-4]
  00026	33 c8		 xor	 ecx, eax
  00028	e8 00 00 00 00	 call	 @__security_check_cookie@4
  0002d	b8 00 00 00 00	 mov	 eax, OFFSET __ehfuncinfo$?Affiche_Synchro@Solution@@AAEX_K@Z
  00032	e9 00 00 00 00	 jmp	 ___CxxFrameHandler3
text$x	ENDS
?Affiche_Synchro@Solution@@AAEX_K@Z ENDP		; Solution::Affiche_Synchro
; Function compile flags: /Odsp /RTCsu /ZI
; File J:\work\SUDOKU\SUDOKU\SUDOKU\Solution.cpp
;	COMDAT ?Conversion@Solution@@AAEXV?$CStringT@_WV?$StrTraitMFC@_WV?$ChTraitsCRT@_W@ATL@@@@@ATL@@@Z
_TEXT	SEGMENT
tv128 = -284						; size = 4
$T2 = -276						; size = 4
$T3 = -264						; size = 4
_convertedCharsw$ = -60					; size = 4
_nstringw$ = -48					; size = 4
_newsizew$ = -36					; size = 4
_this$ = -24						; size = 4
__$ArrayPad$ = -16					; size = 4
__$EHRec$ = -12						; size = 12
_chaine$ = 8						; size = 4
?Conversion@Solution@@AAEXV?$CStringT@_WV?$StrTraitMFC@_WV?$ChTraitsCRT@_W@ATL@@@@@ATL@@@Z PROC ; Solution::Conversion, COMDAT
; _this$ = ecx

; 631  : {

  00000	55		 push	 ebp
  00001	8b ec		 mov	 ebp, esp
  00003	6a ff		 push	 -1
  00005	68 00 00 00 00	 push	 __ehhandler$?Conversion@Solution@@AAEXV?$CStringT@_WV?$StrTraitMFC@_WV?$ChTraitsCRT@_W@ATL@@@@@ATL@@@Z
  0000a	64 a1 00 00 00
	00		 mov	 eax, DWORD PTR fs:0
  00010	50		 push	 eax
  00011	81 ec 10 01 00
	00		 sub	 esp, 272		; 00000110H
  00017	53		 push	 ebx
  00018	56		 push	 esi
  00019	57		 push	 edi
  0001a	51		 push	 ecx
  0001b	8d 7d a4	 lea	 edi, DWORD PTR [ebp-92]
  0001e	6a 14		 push	 20			; 00000014H
  00020	59		 pop	 ecx
  00021	b8 cc cc cc cc	 mov	 eax, -858993460		; ccccccccH
  00026	f3 ab		 rep stosd
  00028	59		 pop	 ecx
  00029	a1 00 00 00 00	 mov	 eax, DWORD PTR ___security_cookie
  0002e	33 c5		 xor	 eax, ebp
  00030	89 45 f0	 mov	 DWORD PTR __$ArrayPad$[ebp], eax
  00033	50		 push	 eax
  00034	8d 45 f4	 lea	 eax, DWORD PTR __$EHRec$[ebp]
  00037	64 a3 00 00 00
	00		 mov	 DWORD PTR fs:0, eax
  0003d	89 4d e8	 mov	 DWORD PTR _this$[ebp], ecx
  00040	83 65 fc 00	 and	 DWORD PTR __$EHRec$[ebp+8], 0
  00044	b9 00 00 00 00	 mov	 ecx, OFFSET __CBE53D1F_Solution@cpp
  00049	e8 00 00 00 00	 call	 @__CheckForDebuggerJustMyCode@4

; 632  : 	const size_t newsizew = (chaine.GetLength() + 1) * 2;

  0004e	8d 4d 08	 lea	 ecx, DWORD PTR _chaine$[ebp]
  00051	e8 00 00 00 00	 call	 ?GetLength@?$CSimpleStringT@_W$0A@@ATL@@QBEHXZ ; ATL::CSimpleStringT<wchar_t,0>::GetLength
  00056	8d 44 00 02	 lea	 eax, DWORD PTR [eax+eax+2]
  0005a	89 45 dc	 mov	 DWORD PTR _newsizew$[ebp], eax

; 633  : 	char *nstringw = new char[newsizew];

  0005d	ff 75 dc	 push	 DWORD PTR _newsizew$[ebp]
  00060	e8 00 00 00 00	 call	 ??_U@YAPAXI@Z		; operator new[]
  00065	59		 pop	 ecx
  00066	89 85 f8 fe ff
	ff		 mov	 DWORD PTR $T3[ebp], eax
  0006c	8b 85 f8 fe ff
	ff		 mov	 eax, DWORD PTR $T3[ebp]
  00072	89 45 d0	 mov	 DWORD PTR _nstringw$[ebp], eax

; 634  : 	size_t convertedCharsw = 0;

  00075	83 65 c4 00	 and	 DWORD PTR _convertedCharsw$[ebp], 0

; 635  : 	wcstombs_s(&convertedCharsw, nstringw, newsizew, chaine, _TRUNCATE);

  00079	6a ff		 push	 -1
  0007b	8d 4d 08	 lea	 ecx, DWORD PTR _chaine$[ebp]
  0007e	e8 00 00 00 00	 call	 ??B?$CSimpleStringT@_W$0A@@ATL@@QBEPB_WXZ ; ATL::CSimpleStringT<wchar_t,0>::operator wchar_t const *
  00083	50		 push	 eax
  00084	ff 75 dc	 push	 DWORD PTR _newsizew$[ebp]
  00087	ff 75 d0	 push	 DWORD PTR _nstringw$[ebp]
  0008a	8d 45 c4	 lea	 eax, DWORD PTR _convertedCharsw$[ebp]
  0008d	50		 push	 eax
  0008e	e8 00 00 00 00	 call	 _wcstombs_s
  00093	83 c4 14	 add	 esp, 20			; 00000014H

; 636  : 	fprintf(pt_fichier, "%s\n", nstringw);

  00096	ff 75 d0	 push	 DWORD PTR _nstringw$[ebp]
  00099	68 00 00 00 00	 push	 OFFSET ??_C@_03OFAPEBGM@?$CFs?6@
  0009e	8b 45 e8	 mov	 eax, DWORD PTR _this$[ebp]
  000a1	ff b0 54 01 00
	00		 push	 DWORD PTR [eax+340]
  000a7	e8 00 00 00 00	 call	 _fprintf
  000ac	83 c4 0c	 add	 esp, 12			; 0000000cH

; 637  : 	delete nstringw;

  000af	8b 45 d0	 mov	 eax, DWORD PTR _nstringw$[ebp]
  000b2	89 85 ec fe ff
	ff		 mov	 DWORD PTR $T2[ebp], eax
  000b8	6a 01		 push	 1
  000ba	ff b5 ec fe ff
	ff		 push	 DWORD PTR $T2[ebp]
  000c0	e8 00 00 00 00	 call	 ??3@YAXPAXI@Z		; operator delete
  000c5	59		 pop	 ecx
  000c6	59		 pop	 ecx
  000c7	83 bd ec fe ff
	ff 00		 cmp	 DWORD PTR $T2[ebp], 0
  000ce	75 09		 jne	 SHORT $LN3@Conversion
  000d0	83 a5 e4 fe ff
	ff 00		 and	 DWORD PTR tv128[ebp], 0
  000d7	eb 10		 jmp	 SHORT $LN4@Conversion
$LN3@Conversion:
  000d9	c7 45 d0 23 81
	00 00		 mov	 DWORD PTR _nstringw$[ebp], 33059 ; 00008123H
  000e0	8b 45 d0	 mov	 eax, DWORD PTR _nstringw$[ebp]
  000e3	89 85 e4 fe ff
	ff		 mov	 DWORD PTR tv128[ebp], eax
$LN4@Conversion:

; 638  : 
; 639  : }

  000e9	83 4d fc ff	 or	 DWORD PTR __$EHRec$[ebp+8], -1
  000ed	8d 4d 08	 lea	 ecx, DWORD PTR _chaine$[ebp]
  000f0	e8 00 00 00 00	 call	 ??1?$CStringT@_WV?$StrTraitMFC@_WV?$ChTraitsCRT@_W@ATL@@@@@ATL@@QAE@XZ ; ATL::CStringT<wchar_t,StrTraitMFC<wchar_t,ATL::ChTraitsCRT<wchar_t> > >::~CStringT<wchar_t,StrTraitMFC<wchar_t,ATL::ChTraitsCRT<wchar_t> > >
  000f5	52		 push	 edx
  000f6	8b cd		 mov	 ecx, ebp
  000f8	50		 push	 eax
  000f9	8d 15 00 00 00
	00		 lea	 edx, DWORD PTR $LN9@Conversion
  000ff	e8 00 00 00 00	 call	 @_RTC_CheckStackVars@8
  00104	58		 pop	 eax
  00105	5a		 pop	 edx
  00106	8b 4d f4	 mov	 ecx, DWORD PTR __$EHRec$[ebp]
  00109	64 89 0d 00 00
	00 00		 mov	 DWORD PTR fs:0, ecx
  00110	59		 pop	 ecx
  00111	5f		 pop	 edi
  00112	5e		 pop	 esi
  00113	5b		 pop	 ebx
  00114	8b 4d f0	 mov	 ecx, DWORD PTR __$ArrayPad$[ebp]
  00117	33 cd		 xor	 ecx, ebp
  00119	e8 00 00 00 00	 call	 @__security_check_cookie@4
  0011e	81 c4 1c 01 00
	00		 add	 esp, 284		; 0000011cH
  00124	3b ec		 cmp	 ebp, esp
  00126	e8 00 00 00 00	 call	 __RTC_CheckEsp
  0012b	c9		 leave
  0012c	c2 04 00	 ret	 4
  0012f	90		 npad	 1
$LN9@Conversion:
  00130	01 00 00 00	 DD	 1
  00134	00 00 00 00	 DD	 $LN8@Conversion
$LN8@Conversion:
  00138	c4 ff ff ff	 DD	 -60			; ffffffc4H
  0013c	04 00 00 00	 DD	 4
  00140	00 00 00 00	 DD	 $LN6@Conversion
$LN6@Conversion:
  00144	63		 DB	 99			; 00000063H
  00145	6f		 DB	 111			; 0000006fH
  00146	6e		 DB	 110			; 0000006eH
  00147	76		 DB	 118			; 00000076H
  00148	65		 DB	 101			; 00000065H
  00149	72		 DB	 114			; 00000072H
  0014a	74		 DB	 116			; 00000074H
  0014b	65		 DB	 101			; 00000065H
  0014c	64		 DB	 100			; 00000064H
  0014d	43		 DB	 67			; 00000043H
  0014e	68		 DB	 104			; 00000068H
  0014f	61		 DB	 97			; 00000061H
  00150	72		 DB	 114			; 00000072H
  00151	73		 DB	 115			; 00000073H
  00152	77		 DB	 119			; 00000077H
  00153	00		 DB	 0
_TEXT	ENDS
;	COMDAT text$x
text$x	SEGMENT
__unwindfunclet$?Conversion@Solution@@AAEXV?$CStringT@_WV?$StrTraitMFC@_WV?$ChTraitsCRT@_W@ATL@@@@@ATL@@@Z$0:
  00000	8d 4d 08	 lea	 ecx, DWORD PTR _chaine$[ebp]
  00003	e9 00 00 00 00	 jmp	 ??1?$CStringT@_WV?$StrTraitMFC@_WV?$ChTraitsCRT@_W@ATL@@@@@ATL@@QAE@XZ ; ATL::CStringT<wchar_t,StrTraitMFC<wchar_t,ATL::ChTraitsCRT<wchar_t> > >::~CStringT<wchar_t,StrTraitMFC<wchar_t,ATL::ChTraitsCRT<wchar_t> > >
  00008	cc		 int	 3
  00009	cc		 int	 3
  0000a	cc		 int	 3
  0000b	cc		 int	 3
  0000c	cc		 int	 3
__ehhandler$?Conversion@Solution@@AAEXV?$CStringT@_WV?$StrTraitMFC@_WV?$ChTraitsCRT@_W@ATL@@@@@ATL@@@Z:
  0000d	90		 npad	 1
  0000e	90		 npad	 1
  0000f	8b 54 24 08	 mov	 edx, DWORD PTR [esp+8]
  00013	8d 42 0c	 lea	 eax, DWORD PTR [edx+12]
  00016	8b 8a e0 fe ff
	ff		 mov	 ecx, DWORD PTR [edx-288]
  0001c	33 c8		 xor	 ecx, eax
  0001e	e8 00 00 00 00	 call	 @__security_check_cookie@4
  00023	8b 4a fc	 mov	 ecx, DWORD PTR [edx-4]
  00026	33 c8		 xor	 ecx, eax
  00028	e8 00 00 00 00	 call	 @__security_check_cookie@4
  0002d	b8 00 00 00 00	 mov	 eax, OFFSET __ehfuncinfo$?Conversion@Solution@@AAEXV?$CStringT@_WV?$StrTraitMFC@_WV?$ChTraitsCRT@_W@ATL@@@@@ATL@@@Z
  00032	e9 00 00 00 00	 jmp	 ___CxxFrameHandler3
text$x	ENDS
?Conversion@Solution@@AAEXV?$CStringT@_WV?$StrTraitMFC@_WV?$ChTraitsCRT@_W@ATL@@@@@ATL@@@Z ENDP ; Solution::Conversion
; Function compile flags: /Odsp /RTCsu /ZI
; File J:\work\SUDOKU\SUDOKU\SUDOKU\Solution.cpp
;	COMDAT ?Dur_Dur@Solution@@AAEXXZ
_TEXT	SEGMENT
tv86 = -268						; size = 4
tv75 = -268						; size = 4
$T2 = -260						; size = 4
$T3 = -248						; size = 4
$T4 = -236						; size = 4
_pt_temps$ = -32					; size = 4
_this$ = -20						; size = 4
__$EHRec$ = -12						; size = 12
?Dur_Dur@Solution@@AAEXXZ PROC				; Solution::Dur_Dur, COMDAT
; _this$ = ecx

; 182  : {

  00000	55		 push	 ebp
  00001	8b ec		 mov	 ebp, esp
  00003	6a ff		 push	 -1
  00005	68 00 00 00 00	 push	 __ehhandler$?Dur_Dur@Solution@@AAEXXZ
  0000a	64 a1 00 00 00
	00		 mov	 eax, DWORD PTR fs:0
  00010	50		 push	 eax
  00011	81 ec 00 01 00
	00		 sub	 esp, 256		; 00000100H
  00017	53		 push	 ebx
  00018	56		 push	 esi
  00019	57		 push	 edi
  0001a	51		 push	 ecx
  0001b	8d 7d b4	 lea	 edi, DWORD PTR [ebp-76]
  0001e	6a 10		 push	 16			; 00000010H
  00020	59		 pop	 ecx
  00021	b8 cc cc cc cc	 mov	 eax, -858993460		; ccccccccH
  00026	f3 ab		 rep stosd
  00028	59		 pop	 ecx
  00029	a1 00 00 00 00	 mov	 eax, DWORD PTR ___security_cookie
  0002e	33 c5		 xor	 eax, ebp
  00030	50		 push	 eax
  00031	8d 45 f4	 lea	 eax, DWORD PTR __$EHRec$[ebp]
  00034	64 a3 00 00 00
	00		 mov	 DWORD PTR fs:0, eax
  0003a	89 4d ec	 mov	 DWORD PTR _this$[ebp], ecx
  0003d	b9 00 00 00 00	 mov	 ecx, OFFSET __CBE53D1F_Solution@cpp
  00042	e8 00 00 00 00	 call	 @__CheckForDebuggerJustMyCode@4

; 183  : 
; 184  : 	Calcul_temps * pt_temps = new Calcul_temps;

  00047	6a 10		 push	 16			; 00000010H
  00049	e8 00 00 00 00	 call	 ??2@YAPAXI@Z		; operator new
  0004e	59		 pop	 ecx
  0004f	89 85 08 ff ff
	ff		 mov	 DWORD PTR $T3[ebp], eax
  00055	83 65 fc 00	 and	 DWORD PTR __$EHRec$[ebp+8], 0
  00059	83 bd 08 ff ff
	ff 00		 cmp	 DWORD PTR $T3[ebp], 0
  00060	74 13		 je	 SHORT $LN3@Dur_Dur
  00062	8b 8d 08 ff ff
	ff		 mov	 ecx, DWORD PTR $T3[ebp]
  00068	e8 00 00 00 00	 call	 ??0Calcul_temps@@QAE@XZ	; Calcul_temps::Calcul_temps
  0006d	89 85 f4 fe ff
	ff		 mov	 DWORD PTR tv75[ebp], eax
  00073	eb 07		 jmp	 SHORT $LN4@Dur_Dur
$LN3@Dur_Dur:
  00075	83 a5 f4 fe ff
	ff 00		 and	 DWORD PTR tv75[ebp], 0
$LN4@Dur_Dur:
  0007c	8b 85 f4 fe ff
	ff		 mov	 eax, DWORD PTR tv75[ebp]
  00082	89 85 14 ff ff
	ff		 mov	 DWORD PTR $T4[ebp], eax
  00088	83 4d fc ff	 or	 DWORD PTR __$EHRec$[ebp+8], -1
  0008c	8b 85 14 ff ff
	ff		 mov	 eax, DWORD PTR $T4[ebp]
  00092	89 45 e0	 mov	 DWORD PTR _pt_temps$[ebp], eax

; 185  : 	pt_temps->Start_time();

  00095	8b 4d e0	 mov	 ecx, DWORD PTR _pt_temps$[ebp]
  00098	e8 00 00 00 00	 call	 ?Start_time@Calcul_temps@@QAEXXZ ; Calcul_temps::Start_time

; 186  : 
; 187  : 	Resolve();

  0009d	8b 4d ec	 mov	 ecx, DWORD PTR _this$[ebp]
  000a0	e8 00 00 00 00	 call	 ?Resolve@Solution@@AAEXXZ ; Solution::Resolve

; 188  : 
; 189  : 	pt_temps->Stop_time();

  000a5	8b 4d e0	 mov	 ecx, DWORD PTR _pt_temps$[ebp]
  000a8	e8 00 00 00 00	 call	 ?Stop_time@Calcul_temps@@QAEXXZ ; Calcul_temps::Stop_time

; 190  : 	Affiche_Synchro( pt_temps->Read_time());

  000ad	8b 4d e0	 mov	 ecx, DWORD PTR _pt_temps$[ebp]
  000b0	e8 00 00 00 00	 call	 ?Read_time@Calcul_temps@@QAE_KXZ ; Calcul_temps::Read_time
  000b5	52		 push	 edx
  000b6	50		 push	 eax
  000b7	8b 4d ec	 mov	 ecx, DWORD PTR _this$[ebp]
  000ba	e8 00 00 00 00	 call	 ?Affiche_Synchro@Solution@@AAEX_K@Z ; Solution::Affiche_Synchro

; 191  : 
; 192  : 	delete pt_temps;

  000bf	8b 45 e0	 mov	 eax, DWORD PTR _pt_temps$[ebp]
  000c2	89 85 fc fe ff
	ff		 mov	 DWORD PTR $T2[ebp], eax
  000c8	83 bd fc fe ff
	ff 00		 cmp	 DWORD PTR $T2[ebp], 0
  000cf	74 15		 je	 SHORT $LN5@Dur_Dur
  000d1	6a 01		 push	 1
  000d3	8b 8d fc fe ff
	ff		 mov	 ecx, DWORD PTR $T2[ebp]
  000d9	e8 00 00 00 00	 call	 ??_GCalcul_temps@@QAEPAXI@Z
  000de	89 85 f4 fe ff
	ff		 mov	 DWORD PTR tv86[ebp], eax
  000e4	eb 07		 jmp	 SHORT $LN1@Dur_Dur
$LN5@Dur_Dur:
  000e6	83 a5 f4 fe ff
	ff 00		 and	 DWORD PTR tv86[ebp], 0
$LN1@Dur_Dur:

; 193  : 
; 194  : }

  000ed	8b 4d f4	 mov	 ecx, DWORD PTR __$EHRec$[ebp]
  000f0	64 89 0d 00 00
	00 00		 mov	 DWORD PTR fs:0, ecx
  000f7	59		 pop	 ecx
  000f8	5f		 pop	 edi
  000f9	5e		 pop	 esi
  000fa	5b		 pop	 ebx
  000fb	81 c4 0c 01 00
	00		 add	 esp, 268		; 0000010cH
  00101	3b ec		 cmp	 ebp, esp
  00103	e8 00 00 00 00	 call	 __RTC_CheckEsp
  00108	c9		 leave
  00109	c3		 ret	 0
_TEXT	ENDS
;	COMDAT text$x
text$x	SEGMENT
__unwindfunclet$?Dur_Dur@Solution@@AAEXXZ$0:
  00000	6a 10		 push	 16			; 00000010H
  00002	ff b5 08 ff ff
	ff		 push	 DWORD PTR $T3[ebp]
  00008	e8 00 00 00 00	 call	 ??3@YAXPAXI@Z		; operator delete
  0000d	59		 pop	 ecx
  0000e	59		 pop	 ecx
  0000f	c3		 ret	 0
  00010	cc		 int	 3
  00011	cc		 int	 3
  00012	cc		 int	 3
  00013	cc		 int	 3
  00014	cc		 int	 3
__ehhandler$?Dur_Dur@Solution@@AAEXXZ:
  00015	90		 npad	 1
  00016	90		 npad	 1
  00017	8b 54 24 08	 mov	 edx, DWORD PTR [esp+8]
  0001b	8d 42 0c	 lea	 eax, DWORD PTR [edx+12]
  0001e	8b 8a f0 fe ff
	ff		 mov	 ecx, DWORD PTR [edx-272]
  00024	33 c8		 xor	 ecx, eax
  00026	e8 00 00 00 00	 call	 @__security_check_cookie@4
  0002b	b8 00 00 00 00	 mov	 eax, OFFSET __ehfuncinfo$?Dur_Dur@Solution@@AAEXXZ
  00030	e9 00 00 00 00	 jmp	 ___CxxFrameHandler3
text$x	ENDS
?Dur_Dur@Solution@@AAEXXZ ENDP				; Solution::Dur_Dur
; Function compile flags: /Odsp /RTCsu /ZI
; File J:\work\SUDOKU\SUDOKU\SUDOKU\Solution.cpp
;	COMDAT ?Sepcial_Folder@Solution@@AAE?AV?$CStringT@_WV?$StrTraitMFC@_WV?$ChTraitsCRT@_W@ATL@@@@@ATL@@H@Z
_TEXT	SEGMENT
$T2 = -960						; size = 4
_chaine$ = -564						; size = 4
_szPath$ = -552						; size = 520
_this$ = -24						; size = 4
__$ArrayPad$ = -16					; size = 4
__$EHRec$ = -12						; size = 12
___$ReturnUdt$ = 8					; size = 4
__directory_resquest$ = 12				; size = 4
?Sepcial_Folder@Solution@@AAE?AV?$CStringT@_WV?$StrTraitMFC@_WV?$ChTraitsCRT@_W@ATL@@@@@ATL@@H@Z PROC ; Solution::Sepcial_Folder, COMDAT
; _this$ = ecx

; 215  : {

  00000	55		 push	 ebp
  00001	8b ec		 mov	 ebp, esp
  00003	6a ff		 push	 -1
  00005	68 00 00 00 00	 push	 __ehhandler$?Sepcial_Folder@Solution@@AAE?AV?$CStringT@_WV?$StrTraitMFC@_WV?$ChTraitsCRT@_W@ATL@@@@@ATL@@H@Z
  0000a	64 a1 00 00 00
	00		 mov	 eax, DWORD PTR fs:0
  00010	50		 push	 eax
  00011	81 ec b8 03 00
	00		 sub	 esp, 952		; 000003b8H
  00017	53		 push	 ebx
  00018	56		 push	 esi
  00019	57		 push	 edi
  0001a	51		 push	 ecx
  0001b	8d bd bc fd ff
	ff		 lea	 edi, DWORD PTR [ebp-580]
  00021	b9 8e 00 00 00	 mov	 ecx, 142		; 0000008eH
  00026	b8 cc cc cc cc	 mov	 eax, -858993460		; ccccccccH
  0002b	f3 ab		 rep stosd
  0002d	59		 pop	 ecx
  0002e	a1 00 00 00 00	 mov	 eax, DWORD PTR ___security_cookie
  00033	33 c5		 xor	 eax, ebp
  00035	89 45 f0	 mov	 DWORD PTR __$ArrayPad$[ebp], eax
  00038	50		 push	 eax
  00039	8d 45 f4	 lea	 eax, DWORD PTR __$EHRec$[ebp]
  0003c	64 a3 00 00 00
	00		 mov	 DWORD PTR fs:0, eax
  00042	89 4d e8	 mov	 DWORD PTR _this$[ebp], ecx
  00045	83 a5 40 fc ff
	ff 00		 and	 DWORD PTR $T2[ebp], 0
  0004c	b9 00 00 00 00	 mov	 ecx, OFFSET __CBE53D1F_Solution@cpp
  00051	e8 00 00 00 00	 call	 @__CheckForDebuggerJustMyCode@4

; 216  : 	TCHAR szPath[MAX_PATH];
; 217  : 
; 218  : 	SHGetFolderPath(NULL, _directory_resquest, NULL, 0, szPath);

  00056	8b f4		 mov	 esi, esp
  00058	8d 85 d8 fd ff
	ff		 lea	 eax, DWORD PTR _szPath$[ebp]
  0005e	50		 push	 eax
  0005f	6a 00		 push	 0
  00061	6a 00		 push	 0
  00063	ff 75 0c	 push	 DWORD PTR __directory_resquest$[ebp]
  00066	6a 00		 push	 0
  00068	ff 15 00 00 00
	00		 call	 DWORD PTR __imp__SHGetFolderPathW@20
  0006e	3b f4		 cmp	 esi, esp
  00070	e8 00 00 00 00	 call	 __RTC_CheckEsp

; 219  : 
; 220  : 	CString chaine(szPath);

  00075	6a 04		 push	 4
  00077	8d 8d cc fd ff
	ff		 lea	 ecx, DWORD PTR _chaine$[ebp]
  0007d	e8 00 00 00 00	 call	 ?__autoclassinit2@?$CStringT@_WV?$StrTraitMFC@_WV?$ChTraitsCRT@_W@ATL@@@@@ATL@@QAEXI@Z
  00082	8d 85 d8 fd ff
	ff		 lea	 eax, DWORD PTR _szPath$[ebp]
  00088	50		 push	 eax
  00089	8d 8d cc fd ff
	ff		 lea	 ecx, DWORD PTR _chaine$[ebp]
  0008f	e8 00 00 00 00	 call	 ??0?$CStringT@_WV?$StrTraitMFC@_WV?$ChTraitsCRT@_W@ATL@@@@@ATL@@QAE@PB_W@Z ; ATL::CStringT<wchar_t,StrTraitMFC<wchar_t,ATL::ChTraitsCRT<wchar_t> > >::CStringT<wchar_t,StrTraitMFC<wchar_t,ATL::ChTraitsCRT<wchar_t> > >
  00094	83 65 fc 00	 and	 DWORD PTR __$EHRec$[ebp+8], 0

; 221  : 	return (chaine);

  00098	8d 85 cc fd ff
	ff		 lea	 eax, DWORD PTR _chaine$[ebp]
  0009e	50		 push	 eax
  0009f	8b 4d 08	 mov	 ecx, DWORD PTR ___$ReturnUdt$[ebp]
  000a2	e8 00 00 00 00	 call	 ??0?$CStringT@_WV?$StrTraitMFC@_WV?$ChTraitsCRT@_W@ATL@@@@@ATL@@QAE@ABV01@@Z ; ATL::CStringT<wchar_t,StrTraitMFC<wchar_t,ATL::ChTraitsCRT<wchar_t> > >::CStringT<wchar_t,StrTraitMFC<wchar_t,ATL::ChTraitsCRT<wchar_t> > >
  000a7	8b 85 40 fc ff
	ff		 mov	 eax, DWORD PTR $T2[ebp]
  000ad	83 c8 01	 or	 eax, 1
  000b0	89 85 40 fc ff
	ff		 mov	 DWORD PTR $T2[ebp], eax
  000b6	83 4d fc ff	 or	 DWORD PTR __$EHRec$[ebp+8], -1
  000ba	8d 8d cc fd ff
	ff		 lea	 ecx, DWORD PTR _chaine$[ebp]
  000c0	e8 00 00 00 00	 call	 ??1?$CStringT@_WV?$StrTraitMFC@_WV?$ChTraitsCRT@_W@ATL@@@@@ATL@@QAE@XZ ; ATL::CStringT<wchar_t,StrTraitMFC<wchar_t,ATL::ChTraitsCRT<wchar_t> > >::~CStringT<wchar_t,StrTraitMFC<wchar_t,ATL::ChTraitsCRT<wchar_t> > >
  000c5	8b 45 08	 mov	 eax, DWORD PTR ___$ReturnUdt$[ebp]

; 222  : 
; 223  : }

  000c8	52		 push	 edx
  000c9	8b cd		 mov	 ecx, ebp
  000cb	50		 push	 eax
  000cc	8d 15 00 00 00
	00		 lea	 edx, DWORD PTR $LN10@Sepcial_Fo
  000d2	e8 00 00 00 00	 call	 @_RTC_CheckStackVars@8
  000d7	58		 pop	 eax
  000d8	5a		 pop	 edx
  000d9	8b 4d f4	 mov	 ecx, DWORD PTR __$EHRec$[ebp]
  000dc	64 89 0d 00 00
	00 00		 mov	 DWORD PTR fs:0, ecx
  000e3	59		 pop	 ecx
  000e4	5f		 pop	 edi
  000e5	5e		 pop	 esi
  000e6	5b		 pop	 ebx
  000e7	8b 4d f0	 mov	 ecx, DWORD PTR __$ArrayPad$[ebp]
  000ea	33 cd		 xor	 ecx, ebp
  000ec	e8 00 00 00 00	 call	 @__security_check_cookie@4
  000f1	81 c4 c4 03 00
	00		 add	 esp, 964		; 000003c4H
  000f7	3b ec		 cmp	 ebp, esp
  000f9	e8 00 00 00 00	 call	 __RTC_CheckEsp
  000fe	c9		 leave
  000ff	c2 08 00	 ret	 8
  00102	66 90		 npad	 2
$LN10@Sepcial_Fo:
  00104	02 00 00 00	 DD	 2
  00108	00 00 00 00	 DD	 $LN9@Sepcial_Fo
$LN9@Sepcial_Fo:
  0010c	d8 fd ff ff	 DD	 -552			; fffffdd8H
  00110	08 02 00 00	 DD	 520			; 00000208H
  00114	00 00 00 00	 DD	 $LN6@Sepcial_Fo
  00118	cc fd ff ff	 DD	 -564			; fffffdccH
  0011c	04 00 00 00	 DD	 4
  00120	00 00 00 00	 DD	 $LN7@Sepcial_Fo
$LN7@Sepcial_Fo:
  00124	63		 DB	 99			; 00000063H
  00125	68		 DB	 104			; 00000068H
  00126	61		 DB	 97			; 00000061H
  00127	69		 DB	 105			; 00000069H
  00128	6e		 DB	 110			; 0000006eH
  00129	65		 DB	 101			; 00000065H
  0012a	00		 DB	 0
$LN6@Sepcial_Fo:
  0012b	73		 DB	 115			; 00000073H
  0012c	7a		 DB	 122			; 0000007aH
  0012d	50		 DB	 80			; 00000050H
  0012e	61		 DB	 97			; 00000061H
  0012f	74		 DB	 116			; 00000074H
  00130	68		 DB	 104			; 00000068H
  00131	00		 DB	 0
_TEXT	ENDS
;	COMDAT text$x
text$x	SEGMENT
__unwindfunclet$?Sepcial_Folder@Solution@@AAE?AV?$CStringT@_WV?$StrTraitMFC@_WV?$ChTraitsCRT@_W@ATL@@@@@ATL@@H@Z$0:
  00000	8d 8d cc fd ff
	ff		 lea	 ecx, DWORD PTR _chaine$[ebp]
  00006	e9 00 00 00 00	 jmp	 ??1?$CStringT@_WV?$StrTraitMFC@_WV?$ChTraitsCRT@_W@ATL@@@@@ATL@@QAE@XZ ; ATL::CStringT<wchar_t,StrTraitMFC<wchar_t,ATL::ChTraitsCRT<wchar_t> > >::~CStringT<wchar_t,StrTraitMFC<wchar_t,ATL::ChTraitsCRT<wchar_t> > >
  0000b	cc		 int	 3
  0000c	cc		 int	 3
  0000d	cc		 int	 3
  0000e	cc		 int	 3
  0000f	cc		 int	 3
__ehhandler$?Sepcial_Folder@Solution@@AAE?AV?$CStringT@_WV?$StrTraitMFC@_WV?$ChTraitsCRT@_W@ATL@@@@@ATL@@H@Z:
  00010	90		 npad	 1
  00011	90		 npad	 1
  00012	8b 54 24 08	 mov	 edx, DWORD PTR [esp+8]
  00016	8d 42 0c	 lea	 eax, DWORD PTR [edx+12]
  00019	8b 8a 38 fc ff
	ff		 mov	 ecx, DWORD PTR [edx-968]
  0001f	33 c8		 xor	 ecx, eax
  00021	e8 00 00 00 00	 call	 @__security_check_cookie@4
  00026	8b 4a fc	 mov	 ecx, DWORD PTR [edx-4]
  00029	33 c8		 xor	 ecx, eax
  0002b	e8 00 00 00 00	 call	 @__security_check_cookie@4
  00030	b8 00 00 00 00	 mov	 eax, OFFSET __ehfuncinfo$?Sepcial_Folder@Solution@@AAE?AV?$CStringT@_WV?$StrTraitMFC@_WV?$ChTraitsCRT@_W@ATL@@@@@ATL@@H@Z
  00035	e9 00 00 00 00	 jmp	 ___CxxFrameHandler3
text$x	ENDS
?Sepcial_Folder@Solution@@AAE?AV?$CStringT@_WV?$StrTraitMFC@_WV?$ChTraitsCRT@_W@ATL@@@@@ATL@@H@Z ENDP ; Solution::Sepcial_Folder
; Function compile flags: /Odsp /RTCsu /ZI
; File J:\work\SUDOKU\SUDOKU\SUDOKU\Solution.cpp
;	COMDAT ?Folder@Solution@@AAE?AV?$CStringT@_WV?$StrTraitMFC@_WV?$ChTraitsCRT@_W@ATL@@@@@ATL@@XZ
_TEXT	SEGMENT
tv90 = -276						; size = 4
tv67 = -272						; size = 4
$T2 = -264						; size = 4
$T3 = -252						; size = 4
_Output_diectory$ = -48					; size = 4
_Back_slash$ = -36					; size = 4
_this$ = -24						; size = 4
__$ArrayPad$ = -16					; size = 4
__$EHRec$ = -12						; size = 12
___$ReturnUdt$ = 8					; size = 4
?Folder@Solution@@AAE?AV?$CStringT@_WV?$StrTraitMFC@_WV?$ChTraitsCRT@_W@ATL@@@@@ATL@@XZ PROC ; Solution::Folder, COMDAT
; _this$ = ecx

; 226  : {

  00000	55		 push	 ebp
  00001	8b ec		 mov	 ebp, esp
  00003	6a ff		 push	 -1
  00005	68 00 00 00 00	 push	 __ehhandler$?Folder@Solution@@AAE?AV?$CStringT@_WV?$StrTraitMFC@_WV?$ChTraitsCRT@_W@ATL@@@@@ATL@@XZ
  0000a	64 a1 00 00 00
	00		 mov	 eax, DWORD PTR fs:0
  00010	50		 push	 eax
  00011	81 ec 08 01 00
	00		 sub	 esp, 264		; 00000108H
  00017	53		 push	 ebx
  00018	56		 push	 esi
  00019	57		 push	 edi
  0001a	51		 push	 ecx
  0001b	8d 7d ac	 lea	 edi, DWORD PTR [ebp-84]
  0001e	6a 12		 push	 18			; 00000012H
  00020	59		 pop	 ecx
  00021	b8 cc cc cc cc	 mov	 eax, -858993460		; ccccccccH
  00026	f3 ab		 rep stosd
  00028	59		 pop	 ecx
  00029	a1 00 00 00 00	 mov	 eax, DWORD PTR ___security_cookie
  0002e	33 c5		 xor	 eax, ebp
  00030	89 45 f0	 mov	 DWORD PTR __$ArrayPad$[ebp], eax
  00033	50		 push	 eax
  00034	8d 45 f4	 lea	 eax, DWORD PTR __$EHRec$[ebp]
  00037	64 a3 00 00 00
	00		 mov	 DWORD PTR fs:0, eax
  0003d	89 4d e8	 mov	 DWORD PTR _this$[ebp], ecx
  00040	83 a5 f8 fe ff
	ff 00		 and	 DWORD PTR $T2[ebp], 0
  00047	b9 00 00 00 00	 mov	 ecx, OFFSET __CBE53D1F_Solution@cpp
  0004c	e8 00 00 00 00	 call	 @__CheckForDebuggerJustMyCode@4

; 227  : 	CString Back_slash = _T("\\");

  00051	6a 04		 push	 4
  00053	8d 4d dc	 lea	 ecx, DWORD PTR _Back_slash$[ebp]
  00056	e8 00 00 00 00	 call	 ?__autoclassinit2@?$CStringT@_WV?$StrTraitMFC@_WV?$ChTraitsCRT@_W@ATL@@@@@ATL@@QAEXI@Z
  0005b	68 00 00 00 00	 push	 OFFSET ??_C@_13FPGAJAPJ@?$AA?2@
  00060	8d 4d dc	 lea	 ecx, DWORD PTR _Back_slash$[ebp]
  00063	e8 00 00 00 00	 call	 ??0?$CStringT@_WV?$StrTraitMFC@_WV?$ChTraitsCRT@_W@ATL@@@@@ATL@@QAE@PB_W@Z ; ATL::CStringT<wchar_t,StrTraitMFC<wchar_t,ATL::ChTraitsCRT<wchar_t> > >::CStringT<wchar_t,StrTraitMFC<wchar_t,ATL::ChTraitsCRT<wchar_t> > >
  00068	83 65 fc 00	 and	 DWORD PTR __$EHRec$[ebp+8], 0

; 228  : 	CString Output_diectory = Sepcial_Folder(CSIDL_PERSONAL) + Back_slash;

  0006c	6a 04		 push	 4
  0006e	8d 4d d0	 lea	 ecx, DWORD PTR _Output_diectory$[ebp]
  00071	e8 00 00 00 00	 call	 ?__autoclassinit2@?$CStringT@_WV?$StrTraitMFC@_WV?$ChTraitsCRT@_W@ATL@@@@@ATL@@QAEXI@Z
  00076	8d 45 dc	 lea	 eax, DWORD PTR _Back_slash$[ebp]
  00079	50		 push	 eax
  0007a	6a 05		 push	 5
  0007c	8d 85 04 ff ff
	ff		 lea	 eax, DWORD PTR $T3[ebp]
  00082	50		 push	 eax
  00083	8b 4d e8	 mov	 ecx, DWORD PTR _this$[ebp]
  00086	e8 00 00 00 00	 call	 ?Sepcial_Folder@Solution@@AAE?AV?$CStringT@_WV?$StrTraitMFC@_WV?$ChTraitsCRT@_W@ATL@@@@@ATL@@H@Z ; Solution::Sepcial_Folder
  0008b	89 85 f0 fe ff
	ff		 mov	 DWORD PTR tv67[ebp], eax
  00091	8b 85 f0 fe ff
	ff		 mov	 eax, DWORD PTR tv67[ebp]
  00097	89 85 ec fe ff
	ff		 mov	 DWORD PTR tv90[ebp], eax
  0009d	c6 45 fc 01	 mov	 BYTE PTR __$EHRec$[ebp+8], 1
  000a1	ff b5 ec fe ff
	ff		 push	 DWORD PTR tv90[ebp]
  000a7	8d 45 d0	 lea	 eax, DWORD PTR _Output_diectory$[ebp]
  000aa	50		 push	 eax
  000ab	e8 00 00 00 00	 call	 ??HATL@@YA?AV?$CStringT@_WV?$StrTraitMFC@_WV?$ChTraitsCRT@_W@ATL@@@@@0@ABV10@0@Z ; ATL::operator+
  000b0	83 c4 0c	 add	 esp, 12			; 0000000cH
  000b3	c6 45 fc 03	 mov	 BYTE PTR __$EHRec$[ebp+8], 3
  000b7	8d 8d 04 ff ff
	ff		 lea	 ecx, DWORD PTR $T3[ebp]
  000bd	e8 00 00 00 00	 call	 ??1?$CStringT@_WV?$StrTraitMFC@_WV?$ChTraitsCRT@_W@ATL@@@@@ATL@@QAE@XZ ; ATL::CStringT<wchar_t,StrTraitMFC<wchar_t,ATL::ChTraitsCRT<wchar_t> > >::~CStringT<wchar_t,StrTraitMFC<wchar_t,ATL::ChTraitsCRT<wchar_t> > >

; 229  : 	return (Output_diectory);

  000c2	8d 45 d0	 lea	 eax, DWORD PTR _Output_diectory$[ebp]
  000c5	50		 push	 eax
  000c6	8b 4d 08	 mov	 ecx, DWORD PTR ___$ReturnUdt$[ebp]
  000c9	e8 00 00 00 00	 call	 ??0?$CStringT@_WV?$StrTraitMFC@_WV?$ChTraitsCRT@_W@ATL@@@@@ATL@@QAE@ABV01@@Z ; ATL::CStringT<wchar_t,StrTraitMFC<wchar_t,ATL::ChTraitsCRT<wchar_t> > >::CStringT<wchar_t,StrTraitMFC<wchar_t,ATL::ChTraitsCRT<wchar_t> > >
  000ce	8b 85 f8 fe ff
	ff		 mov	 eax, DWORD PTR $T2[ebp]
  000d4	83 c8 01	 or	 eax, 1
  000d7	89 85 f8 fe ff
	ff		 mov	 DWORD PTR $T2[ebp], eax
  000dd	c6 45 fc 00	 mov	 BYTE PTR __$EHRec$[ebp+8], 0
  000e1	8d 4d d0	 lea	 ecx, DWORD PTR _Output_diectory$[ebp]
  000e4	e8 00 00 00 00	 call	 ??1?$CStringT@_WV?$StrTraitMFC@_WV?$ChTraitsCRT@_W@ATL@@@@@ATL@@QAE@XZ ; ATL::CStringT<wchar_t,StrTraitMFC<wchar_t,ATL::ChTraitsCRT<wchar_t> > >::~CStringT<wchar_t,StrTraitMFC<wchar_t,ATL::ChTraitsCRT<wchar_t> > >
  000e9	83 4d fc ff	 or	 DWORD PTR __$EHRec$[ebp+8], -1
  000ed	8d 4d dc	 lea	 ecx, DWORD PTR _Back_slash$[ebp]
  000f0	e8 00 00 00 00	 call	 ??1?$CStringT@_WV?$StrTraitMFC@_WV?$ChTraitsCRT@_W@ATL@@@@@ATL@@QAE@XZ ; ATL::CStringT<wchar_t,StrTraitMFC<wchar_t,ATL::ChTraitsCRT<wchar_t> > >::~CStringT<wchar_t,StrTraitMFC<wchar_t,ATL::ChTraitsCRT<wchar_t> > >
  000f5	8b 45 08	 mov	 eax, DWORD PTR ___$ReturnUdt$[ebp]

; 230  : }

  000f8	52		 push	 edx
  000f9	8b cd		 mov	 ecx, ebp
  000fb	50		 push	 eax
  000fc	8d 15 00 00 00
	00		 lea	 edx, DWORD PTR $LN12@Folder
  00102	e8 00 00 00 00	 call	 @_RTC_CheckStackVars@8
  00107	58		 pop	 eax
  00108	5a		 pop	 edx
  00109	8b 4d f4	 mov	 ecx, DWORD PTR __$EHRec$[ebp]
  0010c	64 89 0d 00 00
	00 00		 mov	 DWORD PTR fs:0, ecx
  00113	59		 pop	 ecx
  00114	5f		 pop	 edi
  00115	5e		 pop	 esi
  00116	5b		 pop	 ebx
  00117	8b 4d f0	 mov	 ecx, DWORD PTR __$ArrayPad$[ebp]
  0011a	33 cd		 xor	 ecx, ebp
  0011c	e8 00 00 00 00	 call	 @__security_check_cookie@4
  00121	81 c4 14 01 00
	00		 add	 esp, 276		; 00000114H
  00127	3b ec		 cmp	 ebp, esp
  00129	e8 00 00 00 00	 call	 __RTC_CheckEsp
  0012e	c9		 leave
  0012f	c2 04 00	 ret	 4
  00132	66 90		 npad	 2
$LN12@Folder:
  00134	02 00 00 00	 DD	 2
  00138	00 00 00 00	 DD	 $LN11@Folder
$LN11@Folder:
  0013c	dc ff ff ff	 DD	 -36			; ffffffdcH
  00140	04 00 00 00	 DD	 4
  00144	00 00 00 00	 DD	 $LN8@Folder
  00148	d0 ff ff ff	 DD	 -48			; ffffffd0H
  0014c	04 00 00 00	 DD	 4
  00150	00 00 00 00	 DD	 $LN9@Folder
$LN9@Folder:
  00154	4f		 DB	 79			; 0000004fH
  00155	75		 DB	 117			; 00000075H
  00156	74		 DB	 116			; 00000074H
  00157	70		 DB	 112			; 00000070H
  00158	75		 DB	 117			; 00000075H
  00159	74		 DB	 116			; 00000074H
  0015a	5f		 DB	 95			; 0000005fH
  0015b	64		 DB	 100			; 00000064H
  0015c	69		 DB	 105			; 00000069H
  0015d	65		 DB	 101			; 00000065H
  0015e	63		 DB	 99			; 00000063H
  0015f	74		 DB	 116			; 00000074H
  00160	6f		 DB	 111			; 0000006fH
  00161	72		 DB	 114			; 00000072H
  00162	79		 DB	 121			; 00000079H
  00163	00		 DB	 0
$LN8@Folder:
  00164	42		 DB	 66			; 00000042H
  00165	61		 DB	 97			; 00000061H
  00166	63		 DB	 99			; 00000063H
  00167	6b		 DB	 107			; 0000006bH
  00168	5f		 DB	 95			; 0000005fH
  00169	73		 DB	 115			; 00000073H
  0016a	6c		 DB	 108			; 0000006cH
  0016b	61		 DB	 97			; 00000061H
  0016c	73		 DB	 115			; 00000073H
  0016d	68		 DB	 104			; 00000068H
  0016e	00		 DB	 0
_TEXT	ENDS
;	COMDAT text$x
text$x	SEGMENT
__unwindfunclet$?Folder@Solution@@AAE?AV?$CStringT@_WV?$StrTraitMFC@_WV?$ChTraitsCRT@_W@ATL@@@@@ATL@@XZ$0:
  00000	8d 4d dc	 lea	 ecx, DWORD PTR _Back_slash$[ebp]
  00003	e9 00 00 00 00	 jmp	 ??1?$CStringT@_WV?$StrTraitMFC@_WV?$ChTraitsCRT@_W@ATL@@@@@ATL@@QAE@XZ ; ATL::CStringT<wchar_t,StrTraitMFC<wchar_t,ATL::ChTraitsCRT<wchar_t> > >::~CStringT<wchar_t,StrTraitMFC<wchar_t,ATL::ChTraitsCRT<wchar_t> > >
__unwindfunclet$?Folder@Solution@@AAE?AV?$CStringT@_WV?$StrTraitMFC@_WV?$ChTraitsCRT@_W@ATL@@@@@ATL@@XZ$1:
  00008	8d 8d 04 ff ff
	ff		 lea	 ecx, DWORD PTR $T3[ebp]
  0000e	e9 00 00 00 00	 jmp	 ??1?$CStringT@_WV?$StrTraitMFC@_WV?$ChTraitsCRT@_W@ATL@@@@@ATL@@QAE@XZ ; ATL::CStringT<wchar_t,StrTraitMFC<wchar_t,ATL::ChTraitsCRT<wchar_t> > >::~CStringT<wchar_t,StrTraitMFC<wchar_t,ATL::ChTraitsCRT<wchar_t> > >
__unwindfunclet$?Folder@Solution@@AAE?AV?$CStringT@_WV?$StrTraitMFC@_WV?$ChTraitsCRT@_W@ATL@@@@@ATL@@XZ$2:
  00013	8d 4d d0	 lea	 ecx, DWORD PTR _Output_diectory$[ebp]
  00016	e9 00 00 00 00	 jmp	 ??1?$CStringT@_WV?$StrTraitMFC@_WV?$ChTraitsCRT@_W@ATL@@@@@ATL@@QAE@XZ ; ATL::CStringT<wchar_t,StrTraitMFC<wchar_t,ATL::ChTraitsCRT<wchar_t> > >::~CStringT<wchar_t,StrTraitMFC<wchar_t,ATL::ChTraitsCRT<wchar_t> > >
  0001b	cc		 int	 3
  0001c	cc		 int	 3
  0001d	cc		 int	 3
  0001e	cc		 int	 3
  0001f	cc		 int	 3
__ehhandler$?Folder@Solution@@AAE?AV?$CStringT@_WV?$StrTraitMFC@_WV?$ChTraitsCRT@_W@ATL@@@@@ATL@@XZ:
  00020	90		 npad	 1
  00021	90		 npad	 1
  00022	8b 54 24 08	 mov	 edx, DWORD PTR [esp+8]
  00026	8d 42 0c	 lea	 eax, DWORD PTR [edx+12]
  00029	8b 8a e8 fe ff
	ff		 mov	 ecx, DWORD PTR [edx-280]
  0002f	33 c8		 xor	 ecx, eax
  00031	e8 00 00 00 00	 call	 @__security_check_cookie@4
  00036	8b 4a fc	 mov	 ecx, DWORD PTR [edx-4]
  00039	33 c8		 xor	 ecx, eax
  0003b	e8 00 00 00 00	 call	 @__security_check_cookie@4
  00040	b8 00 00 00 00	 mov	 eax, OFFSET __ehfuncinfo$?Folder@Solution@@AAE?AV?$CStringT@_WV?$StrTraitMFC@_WV?$ChTraitsCRT@_W@ATL@@@@@ATL@@XZ
  00045	e9 00 00 00 00	 jmp	 ___CxxFrameHandler3
text$x	ENDS
?Folder@Solution@@AAE?AV?$CStringT@_WV?$StrTraitMFC@_WV?$ChTraitsCRT@_W@ATL@@@@@ATL@@XZ ENDP ; Solution::Folder
; Function compile flags: /Odsp /RTCsu /ZI
; File J:\work\SUDOKU\SUDOKU\SUDOKU\Solution.cpp
;	COMDAT ?WriteFile@Solution@@AAEHPAU_iobuf@@@Z
_TEXT	SEGMENT
_col$1 = -32						; size = 4
_row$2 = -20						; size = 4
_this$ = -8						; size = 4
__File$ = 8						; size = 4
?WriteFile@Solution@@AAEHPAU_iobuf@@@Z PROC		; Solution::WriteFile, COMDAT
; _this$ = ecx

; 363  : {

  00000	55		 push	 ebp
  00001	8b ec		 mov	 ebp, esp
  00003	81 ec e4 00 00
	00		 sub	 esp, 228		; 000000e4H
  00009	53		 push	 ebx
  0000a	56		 push	 esi
  0000b	57		 push	 edi
  0000c	51		 push	 ecx
  0000d	8d 7d dc	 lea	 edi, DWORD PTR [ebp-36]
  00010	6a 09		 push	 9
  00012	59		 pop	 ecx
  00013	b8 cc cc cc cc	 mov	 eax, -858993460		; ccccccccH
  00018	f3 ab		 rep stosd
  0001a	59		 pop	 ecx
  0001b	89 4d f8	 mov	 DWORD PTR _this$[ebp], ecx
  0001e	b9 00 00 00 00	 mov	 ecx, OFFSET __CBE53D1F_Solution@cpp
  00023	e8 00 00 00 00	 call	 @__CheckForDebuggerJustMyCode@4

; 364  : 
; 365  : 	for (int row = 0; row < MAX; row++)

  00028	83 65 ec 00	 and	 DWORD PTR _row$2[ebp], 0
  0002c	eb 07		 jmp	 SHORT $LN4@WriteFile
$LN2@WriteFile:
  0002e	8b 45 ec	 mov	 eax, DWORD PTR _row$2[ebp]
  00031	40		 inc	 eax
  00032	89 45 ec	 mov	 DWORD PTR _row$2[ebp], eax
$LN4@WriteFile:
  00035	83 7d ec 09	 cmp	 DWORD PTR _row$2[ebp], 9
  00039	7d 44		 jge	 SHORT $LN3@WriteFile

; 366  : 	{
; 367  : 		for (int col = 0; col < MAX; col++)

  0003b	83 65 e0 00	 and	 DWORD PTR _col$1[ebp], 0
  0003f	eb 07		 jmp	 SHORT $LN7@WriteFile
$LN5@WriteFile:
  00041	8b 45 e0	 mov	 eax, DWORD PTR _col$1[ebp]
  00044	40		 inc	 eax
  00045	89 45 e0	 mov	 DWORD PTR _col$1[ebp], eax
$LN7@WriteFile:
  00048	83 7d e0 09	 cmp	 DWORD PTR _col$1[ebp], 9
  0004c	7d 20		 jge	 SHORT $LN6@WriteFile

; 368  : 		{
; 369  : 
; 370  : 			fprintf(_File, "%d ", grid[row][col]);

  0004e	6b 45 ec 24	 imul	 eax, DWORD PTR _row$2[ebp], 36
  00052	8b 4d e0	 mov	 ecx, DWORD PTR _col$1[ebp]
  00055	ff b4 88 00 00
	00 00		 push	 DWORD PTR ?grid@@3PAY08HA[eax+ecx*4]
  0005c	68 00 00 00 00	 push	 OFFSET ??_C@_03JDANDILB@?$CFd?5@
  00061	ff 75 08	 push	 DWORD PTR __File$[ebp]
  00064	e8 00 00 00 00	 call	 _fprintf
  00069	83 c4 0c	 add	 esp, 12			; 0000000cH

; 371  : 
; 372  : 		}

  0006c	eb d3		 jmp	 SHORT $LN5@WriteFile
$LN6@WriteFile:

; 373  : 
; 374  : 		fprintf(_File, "\n");

  0006e	68 00 00 00 00	 push	 OFFSET ??_C@_01EEMJAFIK@?6@
  00073	ff 75 08	 push	 DWORD PTR __File$[ebp]
  00076	e8 00 00 00 00	 call	 _fprintf
  0007b	59		 pop	 ecx
  0007c	59		 pop	 ecx

; 375  : 	}

  0007d	eb af		 jmp	 SHORT $LN2@WriteFile
$LN3@WriteFile:

; 376  : 
; 377  : 	fprintf(_File, "\n");

  0007f	68 00 00 00 00	 push	 OFFSET ??_C@_01EEMJAFIK@?6@
  00084	ff 75 08	 push	 DWORD PTR __File$[ebp]
  00087	e8 00 00 00 00	 call	 _fprintf
  0008c	59		 pop	 ecx
  0008d	59		 pop	 ecx

; 378  : 	return (TRUE);

  0008e	33 c0		 xor	 eax, eax
  00090	40		 inc	 eax

; 379  : }

  00091	5f		 pop	 edi
  00092	5e		 pop	 esi
  00093	5b		 pop	 ebx
  00094	81 c4 e4 00 00
	00		 add	 esp, 228		; 000000e4H
  0009a	3b ec		 cmp	 ebp, esp
  0009c	e8 00 00 00 00	 call	 __RTC_CheckEsp
  000a1	c9		 leave
  000a2	c2 04 00	 ret	 4
?WriteFile@Solution@@AAEHPAU_iobuf@@@Z ENDP		; Solution::WriteFile
_TEXT	ENDS
; Function compile flags: /Odsp /RTCsu /ZI
; File J:\work\SUDOKU\SUDOKU\SUDOKU\Solution.cpp
;	COMDAT ?Open_File@Solution@@AAEHPA_W@Z
_TEXT	SEGMENT
$T2 = -1924						; size = 4
$T3 = -1912						; size = 4
_result$ = -1324					; size = 4
_FileOpenDialog$ = -1312				; size = 1256
_local_File$ = -48					; size = 4
_OpenFilter$ = -36					; size = 4
_this$ = -24						; size = 4
__$ArrayPad$ = -16					; size = 4
__$EHRec$ = -12						; size = 12
_File$ = 8						; size = 4
?Open_File@Solution@@AAEHPA_W@Z PROC			; Solution::Open_File, COMDAT
; _this$ = ecx

; 43   : {

  00000	55		 push	 ebp
  00001	8b ec		 mov	 ebp, esp
  00003	6a ff		 push	 -1
  00005	68 00 00 00 00	 push	 __ehhandler$?Open_File@Solution@@AAEHPA_W@Z
  0000a	64 a1 00 00 00
	00		 mov	 eax, DWORD PTR fs:0
  00010	50		 push	 eax
  00011	81 ec 7c 07 00
	00		 sub	 esp, 1916		; 0000077cH
  00017	53		 push	 ebx
  00018	56		 push	 esi
  00019	57		 push	 edi
  0001a	51		 push	 ecx
  0001b	8d bd b8 fa ff
	ff		 lea	 edi, DWORD PTR [ebp-1352]
  00021	b9 4f 01 00 00	 mov	 ecx, 335		; 0000014fH
  00026	b8 cc cc cc cc	 mov	 eax, -858993460		; ccccccccH
  0002b	f3 ab		 rep stosd
  0002d	59		 pop	 ecx
  0002e	a1 00 00 00 00	 mov	 eax, DWORD PTR ___security_cookie
  00033	33 c5		 xor	 eax, ebp
  00035	89 45 f0	 mov	 DWORD PTR __$ArrayPad$[ebp], eax
  00038	50		 push	 eax
  00039	8d 45 f4	 lea	 eax, DWORD PTR __$EHRec$[ebp]
  0003c	64 a3 00 00 00
	00		 mov	 DWORD PTR fs:0, eax
  00042	89 4d e8	 mov	 DWORD PTR _this$[ebp], ecx
  00045	b9 00 00 00 00	 mov	 ecx, OFFSET __CBE53D1F_Solution@cpp
  0004a	e8 00 00 00 00	 call	 @__CheckForDebuggerJustMyCode@4

; 44   : 	CString OpenFilter;

  0004f	6a 04		 push	 4
  00051	8d 4d dc	 lea	 ecx, DWORD PTR _OpenFilter$[ebp]
  00054	e8 00 00 00 00	 call	 ?__autoclassinit2@?$CStringT@_WV?$StrTraitMFC@_WV?$ChTraitsCRT@_W@ATL@@@@@ATL@@QAEXI@Z
  00059	8d 4d dc	 lea	 ecx, DWORD PTR _OpenFilter$[ebp]
  0005c	e8 00 00 00 00	 call	 ??0?$CStringT@_WV?$StrTraitMFC@_WV?$ChTraitsCRT@_W@ATL@@@@@ATL@@QAE@XZ ; ATL::CStringT<wchar_t,StrTraitMFC<wchar_t,ATL::ChTraitsCRT<wchar_t> > >::CStringT<wchar_t,StrTraitMFC<wchar_t,ATL::ChTraitsCRT<wchar_t> > >
  00061	83 65 fc 00	 and	 DWORD PTR __$EHRec$[ebp+8], 0

; 45   : 	CString local_File(File);

  00065	6a 04		 push	 4
  00067	8d 4d d0	 lea	 ecx, DWORD PTR _local_File$[ebp]
  0006a	e8 00 00 00 00	 call	 ?__autoclassinit2@?$CStringT@_WV?$StrTraitMFC@_WV?$ChTraitsCRT@_W@ATL@@@@@ATL@@QAEXI@Z
  0006f	ff 75 08	 push	 DWORD PTR _File$[ebp]
  00072	8d 4d d0	 lea	 ecx, DWORD PTR _local_File$[ebp]
  00075	e8 00 00 00 00	 call	 ??0?$CStringT@_WV?$StrTraitMFC@_WV?$ChTraitsCRT@_W@ATL@@@@@ATL@@QAE@PB_W@Z ; ATL::CStringT<wchar_t,StrTraitMFC<wchar_t,ATL::ChTraitsCRT<wchar_t> > >::CStringT<wchar_t,StrTraitMFC<wchar_t,ATL::ChTraitsCRT<wchar_t> > >
  0007a	c6 45 fc 01	 mov	 BYTE PTR __$EHRec$[ebp+8], 1

; 46   : 
; 47   : 	OpenFilter = "Text File (*.txt)|*.txt|";

  0007e	68 00 00 00 00	 push	 OFFSET ??_C@_0BJ@LICJPAK@Text?5File?5?$CI?$CK?4txt?$CJ?$HM?$CK?4txt?$HM@
  00083	8d 4d dc	 lea	 ecx, DWORD PTR _OpenFilter$[ebp]
  00086	e8 00 00 00 00	 call	 ??4?$CStringT@_WV?$StrTraitMFC@_WV?$ChTraitsCRT@_W@ATL@@@@@ATL@@QAEAAV01@PBD@Z ; ATL::CStringT<wchar_t,StrTraitMFC<wchar_t,ATL::ChTraitsCRT<wchar_t> > >::operator=

; 48   : 	OpenFilter += "All Files (*.*)|*.*||";

  0008b	68 00 00 00 00	 push	 OFFSET ??_C@_0BG@FALAGNOM@All?5Files?5?$CI?$CK?4?$CK?$CJ?$HM?$CK?4?$CK?$HM?$HM@
  00090	8d 4d dc	 lea	 ecx, DWORD PTR _OpenFilter$[ebp]
  00093	e8 00 00 00 00	 call	 ??Y?$CStringT@_WV?$StrTraitMFC@_WV?$ChTraitsCRT@_W@ATL@@@@@ATL@@QAEAAV01@PBD@Z ; ATL::CStringT<wchar_t,StrTraitMFC<wchar_t,ATL::ChTraitsCRT<wchar_t> > >::operator+=

; 49   : 
; 50   : 	CFileDialog FileOpenDialog(

  00098	68 e8 04 00 00	 push	 1256			; 000004e8H
  0009d	8d 8d e0 fa ff
	ff		 lea	 ecx, DWORD PTR _FileOpenDialog$[ebp]
  000a3	e8 00 00 00 00	 call	 ?__autoclassinit2@CFileDialog@@QAEXI@Z
  000a8	6a 01		 push	 1
  000aa	6a 00		 push	 0
  000ac	e8 00 00 00 00	 call	 ?AfxGetMainWnd@@YGPAVCWnd@@XZ ; AfxGetMainWnd
  000b1	50		 push	 eax
  000b2	8d 4d dc	 lea	 ecx, DWORD PTR _OpenFilter$[ebp]
  000b5	e8 00 00 00 00	 call	 ??B?$CSimpleStringT@_W$0A@@ATL@@QBEPB_WXZ ; ATL::CSimpleStringT<wchar_t,0>::operator wchar_t const *
  000ba	50		 push	 eax
  000bb	68 04 18 00 00	 push	 6148			; 00001804H
  000c0	8d 4d d0	 lea	 ecx, DWORD PTR _local_File$[ebp]
  000c3	e8 00 00 00 00	 call	 ??B?$CSimpleStringT@_W$0A@@ATL@@QBEPB_WXZ ; ATL::CSimpleStringT<wchar_t,0>::operator wchar_t const *
  000c8	50		 push	 eax
  000c9	6a 00		 push	 0
  000cb	6a 01		 push	 1
  000cd	8d 8d e0 fa ff
	ff		 lea	 ecx, DWORD PTR _FileOpenDialog$[ebp]
  000d3	e8 00 00 00 00	 call	 ??0CFileDialog@@QAE@HPB_W0K0PAVCWnd@@KH@Z ; CFileDialog::CFileDialog
  000d8	c6 45 fc 02	 mov	 BYTE PTR __$EHRec$[ebp+8], 2

; 51   : 		TRUE,
; 52   : 		NULL,
; 53   : 		local_File,
; 54   : 		OFN_FILEMUSTEXIST | OFN_HIDEREADONLY | OFN_PATHMUSTEXIST,
; 55   : 		OpenFilter,                       // filter
; 56   : 		AfxGetMainWnd());               // the parent window 
; 57   : 	CString result = Current_Dir();

  000dc	6a 04		 push	 4
  000de	8d 8d d4 fa ff
	ff		 lea	 ecx, DWORD PTR _result$[ebp]
  000e4	e8 00 00 00 00	 call	 ?__autoclassinit2@?$CStringT@_WV?$StrTraitMFC@_WV?$ChTraitsCRT@_W@ATL@@@@@ATL@@QAEXI@Z
  000e9	8d 85 d4 fa ff
	ff		 lea	 eax, DWORD PTR _result$[ebp]
  000ef	50		 push	 eax
  000f0	8b 4d e8	 mov	 ecx, DWORD PTR _this$[ebp]
  000f3	e8 00 00 00 00	 call	 ?Current_Dir@Solution@@AAE?AV?$CStringT@_WV?$StrTraitMFC@_WV?$ChTraitsCRT@_W@ATL@@@@@ATL@@XZ ; Solution::Current_Dir
  000f8	c6 45 fc 03	 mov	 BYTE PTR __$EHRec$[ebp+8], 3

; 58   : 
; 59   : 	FileOpenDialog.m_ofn.lpstrInitialDir = result;

  000fc	8d 8d d4 fa ff
	ff		 lea	 ecx, DWORD PTR _result$[ebp]
  00102	e8 00 00 00 00	 call	 ??B?$CSimpleStringT@_W$0A@@ATL@@QBEPB_WXZ ; ATL::CSimpleStringT<wchar_t,0>::operator wchar_t const *
  00107	8b f0		 mov	 esi, eax
  00109	8d 8d e0 fa ff
	ff		 lea	 ecx, DWORD PTR _FileOpenDialog$[ebp]
  0010f	e8 00 00 00 00	 call	 ?GetOFN@CFileDialog@@QAEAAUtagOFNW@@XZ ; CFileDialog::GetOFN
  00114	89 70 2c	 mov	 DWORD PTR [eax+44], esi

; 60   : 
; 61   : 	FileOpenDialog.m_ofn.lpstrTitle = _T("Sudoku File");

  00117	8d 8d e0 fa ff
	ff		 lea	 ecx, DWORD PTR _FileOpenDialog$[ebp]
  0011d	e8 00 00 00 00	 call	 ?GetOFN@CFileDialog@@QAEAAUtagOFNW@@XZ ; CFileDialog::GetOFN
  00122	c7 40 30 00 00
	00 00		 mov	 DWORD PTR [eax+48], OFFSET ??_C@_1BI@LHMMMGAL@?$AAS?$AAu?$AAd?$AAo?$AAk?$AAu?$AA?5?$AAF?$AAi?$AAl?$AAe@

; 62   : 
; 63   : 	if (FileOpenDialog.DoModal() == IDOK)

  00129	8d 8d e0 fa ff
	ff		 lea	 ecx, DWORD PTR _FileOpenDialog$[ebp]
  0012f	e8 00 00 00 00	 call	 ?DoModal@CFileDialog@@UAEHXZ ; CFileDialog::DoModal
  00134	83 f8 01	 cmp	 eax, 1
  00137	75 64		 jne	 SHORT $LN2@Open_File

; 64   : 	{
; 65   : 		pszSource = FileOpenDialog.m_ofn.lpstrFile;

  00139	8d 8d e0 fa ff
	ff		 lea	 ecx, DWORD PTR _FileOpenDialog$[ebp]
  0013f	e8 00 00 00 00	 call	 ?GetOFN@CFileDialog@@QAEAAUtagOFNW@@XZ ; CFileDialog::GetOFN
  00144	ff 70 1c	 push	 DWORD PTR [eax+28]
  00147	8b 4d e8	 mov	 ecx, DWORD PTR _this$[ebp]
  0014a	81 c1 50 01 00
	00		 add	 ecx, 336		; 00000150H
  00150	e8 00 00 00 00	 call	 ??4?$CStringT@_WV?$StrTraitMFC@_WV?$ChTraitsCRT@_W@ATL@@@@@ATL@@QAEAAV01@PB_W@Z ; ATL::CStringT<wchar_t,StrTraitMFC<wchar_t,ATL::ChTraitsCRT<wchar_t> > >::operator=

; 66   : 		return TRUE;

  00155	c7 85 88 f8 ff
	ff 01 00 00 00	 mov	 DWORD PTR $T3[ebp], 1
  0015f	c6 45 fc 02	 mov	 BYTE PTR __$EHRec$[ebp+8], 2
  00163	8d 8d d4 fa ff
	ff		 lea	 ecx, DWORD PTR _result$[ebp]
  00169	e8 00 00 00 00	 call	 ??1?$CStringT@_WV?$StrTraitMFC@_WV?$ChTraitsCRT@_W@ATL@@@@@ATL@@QAE@XZ ; ATL::CStringT<wchar_t,StrTraitMFC<wchar_t,ATL::ChTraitsCRT<wchar_t> > >::~CStringT<wchar_t,StrTraitMFC<wchar_t,ATL::ChTraitsCRT<wchar_t> > >
  0016e	c6 45 fc 01	 mov	 BYTE PTR __$EHRec$[ebp+8], 1
  00172	8d 8d e0 fa ff
	ff		 lea	 ecx, DWORD PTR _FileOpenDialog$[ebp]
  00178	e8 00 00 00 00	 call	 ??1CFileDialog@@UAE@XZ	; CFileDialog::~CFileDialog
  0017d	c6 45 fc 00	 mov	 BYTE PTR __$EHRec$[ebp+8], 0
  00181	8d 4d d0	 lea	 ecx, DWORD PTR _local_File$[ebp]
  00184	e8 00 00 00 00	 call	 ??1?$CStringT@_WV?$StrTraitMFC@_WV?$ChTraitsCRT@_W@ATL@@@@@ATL@@QAE@XZ ; ATL::CStringT<wchar_t,StrTraitMFC<wchar_t,ATL::ChTraitsCRT<wchar_t> > >::~CStringT<wchar_t,StrTraitMFC<wchar_t,ATL::ChTraitsCRT<wchar_t> > >
  00189	83 4d fc ff	 or	 DWORD PTR __$EHRec$[ebp+8], -1
  0018d	8d 4d dc	 lea	 ecx, DWORD PTR _OpenFilter$[ebp]
  00190	e8 00 00 00 00	 call	 ??1?$CStringT@_WV?$StrTraitMFC@_WV?$ChTraitsCRT@_W@ATL@@@@@ATL@@QAE@XZ ; ATL::CStringT<wchar_t,StrTraitMFC<wchar_t,ATL::ChTraitsCRT<wchar_t> > >::~CStringT<wchar_t,StrTraitMFC<wchar_t,ATL::ChTraitsCRT<wchar_t> > >
  00195	8b 85 88 f8 ff
	ff		 mov	 eax, DWORD PTR $T3[ebp]
  0019b	eb 43		 jmp	 SHORT $LN1@Open_File
$LN2@Open_File:

; 67   : 	}
; 68   : 
; 69   : 	return FALSE;

  0019d	83 a5 7c f8 ff
	ff 00		 and	 DWORD PTR $T2[ebp], 0
  001a4	c6 45 fc 02	 mov	 BYTE PTR __$EHRec$[ebp+8], 2
  001a8	8d 8d d4 fa ff
	ff		 lea	 ecx, DWORD PTR _result$[ebp]
  001ae	e8 00 00 00 00	 call	 ??1?$CStringT@_WV?$StrTraitMFC@_WV?$ChTraitsCRT@_W@ATL@@@@@ATL@@QAE@XZ ; ATL::CStringT<wchar_t,StrTraitMFC<wchar_t,ATL::ChTraitsCRT<wchar_t> > >::~CStringT<wchar_t,StrTraitMFC<wchar_t,ATL::ChTraitsCRT<wchar_t> > >
  001b3	c6 45 fc 01	 mov	 BYTE PTR __$EHRec$[ebp+8], 1
  001b7	8d 8d e0 fa ff
	ff		 lea	 ecx, DWORD PTR _FileOpenDialog$[ebp]
  001bd	e8 00 00 00 00	 call	 ??1CFileDialog@@UAE@XZ	; CFileDialog::~CFileDialog
  001c2	c6 45 fc 00	 mov	 BYTE PTR __$EHRec$[ebp+8], 0
  001c6	8d 4d d0	 lea	 ecx, DWORD PTR _local_File$[ebp]
  001c9	e8 00 00 00 00	 call	 ??1?$CStringT@_WV?$StrTraitMFC@_WV?$ChTraitsCRT@_W@ATL@@@@@ATL@@QAE@XZ ; ATL::CStringT<wchar_t,StrTraitMFC<wchar_t,ATL::ChTraitsCRT<wchar_t> > >::~CStringT<wchar_t,StrTraitMFC<wchar_t,ATL::ChTraitsCRT<wchar_t> > >
  001ce	83 4d fc ff	 or	 DWORD PTR __$EHRec$[ebp+8], -1
  001d2	8d 4d dc	 lea	 ecx, DWORD PTR _OpenFilter$[ebp]
  001d5	e8 00 00 00 00	 call	 ??1?$CStringT@_WV?$StrTraitMFC@_WV?$ChTraitsCRT@_W@ATL@@@@@ATL@@QAE@XZ ; ATL::CStringT<wchar_t,StrTraitMFC<wchar_t,ATL::ChTraitsCRT<wchar_t> > >::~CStringT<wchar_t,StrTraitMFC<wchar_t,ATL::ChTraitsCRT<wchar_t> > >
  001da	8b 85 7c f8 ff
	ff		 mov	 eax, DWORD PTR $T2[ebp]
$LN1@Open_File:

; 70   : 
; 71   : }

  001e0	52		 push	 edx
  001e1	8b cd		 mov	 ecx, ebp
  001e3	50		 push	 eax
  001e4	8d 15 00 00 00
	00		 lea	 edx, DWORD PTR $LN14@Open_File
  001ea	e8 00 00 00 00	 call	 @_RTC_CheckStackVars@8
  001ef	58		 pop	 eax
  001f0	5a		 pop	 edx
  001f1	8b 4d f4	 mov	 ecx, DWORD PTR __$EHRec$[ebp]
  001f4	64 89 0d 00 00
	00 00		 mov	 DWORD PTR fs:0, ecx
  001fb	59		 pop	 ecx
  001fc	5f		 pop	 edi
  001fd	5e		 pop	 esi
  001fe	5b		 pop	 ebx
  001ff	8b 4d f0	 mov	 ecx, DWORD PTR __$ArrayPad$[ebp]
  00202	33 cd		 xor	 ecx, ebp
  00204	e8 00 00 00 00	 call	 @__security_check_cookie@4
  00209	81 c4 88 07 00
	00		 add	 esp, 1928		; 00000788H
  0020f	3b ec		 cmp	 ebp, esp
  00211	e8 00 00 00 00	 call	 __RTC_CheckEsp
  00216	c9		 leave
  00217	c2 04 00	 ret	 4
  0021a	66 90		 npad	 2
$LN14@Open_File:
  0021c	04 00 00 00	 DD	 4
  00220	00 00 00 00	 DD	 $LN13@Open_File
$LN13@Open_File:
  00224	dc ff ff ff	 DD	 -36			; ffffffdcH
  00228	04 00 00 00	 DD	 4
  0022c	00 00 00 00	 DD	 $LN8@Open_File
  00230	d0 ff ff ff	 DD	 -48			; ffffffd0H
  00234	04 00 00 00	 DD	 4
  00238	00 00 00 00	 DD	 $LN9@Open_File
  0023c	e0 fa ff ff	 DD	 -1312			; fffffae0H
  00240	e8 04 00 00	 DD	 1256			; 000004e8H
  00244	00 00 00 00	 DD	 $LN10@Open_File
  00248	d4 fa ff ff	 DD	 -1324			; fffffad4H
  0024c	04 00 00 00	 DD	 4
  00250	00 00 00 00	 DD	 $LN11@Open_File
$LN11@Open_File:
  00254	72		 DB	 114			; 00000072H
  00255	65		 DB	 101			; 00000065H
  00256	73		 DB	 115			; 00000073H
  00257	75		 DB	 117			; 00000075H
  00258	6c		 DB	 108			; 0000006cH
  00259	74		 DB	 116			; 00000074H
  0025a	00		 DB	 0
$LN10@Open_File:
  0025b	46		 DB	 70			; 00000046H
  0025c	69		 DB	 105			; 00000069H
  0025d	6c		 DB	 108			; 0000006cH
  0025e	65		 DB	 101			; 00000065H
  0025f	4f		 DB	 79			; 0000004fH
  00260	70		 DB	 112			; 00000070H
  00261	65		 DB	 101			; 00000065H
  00262	6e		 DB	 110			; 0000006eH
  00263	44		 DB	 68			; 00000044H
  00264	69		 DB	 105			; 00000069H
  00265	61		 DB	 97			; 00000061H
  00266	6c		 DB	 108			; 0000006cH
  00267	6f		 DB	 111			; 0000006fH
  00268	67		 DB	 103			; 00000067H
  00269	00		 DB	 0
$LN9@Open_File:
  0026a	6c		 DB	 108			; 0000006cH
  0026b	6f		 DB	 111			; 0000006fH
  0026c	63		 DB	 99			; 00000063H
  0026d	61		 DB	 97			; 00000061H
  0026e	6c		 DB	 108			; 0000006cH
  0026f	5f		 DB	 95			; 0000005fH
  00270	46		 DB	 70			; 00000046H
  00271	69		 DB	 105			; 00000069H
  00272	6c		 DB	 108			; 0000006cH
  00273	65		 DB	 101			; 00000065H
  00274	00		 DB	 0
$LN8@Open_File:
  00275	4f		 DB	 79			; 0000004fH
  00276	70		 DB	 112			; 00000070H
  00277	65		 DB	 101			; 00000065H
  00278	6e		 DB	 110			; 0000006eH
  00279	46		 DB	 70			; 00000046H
  0027a	69		 DB	 105			; 00000069H
  0027b	6c		 DB	 108			; 0000006cH
  0027c	74		 DB	 116			; 00000074H
  0027d	65		 DB	 101			; 00000065H
  0027e	72		 DB	 114			; 00000072H
  0027f	00		 DB	 0
_TEXT	ENDS
;	COMDAT text$x
text$x	SEGMENT
__unwindfunclet$?Open_File@Solution@@AAEHPA_W@Z$0:
  00000	8d 4d dc	 lea	 ecx, DWORD PTR _OpenFilter$[ebp]
  00003	e9 00 00 00 00	 jmp	 ??1?$CStringT@_WV?$StrTraitMFC@_WV?$ChTraitsCRT@_W@ATL@@@@@ATL@@QAE@XZ ; ATL::CStringT<wchar_t,StrTraitMFC<wchar_t,ATL::ChTraitsCRT<wchar_t> > >::~CStringT<wchar_t,StrTraitMFC<wchar_t,ATL::ChTraitsCRT<wchar_t> > >
__unwindfunclet$?Open_File@Solution@@AAEHPA_W@Z$1:
  00008	8d 4d d0	 lea	 ecx, DWORD PTR _local_File$[ebp]
  0000b	e9 00 00 00 00	 jmp	 ??1?$CStringT@_WV?$StrTraitMFC@_WV?$ChTraitsCRT@_W@ATL@@@@@ATL@@QAE@XZ ; ATL::CStringT<wchar_t,StrTraitMFC<wchar_t,ATL::ChTraitsCRT<wchar_t> > >::~CStringT<wchar_t,StrTraitMFC<wchar_t,ATL::ChTraitsCRT<wchar_t> > >
__unwindfunclet$?Open_File@Solution@@AAEHPA_W@Z$2:
  00010	8d 8d e0 fa ff
	ff		 lea	 ecx, DWORD PTR _FileOpenDialog$[ebp]
  00016	e9 00 00 00 00	 jmp	 ??1CFileDialog@@UAE@XZ	; CFileDialog::~CFileDialog
__unwindfunclet$?Open_File@Solution@@AAEHPA_W@Z$3:
  0001b	8d 8d d4 fa ff
	ff		 lea	 ecx, DWORD PTR _result$[ebp]
  00021	e9 00 00 00 00	 jmp	 ??1?$CStringT@_WV?$StrTraitMFC@_WV?$ChTraitsCRT@_W@ATL@@@@@ATL@@QAE@XZ ; ATL::CStringT<wchar_t,StrTraitMFC<wchar_t,ATL::ChTraitsCRT<wchar_t> > >::~CStringT<wchar_t,StrTraitMFC<wchar_t,ATL::ChTraitsCRT<wchar_t> > >
  00026	cc		 int	 3
  00027	cc		 int	 3
  00028	cc		 int	 3
  00029	cc		 int	 3
  0002a	cc		 int	 3
__ehhandler$?Open_File@Solution@@AAEHPA_W@Z:
  0002b	90		 npad	 1
  0002c	90		 npad	 1
  0002d	8b 54 24 08	 mov	 edx, DWORD PTR [esp+8]
  00031	8d 42 0c	 lea	 eax, DWORD PTR [edx+12]
  00034	8b 8a 74 f8 ff
	ff		 mov	 ecx, DWORD PTR [edx-1932]
  0003a	33 c8		 xor	 ecx, eax
  0003c	e8 00 00 00 00	 call	 @__security_check_cookie@4
  00041	8b 4a fc	 mov	 ecx, DWORD PTR [edx-4]
  00044	33 c8		 xor	 ecx, eax
  00046	e8 00 00 00 00	 call	 @__security_check_cookie@4
  0004b	b8 00 00 00 00	 mov	 eax, OFFSET __ehfuncinfo$?Open_File@Solution@@AAEHPA_W@Z
  00050	e9 00 00 00 00	 jmp	 ___CxxFrameHandler3
text$x	ENDS
?Open_File@Solution@@AAEHPA_W@Z ENDP			; Solution::Open_File
; Function compile flags: /Odsp /RTCsu /ZI
; File J:\work\SUDOKU\SUDOKU\SUDOKU\Solution.cpp
;	COMDAT ?Save_File@Solution@@AAEHPA_W@Z
_TEXT	SEGMENT
$T2 = -1924						; size = 4
$T3 = -1912						; size = 4
_result$ = -1324					; size = 4
_FileOpenDialog$ = -1312				; size = 1256
_local_File$ = -48					; size = 4
_OpenFilter$ = -36					; size = 4
_this$ = -24						; size = 4
__$ArrayPad$ = -16					; size = 4
__$EHRec$ = -12						; size = 12
_File$ = 8						; size = 4
?Save_File@Solution@@AAEHPA_W@Z PROC			; Solution::Save_File, COMDAT
; _this$ = ecx

; 74   : {

  00000	55		 push	 ebp
  00001	8b ec		 mov	 ebp, esp
  00003	6a ff		 push	 -1
  00005	68 00 00 00 00	 push	 __ehhandler$?Save_File@Solution@@AAEHPA_W@Z
  0000a	64 a1 00 00 00
	00		 mov	 eax, DWORD PTR fs:0
  00010	50		 push	 eax
  00011	81 ec 7c 07 00
	00		 sub	 esp, 1916		; 0000077cH
  00017	53		 push	 ebx
  00018	56		 push	 esi
  00019	57		 push	 edi
  0001a	51		 push	 ecx
  0001b	8d bd b8 fa ff
	ff		 lea	 edi, DWORD PTR [ebp-1352]
  00021	b9 4f 01 00 00	 mov	 ecx, 335		; 0000014fH
  00026	b8 cc cc cc cc	 mov	 eax, -858993460		; ccccccccH
  0002b	f3 ab		 rep stosd
  0002d	59		 pop	 ecx
  0002e	a1 00 00 00 00	 mov	 eax, DWORD PTR ___security_cookie
  00033	33 c5		 xor	 eax, ebp
  00035	89 45 f0	 mov	 DWORD PTR __$ArrayPad$[ebp], eax
  00038	50		 push	 eax
  00039	8d 45 f4	 lea	 eax, DWORD PTR __$EHRec$[ebp]
  0003c	64 a3 00 00 00
	00		 mov	 DWORD PTR fs:0, eax
  00042	89 4d e8	 mov	 DWORD PTR _this$[ebp], ecx
  00045	b9 00 00 00 00	 mov	 ecx, OFFSET __CBE53D1F_Solution@cpp
  0004a	e8 00 00 00 00	 call	 @__CheckForDebuggerJustMyCode@4

; 75   : 	CString OpenFilter;

  0004f	6a 04		 push	 4
  00051	8d 4d dc	 lea	 ecx, DWORD PTR _OpenFilter$[ebp]
  00054	e8 00 00 00 00	 call	 ?__autoclassinit2@?$CStringT@_WV?$StrTraitMFC@_WV?$ChTraitsCRT@_W@ATL@@@@@ATL@@QAEXI@Z
  00059	8d 4d dc	 lea	 ecx, DWORD PTR _OpenFilter$[ebp]
  0005c	e8 00 00 00 00	 call	 ??0?$CStringT@_WV?$StrTraitMFC@_WV?$ChTraitsCRT@_W@ATL@@@@@ATL@@QAE@XZ ; ATL::CStringT<wchar_t,StrTraitMFC<wchar_t,ATL::ChTraitsCRT<wchar_t> > >::CStringT<wchar_t,StrTraitMFC<wchar_t,ATL::ChTraitsCRT<wchar_t> > >
  00061	83 65 fc 00	 and	 DWORD PTR __$EHRec$[ebp+8], 0

; 76   : 	CString local_File(File);

  00065	6a 04		 push	 4
  00067	8d 4d d0	 lea	 ecx, DWORD PTR _local_File$[ebp]
  0006a	e8 00 00 00 00	 call	 ?__autoclassinit2@?$CStringT@_WV?$StrTraitMFC@_WV?$ChTraitsCRT@_W@ATL@@@@@ATL@@QAEXI@Z
  0006f	ff 75 08	 push	 DWORD PTR _File$[ebp]
  00072	8d 4d d0	 lea	 ecx, DWORD PTR _local_File$[ebp]
  00075	e8 00 00 00 00	 call	 ??0?$CStringT@_WV?$StrTraitMFC@_WV?$ChTraitsCRT@_W@ATL@@@@@ATL@@QAE@PB_W@Z ; ATL::CStringT<wchar_t,StrTraitMFC<wchar_t,ATL::ChTraitsCRT<wchar_t> > >::CStringT<wchar_t,StrTraitMFC<wchar_t,ATL::ChTraitsCRT<wchar_t> > >
  0007a	c6 45 fc 01	 mov	 BYTE PTR __$EHRec$[ebp+8], 1

; 77   : 
; 78   : 	OpenFilter = "Text File (*.txt)|*.txt|";

  0007e	68 00 00 00 00	 push	 OFFSET ??_C@_0BJ@LICJPAK@Text?5File?5?$CI?$CK?4txt?$CJ?$HM?$CK?4txt?$HM@
  00083	8d 4d dc	 lea	 ecx, DWORD PTR _OpenFilter$[ebp]
  00086	e8 00 00 00 00	 call	 ??4?$CStringT@_WV?$StrTraitMFC@_WV?$ChTraitsCRT@_W@ATL@@@@@ATL@@QAEAAV01@PBD@Z ; ATL::CStringT<wchar_t,StrTraitMFC<wchar_t,ATL::ChTraitsCRT<wchar_t> > >::operator=

; 79   : 	OpenFilter += "All Files (*.*)|*.*||";

  0008b	68 00 00 00 00	 push	 OFFSET ??_C@_0BG@FALAGNOM@All?5Files?5?$CI?$CK?4?$CK?$CJ?$HM?$CK?4?$CK?$HM?$HM@
  00090	8d 4d dc	 lea	 ecx, DWORD PTR _OpenFilter$[ebp]
  00093	e8 00 00 00 00	 call	 ??Y?$CStringT@_WV?$StrTraitMFC@_WV?$ChTraitsCRT@_W@ATL@@@@@ATL@@QAEAAV01@PBD@Z ; ATL::CStringT<wchar_t,StrTraitMFC<wchar_t,ATL::ChTraitsCRT<wchar_t> > >::operator+=

; 80   : 
; 81   : 	CFileDialog FileOpenDialog(

  00098	68 e8 04 00 00	 push	 1256			; 000004e8H
  0009d	8d 8d e0 fa ff
	ff		 lea	 ecx, DWORD PTR _FileOpenDialog$[ebp]
  000a3	e8 00 00 00 00	 call	 ?__autoclassinit2@CFileDialog@@QAEXI@Z
  000a8	6a 01		 push	 1
  000aa	6a 00		 push	 0
  000ac	e8 00 00 00 00	 call	 ?AfxGetMainWnd@@YGPAVCWnd@@XZ ; AfxGetMainWnd
  000b1	50		 push	 eax
  000b2	8d 4d dc	 lea	 ecx, DWORD PTR _OpenFilter$[ebp]
  000b5	e8 00 00 00 00	 call	 ??B?$CSimpleStringT@_W$0A@@ATL@@QBEPB_WXZ ; ATL::CSimpleStringT<wchar_t,0>::operator wchar_t const *
  000ba	50		 push	 eax
  000bb	68 04 18 00 00	 push	 6148			; 00001804H
  000c0	8d 4d d0	 lea	 ecx, DWORD PTR _local_File$[ebp]
  000c3	e8 00 00 00 00	 call	 ??B?$CSimpleStringT@_W$0A@@ATL@@QBEPB_WXZ ; ATL::CSimpleStringT<wchar_t,0>::operator wchar_t const *
  000c8	50		 push	 eax
  000c9	6a 00		 push	 0
  000cb	6a 00		 push	 0
  000cd	8d 8d e0 fa ff
	ff		 lea	 ecx, DWORD PTR _FileOpenDialog$[ebp]
  000d3	e8 00 00 00 00	 call	 ??0CFileDialog@@QAE@HPB_W0K0PAVCWnd@@KH@Z ; CFileDialog::CFileDialog
  000d8	c6 45 fc 02	 mov	 BYTE PTR __$EHRec$[ebp+8], 2

; 82   : 		FALSE,
; 83   : 		NULL,
; 84   : 		local_File,
; 85   : 		OFN_FILEMUSTEXIST | OFN_HIDEREADONLY | OFN_PATHMUSTEXIST,
; 86   : 		OpenFilter,                       // filter
; 87   : 		AfxGetMainWnd());               // the parent window 
; 88   : 
; 89   : 	CString result = Current_Dir();

  000dc	6a 04		 push	 4
  000de	8d 8d d4 fa ff
	ff		 lea	 ecx, DWORD PTR _result$[ebp]
  000e4	e8 00 00 00 00	 call	 ?__autoclassinit2@?$CStringT@_WV?$StrTraitMFC@_WV?$ChTraitsCRT@_W@ATL@@@@@ATL@@QAEXI@Z
  000e9	8d 85 d4 fa ff
	ff		 lea	 eax, DWORD PTR _result$[ebp]
  000ef	50		 push	 eax
  000f0	8b 4d e8	 mov	 ecx, DWORD PTR _this$[ebp]
  000f3	e8 00 00 00 00	 call	 ?Current_Dir@Solution@@AAE?AV?$CStringT@_WV?$StrTraitMFC@_WV?$ChTraitsCRT@_W@ATL@@@@@ATL@@XZ ; Solution::Current_Dir
  000f8	c6 45 fc 03	 mov	 BYTE PTR __$EHRec$[ebp+8], 3

; 90   : 
; 91   : 	FileOpenDialog.m_ofn.lpstrInitialDir = result;

  000fc	8d 8d d4 fa ff
	ff		 lea	 ecx, DWORD PTR _result$[ebp]
  00102	e8 00 00 00 00	 call	 ??B?$CSimpleStringT@_W$0A@@ATL@@QBEPB_WXZ ; ATL::CSimpleStringT<wchar_t,0>::operator wchar_t const *
  00107	8b f0		 mov	 esi, eax
  00109	8d 8d e0 fa ff
	ff		 lea	 ecx, DWORD PTR _FileOpenDialog$[ebp]
  0010f	e8 00 00 00 00	 call	 ?GetOFN@CFileDialog@@QAEAAUtagOFNW@@XZ ; CFileDialog::GetOFN
  00114	89 70 2c	 mov	 DWORD PTR [eax+44], esi

; 92   : 
; 93   : 	FileOpenDialog.m_ofn.lpstrTitle = _T("Sudoku File");

  00117	8d 8d e0 fa ff
	ff		 lea	 ecx, DWORD PTR _FileOpenDialog$[ebp]
  0011d	e8 00 00 00 00	 call	 ?GetOFN@CFileDialog@@QAEAAUtagOFNW@@XZ ; CFileDialog::GetOFN
  00122	c7 40 30 00 00
	00 00		 mov	 DWORD PTR [eax+48], OFFSET ??_C@_1BI@LHMMMGAL@?$AAS?$AAu?$AAd?$AAo?$AAk?$AAu?$AA?5?$AAF?$AAi?$AAl?$AAe@

; 94   : 
; 95   : 	if (FileOpenDialog.DoModal() == IDOK)

  00129	8d 8d e0 fa ff
	ff		 lea	 ecx, DWORD PTR _FileOpenDialog$[ebp]
  0012f	e8 00 00 00 00	 call	 ?DoModal@CFileDialog@@UAEHXZ ; CFileDialog::DoModal
  00134	83 f8 01	 cmp	 eax, 1
  00137	75 64		 jne	 SHORT $LN2@Save_File

; 96   : 	{
; 97   : 		pszSource = FileOpenDialog.m_ofn.lpstrFile;

  00139	8d 8d e0 fa ff
	ff		 lea	 ecx, DWORD PTR _FileOpenDialog$[ebp]
  0013f	e8 00 00 00 00	 call	 ?GetOFN@CFileDialog@@QAEAAUtagOFNW@@XZ ; CFileDialog::GetOFN
  00144	ff 70 1c	 push	 DWORD PTR [eax+28]
  00147	8b 4d e8	 mov	 ecx, DWORD PTR _this$[ebp]
  0014a	81 c1 50 01 00
	00		 add	 ecx, 336		; 00000150H
  00150	e8 00 00 00 00	 call	 ??4?$CStringT@_WV?$StrTraitMFC@_WV?$ChTraitsCRT@_W@ATL@@@@@ATL@@QAEAAV01@PB_W@Z ; ATL::CStringT<wchar_t,StrTraitMFC<wchar_t,ATL::ChTraitsCRT<wchar_t> > >::operator=

; 98   : 		return TRUE;

  00155	c7 85 88 f8 ff
	ff 01 00 00 00	 mov	 DWORD PTR $T3[ebp], 1
  0015f	c6 45 fc 02	 mov	 BYTE PTR __$EHRec$[ebp+8], 2
  00163	8d 8d d4 fa ff
	ff		 lea	 ecx, DWORD PTR _result$[ebp]
  00169	e8 00 00 00 00	 call	 ??1?$CStringT@_WV?$StrTraitMFC@_WV?$ChTraitsCRT@_W@ATL@@@@@ATL@@QAE@XZ ; ATL::CStringT<wchar_t,StrTraitMFC<wchar_t,ATL::ChTraitsCRT<wchar_t> > >::~CStringT<wchar_t,StrTraitMFC<wchar_t,ATL::ChTraitsCRT<wchar_t> > >
  0016e	c6 45 fc 01	 mov	 BYTE PTR __$EHRec$[ebp+8], 1
  00172	8d 8d e0 fa ff
	ff		 lea	 ecx, DWORD PTR _FileOpenDialog$[ebp]
  00178	e8 00 00 00 00	 call	 ??1CFileDialog@@UAE@XZ	; CFileDialog::~CFileDialog
  0017d	c6 45 fc 00	 mov	 BYTE PTR __$EHRec$[ebp+8], 0
  00181	8d 4d d0	 lea	 ecx, DWORD PTR _local_File$[ebp]
  00184	e8 00 00 00 00	 call	 ??1?$CStringT@_WV?$StrTraitMFC@_WV?$ChTraitsCRT@_W@ATL@@@@@ATL@@QAE@XZ ; ATL::CStringT<wchar_t,StrTraitMFC<wchar_t,ATL::ChTraitsCRT<wchar_t> > >::~CStringT<wchar_t,StrTraitMFC<wchar_t,ATL::ChTraitsCRT<wchar_t> > >
  00189	83 4d fc ff	 or	 DWORD PTR __$EHRec$[ebp+8], -1
  0018d	8d 4d dc	 lea	 ecx, DWORD PTR _OpenFilter$[ebp]
  00190	e8 00 00 00 00	 call	 ??1?$CStringT@_WV?$StrTraitMFC@_WV?$ChTraitsCRT@_W@ATL@@@@@ATL@@QAE@XZ ; ATL::CStringT<wchar_t,StrTraitMFC<wchar_t,ATL::ChTraitsCRT<wchar_t> > >::~CStringT<wchar_t,StrTraitMFC<wchar_t,ATL::ChTraitsCRT<wchar_t> > >
  00195	8b 85 88 f8 ff
	ff		 mov	 eax, DWORD PTR $T3[ebp]
  0019b	eb 43		 jmp	 SHORT $LN1@Save_File
$LN2@Save_File:

; 99   : 	}
; 100  : 
; 101  : 	return FALSE;

  0019d	83 a5 7c f8 ff
	ff 00		 and	 DWORD PTR $T2[ebp], 0
  001a4	c6 45 fc 02	 mov	 BYTE PTR __$EHRec$[ebp+8], 2
  001a8	8d 8d d4 fa ff
	ff		 lea	 ecx, DWORD PTR _result$[ebp]
  001ae	e8 00 00 00 00	 call	 ??1?$CStringT@_WV?$StrTraitMFC@_WV?$ChTraitsCRT@_W@ATL@@@@@ATL@@QAE@XZ ; ATL::CStringT<wchar_t,StrTraitMFC<wchar_t,ATL::ChTraitsCRT<wchar_t> > >::~CStringT<wchar_t,StrTraitMFC<wchar_t,ATL::ChTraitsCRT<wchar_t> > >
  001b3	c6 45 fc 01	 mov	 BYTE PTR __$EHRec$[ebp+8], 1
  001b7	8d 8d e0 fa ff
	ff		 lea	 ecx, DWORD PTR _FileOpenDialog$[ebp]
  001bd	e8 00 00 00 00	 call	 ??1CFileDialog@@UAE@XZ	; CFileDialog::~CFileDialog
  001c2	c6 45 fc 00	 mov	 BYTE PTR __$EHRec$[ebp+8], 0
  001c6	8d 4d d0	 lea	 ecx, DWORD PTR _local_File$[ebp]
  001c9	e8 00 00 00 00	 call	 ??1?$CStringT@_WV?$StrTraitMFC@_WV?$ChTraitsCRT@_W@ATL@@@@@ATL@@QAE@XZ ; ATL::CStringT<wchar_t,StrTraitMFC<wchar_t,ATL::ChTraitsCRT<wchar_t> > >::~CStringT<wchar_t,StrTraitMFC<wchar_t,ATL::ChTraitsCRT<wchar_t> > >
  001ce	83 4d fc ff	 or	 DWORD PTR __$EHRec$[ebp+8], -1
  001d2	8d 4d dc	 lea	 ecx, DWORD PTR _OpenFilter$[ebp]
  001d5	e8 00 00 00 00	 call	 ??1?$CStringT@_WV?$StrTraitMFC@_WV?$ChTraitsCRT@_W@ATL@@@@@ATL@@QAE@XZ ; ATL::CStringT<wchar_t,StrTraitMFC<wchar_t,ATL::ChTraitsCRT<wchar_t> > >::~CStringT<wchar_t,StrTraitMFC<wchar_t,ATL::ChTraitsCRT<wchar_t> > >
  001da	8b 85 7c f8 ff
	ff		 mov	 eax, DWORD PTR $T2[ebp]
$LN1@Save_File:

; 102  : 
; 103  : }

  001e0	52		 push	 edx
  001e1	8b cd		 mov	 ecx, ebp
  001e3	50		 push	 eax
  001e4	8d 15 00 00 00
	00		 lea	 edx, DWORD PTR $LN14@Save_File
  001ea	e8 00 00 00 00	 call	 @_RTC_CheckStackVars@8
  001ef	58		 pop	 eax
  001f0	5a		 pop	 edx
  001f1	8b 4d f4	 mov	 ecx, DWORD PTR __$EHRec$[ebp]
  001f4	64 89 0d 00 00
	00 00		 mov	 DWORD PTR fs:0, ecx
  001fb	59		 pop	 ecx
  001fc	5f		 pop	 edi
  001fd	5e		 pop	 esi
  001fe	5b		 pop	 ebx
  001ff	8b 4d f0	 mov	 ecx, DWORD PTR __$ArrayPad$[ebp]
  00202	33 cd		 xor	 ecx, ebp
  00204	e8 00 00 00 00	 call	 @__security_check_cookie@4
  00209	81 c4 88 07 00
	00		 add	 esp, 1928		; 00000788H
  0020f	3b ec		 cmp	 ebp, esp
  00211	e8 00 00 00 00	 call	 __RTC_CheckEsp
  00216	c9		 leave
  00217	c2 04 00	 ret	 4
  0021a	66 90		 npad	 2
$LN14@Save_File:
  0021c	04 00 00 00	 DD	 4
  00220	00 00 00 00	 DD	 $LN13@Save_File
$LN13@Save_File:
  00224	dc ff ff ff	 DD	 -36			; ffffffdcH
  00228	04 00 00 00	 DD	 4
  0022c	00 00 00 00	 DD	 $LN8@Save_File
  00230	d0 ff ff ff	 DD	 -48			; ffffffd0H
  00234	04 00 00 00	 DD	 4
  00238	00 00 00 00	 DD	 $LN9@Save_File
  0023c	e0 fa ff ff	 DD	 -1312			; fffffae0H
  00240	e8 04 00 00	 DD	 1256			; 000004e8H
  00244	00 00 00 00	 DD	 $LN10@Save_File
  00248	d4 fa ff ff	 DD	 -1324			; fffffad4H
  0024c	04 00 00 00	 DD	 4
  00250	00 00 00 00	 DD	 $LN11@Save_File
$LN11@Save_File:
  00254	72		 DB	 114			; 00000072H
  00255	65		 DB	 101			; 00000065H
  00256	73		 DB	 115			; 00000073H
  00257	75		 DB	 117			; 00000075H
  00258	6c		 DB	 108			; 0000006cH
  00259	74		 DB	 116			; 00000074H
  0025a	00		 DB	 0
$LN10@Save_File:
  0025b	46		 DB	 70			; 00000046H
  0025c	69		 DB	 105			; 00000069H
  0025d	6c		 DB	 108			; 0000006cH
  0025e	65		 DB	 101			; 00000065H
  0025f	4f		 DB	 79			; 0000004fH
  00260	70		 DB	 112			; 00000070H
  00261	65		 DB	 101			; 00000065H
  00262	6e		 DB	 110			; 0000006eH
  00263	44		 DB	 68			; 00000044H
  00264	69		 DB	 105			; 00000069H
  00265	61		 DB	 97			; 00000061H
  00266	6c		 DB	 108			; 0000006cH
  00267	6f		 DB	 111			; 0000006fH
  00268	67		 DB	 103			; 00000067H
  00269	00		 DB	 0
$LN9@Save_File:
  0026a	6c		 DB	 108			; 0000006cH
  0026b	6f		 DB	 111			; 0000006fH
  0026c	63		 DB	 99			; 00000063H
  0026d	61		 DB	 97			; 00000061H
  0026e	6c		 DB	 108			; 0000006cH
  0026f	5f		 DB	 95			; 0000005fH
  00270	46		 DB	 70			; 00000046H
  00271	69		 DB	 105			; 00000069H
  00272	6c		 DB	 108			; 0000006cH
  00273	65		 DB	 101			; 00000065H
  00274	00		 DB	 0
$LN8@Save_File:
  00275	4f		 DB	 79			; 0000004fH
  00276	70		 DB	 112			; 00000070H
  00277	65		 DB	 101			; 00000065H
  00278	6e		 DB	 110			; 0000006eH
  00279	46		 DB	 70			; 00000046H
  0027a	69		 DB	 105			; 00000069H
  0027b	6c		 DB	 108			; 0000006cH
  0027c	74		 DB	 116			; 00000074H
  0027d	65		 DB	 101			; 00000065H
  0027e	72		 DB	 114			; 00000072H
  0027f	00		 DB	 0
_TEXT	ENDS
;	COMDAT text$x
text$x	SEGMENT
__unwindfunclet$?Save_File@Solution@@AAEHPA_W@Z$0:
  00000	8d 4d dc	 lea	 ecx, DWORD PTR _OpenFilter$[ebp]
  00003	e9 00 00 00 00	 jmp	 ??1?$CStringT@_WV?$StrTraitMFC@_WV?$ChTraitsCRT@_W@ATL@@@@@ATL@@QAE@XZ ; ATL::CStringT<wchar_t,StrTraitMFC<wchar_t,ATL::ChTraitsCRT<wchar_t> > >::~CStringT<wchar_t,StrTraitMFC<wchar_t,ATL::ChTraitsCRT<wchar_t> > >
__unwindfunclet$?Save_File@Solution@@AAEHPA_W@Z$1:
  00008	8d 4d d0	 lea	 ecx, DWORD PTR _local_File$[ebp]
  0000b	e9 00 00 00 00	 jmp	 ??1?$CStringT@_WV?$StrTraitMFC@_WV?$ChTraitsCRT@_W@ATL@@@@@ATL@@QAE@XZ ; ATL::CStringT<wchar_t,StrTraitMFC<wchar_t,ATL::ChTraitsCRT<wchar_t> > >::~CStringT<wchar_t,StrTraitMFC<wchar_t,ATL::ChTraitsCRT<wchar_t> > >
__unwindfunclet$?Save_File@Solution@@AAEHPA_W@Z$2:
  00010	8d 8d e0 fa ff
	ff		 lea	 ecx, DWORD PTR _FileOpenDialog$[ebp]
  00016	e9 00 00 00 00	 jmp	 ??1CFileDialog@@UAE@XZ	; CFileDialog::~CFileDialog
__unwindfunclet$?Save_File@Solution@@AAEHPA_W@Z$3:
  0001b	8d 8d d4 fa ff
	ff		 lea	 ecx, DWORD PTR _result$[ebp]
  00021	e9 00 00 00 00	 jmp	 ??1?$CStringT@_WV?$StrTraitMFC@_WV?$ChTraitsCRT@_W@ATL@@@@@ATL@@QAE@XZ ; ATL::CStringT<wchar_t,StrTraitMFC<wchar_t,ATL::ChTraitsCRT<wchar_t> > >::~CStringT<wchar_t,StrTraitMFC<wchar_t,ATL::ChTraitsCRT<wchar_t> > >
  00026	cc		 int	 3
  00027	cc		 int	 3
  00028	cc		 int	 3
  00029	cc		 int	 3
  0002a	cc		 int	 3
__ehhandler$?Save_File@Solution@@AAEHPA_W@Z:
  0002b	90		 npad	 1
  0002c	90		 npad	 1
  0002d	8b 54 24 08	 mov	 edx, DWORD PTR [esp+8]
  00031	8d 42 0c	 lea	 eax, DWORD PTR [edx+12]
  00034	8b 8a 74 f8 ff
	ff		 mov	 ecx, DWORD PTR [edx-1932]
  0003a	33 c8		 xor	 ecx, eax
  0003c	e8 00 00 00 00	 call	 @__security_check_cookie@4
  00041	8b 4a fc	 mov	 ecx, DWORD PTR [edx-4]
  00044	33 c8		 xor	 ecx, eax
  00046	e8 00 00 00 00	 call	 @__security_check_cookie@4
  0004b	b8 00 00 00 00	 mov	 eax, OFFSET __ehfuncinfo$?Save_File@Solution@@AAEHPA_W@Z
  00050	e9 00 00 00 00	 jmp	 ___CxxFrameHandler3
text$x	ENDS
?Save_File@Solution@@AAEHPA_W@Z ENDP			; Solution::Save_File
; Function compile flags: /Odsp /RTCsu /ZI
; File J:\work\SUDOKU\SUDOKU\SUDOKU\Solution.cpp
;	COMDAT ?Save_Load_Data@Solution@@AAEHXZ
_TEXT	SEGMENT
_pt_Out$1 = -20						; size = 4
_this$ = -8						; size = 4
?Save_Load_Data@Solution@@AAEHXZ PROC			; Solution::Save_Load_Data, COMDAT
; _this$ = ecx

; 345  : {

  00000	55		 push	 ebp
  00001	8b ec		 mov	 ebp, esp
  00003	81 ec d8 00 00
	00		 sub	 esp, 216		; 000000d8H
  00009	53		 push	 ebx
  0000a	56		 push	 esi
  0000b	57		 push	 edi
  0000c	51		 push	 ecx
  0000d	8d 7d e8	 lea	 edi, DWORD PTR [ebp-24]
  00010	6a 06		 push	 6
  00012	59		 pop	 ecx
  00013	b8 cc cc cc cc	 mov	 eax, -858993460		; ccccccccH
  00018	f3 ab		 rep stosd
  0001a	59		 pop	 ecx
  0001b	89 4d f8	 mov	 DWORD PTR _this$[ebp], ecx
  0001e	b9 00 00 00 00	 mov	 ecx, OFFSET __CBE53D1F_Solution@cpp
  00023	e8 00 00 00 00	 call	 @__CheckForDebuggerJustMyCode@4

; 346  : 
; 347  : 	if (Save_File(_T("Sudoku_imput.txt")) == TRUE)

  00028	68 00 00 00 00	 push	 OFFSET ??_C@_1CC@NLMIMJJF@?$AAS?$AAu?$AAd?$AAo?$AAk?$AAu?$AA_?$AAi?$AAm?$AAp?$AAu?$AAt?$AA?4?$AAt?$AAx@
  0002d	8b 4d f8	 mov	 ecx, DWORD PTR _this$[ebp]
  00030	e8 00 00 00 00	 call	 ?Save_File@Solution@@AAEHPA_W@Z ; Solution::Save_File
  00035	83 f8 01	 cmp	 eax, 1
  00038	75 3d		 jne	 SHORT $LN2@Save_Load_

; 348  : 	{
; 349  : 		FILE* pt_Out;
; 350  : 
; 351  : 		pt_Out = _wfopen(pszSource.GetBuffer(), _T("wt"));

  0003a	68 00 00 00 00	 push	 OFFSET ??_C@_15LMEHFEOO@?$AAw?$AAt@
  0003f	8b 4d f8	 mov	 ecx, DWORD PTR _this$[ebp]
  00042	81 c1 50 01 00
	00		 add	 ecx, 336		; 00000150H
  00048	e8 00 00 00 00	 call	 ?GetBuffer@?$CSimpleStringT@_W$0A@@ATL@@QAEPA_WXZ ; ATL::CSimpleStringT<wchar_t,0>::GetBuffer
  0004d	50		 push	 eax
  0004e	e8 00 00 00 00	 call	 __wfopen
  00053	59		 pop	 ecx
  00054	59		 pop	 ecx
  00055	89 45 ec	 mov	 DWORD PTR _pt_Out$1[ebp], eax

; 352  : 		if (pt_Out != 0)

  00058	83 7d ec 00	 cmp	 DWORD PTR _pt_Out$1[ebp], 0
  0005c	74 19		 je	 SHORT $LN2@Save_Load_

; 353  : 		{ 
; 354  : 		 WriteFile(pt_Out);

  0005e	ff 75 ec	 push	 DWORD PTR _pt_Out$1[ebp]
  00061	8b 4d f8	 mov	 ecx, DWORD PTR _this$[ebp]
  00064	e8 00 00 00 00	 call	 ?WriteFile@Solution@@AAEHPAU_iobuf@@@Z ; Solution::WriteFile

; 355  : 		 fclose(pt_Out);

  00069	ff 75 ec	 push	 DWORD PTR _pt_Out$1[ebp]
  0006c	e8 00 00 00 00	 call	 _fclose
  00071	59		 pop	 ecx

; 356  : 		 return (TRUE);

  00072	33 c0		 xor	 eax, eax
  00074	40		 inc	 eax
  00075	eb 02		 jmp	 SHORT $LN1@Save_Load_
$LN2@Save_Load_:

; 357  : 		}
; 358  : 	}
; 359  : 	return (FALSE);

  00077	33 c0		 xor	 eax, eax
$LN1@Save_Load_:

; 360  : }

  00079	5f		 pop	 edi
  0007a	5e		 pop	 esi
  0007b	5b		 pop	 ebx
  0007c	81 c4 d8 00 00
	00		 add	 esp, 216		; 000000d8H
  00082	3b ec		 cmp	 ebp, esp
  00084	e8 00 00 00 00	 call	 __RTC_CheckEsp
  00089	c9		 leave
  0008a	c3		 ret	 0
?Save_Load_Data@Solution@@AAEHXZ ENDP			; Solution::Save_Load_Data
_TEXT	ENDS
; Function compile flags: /Odsp /RTCsu /ZI
; File J:\work\SUDOKU\SUDOKU\SUDOKU\Solution.cpp
;	COMDAT ?Current_Dir@Solution@@AAE?AV?$CStringT@_WV?$StrTraitMFC@_WV?$ChTraitsCRT@_W@ATL@@@@@ATL@@XZ
_TEXT	SEGMENT
$T2 = -240						; size = 4
_Chaine$ = -36						; size = 4
_this$ = -24						; size = 4
__$ArrayPad$ = -16					; size = 4
__$EHRec$ = -12						; size = 12
___$ReturnUdt$ = 8					; size = 4
?Current_Dir@Solution@@AAE?AV?$CStringT@_WV?$StrTraitMFC@_WV?$ChTraitsCRT@_W@ATL@@@@@ATL@@XZ PROC ; Solution::Current_Dir, COMDAT
; _this$ = ecx

; 107  : {

  00000	55		 push	 ebp
  00001	8b ec		 mov	 ebp, esp
  00003	6a ff		 push	 -1
  00005	68 00 00 00 00	 push	 __ehhandler$?Current_Dir@Solution@@AAE?AV?$CStringT@_WV?$StrTraitMFC@_WV?$ChTraitsCRT@_W@ATL@@@@@ATL@@XZ
  0000a	64 a1 00 00 00
	00		 mov	 eax, DWORD PTR fs:0
  00010	50		 push	 eax
  00011	81 ec e8 00 00
	00		 sub	 esp, 232		; 000000e8H
  00017	53		 push	 ebx
  00018	56		 push	 esi
  00019	57		 push	 edi
  0001a	51		 push	 ecx
  0001b	8d 7d cc	 lea	 edi, DWORD PTR [ebp-52]
  0001e	6a 0a		 push	 10			; 0000000aH
  00020	59		 pop	 ecx
  00021	b8 cc cc cc cc	 mov	 eax, -858993460		; ccccccccH
  00026	f3 ab		 rep stosd
  00028	59		 pop	 ecx
  00029	a1 00 00 00 00	 mov	 eax, DWORD PTR ___security_cookie
  0002e	33 c5		 xor	 eax, ebp
  00030	89 45 f0	 mov	 DWORD PTR __$ArrayPad$[ebp], eax
  00033	50		 push	 eax
  00034	8d 45 f4	 lea	 eax, DWORD PTR __$EHRec$[ebp]
  00037	64 a3 00 00 00
	00		 mov	 DWORD PTR fs:0, eax
  0003d	89 4d e8	 mov	 DWORD PTR _this$[ebp], ecx
  00040	83 a5 10 ff ff
	ff 00		 and	 DWORD PTR $T2[ebp], 0
  00047	b9 00 00 00 00	 mov	 ecx, OFFSET __CBE53D1F_Solution@cpp
  0004c	e8 00 00 00 00	 call	 @__CheckForDebuggerJustMyCode@4

; 108  : 	CString Chaine;

  00051	6a 04		 push	 4
  00053	8d 4d dc	 lea	 ecx, DWORD PTR _Chaine$[ebp]
  00056	e8 00 00 00 00	 call	 ?__autoclassinit2@?$CStringT@_WV?$StrTraitMFC@_WV?$ChTraitsCRT@_W@ATL@@@@@ATL@@QAEXI@Z
  0005b	8d 4d dc	 lea	 ecx, DWORD PTR _Chaine$[ebp]
  0005e	e8 00 00 00 00	 call	 ??0?$CStringT@_WV?$StrTraitMFC@_WV?$ChTraitsCRT@_W@ATL@@@@@ATL@@QAE@XZ ; ATL::CStringT<wchar_t,StrTraitMFC<wchar_t,ATL::ChTraitsCRT<wchar_t> > >::CStringT<wchar_t,StrTraitMFC<wchar_t,ATL::ChTraitsCRT<wchar_t> > >
  00063	83 65 fc 00	 and	 DWORD PTR __$EHRec$[ebp+8], 0

; 109  : 
; 110  : 	::GetCurrentDirectory(MAX_PATH, Chaine.GetBuffer(MAX_PATH));

  00067	68 04 01 00 00	 push	 260			; 00000104H
  0006c	8d 4d dc	 lea	 ecx, DWORD PTR _Chaine$[ebp]
  0006f	e8 00 00 00 00	 call	 ?GetBuffer@?$CSimpleStringT@_W$0A@@ATL@@QAEPA_WH@Z ; ATL::CSimpleStringT<wchar_t,0>::GetBuffer
  00074	8b f4		 mov	 esi, esp
  00076	50		 push	 eax
  00077	68 04 01 00 00	 push	 260			; 00000104H
  0007c	ff 15 00 00 00
	00		 call	 DWORD PTR __imp__GetCurrentDirectoryW@8
  00082	3b f4		 cmp	 esi, esp
  00084	e8 00 00 00 00	 call	 __RTC_CheckEsp

; 111  : 	Chaine.ReleaseBuffer();

  00089	6a ff		 push	 -1
  0008b	8d 4d dc	 lea	 ecx, DWORD PTR _Chaine$[ebp]
  0008e	e8 00 00 00 00	 call	 ?ReleaseBuffer@?$CSimpleStringT@_W$0A@@ATL@@QAEXH@Z ; ATL::CSimpleStringT<wchar_t,0>::ReleaseBuffer

; 112  : 	return (Chaine);

  00093	8d 45 dc	 lea	 eax, DWORD PTR _Chaine$[ebp]
  00096	50		 push	 eax
  00097	8b 4d 08	 mov	 ecx, DWORD PTR ___$ReturnUdt$[ebp]
  0009a	e8 00 00 00 00	 call	 ??0?$CStringT@_WV?$StrTraitMFC@_WV?$ChTraitsCRT@_W@ATL@@@@@ATL@@QAE@ABV01@@Z ; ATL::CStringT<wchar_t,StrTraitMFC<wchar_t,ATL::ChTraitsCRT<wchar_t> > >::CStringT<wchar_t,StrTraitMFC<wchar_t,ATL::ChTraitsCRT<wchar_t> > >
  0009f	8b 85 10 ff ff
	ff		 mov	 eax, DWORD PTR $T2[ebp]
  000a5	83 c8 01	 or	 eax, 1
  000a8	89 85 10 ff ff
	ff		 mov	 DWORD PTR $T2[ebp], eax
  000ae	83 4d fc ff	 or	 DWORD PTR __$EHRec$[ebp+8], -1
  000b2	8d 4d dc	 lea	 ecx, DWORD PTR _Chaine$[ebp]
  000b5	e8 00 00 00 00	 call	 ??1?$CStringT@_WV?$StrTraitMFC@_WV?$ChTraitsCRT@_W@ATL@@@@@ATL@@QAE@XZ ; ATL::CStringT<wchar_t,StrTraitMFC<wchar_t,ATL::ChTraitsCRT<wchar_t> > >::~CStringT<wchar_t,StrTraitMFC<wchar_t,ATL::ChTraitsCRT<wchar_t> > >
  000ba	8b 45 08	 mov	 eax, DWORD PTR ___$ReturnUdt$[ebp]

; 113  : 
; 114  : }

  000bd	52		 push	 edx
  000be	8b cd		 mov	 ecx, ebp
  000c0	50		 push	 eax
  000c1	8d 15 00 00 00
	00		 lea	 edx, DWORD PTR $LN9@Current_Di
  000c7	e8 00 00 00 00	 call	 @_RTC_CheckStackVars@8
  000cc	58		 pop	 eax
  000cd	5a		 pop	 edx
  000ce	8b 4d f4	 mov	 ecx, DWORD PTR __$EHRec$[ebp]
  000d1	64 89 0d 00 00
	00 00		 mov	 DWORD PTR fs:0, ecx
  000d8	59		 pop	 ecx
  000d9	5f		 pop	 edi
  000da	5e		 pop	 esi
  000db	5b		 pop	 ebx
  000dc	8b 4d f0	 mov	 ecx, DWORD PTR __$ArrayPad$[ebp]
  000df	33 cd		 xor	 ecx, ebp
  000e1	e8 00 00 00 00	 call	 @__security_check_cookie@4
  000e6	81 c4 f4 00 00
	00		 add	 esp, 244		; 000000f4H
  000ec	3b ec		 cmp	 ebp, esp
  000ee	e8 00 00 00 00	 call	 __RTC_CheckEsp
  000f3	c9		 leave
  000f4	c2 04 00	 ret	 4
  000f7	90		 npad	 1
$LN9@Current_Di:
  000f8	01 00 00 00	 DD	 1
  000fc	00 00 00 00	 DD	 $LN8@Current_Di
$LN8@Current_Di:
  00100	dc ff ff ff	 DD	 -36			; ffffffdcH
  00104	04 00 00 00	 DD	 4
  00108	00 00 00 00	 DD	 $LN6@Current_Di
$LN6@Current_Di:
  0010c	43		 DB	 67			; 00000043H
  0010d	68		 DB	 104			; 00000068H
  0010e	61		 DB	 97			; 00000061H
  0010f	69		 DB	 105			; 00000069H
  00110	6e		 DB	 110			; 0000006eH
  00111	65		 DB	 101			; 00000065H
  00112	00		 DB	 0
_TEXT	ENDS
;	COMDAT text$x
text$x	SEGMENT
__unwindfunclet$?Current_Dir@Solution@@AAE?AV?$CStringT@_WV?$StrTraitMFC@_WV?$ChTraitsCRT@_W@ATL@@@@@ATL@@XZ$0:
  00000	8d 4d dc	 lea	 ecx, DWORD PTR _Chaine$[ebp]
  00003	e9 00 00 00 00	 jmp	 ??1?$CStringT@_WV?$StrTraitMFC@_WV?$ChTraitsCRT@_W@ATL@@@@@ATL@@QAE@XZ ; ATL::CStringT<wchar_t,StrTraitMFC<wchar_t,ATL::ChTraitsCRT<wchar_t> > >::~CStringT<wchar_t,StrTraitMFC<wchar_t,ATL::ChTraitsCRT<wchar_t> > >
  00008	cc		 int	 3
  00009	cc		 int	 3
  0000a	cc		 int	 3
  0000b	cc		 int	 3
  0000c	cc		 int	 3
__ehhandler$?Current_Dir@Solution@@AAE?AV?$CStringT@_WV?$StrTraitMFC@_WV?$ChTraitsCRT@_W@ATL@@@@@ATL@@XZ:
  0000d	90		 npad	 1
  0000e	90		 npad	 1
  0000f	8b 54 24 08	 mov	 edx, DWORD PTR [esp+8]
  00013	8d 42 0c	 lea	 eax, DWORD PTR [edx+12]
  00016	8b 8a 08 ff ff
	ff		 mov	 ecx, DWORD PTR [edx-248]
  0001c	33 c8		 xor	 ecx, eax
  0001e	e8 00 00 00 00	 call	 @__security_check_cookie@4
  00023	8b 4a fc	 mov	 ecx, DWORD PTR [edx-4]
  00026	33 c8		 xor	 ecx, eax
  00028	e8 00 00 00 00	 call	 @__security_check_cookie@4
  0002d	b8 00 00 00 00	 mov	 eax, OFFSET __ehfuncinfo$?Current_Dir@Solution@@AAE?AV?$CStringT@_WV?$StrTraitMFC@_WV?$ChTraitsCRT@_W@ATL@@@@@ATL@@XZ
  00032	e9 00 00 00 00	 jmp	 ___CxxFrameHandler3
text$x	ENDS
?Current_Dir@Solution@@AAE?AV?$CStringT@_WV?$StrTraitMFC@_WV?$ChTraitsCRT@_W@ATL@@@@@ATL@@XZ ENDP ; Solution::Current_Dir
; Function compile flags: /Odsp /RTCsu /ZI
; File J:\work\SUDOKU\SUDOKU\SUDOKU\Solution.cpp
;	COMDAT ?Definition_limite@Solution@@AAEXPAUHWND__@@@Z
_TEXT	SEGMENT
_i$1 = -32						; size = 4
_pt_edit_combo$ = -20					; size = 4
_this$ = -8						; size = 4
_Curent_windows$ = 8					; size = 4
?Definition_limite@Solution@@AAEXPAUHWND__@@@Z PROC	; Solution::Definition_limite, COMDAT
; _this$ = ecx

; 30   : {

  00000	55		 push	 ebp
  00001	8b ec		 mov	 ebp, esp
  00003	81 ec e4 00 00
	00		 sub	 esp, 228		; 000000e4H
  00009	53		 push	 ebx
  0000a	56		 push	 esi
  0000b	57		 push	 edi
  0000c	51		 push	 ecx
  0000d	8d 7d dc	 lea	 edi, DWORD PTR [ebp-36]
  00010	6a 09		 push	 9
  00012	59		 pop	 ecx
  00013	b8 cc cc cc cc	 mov	 eax, -858993460		; ccccccccH
  00018	f3 ab		 rep stosd
  0001a	59		 pop	 ecx
  0001b	89 4d f8	 mov	 DWORD PTR _this$[ebp], ecx
  0001e	b9 00 00 00 00	 mov	 ecx, OFFSET __CBE53D1F_Solution@cpp
  00023	e8 00 00 00 00	 call	 @__CheckForDebuggerJustMyCode@4

; 31   : 	CEdit *pt_edit_combo;
; 32   : 
; 33   : 	for (int i = 0; i <(sizeof(tableau_de_saisie) / sizeof(int)); i++)

  00028	83 65 e0 00	 and	 DWORD PTR _i$1[ebp], 0
  0002c	eb 07		 jmp	 SHORT $LN4@Definition
$LN2@Definition:
  0002e	8b 45 e0	 mov	 eax, DWORD PTR _i$1[ebp]
  00031	40		 inc	 eax
  00032	89 45 e0	 mov	 DWORD PTR _i$1[ebp], eax
$LN4@Definition:
  00035	83 7d e0 51	 cmp	 DWORD PTR _i$1[ebp], 81	; 00000051H
  00039	73 70		 jae	 SHORT $LN1@Definition

; 34   : 	{
; 35   : 		pt_edit_combo = (CEdit *)GetDlgItem(Save_Curent_windows, tableau_de_saisie[i]);

  0003b	8b f4		 mov	 esi, esp
  0003d	8b 45 e0	 mov	 eax, DWORD PTR _i$1[ebp]
  00040	8b 4d f8	 mov	 ecx, DWORD PTR _this$[ebp]
  00043	ff 74 81 04	 push	 DWORD PTR [ecx+eax*4+4]
  00047	8b 45 f8	 mov	 eax, DWORD PTR _this$[ebp]
  0004a	ff b0 48 01 00
	00		 push	 DWORD PTR [eax+328]
  00050	ff 15 00 00 00
	00		 call	 DWORD PTR __imp__GetDlgItem@8
  00056	3b f4		 cmp	 esi, esp
  00058	e8 00 00 00 00	 call	 __RTC_CheckEsp
  0005d	89 45 ec	 mov	 DWORD PTR _pt_edit_combo$[ebp], eax

; 36   : 		ASSERT(IsWindow((HWND)pt_edit_combo) != 0);

  00060	8b f4		 mov	 esi, esp
  00062	ff 75 ec	 push	 DWORD PTR _pt_edit_combo$[ebp]
  00065	ff 15 00 00 00
	00		 call	 DWORD PTR __imp__IsWindow@4
  0006b	3b f4		 cmp	 esi, esp
  0006d	e8 00 00 00 00	 call	 __RTC_CheckEsp
  00072	85 c0		 test	 eax, eax
  00074	75 18		 jne	 SHORT $LN6@Definition
  00076	a1 00 00 00 00	 mov	 eax, DWORD PTR ?__LINE__Var@?0??Definition_limite@Solution@@AAEXPAUHWND__@@@Z@4JA
  0007b	83 c0 06	 add	 eax, 6
  0007e	50		 push	 eax
  0007f	68 00 00 00 00	 push	 OFFSET ??_C@_0CK@JGFDDPMM@J?3?2work?2SUDOKU?2SUDOKU?2SUDOKU?2So@
  00084	e8 00 00 00 00	 call	 ?AfxAssertFailedLine@@YGHPBDH@Z ; AfxAssertFailedLine
  00089	85 c0		 test	 eax, eax
  0008b	74 01		 je	 SHORT $LN6@Definition
  0008d	cc		 int	 3
$LN6@Definition:

; 37   : 		::SendMessage((HWND)pt_edit_combo, EM_SETLIMITTEXT, 1, 0);

  0008e	8b f4		 mov	 esi, esp
  00090	6a 00		 push	 0
  00092	6a 01		 push	 1
  00094	68 c5 00 00 00	 push	 197			; 000000c5H
  00099	ff 75 ec	 push	 DWORD PTR _pt_edit_combo$[ebp]
  0009c	ff 15 00 00 00
	00		 call	 DWORD PTR __imp__SendMessageW@16
  000a2	3b f4		 cmp	 esi, esp
  000a4	e8 00 00 00 00	 call	 __RTC_CheckEsp

; 38   : 	}

  000a9	eb 83		 jmp	 SHORT $LN2@Definition
$LN1@Definition:

; 39   : }

  000ab	5f		 pop	 edi
  000ac	5e		 pop	 esi
  000ad	5b		 pop	 ebx
  000ae	81 c4 e4 00 00
	00		 add	 esp, 228		; 000000e4H
  000b4	3b ec		 cmp	 ebp, esp
  000b6	e8 00 00 00 00	 call	 __RTC_CheckEsp
  000bb	c9		 leave
  000bc	c2 04 00	 ret	 4
?Definition_limite@Solution@@AAEXPAUHWND__@@@Z ENDP	; Solution::Definition_limite
_TEXT	ENDS
; Function compile flags: /Odsp /RTCsu /ZI
; File J:\work\SUDOKU\SUDOKU\SUDOKU\Solution.cpp
;	COMDAT ?Charge_tableau_relation@Solution@@AAEXXZ
_TEXT	SEGMENT
_i$1 = -20						; size = 4
_this$ = -8						; size = 4
?Charge_tableau_relation@Solution@@AAEXXZ PROC		; Solution::Charge_tableau_relation, COMDAT
; _this$ = ecx

; 22   : {

  00000	55		 push	 ebp
  00001	8b ec		 mov	 ebp, esp
  00003	81 ec d8 00 00
	00		 sub	 esp, 216		; 000000d8H
  00009	53		 push	 ebx
  0000a	56		 push	 esi
  0000b	57		 push	 edi
  0000c	51		 push	 ecx
  0000d	8d 7d e8	 lea	 edi, DWORD PTR [ebp-24]
  00010	6a 06		 push	 6
  00012	59		 pop	 ecx
  00013	b8 cc cc cc cc	 mov	 eax, -858993460		; ccccccccH
  00018	f3 ab		 rep stosd
  0001a	59		 pop	 ecx
  0001b	89 4d f8	 mov	 DWORD PTR _this$[ebp], ecx
  0001e	b9 00 00 00 00	 mov	 ecx, OFFSET __CBE53D1F_Solution@cpp
  00023	e8 00 00 00 00	 call	 @__CheckForDebuggerJustMyCode@4

; 23   : 	for (int i = 0; i < (sizeof(tableau_de_saisie) / sizeof(int)); i++)

  00028	83 65 ec 00	 and	 DWORD PTR _i$1[ebp], 0
  0002c	eb 07		 jmp	 SHORT $LN4@Charge_tab
$LN2@Charge_tab:
  0002e	8b 45 ec	 mov	 eax, DWORD PTR _i$1[ebp]
  00031	40		 inc	 eax
  00032	89 45 ec	 mov	 DWORD PTR _i$1[ebp], eax
$LN4@Charge_tab:
  00035	83 7d ec 51	 cmp	 DWORD PTR _i$1[ebp], 81	; 00000051H
  00039	73 14		 jae	 SHORT $LN1@Charge_tab

; 24   : 	{
; 25   : 		tableau_de_saisie[i] = (IDC_EDIT1 + i);

  0003b	8b 45 ec	 mov	 eax, DWORD PTR _i$1[ebp]
  0003e	05 e8 03 00 00	 add	 eax, 1000		; 000003e8H
  00043	8b 4d ec	 mov	 ecx, DWORD PTR _i$1[ebp]
  00046	8b 55 f8	 mov	 edx, DWORD PTR _this$[ebp]
  00049	89 44 8a 04	 mov	 DWORD PTR [edx+ecx*4+4], eax

; 26   : 	}

  0004d	eb df		 jmp	 SHORT $LN2@Charge_tab
$LN1@Charge_tab:

; 27   : }

  0004f	5f		 pop	 edi
  00050	5e		 pop	 esi
  00051	5b		 pop	 ebx
  00052	81 c4 d8 00 00
	00		 add	 esp, 216		; 000000d8H
  00058	3b ec		 cmp	 ebp, esp
  0005a	e8 00 00 00 00	 call	 __RTC_CheckEsp
  0005f	c9		 leave
  00060	c3		 ret	 0
?Charge_tableau_relation@Solution@@AAEXXZ ENDP		; Solution::Charge_tableau_relation
_TEXT	ENDS
; Function compile flags: /Odsp /RTCsu /ZI
; File J:\work\SUDOKU\SUDOKU\SUDOKU\Solution.cpp
;	COMDAT ?Print@Solution@@AAEXXZ
_TEXT	SEGMENT
_col$2 = -60						; size = 4
_row$3 = -48						; size = 4
_chaine$ = -36						; size = 4
_this$ = -24						; size = 4
__$ArrayPad$ = -16					; size = 4
__$EHRec$ = -12						; size = 12
?Print@Solution@@AAEXXZ PROC				; Solution::Print, COMDAT
; _this$ = ecx

; 233  : {

  00000	55		 push	 ebp
  00001	8b ec		 mov	 ebp, esp
  00003	6a ff		 push	 -1
  00005	68 00 00 00 00	 push	 __ehhandler$?Print@Solution@@AAEXXZ
  0000a	64 a1 00 00 00
	00		 mov	 eax, DWORD PTR fs:0
  00010	50		 push	 eax
  00011	81 ec f4 00 00
	00		 sub	 esp, 244		; 000000f4H
  00017	53		 push	 ebx
  00018	56		 push	 esi
  00019	57		 push	 edi
  0001a	51		 push	 ecx
  0001b	8d 7d c0	 lea	 edi, DWORD PTR [ebp-64]
  0001e	6a 0d		 push	 13			; 0000000dH
  00020	59		 pop	 ecx
  00021	b8 cc cc cc cc	 mov	 eax, -858993460		; ccccccccH
  00026	f3 ab		 rep stosd
  00028	59		 pop	 ecx
  00029	a1 00 00 00 00	 mov	 eax, DWORD PTR ___security_cookie
  0002e	33 c5		 xor	 eax, ebp
  00030	89 45 f0	 mov	 DWORD PTR __$ArrayPad$[ebp], eax
  00033	50		 push	 eax
  00034	8d 45 f4	 lea	 eax, DWORD PTR __$EHRec$[ebp]
  00037	64 a3 00 00 00
	00		 mov	 DWORD PTR fs:0, eax
  0003d	89 4d e8	 mov	 DWORD PTR _this$[ebp], ecx
  00040	b9 00 00 00 00	 mov	 ecx, OFFSET __CBE53D1F_Solution@cpp
  00045	e8 00 00 00 00	 call	 @__CheckForDebuggerJustMyCode@4

; 234  : 
; 235  : 	fprintf(pt_fichier, "Nombre d'essais : %d\n\n", g_test_counter);

  0004a	8b 45 e8	 mov	 eax, DWORD PTR _this$[ebp]
  0004d	ff b0 4c 01 00
	00		 push	 DWORD PTR [eax+332]
  00053	68 00 00 00 00	 push	 OFFSET ??_C@_0BH@JLAFPNCO@Nombre?5d?8essais?5?3?5?$CFd?6?6@
  00058	8b 45 e8	 mov	 eax, DWORD PTR _this$[ebp]
  0005b	ff b0 54 01 00
	00		 push	 DWORD PTR [eax+340]
  00061	e8 00 00 00 00	 call	 _fprintf
  00066	83 c4 0c	 add	 esp, 12			; 0000000cH

; 236  : 	CString chaine;

  00069	6a 04		 push	 4
  0006b	8d 4d dc	 lea	 ecx, DWORD PTR _chaine$[ebp]
  0006e	e8 00 00 00 00	 call	 ?__autoclassinit2@?$CStringT@_WV?$StrTraitMFC@_WV?$ChTraitsCRT@_W@ATL@@@@@ATL@@QAEXI@Z
  00073	8d 4d dc	 lea	 ecx, DWORD PTR _chaine$[ebp]
  00076	e8 00 00 00 00	 call	 ??0?$CStringT@_WV?$StrTraitMFC@_WV?$ChTraitsCRT@_W@ATL@@@@@ATL@@QAE@XZ ; ATL::CStringT<wchar_t,StrTraitMFC<wchar_t,ATL::ChTraitsCRT<wchar_t> > >::CStringT<wchar_t,StrTraitMFC<wchar_t,ATL::ChTraitsCRT<wchar_t> > >
  0007b	83 65 fc 00	 and	 DWORD PTR __$EHRec$[ebp+8], 0

; 237  : 	chaine.Format(_T("Nombre d'essais : %d"),g_test_counter);

  0007f	8b 45 e8	 mov	 eax, DWORD PTR _this$[ebp]
  00082	ff b0 4c 01 00
	00		 push	 DWORD PTR [eax+332]
  00088	68 00 00 00 00	 push	 OFFSET ??_C@_1CK@FIOBKKHN@?$AAN?$AAo?$AAm?$AAb?$AAr?$AAe?$AA?5?$AAd?$AA?8?$AAe?$AAs?$AAs?$AAa?$AAi?$AAs@
  0008d	8d 45 dc	 lea	 eax, DWORD PTR _chaine$[ebp]
  00090	50		 push	 eax
  00091	e8 00 00 00 00	 call	 ?Format@?$CStringT@_WV?$StrTraitMFC@_WV?$ChTraitsCRT@_W@ATL@@@@@ATL@@QAAXPB_WZZ ; ATL::CStringT<wchar_t,StrTraitMFC<wchar_t,ATL::ChTraitsCRT<wchar_t> > >::Format
  00096	83 c4 0c	 add	 esp, 12			; 0000000cH

; 238  : 
; 239  : 	// IDC_STATIC
; 240  : 	::SetDlgItemTextW(Save_Curent_windows, IDC_STATIC, (LPWSTR)chaine.GetBuffer()); 

  00099	8d 4d dc	 lea	 ecx, DWORD PTR _chaine$[ebp]
  0009c	e8 00 00 00 00	 call	 ?GetBuffer@?$CSimpleStringT@_W$0A@@ATL@@QAEPA_WXZ ; ATL::CSimpleStringT<wchar_t,0>::GetBuffer
  000a1	8b f4		 mov	 esi, esp
  000a3	50		 push	 eax
  000a4	6a ff		 push	 -1
  000a6	8b 45 e8	 mov	 eax, DWORD PTR _this$[ebp]
  000a9	ff b0 48 01 00
	00		 push	 DWORD PTR [eax+328]
  000af	ff 15 00 00 00
	00		 call	 DWORD PTR __imp__SetDlgItemTextW@12
  000b5	3b f4		 cmp	 esi, esp
  000b7	e8 00 00 00 00	 call	 __RTC_CheckEsp

; 241  : 
; 242  : 	for (int row = 0; row < MAX; row++)

  000bc	83 65 d0 00	 and	 DWORD PTR _row$3[ebp], 0
  000c0	eb 07		 jmp	 SHORT $LN4@Print
$LN2@Print:
  000c2	8b 45 d0	 mov	 eax, DWORD PTR _row$3[ebp]
  000c5	40		 inc	 eax
  000c6	89 45 d0	 mov	 DWORD PTR _row$3[ebp], eax
$LN4@Print:
  000c9	83 7d d0 09	 cmp	 DWORD PTR _row$3[ebp], 9
  000cd	7d 50		 jge	 SHORT $LN3@Print

; 243  : 	{
; 244  : 		for (int col = 0; col < MAX; col++)

  000cf	83 65 c4 00	 and	 DWORD PTR _col$2[ebp], 0
  000d3	eb 07		 jmp	 SHORT $LN7@Print
$LN5@Print:
  000d5	8b 45 c4	 mov	 eax, DWORD PTR _col$2[ebp]
  000d8	40		 inc	 eax
  000d9	89 45 c4	 mov	 DWORD PTR _col$2[ebp], eax
$LN7@Print:
  000dc	83 7d c4 09	 cmp	 DWORD PTR _col$2[ebp], 9
  000e0	7d 26		 jge	 SHORT $LN6@Print

; 245  : 		{
; 246  : 
; 247  : 			fprintf(pt_fichier, "%d ", grid[row][col]);

  000e2	6b 45 d0 24	 imul	 eax, DWORD PTR _row$3[ebp], 36
  000e6	8b 4d c4	 mov	 ecx, DWORD PTR _col$2[ebp]
  000e9	ff b4 88 00 00
	00 00		 push	 DWORD PTR ?grid@@3PAY08HA[eax+ecx*4]
  000f0	68 00 00 00 00	 push	 OFFSET ??_C@_03JDANDILB@?$CFd?5@
  000f5	8b 45 e8	 mov	 eax, DWORD PTR _this$[ebp]
  000f8	ff b0 54 01 00
	00		 push	 DWORD PTR [eax+340]
  000fe	e8 00 00 00 00	 call	 _fprintf
  00103	83 c4 0c	 add	 esp, 12			; 0000000cH

; 248  : 
; 249  : 		}

  00106	eb cd		 jmp	 SHORT $LN5@Print
$LN6@Print:

; 250  : 
; 251  : 		fprintf(pt_fichier, "\n");

  00108	68 00 00 00 00	 push	 OFFSET ??_C@_01EEMJAFIK@?6@
  0010d	8b 45 e8	 mov	 eax, DWORD PTR _this$[ebp]
  00110	ff b0 54 01 00
	00		 push	 DWORD PTR [eax+340]
  00116	e8 00 00 00 00	 call	 _fprintf
  0011b	59		 pop	 ecx
  0011c	59		 pop	 ecx

; 252  : 	}

  0011d	eb a3		 jmp	 SHORT $LN2@Print
$LN3@Print:

; 253  : 
; 254  : 	fprintf(pt_fichier, "\n\n\n");

  0011f	68 00 00 00 00	 push	 OFFSET ??_C@_03EGHOKNNL@?6?6?6@
  00124	8b 45 e8	 mov	 eax, DWORD PTR _this$[ebp]
  00127	ff b0 54 01 00
	00		 push	 DWORD PTR [eax+340]
  0012d	e8 00 00 00 00	 call	 _fprintf
  00132	59		 pop	 ecx
  00133	59		 pop	 ecx

; 255  : }

  00134	83 4d fc ff	 or	 DWORD PTR __$EHRec$[ebp+8], -1
  00138	8d 4d dc	 lea	 ecx, DWORD PTR _chaine$[ebp]
  0013b	e8 00 00 00 00	 call	 ??1?$CStringT@_WV?$StrTraitMFC@_WV?$ChTraitsCRT@_W@ATL@@@@@ATL@@QAE@XZ ; ATL::CStringT<wchar_t,StrTraitMFC<wchar_t,ATL::ChTraitsCRT<wchar_t> > >::~CStringT<wchar_t,StrTraitMFC<wchar_t,ATL::ChTraitsCRT<wchar_t> > >
  00140	52		 push	 edx
  00141	8b cd		 mov	 ecx, ebp
  00143	50		 push	 eax
  00144	8d 15 00 00 00
	00		 lea	 edx, DWORD PTR $LN13@Print
  0014a	e8 00 00 00 00	 call	 @_RTC_CheckStackVars@8
  0014f	58		 pop	 eax
  00150	5a		 pop	 edx
  00151	8b 4d f4	 mov	 ecx, DWORD PTR __$EHRec$[ebp]
  00154	64 89 0d 00 00
	00 00		 mov	 DWORD PTR fs:0, ecx
  0015b	59		 pop	 ecx
  0015c	5f		 pop	 edi
  0015d	5e		 pop	 esi
  0015e	5b		 pop	 ebx
  0015f	8b 4d f0	 mov	 ecx, DWORD PTR __$ArrayPad$[ebp]
  00162	33 cd		 xor	 ecx, ebp
  00164	e8 00 00 00 00	 call	 @__security_check_cookie@4
  00169	81 c4 00 01 00
	00		 add	 esp, 256		; 00000100H
  0016f	3b ec		 cmp	 ebp, esp
  00171	e8 00 00 00 00	 call	 __RTC_CheckEsp
  00176	c9		 leave
  00177	c3		 ret	 0
$LN13@Print:
  00178	01 00 00 00	 DD	 1
  0017c	00 00 00 00	 DD	 $LN12@Print
$LN12@Print:
  00180	dc ff ff ff	 DD	 -36			; ffffffdcH
  00184	04 00 00 00	 DD	 4
  00188	00 00 00 00	 DD	 $LN10@Print
$LN10@Print:
  0018c	63		 DB	 99			; 00000063H
  0018d	68		 DB	 104			; 00000068H
  0018e	61		 DB	 97			; 00000061H
  0018f	69		 DB	 105			; 00000069H
  00190	6e		 DB	 110			; 0000006eH
  00191	65		 DB	 101			; 00000065H
  00192	00		 DB	 0
_TEXT	ENDS
;	COMDAT text$x
text$x	SEGMENT
__unwindfunclet$?Print@Solution@@AAEXXZ$0:
  00000	8d 4d dc	 lea	 ecx, DWORD PTR _chaine$[ebp]
  00003	e9 00 00 00 00	 jmp	 ??1?$CStringT@_WV?$StrTraitMFC@_WV?$ChTraitsCRT@_W@ATL@@@@@ATL@@QAE@XZ ; ATL::CStringT<wchar_t,StrTraitMFC<wchar_t,ATL::ChTraitsCRT<wchar_t> > >::~CStringT<wchar_t,StrTraitMFC<wchar_t,ATL::ChTraitsCRT<wchar_t> > >
  00008	cc		 int	 3
  00009	cc		 int	 3
  0000a	cc		 int	 3
  0000b	cc		 int	 3
  0000c	cc		 int	 3
__ehhandler$?Print@Solution@@AAEXXZ:
  0000d	90		 npad	 1
  0000e	90		 npad	 1
  0000f	8b 54 24 08	 mov	 edx, DWORD PTR [esp+8]
  00013	8d 42 0c	 lea	 eax, DWORD PTR [edx+12]
  00016	8b 8a fc fe ff
	ff		 mov	 ecx, DWORD PTR [edx-260]
  0001c	33 c8		 xor	 ecx, eax
  0001e	e8 00 00 00 00	 call	 @__security_check_cookie@4
  00023	8b 4a fc	 mov	 ecx, DWORD PTR [edx-4]
  00026	33 c8		 xor	 ecx, eax
  00028	e8 00 00 00 00	 call	 @__security_check_cookie@4
  0002d	b8 00 00 00 00	 mov	 eax, OFFSET __ehfuncinfo$?Print@Solution@@AAEXXZ
  00032	e9 00 00 00 00	 jmp	 ___CxxFrameHandler3
text$x	ENDS
?Print@Solution@@AAEXXZ ENDP				; Solution::Print
; Function compile flags: /Odsp /RTCsu /ZI
; File J:\work\SUDOKU\SUDOKU\SUDOKU\Solution.cpp
;	COMDAT ?Display_grille@Solution@@AAEXPAUHWND__@@@Z
_TEXT	SEGMENT
_col$2 = -72						; size = 4
_row$3 = -60						; size = 4
_Chaine$ = -48						; size = 4
_z$ = -36						; size = 4
_this$ = -24						; size = 4
__$ArrayPad$ = -16					; size = 4
__$EHRec$ = -12						; size = 12
_Curent_windows$ = 8					; size = 4
?Display_grille@Solution@@AAEXPAUHWND__@@@Z PROC	; Solution::Display_grille, COMDAT
; _this$ = ecx

; 383  : {	

  00000	55		 push	 ebp
  00001	8b ec		 mov	 ebp, esp
  00003	6a ff		 push	 -1
  00005	68 00 00 00 00	 push	 __ehhandler$?Display_grille@Solution@@AAEXPAUHWND__@@@Z
  0000a	64 a1 00 00 00
	00		 mov	 eax, DWORD PTR fs:0
  00010	50		 push	 eax
  00011	81 ec 00 01 00
	00		 sub	 esp, 256		; 00000100H
  00017	53		 push	 ebx
  00018	56		 push	 esi
  00019	57		 push	 edi
  0001a	51		 push	 ecx
  0001b	8d 7d b4	 lea	 edi, DWORD PTR [ebp-76]
  0001e	6a 10		 push	 16			; 00000010H
  00020	59		 pop	 ecx
  00021	b8 cc cc cc cc	 mov	 eax, -858993460		; ccccccccH
  00026	f3 ab		 rep stosd
  00028	59		 pop	 ecx
  00029	a1 00 00 00 00	 mov	 eax, DWORD PTR ___security_cookie
  0002e	33 c5		 xor	 eax, ebp
  00030	89 45 f0	 mov	 DWORD PTR __$ArrayPad$[ebp], eax
  00033	50		 push	 eax
  00034	8d 45 f4	 lea	 eax, DWORD PTR __$EHRec$[ebp]
  00037	64 a3 00 00 00
	00		 mov	 DWORD PTR fs:0, eax
  0003d	89 4d e8	 mov	 DWORD PTR _this$[ebp], ecx
  00040	b9 00 00 00 00	 mov	 ecx, OFFSET __CBE53D1F_Solution@cpp
  00045	e8 00 00 00 00	 call	 @__CheckForDebuggerJustMyCode@4

; 384  : 	int z = 0;

  0004a	83 65 dc 00	 and	 DWORD PTR _z$[ebp], 0

; 385  : 	CString Chaine;

  0004e	6a 04		 push	 4
  00050	8d 4d d0	 lea	 ecx, DWORD PTR _Chaine$[ebp]
  00053	e8 00 00 00 00	 call	 ?__autoclassinit2@?$CStringT@_WV?$StrTraitMFC@_WV?$ChTraitsCRT@_W@ATL@@@@@ATL@@QAEXI@Z
  00058	8d 4d d0	 lea	 ecx, DWORD PTR _Chaine$[ebp]
  0005b	e8 00 00 00 00	 call	 ??0?$CStringT@_WV?$StrTraitMFC@_WV?$ChTraitsCRT@_W@ATL@@@@@ATL@@QAE@XZ ; ATL::CStringT<wchar_t,StrTraitMFC<wchar_t,ATL::ChTraitsCRT<wchar_t> > >::CStringT<wchar_t,StrTraitMFC<wchar_t,ATL::ChTraitsCRT<wchar_t> > >
  00060	83 65 fc 00	 and	 DWORD PTR __$EHRec$[ebp+8], 0

; 386  : 
; 387  : 	ASSERT(IsWindow(Curent_windows) != 0);

  00064	8b f4		 mov	 esi, esp
  00066	ff 75 08	 push	 DWORD PTR _Curent_windows$[ebp]
  00069	ff 15 00 00 00
	00		 call	 DWORD PTR __imp__IsWindow@4
  0006f	3b f4		 cmp	 esi, esp
  00071	e8 00 00 00 00	 call	 __RTC_CheckEsp
  00076	85 c0		 test	 eax, eax
  00078	75 18		 jne	 SHORT $LN11@Display_gr
  0007a	a1 00 00 00 00	 mov	 eax, DWORD PTR ?__LINE__Var@?0??Display_grille@Solution@@AAEXPAUHWND__@@@Z@4JA
  0007f	83 c0 04	 add	 eax, 4
  00082	50		 push	 eax
  00083	68 00 00 00 00	 push	 OFFSET ??_C@_0CK@JGFDDPMM@J?3?2work?2SUDOKU?2SUDOKU?2SUDOKU?2So@
  00088	e8 00 00 00 00	 call	 ?AfxAssertFailedLine@@YGHPBDH@Z ; AfxAssertFailedLine
  0008d	85 c0		 test	 eax, eax
  0008f	74 01		 je	 SHORT $LN11@Display_gr
  00091	cc		 int	 3
$LN11@Display_gr:

; 388  : 
; 389  : 	for (int row = 0; row < MAX; row++)

  00092	83 65 c4 00	 and	 DWORD PTR _row$3[ebp], 0
  00096	eb 07		 jmp	 SHORT $LN4@Display_gr
$LN2@Display_gr:
  00098	8b 45 c4	 mov	 eax, DWORD PTR _row$3[ebp]
  0009b	40		 inc	 eax
  0009c	89 45 c4	 mov	 DWORD PTR _row$3[ebp], eax
$LN4@Display_gr:
  0009f	83 7d c4 09	 cmp	 DWORD PTR _row$3[ebp], 9
  000a3	0f 8d a0 00 00
	00		 jge	 $LN3@Display_gr

; 390  : 	{
; 391  : 		for (int col = 0; col < MAX; col++)

  000a9	83 65 b8 00	 and	 DWORD PTR _col$2[ebp], 0
  000ad	eb 07		 jmp	 SHORT $LN7@Display_gr
$LN5@Display_gr:
  000af	8b 45 b8	 mov	 eax, DWORD PTR _col$2[ebp]
  000b2	40		 inc	 eax
  000b3	89 45 b8	 mov	 DWORD PTR _col$2[ebp], eax
$LN7@Display_gr:
  000b6	83 7d b8 09	 cmp	 DWORD PTR _col$2[ebp], 9
  000ba	0f 8d 84 00 00
	00		 jge	 $LN6@Display_gr

; 392  : 		{
; 393  : 			Chaine.Format(_T("%d"), grid[row][col]);

  000c0	6b 45 c4 24	 imul	 eax, DWORD PTR _row$3[ebp], 36
  000c4	8b 4d b8	 mov	 ecx, DWORD PTR _col$2[ebp]
  000c7	ff b4 88 00 00
	00 00		 push	 DWORD PTR ?grid@@3PAY08HA[eax+ecx*4]
  000ce	68 00 00 00 00	 push	 OFFSET ??_C@_15KNBIKKIN@?$AA?$CF?$AAd@
  000d3	8d 45 d0	 lea	 eax, DWORD PTR _Chaine$[ebp]
  000d6	50		 push	 eax
  000d7	e8 00 00 00 00	 call	 ?Format@?$CStringT@_WV?$StrTraitMFC@_WV?$ChTraitsCRT@_W@ATL@@@@@ATL@@QAAXPB_WZZ ; ATL::CStringT<wchar_t,StrTraitMFC<wchar_t,ATL::ChTraitsCRT<wchar_t> > >::Format
  000dc	83 c4 0c	 add	 esp, 12			; 0000000cH

; 394  : 			if (grid[row][col] > 0)

  000df	6b 45 c4 24	 imul	 eax, DWORD PTR _row$3[ebp], 36
  000e3	8b 4d b8	 mov	 ecx, DWORD PTR _col$2[ebp]
  000e6	83 bc 88 00 00
	00 00 00	 cmp	 DWORD PTR ?grid@@3PAY08HA[eax+ecx*4], 0
  000ee	7e 27		 jle	 SHORT $LN8@Display_gr

; 395  : 			{		
; 396  : 			 ::SetDlgItemTextW(Curent_windows, tableau_de_saisie[z], (LPWSTR)Chaine.GetBuffer());

  000f0	8d 4d d0	 lea	 ecx, DWORD PTR _Chaine$[ebp]
  000f3	e8 00 00 00 00	 call	 ?GetBuffer@?$CSimpleStringT@_W$0A@@ATL@@QAEPA_WXZ ; ATL::CSimpleStringT<wchar_t,0>::GetBuffer
  000f8	8b f4		 mov	 esi, esp
  000fa	50		 push	 eax
  000fb	8b 45 dc	 mov	 eax, DWORD PTR _z$[ebp]
  000fe	8b 4d e8	 mov	 ecx, DWORD PTR _this$[ebp]
  00101	ff 74 81 04	 push	 DWORD PTR [ecx+eax*4+4]
  00105	ff 75 08	 push	 DWORD PTR _Curent_windows$[ebp]
  00108	ff 15 00 00 00
	00		 call	 DWORD PTR __imp__SetDlgItemTextW@12
  0010e	3b f4		 cmp	 esi, esp
  00110	e8 00 00 00 00	 call	 __RTC_CheckEsp

; 397  : 			}else

  00115	eb 21		 jmp	 SHORT $LN9@Display_gr
$LN8@Display_gr:

; 398  : 			{
; 399  : 			 ::SetDlgItemTextW(Curent_windows, tableau_de_saisie[z],_T(""));

  00117	8b f4		 mov	 esi, esp
  00119	68 00 00 00 00	 push	 OFFSET ??_C@_11LOCGONAA@@
  0011e	8b 45 dc	 mov	 eax, DWORD PTR _z$[ebp]
  00121	8b 4d e8	 mov	 ecx, DWORD PTR _this$[ebp]
  00124	ff 74 81 04	 push	 DWORD PTR [ecx+eax*4+4]
  00128	ff 75 08	 push	 DWORD PTR _Curent_windows$[ebp]
  0012b	ff 15 00 00 00
	00		 call	 DWORD PTR __imp__SetDlgItemTextW@12
  00131	3b f4		 cmp	 esi, esp
  00133	e8 00 00 00 00	 call	 __RTC_CheckEsp
$LN9@Display_gr:

; 400  : 			}
; 401  : 			z++;

  00138	8b 45 dc	 mov	 eax, DWORD PTR _z$[ebp]
  0013b	40		 inc	 eax
  0013c	89 45 dc	 mov	 DWORD PTR _z$[ebp], eax

; 402  : 		}

  0013f	e9 6b ff ff ff	 jmp	 $LN5@Display_gr
$LN6@Display_gr:

; 403  : 	}

  00144	e9 4f ff ff ff	 jmp	 $LN2@Display_gr
$LN3@Display_gr:

; 404  : 
; 405  : }

  00149	83 4d fc ff	 or	 DWORD PTR __$EHRec$[ebp+8], -1
  0014d	8d 4d d0	 lea	 ecx, DWORD PTR _Chaine$[ebp]
  00150	e8 00 00 00 00	 call	 ??1?$CStringT@_WV?$StrTraitMFC@_WV?$ChTraitsCRT@_W@ATL@@@@@ATL@@QAE@XZ ; ATL::CStringT<wchar_t,StrTraitMFC<wchar_t,ATL::ChTraitsCRT<wchar_t> > >::~CStringT<wchar_t,StrTraitMFC<wchar_t,ATL::ChTraitsCRT<wchar_t> > >
  00155	52		 push	 edx
  00156	8b cd		 mov	 ecx, ebp
  00158	50		 push	 eax
  00159	8d 15 00 00 00
	00		 lea	 edx, DWORD PTR $LN16@Display_gr
  0015f	e8 00 00 00 00	 call	 @_RTC_CheckStackVars@8
  00164	58		 pop	 eax
  00165	5a		 pop	 edx
  00166	8b 4d f4	 mov	 ecx, DWORD PTR __$EHRec$[ebp]
  00169	64 89 0d 00 00
	00 00		 mov	 DWORD PTR fs:0, ecx
  00170	59		 pop	 ecx
  00171	5f		 pop	 edi
  00172	5e		 pop	 esi
  00173	5b		 pop	 ebx
  00174	8b 4d f0	 mov	 ecx, DWORD PTR __$ArrayPad$[ebp]
  00177	33 cd		 xor	 ecx, ebp
  00179	e8 00 00 00 00	 call	 @__security_check_cookie@4
  0017e	81 c4 0c 01 00
	00		 add	 esp, 268		; 0000010cH
  00184	3b ec		 cmp	 ebp, esp
  00186	e8 00 00 00 00	 call	 __RTC_CheckEsp
  0018b	c9		 leave
  0018c	c2 04 00	 ret	 4
  0018f	90		 npad	 1
$LN16@Display_gr:
  00190	01 00 00 00	 DD	 1
  00194	00 00 00 00	 DD	 $LN15@Display_gr
$LN15@Display_gr:
  00198	d0 ff ff ff	 DD	 -48			; ffffffd0H
  0019c	04 00 00 00	 DD	 4
  001a0	00 00 00 00	 DD	 $LN13@Display_gr
$LN13@Display_gr:
  001a4	43		 DB	 67			; 00000043H
  001a5	68		 DB	 104			; 00000068H
  001a6	61		 DB	 97			; 00000061H
  001a7	69		 DB	 105			; 00000069H
  001a8	6e		 DB	 110			; 0000006eH
  001a9	65		 DB	 101			; 00000065H
  001aa	00		 DB	 0
_TEXT	ENDS
;	COMDAT text$x
text$x	SEGMENT
__unwindfunclet$?Display_grille@Solution@@AAEXPAUHWND__@@@Z$0:
  00000	8d 4d d0	 lea	 ecx, DWORD PTR _Chaine$[ebp]
  00003	e9 00 00 00 00	 jmp	 ??1?$CStringT@_WV?$StrTraitMFC@_WV?$ChTraitsCRT@_W@ATL@@@@@ATL@@QAE@XZ ; ATL::CStringT<wchar_t,StrTraitMFC<wchar_t,ATL::ChTraitsCRT<wchar_t> > >::~CStringT<wchar_t,StrTraitMFC<wchar_t,ATL::ChTraitsCRT<wchar_t> > >
  00008	cc		 int	 3
  00009	cc		 int	 3
  0000a	cc		 int	 3
  0000b	cc		 int	 3
  0000c	cc		 int	 3
__ehhandler$?Display_grille@Solution@@AAEXPAUHWND__@@@Z:
  0000d	90		 npad	 1
  0000e	90		 npad	 1
  0000f	8b 54 24 08	 mov	 edx, DWORD PTR [esp+8]
  00013	8d 42 0c	 lea	 eax, DWORD PTR [edx+12]
  00016	8b 8a f0 fe ff
	ff		 mov	 ecx, DWORD PTR [edx-272]
  0001c	33 c8		 xor	 ecx, eax
  0001e	e8 00 00 00 00	 call	 @__security_check_cookie@4
  00023	8b 4a fc	 mov	 ecx, DWORD PTR [edx-4]
  00026	33 c8		 xor	 ecx, eax
  00028	e8 00 00 00 00	 call	 @__security_check_cookie@4
  0002d	b8 00 00 00 00	 mov	 eax, OFFSET __ehfuncinfo$?Display_grille@Solution@@AAEXPAUHWND__@@@Z
  00032	e9 00 00 00 00	 jmp	 ___CxxFrameHandler3
text$x	ENDS
?Display_grille@Solution@@AAEXPAUHWND__@@@Z ENDP	; Solution::Display_grille
; Function compile flags: /Odsp /RTCsu /ZI
; File J:\work\SUDOKU\SUDOKU\SUDOKU\Solution.cpp
;	COMDAT ?Finished_grid@Solution@@AAEHXZ
_TEXT	SEGMENT
_col$ = -32						; size = 4
_row$ = -20						; size = 4
_this$ = -8						; size = 4
?Finished_grid@Solution@@AAEHXZ PROC			; Solution::Finished_grid, COMDAT
; _this$ = ecx

; 697  : {

  00000	55		 push	 ebp
  00001	8b ec		 mov	 ebp, esp
  00003	81 ec e4 00 00
	00		 sub	 esp, 228		; 000000e4H
  00009	53		 push	 ebx
  0000a	56		 push	 esi
  0000b	57		 push	 edi
  0000c	51		 push	 ecx
  0000d	8d 7d dc	 lea	 edi, DWORD PTR [ebp-36]
  00010	6a 09		 push	 9
  00012	59		 pop	 ecx
  00013	b8 cc cc cc cc	 mov	 eax, -858993460		; ccccccccH
  00018	f3 ab		 rep stosd
  0001a	59		 pop	 ecx
  0001b	89 4d f8	 mov	 DWORD PTR _this$[ebp], ecx
  0001e	b9 00 00 00 00	 mov	 ecx, OFFSET __CBE53D1F_Solution@cpp
  00023	e8 00 00 00 00	 call	 @__CheckForDebuggerJustMyCode@4

; 698  : 	int row, col = 0;

  00028	83 65 e0 00	 and	 DWORD PTR _col$[ebp], 0

; 699  : 
; 700  : 	for (row = MAX - 1; row >= 0; row--)

  0002c	c7 45 ec 08 00
	00 00		 mov	 DWORD PTR _row$[ebp], 8
  00033	eb 07		 jmp	 SHORT $LN4@Finished_g
$LN2@Finished_g:
  00035	8b 45 ec	 mov	 eax, DWORD PTR _row$[ebp]
  00038	48		 dec	 eax
  00039	89 45 ec	 mov	 DWORD PTR _row$[ebp], eax
$LN4@Finished_g:
  0003c	83 7d ec 00	 cmp	 DWORD PTR _row$[ebp], 0
  00040	7c 2f		 jl	 SHORT $LN3@Finished_g

; 701  : 	{
; 702  : 
; 703  : 		for (col = MAX - 1; col >= 0; col--)

  00042	c7 45 e0 08 00
	00 00		 mov	 DWORD PTR _col$[ebp], 8
  00049	eb 07		 jmp	 SHORT $LN7@Finished_g
$LN5@Finished_g:
  0004b	8b 45 e0	 mov	 eax, DWORD PTR _col$[ebp]
  0004e	48		 dec	 eax
  0004f	89 45 e0	 mov	 DWORD PTR _col$[ebp], eax
$LN7@Finished_g:
  00052	83 7d e0 00	 cmp	 DWORD PTR _col$[ebp], 0
  00056	7c 17		 jl	 SHORT $LN6@Finished_g

; 704  : 		{
; 705  : 
; 706  : 			if (grid[row][col] == 0)

  00058	6b 45 ec 24	 imul	 eax, DWORD PTR _row$[ebp], 36
  0005c	8b 4d e0	 mov	 ecx, DWORD PTR _col$[ebp]
  0005f	83 bc 88 00 00
	00 00 00	 cmp	 DWORD PTR ?grid@@3PAY08HA[eax+ecx*4], 0
  00067	75 04		 jne	 SHORT $LN8@Finished_g

; 707  : 			{
; 708  : 				return FALSE;

  00069	33 c0		 xor	 eax, eax
  0006b	eb 07		 jmp	 SHORT $LN1@Finished_g
$LN8@Finished_g:

; 709  : 			}
; 710  : 
; 711  : 		}/* end for col */

  0006d	eb dc		 jmp	 SHORT $LN5@Finished_g
$LN6@Finished_g:

; 712  : 	}/* end for row */

  0006f	eb c4		 jmp	 SHORT $LN2@Finished_g
$LN3@Finished_g:

; 713  : 
; 714  : 	return TRUE;

  00071	33 c0		 xor	 eax, eax
  00073	40		 inc	 eax
$LN1@Finished_g:

; 715  : }

  00074	5f		 pop	 edi
  00075	5e		 pop	 esi
  00076	5b		 pop	 ebx
  00077	81 c4 e4 00 00
	00		 add	 esp, 228		; 000000e4H
  0007d	3b ec		 cmp	 ebp, esp
  0007f	e8 00 00 00 00	 call	 __RTC_CheckEsp
  00084	c9		 leave
  00085	c3		 ret	 0
?Finished_grid@Solution@@AAEHXZ ENDP			; Solution::Finished_grid
_TEXT	ENDS
; Function compile flags: /Odsp /RTCsu /ZI
; File J:\work\SUDOKU\SUDOKU\SUDOKU\Solution.cpp
;	COMDAT ?Trans_sub_square_of_cell@Solution@@AAEXQADHH@Z
_TEXT	SEGMENT
_k$ = -44						; size = 4
_j$ = -32						; size = 4
_i$ = -20						; size = 4
_this$ = -8						; size = 4
_buffer$ = 8						; size = 4
_row$ = 12						; size = 4
_col$ = 16						; size = 4
?Trans_sub_square_of_cell@Solution@@AAEXQADHH@Z PROC	; Solution::Trans_sub_square_of_cell, COMDAT
; _this$ = ecx

; 672  : {

  00000	55		 push	 ebp
  00001	8b ec		 mov	 ebp, esp
  00003	81 ec f0 00 00
	00		 sub	 esp, 240		; 000000f0H
  00009	53		 push	 ebx
  0000a	56		 push	 esi
  0000b	57		 push	 edi
  0000c	51		 push	 ecx
  0000d	8d 7d d0	 lea	 edi, DWORD PTR [ebp-48]
  00010	6a 0c		 push	 12			; 0000000cH
  00012	59		 pop	 ecx
  00013	b8 cc cc cc cc	 mov	 eax, -858993460		; ccccccccH
  00018	f3 ab		 rep stosd
  0001a	59		 pop	 ecx
  0001b	89 4d f8	 mov	 DWORD PTR _this$[ebp], ecx
  0001e	b9 00 00 00 00	 mov	 ecx, OFFSET __CBE53D1F_Solution@cpp
  00023	e8 00 00 00 00	 call	 @__CheckForDebuggerJustMyCode@4

; 673  : 	int i, j, k = 0;

  00028	83 65 d4 00	 and	 DWORD PTR _k$[ebp], 0
$LN2@Trans_sub_:

; 674  : 
; 675  : 	while ((row % MIN) != 0) row--;

  0002c	8b 45 0c	 mov	 eax, DWORD PTR _row$[ebp]
  0002f	99		 cdq
  00030	6a 03		 push	 3
  00032	59		 pop	 ecx
  00033	f7 f9		 idiv	 ecx
  00035	85 d2		 test	 edx, edx
  00037	74 09		 je	 SHORT $LN4@Trans_sub_
  00039	8b 45 0c	 mov	 eax, DWORD PTR _row$[ebp]
  0003c	48		 dec	 eax
  0003d	89 45 0c	 mov	 DWORD PTR _row$[ebp], eax
  00040	eb ea		 jmp	 SHORT $LN2@Trans_sub_
$LN4@Trans_sub_:

; 676  : 	while ((col % MIN) != 0) col--;

  00042	8b 45 10	 mov	 eax, DWORD PTR _col$[ebp]
  00045	99		 cdq
  00046	6a 03		 push	 3
  00048	59		 pop	 ecx
  00049	f7 f9		 idiv	 ecx
  0004b	85 d2		 test	 edx, edx
  0004d	74 09		 je	 SHORT $LN5@Trans_sub_
  0004f	8b 45 10	 mov	 eax, DWORD PTR _col$[ebp]
  00052	48		 dec	 eax
  00053	89 45 10	 mov	 DWORD PTR _col$[ebp], eax
  00056	eb ea		 jmp	 SHORT $LN4@Trans_sub_
$LN5@Trans_sub_:

; 677  : 
; 678  : 	k = 0;

  00058	83 65 d4 00	 and	 DWORD PTR _k$[ebp], 0

; 679  : 
; 680  : 	for (j = row; j < row + MIN; j++)

  0005c	8b 45 0c	 mov	 eax, DWORD PTR _row$[ebp]
  0005f	89 45 e0	 mov	 DWORD PTR _j$[ebp], eax
  00062	eb 07		 jmp	 SHORT $LN8@Trans_sub_
$LN6@Trans_sub_:
  00064	8b 45 e0	 mov	 eax, DWORD PTR _j$[ebp]
  00067	40		 inc	 eax
  00068	89 45 e0	 mov	 DWORD PTR _j$[ebp], eax
$LN8@Trans_sub_:
  0006b	8b 45 0c	 mov	 eax, DWORD PTR _row$[ebp]
  0006e	83 c0 03	 add	 eax, 3
  00071	39 45 e0	 cmp	 DWORD PTR _j$[ebp], eax
  00074	7d 3b		 jge	 SHORT $LN1@Trans_sub_

; 681  : 	{
; 682  : 
; 683  : 		for (i = col; i < col + MIN; i++)

  00076	8b 45 10	 mov	 eax, DWORD PTR _col$[ebp]
  00079	89 45 ec	 mov	 DWORD PTR _i$[ebp], eax
  0007c	eb 07		 jmp	 SHORT $LN11@Trans_sub_
$LN9@Trans_sub_:
  0007e	8b 45 ec	 mov	 eax, DWORD PTR _i$[ebp]
  00081	40		 inc	 eax
  00082	89 45 ec	 mov	 DWORD PTR _i$[ebp], eax
$LN11@Trans_sub_:
  00085	8b 45 10	 mov	 eax, DWORD PTR _col$[ebp]
  00088	83 c0 03	 add	 eax, 3
  0008b	39 45 ec	 cmp	 DWORD PTR _i$[ebp], eax
  0008e	7d 1f		 jge	 SHORT $LN10@Trans_sub_

; 684  : 		{
; 685  : 
; 686  : 			buffer[++k] = grid[j][i];

  00090	8b 45 d4	 mov	 eax, DWORD PTR _k$[ebp]
  00093	40		 inc	 eax
  00094	89 45 d4	 mov	 DWORD PTR _k$[ebp], eax
  00097	6b 45 e0 24	 imul	 eax, DWORD PTR _j$[ebp], 36
  0009b	8b 4d 08	 mov	 ecx, DWORD PTR _buffer$[ebp]
  0009e	03 4d d4	 add	 ecx, DWORD PTR _k$[ebp]
  000a1	8b 55 ec	 mov	 edx, DWORD PTR _i$[ebp]
  000a4	8a 84 90 00 00
	00 00		 mov	 al, BYTE PTR ?grid@@3PAY08HA[eax+edx*4]
  000ab	88 01		 mov	 BYTE PTR [ecx], al

; 687  : 
; 688  : 		}/* end for i */

  000ad	eb cf		 jmp	 SHORT $LN9@Trans_sub_
$LN10@Trans_sub_:

; 689  : 
; 690  : 	}/* end for j */

  000af	eb b3		 jmp	 SHORT $LN6@Trans_sub_
$LN1@Trans_sub_:

; 691  : 
; 692  : }/* end trans_sub_square_of_cell */

  000b1	5f		 pop	 edi
  000b2	5e		 pop	 esi
  000b3	5b		 pop	 ebx
  000b4	81 c4 f0 00 00
	00		 add	 esp, 240		; 000000f0H
  000ba	3b ec		 cmp	 ebp, esp
  000bc	e8 00 00 00 00	 call	 __RTC_CheckEsp
  000c1	c9		 leave
  000c2	c2 0c 00	 ret	 12			; 0000000cH
?Trans_sub_square_of_cell@Solution@@AAEXQADHH@Z ENDP	; Solution::Trans_sub_square_of_cell
_TEXT	ENDS
; Function compile flags: /Odsp /RTCsu /ZI
; File J:\work\SUDOKU\SUDOKU\SUDOKU\Solution.cpp
;	COMDAT ?Free_cell_for_number@Solution@@AAEHHHH@Z
_TEXT	SEGMENT
_i$ = -64						; size = 4
_buffer$ = -52						; size = 29
_this$ = -12						; size = 4
__$ArrayPad$ = -4					; size = 4
_number$ = 8						; size = 4
_row$ = 12						; size = 4
_col$ = 16						; size = 4
?Free_cell_for_number@Solution@@AAEHHHH@Z PROC		; Solution::Free_cell_for_number, COMDAT
; _this$ = ecx

; 642  : {

  00000	55		 push	 ebp
  00001	8b ec		 mov	 ebp, esp
  00003	81 ec 04 01 00
	00		 sub	 esp, 260		; 00000104H
  00009	53		 push	 ebx
  0000a	56		 push	 esi
  0000b	57		 push	 edi
  0000c	51		 push	 ecx
  0000d	8d 7d bc	 lea	 edi, DWORD PTR [ebp-68]
  00010	6a 11		 push	 17			; 00000011H
  00012	59		 pop	 ecx
  00013	b8 cc cc cc cc	 mov	 eax, -858993460		; ccccccccH
  00018	f3 ab		 rep stosd
  0001a	59		 pop	 ecx
  0001b	a1 00 00 00 00	 mov	 eax, DWORD PTR ___security_cookie
  00020	33 c5		 xor	 eax, ebp
  00022	89 45 fc	 mov	 DWORD PTR __$ArrayPad$[ebp], eax
  00025	89 4d f4	 mov	 DWORD PTR _this$[ebp], ecx
  00028	b9 00 00 00 00	 mov	 ecx, OFFSET __CBE53D1F_Solution@cpp
  0002d	e8 00 00 00 00	 call	 @__CheckForDebuggerJustMyCode@4

; 643  : 	/* Test if the number is already in the line, or the column,
; 644  : 	or the sub-square of 3 X 3 afferent at the cell pointed to by line and column. */
; 645  : 
; 646  : 	char buffer[MAX + 20] = { 0 };

  00032	6a 07		 push	 7
  00034	59		 pop	 ecx
  00035	33 c0		 xor	 eax, eax
  00037	8d 7d cc	 lea	 edi, DWORD PTR _buffer$[ebp]
  0003a	f3 ab		 rep stosd
  0003c	aa		 stosb

; 647  : 	int i= 0;

  0003d	83 65 c0 00	 and	 DWORD PTR _i$[ebp], 0

; 648  : 
; 649  : 	/* If the number is used in the line return FALSE */
; 650  : 	for (i = 0; i < MAX; i++)

  00041	83 65 c0 00	 and	 DWORD PTR _i$[ebp], 0
  00045	eb 07		 jmp	 SHORT $LN4@Free_cell_
$LN2@Free_cell_:
  00047	8b 45 c0	 mov	 eax, DWORD PTR _i$[ebp]
  0004a	40		 inc	 eax
  0004b	89 45 c0	 mov	 DWORD PTR _i$[ebp], eax
$LN4@Free_cell_:
  0004e	83 7d c0 09	 cmp	 DWORD PTR _i$[ebp], 9
  00052	7d 19		 jge	 SHORT $LN3@Free_cell_

; 651  : 
; 652  : 	{
; 653  : 		if (grid[row][i] == number) return(FALSE); /* If the number is used in the column return FALSE */

  00054	6b 45 0c 24	 imul	 eax, DWORD PTR _row$[ebp], 36
  00058	8b 4d c0	 mov	 ecx, DWORD PTR _i$[ebp]
  0005b	8b 84 88 00 00
	00 00		 mov	 eax, DWORD PTR ?grid@@3PAY08HA[eax+ecx*4]
  00062	3b 45 08	 cmp	 eax, DWORD PTR _number$[ebp]
  00065	75 04		 jne	 SHORT $LN11@Free_cell_
  00067	33 c0		 xor	 eax, eax
  00069	eb 69		 jmp	 SHORT $LN1@Free_cell_
$LN11@Free_cell_:

; 654  : 	}

  0006b	eb da		 jmp	 SHORT $LN2@Free_cell_
$LN3@Free_cell_:

; 655  : 
; 656  : 	for (i = 0; i < MAX; i++)

  0006d	83 65 c0 00	 and	 DWORD PTR _i$[ebp], 0
  00071	eb 07		 jmp	 SHORT $LN7@Free_cell_
$LN5@Free_cell_:
  00073	8b 45 c0	 mov	 eax, DWORD PTR _i$[ebp]
  00076	40		 inc	 eax
  00077	89 45 c0	 mov	 DWORD PTR _i$[ebp], eax
$LN7@Free_cell_:
  0007a	83 7d c0 09	 cmp	 DWORD PTR _i$[ebp], 9
  0007e	7d 19		 jge	 SHORT $LN6@Free_cell_

; 657  : 	{
; 658  : 		if (grid[i][col] == number) return(FALSE); /* If the number is used in the sub-square of 3 X 3 return FALSE */

  00080	6b 45 c0 24	 imul	 eax, DWORD PTR _i$[ebp], 36
  00084	8b 4d 10	 mov	 ecx, DWORD PTR _col$[ebp]
  00087	8b 84 88 00 00
	00 00		 mov	 eax, DWORD PTR ?grid@@3PAY08HA[eax+ecx*4]
  0008e	3b 45 08	 cmp	 eax, DWORD PTR _number$[ebp]
  00091	75 04		 jne	 SHORT $LN12@Free_cell_
  00093	33 c0		 xor	 eax, eax
  00095	eb 3d		 jmp	 SHORT $LN1@Free_cell_
$LN12@Free_cell_:

; 659  : 	}

  00097	eb da		 jmp	 SHORT $LN5@Free_cell_
$LN6@Free_cell_:

; 660  : 
; 661  : 	Trans_sub_square_of_cell(buffer, row, col);

  00099	ff 75 10	 push	 DWORD PTR _col$[ebp]
  0009c	ff 75 0c	 push	 DWORD PTR _row$[ebp]
  0009f	8d 45 cc	 lea	 eax, DWORD PTR _buffer$[ebp]
  000a2	50		 push	 eax
  000a3	8b 4d f4	 mov	 ecx, DWORD PTR _this$[ebp]
  000a6	e8 00 00 00 00	 call	 ?Trans_sub_square_of_cell@Solution@@AAEXQADHH@Z ; Solution::Trans_sub_square_of_cell

; 662  : 
; 663  : 	for (i = 0; i < MAX; i++)

  000ab	83 65 c0 00	 and	 DWORD PTR _i$[ebp], 0
  000af	eb 07		 jmp	 SHORT $LN10@Free_cell_
$LN8@Free_cell_:
  000b1	8b 45 c0	 mov	 eax, DWORD PTR _i$[ebp]
  000b4	40		 inc	 eax
  000b5	89 45 c0	 mov	 DWORD PTR _i$[ebp], eax
$LN10@Free_cell_:
  000b8	83 7d c0 09	 cmp	 DWORD PTR _i$[ebp], 9
  000bc	7d 13		 jge	 SHORT $LN9@Free_cell_

; 664  : 	{
; 665  : 		if (buffer[i] == number) return (FALSE);   /* whereby the number is available for the cell, return TRUE. */

  000be	8b 45 c0	 mov	 eax, DWORD PTR _i$[ebp]
  000c1	0f be 44 05 cc	 movsx	 eax, BYTE PTR _buffer$[ebp+eax]
  000c6	3b 45 08	 cmp	 eax, DWORD PTR _number$[ebp]
  000c9	75 04		 jne	 SHORT $LN13@Free_cell_
  000cb	33 c0		 xor	 eax, eax
  000cd	eb 05		 jmp	 SHORT $LN1@Free_cell_
$LN13@Free_cell_:

; 666  : 	}

  000cf	eb e0		 jmp	 SHORT $LN8@Free_cell_
$LN9@Free_cell_:

; 667  : 	return(TRUE);

  000d1	33 c0		 xor	 eax, eax
  000d3	40		 inc	 eax
$LN1@Free_cell_:

; 668  : }

  000d4	52		 push	 edx
  000d5	8b cd		 mov	 ecx, ebp
  000d7	50		 push	 eax
  000d8	8d 15 00 00 00
	00		 lea	 edx, DWORD PTR $LN17@Free_cell_
  000de	e8 00 00 00 00	 call	 @_RTC_CheckStackVars@8
  000e3	58		 pop	 eax
  000e4	5a		 pop	 edx
  000e5	5f		 pop	 edi
  000e6	5e		 pop	 esi
  000e7	5b		 pop	 ebx
  000e8	8b 4d fc	 mov	 ecx, DWORD PTR __$ArrayPad$[ebp]
  000eb	33 cd		 xor	 ecx, ebp
  000ed	e8 00 00 00 00	 call	 @__security_check_cookie@4
  000f2	81 c4 04 01 00
	00		 add	 esp, 260		; 00000104H
  000f8	3b ec		 cmp	 ebp, esp
  000fa	e8 00 00 00 00	 call	 __RTC_CheckEsp
  000ff	c9		 leave
  00100	c2 0c 00	 ret	 12			; 0000000cH
  00103	90		 npad	 1
$LN17@Free_cell_:
  00104	01 00 00 00	 DD	 1
  00108	00 00 00 00	 DD	 $LN16@Free_cell_
$LN16@Free_cell_:
  0010c	cc ff ff ff	 DD	 -52			; ffffffccH
  00110	1d 00 00 00	 DD	 29			; 0000001dH
  00114	00 00 00 00	 DD	 $LN15@Free_cell_
$LN15@Free_cell_:
  00118	62		 DB	 98			; 00000062H
  00119	75		 DB	 117			; 00000075H
  0011a	66		 DB	 102			; 00000066H
  0011b	66		 DB	 102			; 00000066H
  0011c	65		 DB	 101			; 00000065H
  0011d	72		 DB	 114			; 00000072H
  0011e	00		 DB	 0
?Free_cell_for_number@Solution@@AAEHHHH@Z ENDP		; Solution::Free_cell_for_number
_TEXT	ENDS
; Function compile flags: /Odsp /RTCsu /ZI
; File J:\work\SUDOKU\SUDOKU\SUDOKU\Solution.cpp
;	COMDAT ?Resolve@Solution@@AAEXXZ
_TEXT	SEGMENT
_buffer_number$ = -56					; size = 4
_number$ = -44						; size = 4
_col$ = -32						; size = 4
_row$ = -20						; size = 4
_this$ = -8						; size = 4
?Resolve@Solution@@AAEXXZ PROC				; Solution::Resolve, COMDAT
; _this$ = ecx

; 590  : {

  00000	55		 push	 ebp
  00001	8b ec		 mov	 ebp, esp
  00003	81 ec fc 00 00
	00		 sub	 esp, 252		; 000000fcH
  00009	53		 push	 ebx
  0000a	56		 push	 esi
  0000b	57		 push	 edi
  0000c	51		 push	 ecx
  0000d	8d 7d c4	 lea	 edi, DWORD PTR [ebp-60]
  00010	6a 0f		 push	 15			; 0000000fH
  00012	59		 pop	 ecx
  00013	b8 cc cc cc cc	 mov	 eax, -858993460		; ccccccccH
  00018	f3 ab		 rep stosd
  0001a	59		 pop	 ecx
  0001b	89 4d f8	 mov	 DWORD PTR _this$[ebp], ecx
  0001e	b9 00 00 00 00	 mov	 ecx, OFFSET __CBE53D1F_Solution@cpp
  00023	e8 00 00 00 00	 call	 @__CheckForDebuggerJustMyCode@4

; 591  : 	
; 592  : 	/* Attention, recursive function... */
; 593  : 	int row = 0;

  00028	83 65 ec 00	 and	 DWORD PTR _row$[ebp], 0

; 594  : 	int col = 0;

  0002c	83 65 e0 00	 and	 DWORD PTR _col$[ebp], 0

; 595  : 	int number = 0;

  00030	83 65 d4 00	 and	 DWORD PTR _number$[ebp], 0

; 596  : 	int buffer_number = 0 ;

  00034	83 65 c8 00	 and	 DWORD PTR _buffer_number$[ebp], 0

; 597  : 
; 598  : 	for (row = 0; row < MAX; row++)

  00038	83 65 ec 00	 and	 DWORD PTR _row$[ebp], 0
  0003c	eb 07		 jmp	 SHORT $LN4@Resolve
$LN2@Resolve:
  0003e	8b 45 ec	 mov	 eax, DWORD PTR _row$[ebp]
  00041	40		 inc	 eax
  00042	89 45 ec	 mov	 DWORD PTR _row$[ebp], eax
$LN4@Resolve:
  00045	83 7d ec 09	 cmp	 DWORD PTR _row$[ebp], 9
  00049	0f 8d c5 00 00
	00		 jge	 $LN1@Resolve

; 599  : 	{
; 600  : 		for (col = 0; col < MAX; col++)

  0004f	83 65 e0 00	 and	 DWORD PTR _col$[ebp], 0
  00053	eb 07		 jmp	 SHORT $LN7@Resolve
$LN5@Resolve:
  00055	8b 45 e0	 mov	 eax, DWORD PTR _col$[ebp]
  00058	40		 inc	 eax
  00059	89 45 e0	 mov	 DWORD PTR _col$[ebp], eax
$LN7@Resolve:
  0005c	83 7d e0 09	 cmp	 DWORD PTR _col$[ebp], 9
  00060	0f 8d a9 00 00
	00		 jge	 $LN6@Resolve

; 601  : 		{
; 602  : 			if (grid[row][col]) continue;

  00066	6b 45 ec 24	 imul	 eax, DWORD PTR _row$[ebp], 36
  0006a	8b 4d e0	 mov	 ecx, DWORD PTR _col$[ebp]
  0006d	83 bc 88 00 00
	00 00 00	 cmp	 DWORD PTR ?grid@@3PAY08HA[eax+ecx*4], 0
  00075	74 02		 je	 SHORT $LN11@Resolve
  00077	eb dc		 jmp	 SHORT $LN5@Resolve
$LN11@Resolve:

; 603  : 
; 604  : 			for (number = 1; number <= MAX; number++)

  00079	c7 45 d4 01 00
	00 00		 mov	 DWORD PTR _number$[ebp], 1
  00080	eb 07		 jmp	 SHORT $LN10@Resolve
$LN8@Resolve:
  00082	8b 45 d4	 mov	 eax, DWORD PTR _number$[ebp]
  00085	40		 inc	 eax
  00086	89 45 d4	 mov	 DWORD PTR _number$[ebp], eax
$LN10@Resolve:
  00089	83 7d d4 09	 cmp	 DWORD PTR _number$[ebp], 9
  0008d	7f 79		 jg	 SHORT $LN9@Resolve

; 605  : 			{
; 606  : 
; 607  : 				if (!Free_cell_for_number(number, row, col)) continue;

  0008f	ff 75 e0	 push	 DWORD PTR _col$[ebp]
  00092	ff 75 ec	 push	 DWORD PTR _row$[ebp]
  00095	ff 75 d4	 push	 DWORD PTR _number$[ebp]
  00098	8b 4d f8	 mov	 ecx, DWORD PTR _this$[ebp]
  0009b	e8 00 00 00 00	 call	 ?Free_cell_for_number@Solution@@AAEHHHH@Z ; Solution::Free_cell_for_number
  000a0	85 c0		 test	 eax, eax
  000a2	75 02		 jne	 SHORT $LN12@Resolve
  000a4	eb dc		 jmp	 SHORT $LN8@Resolve
$LN12@Resolve:

; 608  : 				buffer_number = grid[row][col]; 

  000a6	6b 45 ec 24	 imul	 eax, DWORD PTR _row$[ebp], 36
  000aa	8b 4d e0	 mov	 ecx, DWORD PTR _col$[ebp]
  000ad	8b 84 88 00 00
	00 00		 mov	 eax, DWORD PTR ?grid@@3PAY08HA[eax+ecx*4]
  000b4	89 45 c8	 mov	 DWORD PTR _buffer_number$[ebp], eax

; 609  : 				g_test_counter++;

  000b7	8b 45 f8	 mov	 eax, DWORD PTR _this$[ebp]
  000ba	8b 80 4c 01 00
	00		 mov	 eax, DWORD PTR [eax+332]
  000c0	40		 inc	 eax
  000c1	8b 4d f8	 mov	 ecx, DWORD PTR _this$[ebp]
  000c4	89 81 4c 01 00
	00		 mov	 DWORD PTR [ecx+332], eax

; 610  : 				grid[row][col] = number;

  000ca	6b 45 ec 24	 imul	 eax, DWORD PTR _row$[ebp], 36
  000ce	8b 4d e0	 mov	 ecx, DWORD PTR _col$[ebp]
  000d1	8b 55 d4	 mov	 edx, DWORD PTR _number$[ebp]
  000d4	89 94 88 00 00
	00 00		 mov	 DWORD PTR ?grid@@3PAY08HA[eax+ecx*4], edx

; 611  : 				Resolve();

  000db	8b 4d f8	 mov	 ecx, DWORD PTR _this$[ebp]
  000de	e8 00 00 00 00	 call	 ?Resolve@Solution@@AAEXXZ ; Solution::Resolve

; 612  : 				if (Finished_grid() == TRUE ) return;

  000e3	8b 4d f8	 mov	 ecx, DWORD PTR _this$[ebp]
  000e6	e8 00 00 00 00	 call	 ?Finished_grid@Solution@@AAEHXZ ; Solution::Finished_grid
  000eb	83 f8 01	 cmp	 eax, 1
  000ee	75 02		 jne	 SHORT $LN13@Resolve
  000f0	eb 22		 jmp	 SHORT $LN1@Resolve
$LN13@Resolve:

; 613  : 				/* To see all the solutions of the grids with multiple solutions,
; 614  : 				switch the line above as a comment and remove the comment command
; 615  : 				of the line below.
; 616  : 				*/
; 617  : 				grid[row][col] = buffer_number;

  000f2	6b 45 ec 24	 imul	 eax, DWORD PTR _row$[ebp], 36
  000f6	8b 4d e0	 mov	 ecx, DWORD PTR _col$[ebp]
  000f9	8b 55 c8	 mov	 edx, DWORD PTR _buffer_number$[ebp]
  000fc	89 94 88 00 00
	00 00		 mov	 DWORD PTR ?grid@@3PAY08HA[eax+ecx*4], edx

; 618  : 
; 619  : 			}/* end for number */

  00103	e9 7a ff ff ff	 jmp	 $LN8@Resolve
$LN9@Resolve:

; 620  : 			return;

  00108	eb 0a		 jmp	 SHORT $LN1@Resolve

; 621  : 
; 622  : 		}/* end for col */

  0010a	e9 46 ff ff ff	 jmp	 $LN5@Resolve
$LN6@Resolve:

; 623  : 	}/* end for row */

  0010f	e9 2a ff ff ff	 jmp	 $LN2@Resolve
$LN1@Resolve:

; 624  : 
; 625  : 	return;
; 626  : 
; 627  : }

  00114	5f		 pop	 edi
  00115	5e		 pop	 esi
  00116	5b		 pop	 ebx
  00117	81 c4 fc 00 00
	00		 add	 esp, 252		; 000000fcH
  0011d	3b ec		 cmp	 ebp, esp
  0011f	e8 00 00 00 00	 call	 __RTC_CheckEsp
  00124	c9		 leave
  00125	c3		 ret	 0
?Resolve@Solution@@AAEXXZ ENDP				; Solution::Resolve
_TEXT	ENDS
; Function compile flags: /Odsp /RTCsu /ZI
; File J:\work\SUDOKU\SUDOKU\SUDOKU\Solution.cpp
;	COMDAT ?Trans_sub_square@Solution@@AAEXQADH@Z
_TEXT	SEGMENT
_z$ = -68						; size = 4
_y$ = -56						; size = 4
_x$ = -44						; size = 4
_j$ = -32						; size = 4
_i$ = -20						; size = 4
_this$ = -8						; size = 4
_buffer$ = 8						; size = 4
_sub_square$ = 12					; size = 4
?Trans_sub_square@Solution@@AAEXQADH@Z PROC		; Solution::Trans_sub_square, COMDAT
; _this$ = ecx

; 554  : {

  00000	55		 push	 ebp
  00001	8b ec		 mov	 ebp, esp
  00003	81 ec 08 01 00
	00		 sub	 esp, 264		; 00000108H
  00009	53		 push	 ebx
  0000a	56		 push	 esi
  0000b	57		 push	 edi
  0000c	51		 push	 ecx
  0000d	8d 7d b8	 lea	 edi, DWORD PTR [ebp-72]
  00010	6a 12		 push	 18			; 00000012H
  00012	59		 pop	 ecx
  00013	b8 cc cc cc cc	 mov	 eax, -858993460		; ccccccccH
  00018	f3 ab		 rep stosd
  0001a	59		 pop	 ecx
  0001b	89 4d f8	 mov	 DWORD PTR _this$[ebp], ecx
  0001e	b9 00 00 00 00	 mov	 ecx, OFFSET __CBE53D1F_Solution@cpp
  00023	e8 00 00 00 00	 call	 @__CheckForDebuggerJustMyCode@4

; 555  : 	/* Transfer the sub-square of 3 x 3 into a one-dimensional array. */
; 556  : 	int i, j, x, y, z;
; 557  : 
; 558  : 	x = (((sub_square) % MIN)*MIN);

  00028	8b 45 0c	 mov	 eax, DWORD PTR _sub_square$[ebp]
  0002b	99		 cdq
  0002c	6a 03		 push	 3
  0002e	59		 pop	 ecx
  0002f	f7 f9		 idiv	 ecx
  00031	6b c2 03	 imul	 eax, edx, 3
  00034	89 45 d4	 mov	 DWORD PTR _x$[ebp], eax

; 559  : 	y = (((sub_square + MIN) / MIN)*MIN) - MIN;

  00037	8b 45 0c	 mov	 eax, DWORD PTR _sub_square$[ebp]
  0003a	83 c0 03	 add	 eax, 3
  0003d	99		 cdq
  0003e	6a 03		 push	 3
  00040	59		 pop	 ecx
  00041	f7 f9		 idiv	 ecx
  00043	6b c0 03	 imul	 eax, eax, 3
  00046	83 e8 03	 sub	 eax, 3
  00049	89 45 c8	 mov	 DWORD PTR _y$[ebp], eax

; 560  : 	z = 0;

  0004c	83 65 bc 00	 and	 DWORD PTR _z$[ebp], 0

; 561  : 
; 562  : 	for (j = y; j < y + MIN; j++)

  00050	8b 45 c8	 mov	 eax, DWORD PTR _y$[ebp]
  00053	89 45 e0	 mov	 DWORD PTR _j$[ebp], eax
  00056	eb 07		 jmp	 SHORT $LN4@Trans_sub_
$LN2@Trans_sub_:
  00058	8b 45 e0	 mov	 eax, DWORD PTR _j$[ebp]
  0005b	40		 inc	 eax
  0005c	89 45 e0	 mov	 DWORD PTR _j$[ebp], eax
$LN4@Trans_sub_:
  0005f	8b 45 c8	 mov	 eax, DWORD PTR _y$[ebp]
  00062	83 c0 03	 add	 eax, 3
  00065	39 45 e0	 cmp	 DWORD PTR _j$[ebp], eax
  00068	7d 3b		 jge	 SHORT $LN1@Trans_sub_

; 563  : 	{
; 564  : 
; 565  : 		for (i = x; i < x + MIN; i++)

  0006a	8b 45 d4	 mov	 eax, DWORD PTR _x$[ebp]
  0006d	89 45 ec	 mov	 DWORD PTR _i$[ebp], eax
  00070	eb 07		 jmp	 SHORT $LN7@Trans_sub_
$LN5@Trans_sub_:
  00072	8b 45 ec	 mov	 eax, DWORD PTR _i$[ebp]
  00075	40		 inc	 eax
  00076	89 45 ec	 mov	 DWORD PTR _i$[ebp], eax
$LN7@Trans_sub_:
  00079	8b 45 d4	 mov	 eax, DWORD PTR _x$[ebp]
  0007c	83 c0 03	 add	 eax, 3
  0007f	39 45 ec	 cmp	 DWORD PTR _i$[ebp], eax
  00082	7d 1f		 jge	 SHORT $LN6@Trans_sub_

; 566  : 		{
; 567  : 
; 568  : 			buffer[z++] = grid[j][i];

  00084	6b 45 e0 24	 imul	 eax, DWORD PTR _j$[ebp], 36
  00088	8b 4d 08	 mov	 ecx, DWORD PTR _buffer$[ebp]
  0008b	03 4d bc	 add	 ecx, DWORD PTR _z$[ebp]
  0008e	8b 55 ec	 mov	 edx, DWORD PTR _i$[ebp]
  00091	8a 84 90 00 00
	00 00		 mov	 al, BYTE PTR ?grid@@3PAY08HA[eax+edx*4]
  00098	88 01		 mov	 BYTE PTR [ecx], al
  0009a	8b 45 bc	 mov	 eax, DWORD PTR _z$[ebp]
  0009d	40		 inc	 eax
  0009e	89 45 bc	 mov	 DWORD PTR _z$[ebp], eax

; 569  : 
; 570  : 		}/* end for i */

  000a1	eb cf		 jmp	 SHORT $LN5@Trans_sub_
$LN6@Trans_sub_:

; 571  : 
; 572  : 	}/* end for j */

  000a3	eb b3		 jmp	 SHORT $LN2@Trans_sub_
$LN1@Trans_sub_:

; 573  : }

  000a5	5f		 pop	 edi
  000a6	5e		 pop	 esi
  000a7	5b		 pop	 ebx
  000a8	81 c4 08 01 00
	00		 add	 esp, 264		; 00000108H
  000ae	3b ec		 cmp	 ebp, esp
  000b0	e8 00 00 00 00	 call	 __RTC_CheckEsp
  000b5	c9		 leave
  000b6	c2 08 00	 ret	 8
?Trans_sub_square@Solution@@AAEXQADH@Z ENDP		; Solution::Trans_sub_square
_TEXT	ENDS
; Function compile flags: /Odsp /RTCsu /ZI
; File J:\work\SUDOKU\SUDOKU\SUDOKU\Solution.cpp
;	COMDAT ?Check_input_a_sub_square@Solution@@AAEHH@Z
_TEXT	SEGMENT
$T2 = -292						; size = 4
_chaine$3 = -88						; size = 4
_j$ = -76						; size = 4
_i$ = -64						; size = 4
_buffer$ = -52						; size = 19
_this$ = -24						; size = 4
__$ArrayPad$ = -16					; size = 4
__$EHRec$ = -12						; size = 12
_sub_square$ = 8					; size = 4
?Check_input_a_sub_square@Solution@@AAEHH@Z PROC	; Solution::Check_input_a_sub_square, COMDAT
; _this$ = ecx

; 526  : {

  00000	55		 push	 ebp
  00001	8b ec		 mov	 ebp, esp
  00003	6a ff		 push	 -1
  00005	68 00 00 00 00	 push	 __ehhandler$?Check_input_a_sub_square@Solution@@AAEHH@Z
  0000a	64 a1 00 00 00
	00		 mov	 eax, DWORD PTR fs:0
  00010	50		 push	 eax
  00011	81 ec 1c 01 00
	00		 sub	 esp, 284		; 0000011cH
  00017	53		 push	 ebx
  00018	56		 push	 esi
  00019	57		 push	 edi
  0001a	51		 push	 ecx
  0001b	8d 7d 98	 lea	 edi, DWORD PTR [ebp-104]
  0001e	6a 17		 push	 23			; 00000017H
  00020	59		 pop	 ecx
  00021	b8 cc cc cc cc	 mov	 eax, -858993460		; ccccccccH
  00026	f3 ab		 rep stosd
  00028	59		 pop	 ecx
  00029	a1 00 00 00 00	 mov	 eax, DWORD PTR ___security_cookie
  0002e	33 c5		 xor	 eax, ebp
  00030	89 45 f0	 mov	 DWORD PTR __$ArrayPad$[ebp], eax
  00033	50		 push	 eax
  00034	8d 45 f4	 lea	 eax, DWORD PTR __$EHRec$[ebp]
  00037	64 a3 00 00 00
	00		 mov	 DWORD PTR fs:0, eax
  0003d	89 4d e8	 mov	 DWORD PTR _this$[ebp], ecx
  00040	b9 00 00 00 00	 mov	 ecx, OFFSET __CBE53D1F_Solution@cpp
  00045	e8 00 00 00 00	 call	 @__CheckForDebuggerJustMyCode@4

; 527  : 	/* Checks if no duplicate into the sub-square of 3 x 3. */
; 528  : 	char buffer[MAX + 10];
; 529  : 	int i, j;
; 530  : 
; 531  : 	Trans_sub_square(buffer, sub_square);

  0004a	ff 75 08	 push	 DWORD PTR _sub_square$[ebp]
  0004d	8d 45 cc	 lea	 eax, DWORD PTR _buffer$[ebp]
  00050	50		 push	 eax
  00051	8b 4d e8	 mov	 ecx, DWORD PTR _this$[ebp]
  00054	e8 00 00 00 00	 call	 ?Trans_sub_square@Solution@@AAEXQADH@Z ; Solution::Trans_sub_square

; 532  : 
; 533  : 	for (i = 0; i < MAX - 1; i++)

  00059	83 65 c0 00	 and	 DWORD PTR _i$[ebp], 0
  0005d	eb 07		 jmp	 SHORT $LN4@Check_inpu
$LN2@Check_inpu:
  0005f	8b 45 c0	 mov	 eax, DWORD PTR _i$[ebp]
  00062	40		 inc	 eax
  00063	89 45 c0	 mov	 DWORD PTR _i$[ebp], eax
$LN4@Check_inpu:
  00066	83 7d c0 08	 cmp	 DWORD PTR _i$[ebp], 8
  0006a	0f 8d 98 00 00
	00		 jge	 $LN3@Check_inpu

; 534  : 	{
; 535  : 		if (buffer[i] == 0) continue;

  00070	8b 45 c0	 mov	 eax, DWORD PTR _i$[ebp]
  00073	0f be 44 05 cc	 movsx	 eax, BYTE PTR _buffer$[ebp+eax]
  00078	85 c0		 test	 eax, eax
  0007a	75 02		 jne	 SHORT $LN8@Check_inpu
  0007c	eb e1		 jmp	 SHORT $LN2@Check_inpu
$LN8@Check_inpu:

; 536  : 
; 537  : 		for (j = i + 1; j < MAX; j++)

  0007e	8b 45 c0	 mov	 eax, DWORD PTR _i$[ebp]
  00081	40		 inc	 eax
  00082	89 45 b4	 mov	 DWORD PTR _j$[ebp], eax
  00085	eb 07		 jmp	 SHORT $LN7@Check_inpu
$LN5@Check_inpu:
  00087	8b 45 b4	 mov	 eax, DWORD PTR _j$[ebp]
  0008a	40		 inc	 eax
  0008b	89 45 b4	 mov	 DWORD PTR _j$[ebp], eax
$LN7@Check_inpu:
  0008e	83 7d b4 09	 cmp	 DWORD PTR _j$[ebp], 9
  00092	7d 6f		 jge	 SHORT $LN6@Check_inpu

; 538  : 		{
; 539  : 			if (buffer[i] == buffer[j])

  00094	8b 45 c0	 mov	 eax, DWORD PTR _i$[ebp]
  00097	0f be 44 05 cc	 movsx	 eax, BYTE PTR _buffer$[ebp+eax]
  0009c	8b 4d b4	 mov	 ecx, DWORD PTR _j$[ebp]
  0009f	0f be 4c 0d cc	 movsx	 ecx, BYTE PTR _buffer$[ebp+ecx]
  000a4	3b c1		 cmp	 eax, ecx
  000a6	75 59		 jne	 SHORT $LN9@Check_inpu

; 540  : 			{
; 541  : 				CString chaine;

  000a8	6a 04		 push	 4
  000aa	8d 4d a8	 lea	 ecx, DWORD PTR _chaine$3[ebp]
  000ad	e8 00 00 00 00	 call	 ?__autoclassinit2@?$CStringT@_WV?$StrTraitMFC@_WV?$ChTraitsCRT@_W@ATL@@@@@ATL@@QAEXI@Z
  000b2	8d 4d a8	 lea	 ecx, DWORD PTR _chaine$3[ebp]
  000b5	e8 00 00 00 00	 call	 ??0?$CStringT@_WV?$StrTraitMFC@_WV?$ChTraitsCRT@_W@ATL@@@@@ATL@@QAE@XZ ; ATL::CStringT<wchar_t,StrTraitMFC<wchar_t,ATL::ChTraitsCRT<wchar_t> > >::CStringT<wchar_t,StrTraitMFC<wchar_t,ATL::ChTraitsCRT<wchar_t> > >
  000ba	83 65 fc 00	 and	 DWORD PTR __$EHRec$[ebp+8], 0

; 542  : 				chaine.Format(_T("Erreur sous carr %d: nombre egaux"), sub_square + 1);

  000be	8b 45 08	 mov	 eax, DWORD PTR _sub_square$[ebp]
  000c1	40		 inc	 eax
  000c2	50		 push	 eax
  000c3	68 00 00 00 00	 push	 OFFSET ??_C@_1EG@ECKKEMMN@?$AAE?$AAr?$AAr?$AAe?$AAu?$AAr?$AA?5?$AAs?$AAo?$AAu?$AAs?$AA?5?$AAc?$AAa?$AAr@
  000c8	8d 45 a8	 lea	 eax, DWORD PTR _chaine$3[ebp]
  000cb	50		 push	 eax
  000cc	e8 00 00 00 00	 call	 ?Format@?$CStringT@_WV?$StrTraitMFC@_WV?$ChTraitsCRT@_W@ATL@@@@@ATL@@QAAXPB_WZZ ; ATL::CStringT<wchar_t,StrTraitMFC<wchar_t,ATL::ChTraitsCRT<wchar_t> > >::Format
  000d1	83 c4 0c	 add	 esp, 12			; 0000000cH

; 543  : 				AfxMessageBox(chaine, MB_OK);

  000d4	6a 00		 push	 0
  000d6	6a 00		 push	 0
  000d8	8d 4d a8	 lea	 ecx, DWORD PTR _chaine$3[ebp]
  000db	e8 00 00 00 00	 call	 ??B?$CSimpleStringT@_W$0A@@ATL@@QBEPB_WXZ ; ATL::CSimpleStringT<wchar_t,0>::operator wchar_t const *
  000e0	50		 push	 eax
  000e1	e8 00 00 00 00	 call	 ?AfxMessageBox@@YGHPB_WII@Z ; AfxMessageBox

; 544  : 				return FALSE;

  000e6	83 a5 dc fe ff
	ff 00		 and	 DWORD PTR $T2[ebp], 0
  000ed	83 4d fc ff	 or	 DWORD PTR __$EHRec$[ebp+8], -1
  000f1	8d 4d a8	 lea	 ecx, DWORD PTR _chaine$3[ebp]
  000f4	e8 00 00 00 00	 call	 ??1?$CStringT@_WV?$StrTraitMFC@_WV?$ChTraitsCRT@_W@ATL@@@@@ATL@@QAE@XZ ; ATL::CStringT<wchar_t,StrTraitMFC<wchar_t,ATL::ChTraitsCRT<wchar_t> > >::~CStringT<wchar_t,StrTraitMFC<wchar_t,ATL::ChTraitsCRT<wchar_t> > >
  000f9	8b 85 dc fe ff
	ff		 mov	 eax, DWORD PTR $T2[ebp]
  000ff	eb 0a		 jmp	 SHORT $LN1@Check_inpu
$LN9@Check_inpu:

; 545  : 
; 546  : 			}/* end if */
; 547  : 		}/* end for j */

  00101	eb 84		 jmp	 SHORT $LN5@Check_inpu
$LN6@Check_inpu:

; 548  : 	}/* end for i */

  00103	e9 57 ff ff ff	 jmp	 $LN2@Check_inpu
$LN3@Check_inpu:

; 549  : 
; 550  : 	return TRUE;

  00108	33 c0		 xor	 eax, eax
  0010a	40		 inc	 eax
$LN1@Check_inpu:

; 551  : }

  0010b	52		 push	 edx
  0010c	8b cd		 mov	 ecx, ebp
  0010e	50		 push	 eax
  0010f	8d 15 00 00 00
	00		 lea	 edx, DWORD PTR $LN16@Check_inpu
  00115	e8 00 00 00 00	 call	 @_RTC_CheckStackVars@8
  0011a	58		 pop	 eax
  0011b	5a		 pop	 edx
  0011c	8b 4d f4	 mov	 ecx, DWORD PTR __$EHRec$[ebp]
  0011f	64 89 0d 00 00
	00 00		 mov	 DWORD PTR fs:0, ecx
  00126	59		 pop	 ecx
  00127	5f		 pop	 edi
  00128	5e		 pop	 esi
  00129	5b		 pop	 ebx
  0012a	8b 4d f0	 mov	 ecx, DWORD PTR __$ArrayPad$[ebp]
  0012d	33 cd		 xor	 ecx, ebp
  0012f	e8 00 00 00 00	 call	 @__security_check_cookie@4
  00134	81 c4 28 01 00
	00		 add	 esp, 296		; 00000128H
  0013a	3b ec		 cmp	 ebp, esp
  0013c	e8 00 00 00 00	 call	 __RTC_CheckEsp
  00141	c9		 leave
  00142	c2 04 00	 ret	 4
  00145	0f 1f 00	 npad	 3
$LN16@Check_inpu:
  00148	02 00 00 00	 DD	 2
  0014c	00 00 00 00	 DD	 $LN15@Check_inpu
$LN15@Check_inpu:
  00150	cc ff ff ff	 DD	 -52			; ffffffccH
  00154	13 00 00 00	 DD	 19			; 00000013H
  00158	00 00 00 00	 DD	 $LN12@Check_inpu
  0015c	a8 ff ff ff	 DD	 -88			; ffffffa8H
  00160	04 00 00 00	 DD	 4
  00164	00 00 00 00	 DD	 $LN13@Check_inpu
$LN13@Check_inpu:
  00168	63		 DB	 99			; 00000063H
  00169	68		 DB	 104			; 00000068H
  0016a	61		 DB	 97			; 00000061H
  0016b	69		 DB	 105			; 00000069H
  0016c	6e		 DB	 110			; 0000006eH
  0016d	65		 DB	 101			; 00000065H
  0016e	00		 DB	 0
$LN12@Check_inpu:
  0016f	62		 DB	 98			; 00000062H
  00170	75		 DB	 117			; 00000075H
  00171	66		 DB	 102			; 00000066H
  00172	66		 DB	 102			; 00000066H
  00173	65		 DB	 101			; 00000065H
  00174	72		 DB	 114			; 00000072H
  00175	00		 DB	 0
_TEXT	ENDS
;	COMDAT text$x
text$x	SEGMENT
__unwindfunclet$?Check_input_a_sub_square@Solution@@AAEHH@Z$0:
  00000	8d 4d a8	 lea	 ecx, DWORD PTR _chaine$3[ebp]
  00003	e9 00 00 00 00	 jmp	 ??1?$CStringT@_WV?$StrTraitMFC@_WV?$ChTraitsCRT@_W@ATL@@@@@ATL@@QAE@XZ ; ATL::CStringT<wchar_t,StrTraitMFC<wchar_t,ATL::ChTraitsCRT<wchar_t> > >::~CStringT<wchar_t,StrTraitMFC<wchar_t,ATL::ChTraitsCRT<wchar_t> > >
  00008	cc		 int	 3
  00009	cc		 int	 3
  0000a	cc		 int	 3
  0000b	cc		 int	 3
  0000c	cc		 int	 3
__ehhandler$?Check_input_a_sub_square@Solution@@AAEHH@Z:
  0000d	90		 npad	 1
  0000e	90		 npad	 1
  0000f	8b 54 24 08	 mov	 edx, DWORD PTR [esp+8]
  00013	8d 42 0c	 lea	 eax, DWORD PTR [edx+12]
  00016	8b 8a d4 fe ff
	ff		 mov	 ecx, DWORD PTR [edx-300]
  0001c	33 c8		 xor	 ecx, eax
  0001e	e8 00 00 00 00	 call	 @__security_check_cookie@4
  00023	8b 4a fc	 mov	 ecx, DWORD PTR [edx-4]
  00026	33 c8		 xor	 ecx, eax
  00028	e8 00 00 00 00	 call	 @__security_check_cookie@4
  0002d	b8 00 00 00 00	 mov	 eax, OFFSET __ehfuncinfo$?Check_input_a_sub_square@Solution@@AAEHH@Z
  00032	e9 00 00 00 00	 jmp	 ___CxxFrameHandler3
text$x	ENDS
?Check_input_a_sub_square@Solution@@AAEHH@Z ENDP	; Solution::Check_input_a_sub_square
; Function compile flags: /Odsp /RTCsu /ZI
; File J:\work\SUDOKU\SUDOKU\SUDOKU\Solution.cpp
;	COMDAT ?Check_input_sub_squares@Solution@@AAEHXZ
_TEXT	SEGMENT
_result$ = -32						; size = 4
_sub_square$ = -20					; size = 4
_this$ = -8						; size = 4
?Check_input_sub_squares@Solution@@AAEHXZ PROC		; Solution::Check_input_sub_squares, COMDAT
; _this$ = ecx

; 508  : {

  00000	55		 push	 ebp
  00001	8b ec		 mov	 ebp, esp
  00003	81 ec e4 00 00
	00		 sub	 esp, 228		; 000000e4H
  00009	53		 push	 ebx
  0000a	56		 push	 esi
  0000b	57		 push	 edi
  0000c	51		 push	 ecx
  0000d	8d 7d dc	 lea	 edi, DWORD PTR [ebp-36]
  00010	6a 09		 push	 9
  00012	59		 pop	 ecx
  00013	b8 cc cc cc cc	 mov	 eax, -858993460		; ccccccccH
  00018	f3 ab		 rep stosd
  0001a	59		 pop	 ecx
  0001b	89 4d f8	 mov	 DWORD PTR _this$[ebp], ecx
  0001e	b9 00 00 00 00	 mov	 ecx, OFFSET __CBE53D1F_Solution@cpp
  00023	e8 00 00 00 00	 call	 @__CheckForDebuggerJustMyCode@4

; 509  : 	/* Checks if no duplicate into the sub-squares of 3 x 3. */
; 510  : 	int sub_square;
; 511  : 	int result = TRUE;

  00028	c7 45 e0 01 00
	00 00		 mov	 DWORD PTR _result$[ebp], 1

; 512  : 
; 513  : 	for (sub_square = 0; sub_square < MAX; sub_square++)

  0002f	83 65 ec 00	 and	 DWORD PTR _sub_square$[ebp], 0
  00033	eb 07		 jmp	 SHORT $LN4@Check_inpu
$LN2@Check_inpu:
  00035	8b 45 ec	 mov	 eax, DWORD PTR _sub_square$[ebp]
  00038	40		 inc	 eax
  00039	89 45 ec	 mov	 DWORD PTR _sub_square$[ebp], eax
$LN4@Check_inpu:
  0003c	83 7d ec 09	 cmp	 DWORD PTR _sub_square$[ebp], 9
  00040	7d 17		 jge	 SHORT $LN3@Check_inpu

; 514  : 	{
; 515  : 
; 516  : 		if (!Check_input_a_sub_square(sub_square))

  00042	ff 75 ec	 push	 DWORD PTR _sub_square$[ebp]
  00045	8b 4d f8	 mov	 ecx, DWORD PTR _this$[ebp]
  00048	e8 00 00 00 00	 call	 ?Check_input_a_sub_square@Solution@@AAEHH@Z ; Solution::Check_input_a_sub_square
  0004d	85 c0		 test	 eax, eax
  0004f	75 06		 jne	 SHORT $LN5@Check_inpu

; 517  : 		{ 
; 518  : 			result = FALSE;

  00051	83 65 e0 00	 and	 DWORD PTR _result$[ebp], 0

; 519  : 			break;

  00055	eb 02		 jmp	 SHORT $LN3@Check_inpu
$LN5@Check_inpu:

; 520  : 		}
; 521  : 	}/* end for */

  00057	eb dc		 jmp	 SHORT $LN2@Check_inpu
$LN3@Check_inpu:

; 522  : 	return result;

  00059	8b 45 e0	 mov	 eax, DWORD PTR _result$[ebp]

; 523  : }

  0005c	5f		 pop	 edi
  0005d	5e		 pop	 esi
  0005e	5b		 pop	 ebx
  0005f	81 c4 e4 00 00
	00		 add	 esp, 228		; 000000e4H
  00065	3b ec		 cmp	 ebp, esp
  00067	e8 00 00 00 00	 call	 __RTC_CheckEsp
  0006c	c9		 leave
  0006d	c3		 ret	 0
?Check_input_sub_squares@Solution@@AAEHXZ ENDP		; Solution::Check_input_sub_squares
_TEXT	ENDS
; Function compile flags: /Odsp /RTCsu /ZI
; File J:\work\SUDOKU\SUDOKU\SUDOKU\Solution.cpp
;	COMDAT ?Check_input_a_column@Solution@@AAEHH@Z
_TEXT	SEGMENT
$T2 = -264						; size = 4
_chaine$3 = -60						; size = 4
_j$ = -48						; size = 4
_i$ = -36						; size = 4
_this$ = -24						; size = 4
__$ArrayPad$ = -16					; size = 4
__$EHRec$ = -12						; size = 12
_col$ = 8						; size = 4
?Check_input_a_column@Solution@@AAEHH@Z PROC		; Solution::Check_input_a_column, COMDAT
; _this$ = ecx

; 482  : {

  00000	55		 push	 ebp
  00001	8b ec		 mov	 ebp, esp
  00003	6a ff		 push	 -1
  00005	68 00 00 00 00	 push	 __ehhandler$?Check_input_a_column@Solution@@AAEHH@Z
  0000a	64 a1 00 00 00
	00		 mov	 eax, DWORD PTR fs:0
  00010	50		 push	 eax
  00011	81 ec 00 01 00
	00		 sub	 esp, 256		; 00000100H
  00017	53		 push	 ebx
  00018	56		 push	 esi
  00019	57		 push	 edi
  0001a	51		 push	 ecx
  0001b	8d 7d b4	 lea	 edi, DWORD PTR [ebp-76]
  0001e	6a 10		 push	 16			; 00000010H
  00020	59		 pop	 ecx
  00021	b8 cc cc cc cc	 mov	 eax, -858993460		; ccccccccH
  00026	f3 ab		 rep stosd
  00028	59		 pop	 ecx
  00029	a1 00 00 00 00	 mov	 eax, DWORD PTR ___security_cookie
  0002e	33 c5		 xor	 eax, ebp
  00030	89 45 f0	 mov	 DWORD PTR __$ArrayPad$[ebp], eax
  00033	50		 push	 eax
  00034	8d 45 f4	 lea	 eax, DWORD PTR __$EHRec$[ebp]
  00037	64 a3 00 00 00
	00		 mov	 DWORD PTR fs:0, eax
  0003d	89 4d e8	 mov	 DWORD PTR _this$[ebp], ecx
  00040	b9 00 00 00 00	 mov	 ecx, OFFSET __CBE53D1F_Solution@cpp
  00045	e8 00 00 00 00	 call	 @__CheckForDebuggerJustMyCode@4

; 483  : 	/* Checks if no duplicate into the column. */
; 484  : 	int i, j;
; 485  : 	for (i = 0; i < MAX - 1; i++)

  0004a	83 65 dc 00	 and	 DWORD PTR _i$[ebp], 0
  0004e	eb 07		 jmp	 SHORT $LN4@Check_inpu
$LN2@Check_inpu:
  00050	8b 45 dc	 mov	 eax, DWORD PTR _i$[ebp]
  00053	40		 inc	 eax
  00054	89 45 dc	 mov	 DWORD PTR _i$[ebp], eax
$LN4@Check_inpu:
  00057	83 7d dc 08	 cmp	 DWORD PTR _i$[ebp], 8
  0005b	0f 8d aa 00 00
	00		 jge	 $LN3@Check_inpu

; 486  : 	{
; 487  : 		if (grid[i][col] == 0) continue;

  00061	6b 45 dc 24	 imul	 eax, DWORD PTR _i$[ebp], 36
  00065	8b 4d 08	 mov	 ecx, DWORD PTR _col$[ebp]
  00068	83 bc 88 00 00
	00 00 00	 cmp	 DWORD PTR ?grid@@3PAY08HA[eax+ecx*4], 0
  00070	75 02		 jne	 SHORT $LN8@Check_inpu
  00072	eb dc		 jmp	 SHORT $LN2@Check_inpu
$LN8@Check_inpu:

; 488  : 
; 489  : 		for (j = i + 1; j < MAX; j++)

  00074	8b 45 dc	 mov	 eax, DWORD PTR _i$[ebp]
  00077	40		 inc	 eax
  00078	89 45 d0	 mov	 DWORD PTR _j$[ebp], eax
  0007b	eb 07		 jmp	 SHORT $LN7@Check_inpu
$LN5@Check_inpu:
  0007d	8b 45 d0	 mov	 eax, DWORD PTR _j$[ebp]
  00080	40		 inc	 eax
  00081	89 45 d0	 mov	 DWORD PTR _j$[ebp], eax
$LN7@Check_inpu:
  00084	83 7d d0 09	 cmp	 DWORD PTR _j$[ebp], 9
  00088	7d 7c		 jge	 SHORT $LN6@Check_inpu

; 490  : 		{
; 491  : 
; 492  : 			if (grid[i][col] == grid[j][col])

  0008a	6b 45 dc 24	 imul	 eax, DWORD PTR _i$[ebp], 36
  0008e	6b 4d d0 24	 imul	 ecx, DWORD PTR _j$[ebp], 36
  00092	8b 55 08	 mov	 edx, DWORD PTR _col$[ebp]
  00095	8b 75 08	 mov	 esi, DWORD PTR _col$[ebp]
  00098	8b 84 90 00 00
	00 00		 mov	 eax, DWORD PTR ?grid@@3PAY08HA[eax+edx*4]
  0009f	3b 84 b1 00 00
	00 00		 cmp	 eax, DWORD PTR ?grid@@3PAY08HA[ecx+esi*4]
  000a6	75 59		 jne	 SHORT $LN9@Check_inpu

; 493  : 			{
; 494  : 
; 495  : 				CString chaine;

  000a8	6a 04		 push	 4
  000aa	8d 4d c4	 lea	 ecx, DWORD PTR _chaine$3[ebp]
  000ad	e8 00 00 00 00	 call	 ?__autoclassinit2@?$CStringT@_WV?$StrTraitMFC@_WV?$ChTraitsCRT@_W@ATL@@@@@ATL@@QAEXI@Z
  000b2	8d 4d c4	 lea	 ecx, DWORD PTR _chaine$3[ebp]
  000b5	e8 00 00 00 00	 call	 ??0?$CStringT@_WV?$StrTraitMFC@_WV?$ChTraitsCRT@_W@ATL@@@@@ATL@@QAE@XZ ; ATL::CStringT<wchar_t,StrTraitMFC<wchar_t,ATL::ChTraitsCRT<wchar_t> > >::CStringT<wchar_t,StrTraitMFC<wchar_t,ATL::ChTraitsCRT<wchar_t> > >
  000ba	83 65 fc 00	 and	 DWORD PTR __$EHRec$[ebp+8], 0

; 496  : 				chaine.Format(_T("Erreur colonne %d: nombre egaux"),col + 1);

  000be	8b 45 08	 mov	 eax, DWORD PTR _col$[ebp]
  000c1	40		 inc	 eax
  000c2	50		 push	 eax
  000c3	68 00 00 00 00	 push	 OFFSET ??_C@_1EA@OLIANHL@?$AAE?$AAr?$AAr?$AAe?$AAu?$AAr?$AA?5?$AAc?$AAo?$AAl?$AAo?$AAn?$AAn?$AAe?$AA?5@
  000c8	8d 45 c4	 lea	 eax, DWORD PTR _chaine$3[ebp]
  000cb	50		 push	 eax
  000cc	e8 00 00 00 00	 call	 ?Format@?$CStringT@_WV?$StrTraitMFC@_WV?$ChTraitsCRT@_W@ATL@@@@@ATL@@QAAXPB_WZZ ; ATL::CStringT<wchar_t,StrTraitMFC<wchar_t,ATL::ChTraitsCRT<wchar_t> > >::Format
  000d1	83 c4 0c	 add	 esp, 12			; 0000000cH

; 497  : 				AfxMessageBox(chaine, MB_OK);

  000d4	6a 00		 push	 0
  000d6	6a 00		 push	 0
  000d8	8d 4d c4	 lea	 ecx, DWORD PTR _chaine$3[ebp]
  000db	e8 00 00 00 00	 call	 ??B?$CSimpleStringT@_W$0A@@ATL@@QBEPB_WXZ ; ATL::CSimpleStringT<wchar_t,0>::operator wchar_t const *
  000e0	50		 push	 eax
  000e1	e8 00 00 00 00	 call	 ?AfxMessageBox@@YGHPB_WII@Z ; AfxMessageBox

; 498  : 				return FALSE;

  000e6	83 a5 f8 fe ff
	ff 00		 and	 DWORD PTR $T2[ebp], 0
  000ed	83 4d fc ff	 or	 DWORD PTR __$EHRec$[ebp+8], -1
  000f1	8d 4d c4	 lea	 ecx, DWORD PTR _chaine$3[ebp]
  000f4	e8 00 00 00 00	 call	 ??1?$CStringT@_WV?$StrTraitMFC@_WV?$ChTraitsCRT@_W@ATL@@@@@ATL@@QAE@XZ ; ATL::CStringT<wchar_t,StrTraitMFC<wchar_t,ATL::ChTraitsCRT<wchar_t> > >::~CStringT<wchar_t,StrTraitMFC<wchar_t,ATL::ChTraitsCRT<wchar_t> > >
  000f9	8b 85 f8 fe ff
	ff		 mov	 eax, DWORD PTR $T2[ebp]
  000ff	eb 0d		 jmp	 SHORT $LN1@Check_inpu
$LN9@Check_inpu:

; 499  : 
; 500  : 			}/* end if */
; 501  : 		}/* end for j */

  00101	e9 77 ff ff ff	 jmp	 $LN5@Check_inpu
$LN6@Check_inpu:

; 502  : 	}/* end for i */

  00106	e9 45 ff ff ff	 jmp	 $LN2@Check_inpu
$LN3@Check_inpu:

; 503  : 
; 504  : 	return TRUE;

  0010b	33 c0		 xor	 eax, eax
  0010d	40		 inc	 eax
$LN1@Check_inpu:

; 505  : }

  0010e	52		 push	 edx
  0010f	8b cd		 mov	 ecx, ebp
  00111	50		 push	 eax
  00112	8d 15 00 00 00
	00		 lea	 edx, DWORD PTR $LN15@Check_inpu
  00118	e8 00 00 00 00	 call	 @_RTC_CheckStackVars@8
  0011d	58		 pop	 eax
  0011e	5a		 pop	 edx
  0011f	8b 4d f4	 mov	 ecx, DWORD PTR __$EHRec$[ebp]
  00122	64 89 0d 00 00
	00 00		 mov	 DWORD PTR fs:0, ecx
  00129	59		 pop	 ecx
  0012a	5f		 pop	 edi
  0012b	5e		 pop	 esi
  0012c	5b		 pop	 ebx
  0012d	8b 4d f0	 mov	 ecx, DWORD PTR __$ArrayPad$[ebp]
  00130	33 cd		 xor	 ecx, ebp
  00132	e8 00 00 00 00	 call	 @__security_check_cookie@4
  00137	81 c4 0c 01 00
	00		 add	 esp, 268		; 0000010cH
  0013d	3b ec		 cmp	 ebp, esp
  0013f	e8 00 00 00 00	 call	 __RTC_CheckEsp
  00144	c9		 leave
  00145	c2 04 00	 ret	 4
$LN15@Check_inpu:
  00148	01 00 00 00	 DD	 1
  0014c	00 00 00 00	 DD	 $LN14@Check_inpu
$LN14@Check_inpu:
  00150	c4 ff ff ff	 DD	 -60			; ffffffc4H
  00154	04 00 00 00	 DD	 4
  00158	00 00 00 00	 DD	 $LN12@Check_inpu
$LN12@Check_inpu:
  0015c	63		 DB	 99			; 00000063H
  0015d	68		 DB	 104			; 00000068H
  0015e	61		 DB	 97			; 00000061H
  0015f	69		 DB	 105			; 00000069H
  00160	6e		 DB	 110			; 0000006eH
  00161	65		 DB	 101			; 00000065H
  00162	00		 DB	 0
_TEXT	ENDS
;	COMDAT text$x
text$x	SEGMENT
__unwindfunclet$?Check_input_a_column@Solution@@AAEHH@Z$0:
  00000	8d 4d c4	 lea	 ecx, DWORD PTR _chaine$3[ebp]
  00003	e9 00 00 00 00	 jmp	 ??1?$CStringT@_WV?$StrTraitMFC@_WV?$ChTraitsCRT@_W@ATL@@@@@ATL@@QAE@XZ ; ATL::CStringT<wchar_t,StrTraitMFC<wchar_t,ATL::ChTraitsCRT<wchar_t> > >::~CStringT<wchar_t,StrTraitMFC<wchar_t,ATL::ChTraitsCRT<wchar_t> > >
  00008	cc		 int	 3
  00009	cc		 int	 3
  0000a	cc		 int	 3
  0000b	cc		 int	 3
  0000c	cc		 int	 3
__ehhandler$?Check_input_a_column@Solution@@AAEHH@Z:
  0000d	90		 npad	 1
  0000e	90		 npad	 1
  0000f	8b 54 24 08	 mov	 edx, DWORD PTR [esp+8]
  00013	8d 42 0c	 lea	 eax, DWORD PTR [edx+12]
  00016	8b 8a f0 fe ff
	ff		 mov	 ecx, DWORD PTR [edx-272]
  0001c	33 c8		 xor	 ecx, eax
  0001e	e8 00 00 00 00	 call	 @__security_check_cookie@4
  00023	8b 4a fc	 mov	 ecx, DWORD PTR [edx-4]
  00026	33 c8		 xor	 ecx, eax
  00028	e8 00 00 00 00	 call	 @__security_check_cookie@4
  0002d	b8 00 00 00 00	 mov	 eax, OFFSET __ehfuncinfo$?Check_input_a_column@Solution@@AAEHH@Z
  00032	e9 00 00 00 00	 jmp	 ___CxxFrameHandler3
text$x	ENDS
?Check_input_a_column@Solution@@AAEHH@Z ENDP		; Solution::Check_input_a_column
; Function compile flags: /Odsp /RTCsu /ZI
; File J:\work\SUDOKU\SUDOKU\SUDOKU\Solution.cpp
;	COMDAT ?Check_input_columns@Solution@@AAEHXZ
_TEXT	SEGMENT
_result$ = -32						; size = 4
_col$ = -20						; size = 4
_this$ = -8						; size = 4
?Check_input_columns@Solution@@AAEHXZ PROC		; Solution::Check_input_columns, COMDAT
; _this$ = ecx

; 462  : {

  00000	55		 push	 ebp
  00001	8b ec		 mov	 ebp, esp
  00003	81 ec e4 00 00
	00		 sub	 esp, 228		; 000000e4H
  00009	53		 push	 ebx
  0000a	56		 push	 esi
  0000b	57		 push	 edi
  0000c	51		 push	 ecx
  0000d	8d 7d dc	 lea	 edi, DWORD PTR [ebp-36]
  00010	6a 09		 push	 9
  00012	59		 pop	 ecx
  00013	b8 cc cc cc cc	 mov	 eax, -858993460		; ccccccccH
  00018	f3 ab		 rep stosd
  0001a	59		 pop	 ecx
  0001b	89 4d f8	 mov	 DWORD PTR _this$[ebp], ecx
  0001e	b9 00 00 00 00	 mov	 ecx, OFFSET __CBE53D1F_Solution@cpp
  00023	e8 00 00 00 00	 call	 @__CheckForDebuggerJustMyCode@4

; 463  : 	/* Checks if no duplicate into the columns. */
; 464  : 	int col;
; 465  : 	int result = TRUE;

  00028	c7 45 e0 01 00
	00 00		 mov	 DWORD PTR _result$[ebp], 1

; 466  : 
; 467  : 	for (col = 0; col < MAX; col++)

  0002f	83 65 ec 00	 and	 DWORD PTR _col$[ebp], 0
  00033	eb 07		 jmp	 SHORT $LN4@Check_inpu
$LN2@Check_inpu:
  00035	8b 45 ec	 mov	 eax, DWORD PTR _col$[ebp]
  00038	40		 inc	 eax
  00039	89 45 ec	 mov	 DWORD PTR _col$[ebp], eax
$LN4@Check_inpu:
  0003c	83 7d ec 09	 cmp	 DWORD PTR _col$[ebp], 9
  00040	7d 17		 jge	 SHORT $LN3@Check_inpu

; 468  : 	{
; 469  : 
; 470  : 		if (!Check_input_a_column(col))

  00042	ff 75 ec	 push	 DWORD PTR _col$[ebp]
  00045	8b 4d f8	 mov	 ecx, DWORD PTR _this$[ebp]
  00048	e8 00 00 00 00	 call	 ?Check_input_a_column@Solution@@AAEHH@Z ; Solution::Check_input_a_column
  0004d	85 c0		 test	 eax, eax
  0004f	75 06		 jne	 SHORT $LN5@Check_inpu

; 471  : 		{
; 472  : 			result = FALSE;

  00051	83 65 e0 00	 and	 DWORD PTR _result$[ebp], 0

; 473  : 			break;

  00055	eb 02		 jmp	 SHORT $LN3@Check_inpu
$LN5@Check_inpu:

; 474  : 		}
; 475  : 
; 476  : 	}/* end for */

  00057	eb dc		 jmp	 SHORT $LN2@Check_inpu
$LN3@Check_inpu:

; 477  : 
; 478  : 	return result;

  00059	8b 45 e0	 mov	 eax, DWORD PTR _result$[ebp]

; 479  : }

  0005c	5f		 pop	 edi
  0005d	5e		 pop	 esi
  0005e	5b		 pop	 ebx
  0005f	81 c4 e4 00 00
	00		 add	 esp, 228		; 000000e4H
  00065	3b ec		 cmp	 ebp, esp
  00067	e8 00 00 00 00	 call	 __RTC_CheckEsp
  0006c	c9		 leave
  0006d	c3		 ret	 0
?Check_input_columns@Solution@@AAEHXZ ENDP		; Solution::Check_input_columns
_TEXT	ENDS
; Function compile flags: /Odsp /RTCsu /ZI
; File J:\work\SUDOKU\SUDOKU\SUDOKU\Solution.cpp
;	COMDAT ?Check_input_a_row@Solution@@AAEHH@Z
_TEXT	SEGMENT
$T2 = -264						; size = 4
_chaine$3 = -60						; size = 4
_j$ = -48						; size = 4
_i$ = -36						; size = 4
_this$ = -24						; size = 4
__$ArrayPad$ = -16					; size = 4
__$EHRec$ = -12						; size = 12
_row$ = 8						; size = 4
?Check_input_a_row@Solution@@AAEHH@Z PROC		; Solution::Check_input_a_row, COMDAT
; _this$ = ecx

; 438  : {

  00000	55		 push	 ebp
  00001	8b ec		 mov	 ebp, esp
  00003	6a ff		 push	 -1
  00005	68 00 00 00 00	 push	 __ehhandler$?Check_input_a_row@Solution@@AAEHH@Z
  0000a	64 a1 00 00 00
	00		 mov	 eax, DWORD PTR fs:0
  00010	50		 push	 eax
  00011	81 ec 00 01 00
	00		 sub	 esp, 256		; 00000100H
  00017	53		 push	 ebx
  00018	56		 push	 esi
  00019	57		 push	 edi
  0001a	51		 push	 ecx
  0001b	8d 7d b4	 lea	 edi, DWORD PTR [ebp-76]
  0001e	6a 10		 push	 16			; 00000010H
  00020	59		 pop	 ecx
  00021	b8 cc cc cc cc	 mov	 eax, -858993460		; ccccccccH
  00026	f3 ab		 rep stosd
  00028	59		 pop	 ecx
  00029	a1 00 00 00 00	 mov	 eax, DWORD PTR ___security_cookie
  0002e	33 c5		 xor	 eax, ebp
  00030	89 45 f0	 mov	 DWORD PTR __$ArrayPad$[ebp], eax
  00033	50		 push	 eax
  00034	8d 45 f4	 lea	 eax, DWORD PTR __$EHRec$[ebp]
  00037	64 a3 00 00 00
	00		 mov	 DWORD PTR fs:0, eax
  0003d	89 4d e8	 mov	 DWORD PTR _this$[ebp], ecx
  00040	b9 00 00 00 00	 mov	 ecx, OFFSET __CBE53D1F_Solution@cpp
  00045	e8 00 00 00 00	 call	 @__CheckForDebuggerJustMyCode@4

; 439  : 	/* Checks if no duplicate into the row. */
; 440  : 	int i, j;
; 441  : 
; 442  : 	for (i = 0; i < MAX - 1; i++)

  0004a	83 65 dc 00	 and	 DWORD PTR _i$[ebp], 0
  0004e	eb 07		 jmp	 SHORT $LN4@Check_inpu
$LN2@Check_inpu:
  00050	8b 45 dc	 mov	 eax, DWORD PTR _i$[ebp]
  00053	40		 inc	 eax
  00054	89 45 dc	 mov	 DWORD PTR _i$[ebp], eax
$LN4@Check_inpu:
  00057	83 7d dc 08	 cmp	 DWORD PTR _i$[ebp], 8
  0005b	0f 8d aa 00 00
	00		 jge	 $LN3@Check_inpu

; 443  : 	{
; 444  : 		if (grid[row][i] == 0) continue;

  00061	6b 45 08 24	 imul	 eax, DWORD PTR _row$[ebp], 36
  00065	8b 4d dc	 mov	 ecx, DWORD PTR _i$[ebp]
  00068	83 bc 88 00 00
	00 00 00	 cmp	 DWORD PTR ?grid@@3PAY08HA[eax+ecx*4], 0
  00070	75 02		 jne	 SHORT $LN8@Check_inpu
  00072	eb dc		 jmp	 SHORT $LN2@Check_inpu
$LN8@Check_inpu:

; 445  : 		for (j = i + 1; j < MAX; j++) {

  00074	8b 45 dc	 mov	 eax, DWORD PTR _i$[ebp]
  00077	40		 inc	 eax
  00078	89 45 d0	 mov	 DWORD PTR _j$[ebp], eax
  0007b	eb 07		 jmp	 SHORT $LN7@Check_inpu
$LN5@Check_inpu:
  0007d	8b 45 d0	 mov	 eax, DWORD PTR _j$[ebp]
  00080	40		 inc	 eax
  00081	89 45 d0	 mov	 DWORD PTR _j$[ebp], eax
$LN7@Check_inpu:
  00084	83 7d d0 09	 cmp	 DWORD PTR _j$[ebp], 9
  00088	7d 7c		 jge	 SHORT $LN6@Check_inpu

; 446  : 			if (grid[row][i] == grid[row][j])

  0008a	6b 45 08 24	 imul	 eax, DWORD PTR _row$[ebp], 36
  0008e	6b 4d 08 24	 imul	 ecx, DWORD PTR _row$[ebp], 36
  00092	8b 55 dc	 mov	 edx, DWORD PTR _i$[ebp]
  00095	8b 75 d0	 mov	 esi, DWORD PTR _j$[ebp]
  00098	8b 84 90 00 00
	00 00		 mov	 eax, DWORD PTR ?grid@@3PAY08HA[eax+edx*4]
  0009f	3b 84 b1 00 00
	00 00		 cmp	 eax, DWORD PTR ?grid@@3PAY08HA[ecx+esi*4]
  000a6	75 59		 jne	 SHORT $LN9@Check_inpu

; 447  : 			{
; 448  : 
; 449  : 				CString chaine;

  000a8	6a 04		 push	 4
  000aa	8d 4d c4	 lea	 ecx, DWORD PTR _chaine$3[ebp]
  000ad	e8 00 00 00 00	 call	 ?__autoclassinit2@?$CStringT@_WV?$StrTraitMFC@_WV?$ChTraitsCRT@_W@ATL@@@@@ATL@@QAEXI@Z
  000b2	8d 4d c4	 lea	 ecx, DWORD PTR _chaine$3[ebp]
  000b5	e8 00 00 00 00	 call	 ??0?$CStringT@_WV?$StrTraitMFC@_WV?$ChTraitsCRT@_W@ATL@@@@@ATL@@QAE@XZ ; ATL::CStringT<wchar_t,StrTraitMFC<wchar_t,ATL::ChTraitsCRT<wchar_t> > >::CStringT<wchar_t,StrTraitMFC<wchar_t,ATL::ChTraitsCRT<wchar_t> > >
  000ba	83 65 fc 00	 and	 DWORD PTR __$EHRec$[ebp+8], 0

; 450  : 				chaine.Format(_T("Erreur ligne %d: nombre egaux"), row + 1);

  000be	8b 45 08	 mov	 eax, DWORD PTR _row$[ebp]
  000c1	40		 inc	 eax
  000c2	50		 push	 eax
  000c3	68 00 00 00 00	 push	 OFFSET ??_C@_1DM@DDLFPJCI@?$AAE?$AAr?$AAr?$AAe?$AAu?$AAr?$AA?5?$AAl?$AAi?$AAg?$AAn?$AAe?$AA?5?$AA?$CF?$AAd@
  000c8	8d 45 c4	 lea	 eax, DWORD PTR _chaine$3[ebp]
  000cb	50		 push	 eax
  000cc	e8 00 00 00 00	 call	 ?Format@?$CStringT@_WV?$StrTraitMFC@_WV?$ChTraitsCRT@_W@ATL@@@@@ATL@@QAAXPB_WZZ ; ATL::CStringT<wchar_t,StrTraitMFC<wchar_t,ATL::ChTraitsCRT<wchar_t> > >::Format
  000d1	83 c4 0c	 add	 esp, 12			; 0000000cH

; 451  : 				AfxMessageBox(chaine,MB_OK);

  000d4	6a 00		 push	 0
  000d6	6a 00		 push	 0
  000d8	8d 4d c4	 lea	 ecx, DWORD PTR _chaine$3[ebp]
  000db	e8 00 00 00 00	 call	 ??B?$CSimpleStringT@_W$0A@@ATL@@QBEPB_WXZ ; ATL::CSimpleStringT<wchar_t,0>::operator wchar_t const *
  000e0	50		 push	 eax
  000e1	e8 00 00 00 00	 call	 ?AfxMessageBox@@YGHPB_WII@Z ; AfxMessageBox

; 452  : 				return FALSE;

  000e6	83 a5 f8 fe ff
	ff 00		 and	 DWORD PTR $T2[ebp], 0
  000ed	83 4d fc ff	 or	 DWORD PTR __$EHRec$[ebp+8], -1
  000f1	8d 4d c4	 lea	 ecx, DWORD PTR _chaine$3[ebp]
  000f4	e8 00 00 00 00	 call	 ??1?$CStringT@_WV?$StrTraitMFC@_WV?$ChTraitsCRT@_W@ATL@@@@@ATL@@QAE@XZ ; ATL::CStringT<wchar_t,StrTraitMFC<wchar_t,ATL::ChTraitsCRT<wchar_t> > >::~CStringT<wchar_t,StrTraitMFC<wchar_t,ATL::ChTraitsCRT<wchar_t> > >
  000f9	8b 85 f8 fe ff
	ff		 mov	 eax, DWORD PTR $T2[ebp]
  000ff	eb 0d		 jmp	 SHORT $LN1@Check_inpu
$LN9@Check_inpu:

; 453  : 
; 454  : 			}/* end if */
; 455  : 		}/* end for j */

  00101	e9 77 ff ff ff	 jmp	 $LN5@Check_inpu
$LN6@Check_inpu:

; 456  : 	}/* end for i */

  00106	e9 45 ff ff ff	 jmp	 $LN2@Check_inpu
$LN3@Check_inpu:

; 457  : 
; 458  : 	return TRUE;

  0010b	33 c0		 xor	 eax, eax
  0010d	40		 inc	 eax
$LN1@Check_inpu:

; 459  : }

  0010e	52		 push	 edx
  0010f	8b cd		 mov	 ecx, ebp
  00111	50		 push	 eax
  00112	8d 15 00 00 00
	00		 lea	 edx, DWORD PTR $LN15@Check_inpu
  00118	e8 00 00 00 00	 call	 @_RTC_CheckStackVars@8
  0011d	58		 pop	 eax
  0011e	5a		 pop	 edx
  0011f	8b 4d f4	 mov	 ecx, DWORD PTR __$EHRec$[ebp]
  00122	64 89 0d 00 00
	00 00		 mov	 DWORD PTR fs:0, ecx
  00129	59		 pop	 ecx
  0012a	5f		 pop	 edi
  0012b	5e		 pop	 esi
  0012c	5b		 pop	 ebx
  0012d	8b 4d f0	 mov	 ecx, DWORD PTR __$ArrayPad$[ebp]
  00130	33 cd		 xor	 ecx, ebp
  00132	e8 00 00 00 00	 call	 @__security_check_cookie@4
  00137	81 c4 0c 01 00
	00		 add	 esp, 268		; 0000010cH
  0013d	3b ec		 cmp	 ebp, esp
  0013f	e8 00 00 00 00	 call	 __RTC_CheckEsp
  00144	c9		 leave
  00145	c2 04 00	 ret	 4
$LN15@Check_inpu:
  00148	01 00 00 00	 DD	 1
  0014c	00 00 00 00	 DD	 $LN14@Check_inpu
$LN14@Check_inpu:
  00150	c4 ff ff ff	 DD	 -60			; ffffffc4H
  00154	04 00 00 00	 DD	 4
  00158	00 00 00 00	 DD	 $LN12@Check_inpu
$LN12@Check_inpu:
  0015c	63		 DB	 99			; 00000063H
  0015d	68		 DB	 104			; 00000068H
  0015e	61		 DB	 97			; 00000061H
  0015f	69		 DB	 105			; 00000069H
  00160	6e		 DB	 110			; 0000006eH
  00161	65		 DB	 101			; 00000065H
  00162	00		 DB	 0
_TEXT	ENDS
;	COMDAT text$x
text$x	SEGMENT
__unwindfunclet$?Check_input_a_row@Solution@@AAEHH@Z$0:
  00000	8d 4d c4	 lea	 ecx, DWORD PTR _chaine$3[ebp]
  00003	e9 00 00 00 00	 jmp	 ??1?$CStringT@_WV?$StrTraitMFC@_WV?$ChTraitsCRT@_W@ATL@@@@@ATL@@QAE@XZ ; ATL::CStringT<wchar_t,StrTraitMFC<wchar_t,ATL::ChTraitsCRT<wchar_t> > >::~CStringT<wchar_t,StrTraitMFC<wchar_t,ATL::ChTraitsCRT<wchar_t> > >
  00008	cc		 int	 3
  00009	cc		 int	 3
  0000a	cc		 int	 3
  0000b	cc		 int	 3
  0000c	cc		 int	 3
__ehhandler$?Check_input_a_row@Solution@@AAEHH@Z:
  0000d	90		 npad	 1
  0000e	90		 npad	 1
  0000f	8b 54 24 08	 mov	 edx, DWORD PTR [esp+8]
  00013	8d 42 0c	 lea	 eax, DWORD PTR [edx+12]
  00016	8b 8a f0 fe ff
	ff		 mov	 ecx, DWORD PTR [edx-272]
  0001c	33 c8		 xor	 ecx, eax
  0001e	e8 00 00 00 00	 call	 @__security_check_cookie@4
  00023	8b 4a fc	 mov	 ecx, DWORD PTR [edx-4]
  00026	33 c8		 xor	 ecx, eax
  00028	e8 00 00 00 00	 call	 @__security_check_cookie@4
  0002d	b8 00 00 00 00	 mov	 eax, OFFSET __ehfuncinfo$?Check_input_a_row@Solution@@AAEHH@Z
  00032	e9 00 00 00 00	 jmp	 ___CxxFrameHandler3
text$x	ENDS
?Check_input_a_row@Solution@@AAEHH@Z ENDP		; Solution::Check_input_a_row
; Function compile flags: /Odsp /RTCsu /ZI
; File J:\work\SUDOKU\SUDOKU\SUDOKU\Solution.cpp
;	COMDAT ?Check_input_rows@Solution@@AAEHXZ
_TEXT	SEGMENT
_result$ = -32						; size = 4
_row$ = -20						; size = 4
_this$ = -8						; size = 4
?Check_input_rows@Solution@@AAEHXZ PROC			; Solution::Check_input_rows, COMDAT
; _this$ = ecx

; 420  : {

  00000	55		 push	 ebp
  00001	8b ec		 mov	 ebp, esp
  00003	81 ec e4 00 00
	00		 sub	 esp, 228		; 000000e4H
  00009	53		 push	 ebx
  0000a	56		 push	 esi
  0000b	57		 push	 edi
  0000c	51		 push	 ecx
  0000d	8d 7d dc	 lea	 edi, DWORD PTR [ebp-36]
  00010	6a 09		 push	 9
  00012	59		 pop	 ecx
  00013	b8 cc cc cc cc	 mov	 eax, -858993460		; ccccccccH
  00018	f3 ab		 rep stosd
  0001a	59		 pop	 ecx
  0001b	89 4d f8	 mov	 DWORD PTR _this$[ebp], ecx
  0001e	b9 00 00 00 00	 mov	 ecx, OFFSET __CBE53D1F_Solution@cpp
  00023	e8 00 00 00 00	 call	 @__CheckForDebuggerJustMyCode@4

; 421  : 	/* Checks if no duplicate into the rows. */
; 422  : 	int row;
; 423  : 
; 424  : 	int result = TRUE;

  00028	c7 45 e0 01 00
	00 00		 mov	 DWORD PTR _result$[ebp], 1

; 425  : 	for (row = 0; row < MAX; row++)

  0002f	83 65 ec 00	 and	 DWORD PTR _row$[ebp], 0
  00033	eb 07		 jmp	 SHORT $LN4@Check_inpu
$LN2@Check_inpu:
  00035	8b 45 ec	 mov	 eax, DWORD PTR _row$[ebp]
  00038	40		 inc	 eax
  00039	89 45 ec	 mov	 DWORD PTR _row$[ebp], eax
$LN4@Check_inpu:
  0003c	83 7d ec 09	 cmp	 DWORD PTR _row$[ebp], 9
  00040	7d 17		 jge	 SHORT $LN3@Check_inpu

; 426  : 	{
; 427  : 		if (!Check_input_a_row(row))

  00042	ff 75 ec	 push	 DWORD PTR _row$[ebp]
  00045	8b 4d f8	 mov	 ecx, DWORD PTR _this$[ebp]
  00048	e8 00 00 00 00	 call	 ?Check_input_a_row@Solution@@AAEHH@Z ; Solution::Check_input_a_row
  0004d	85 c0		 test	 eax, eax
  0004f	75 06		 jne	 SHORT $LN5@Check_inpu

; 428  : 		{
; 429  : 			result = FALSE;

  00051	83 65 e0 00	 and	 DWORD PTR _result$[ebp], 0

; 430  : 			break;

  00055	eb 02		 jmp	 SHORT $LN3@Check_inpu
$LN5@Check_inpu:

; 431  : 		}
; 432  : 	}/* end for */

  00057	eb dc		 jmp	 SHORT $LN2@Check_inpu
$LN3@Check_inpu:

; 433  : 
; 434  : 	return result;

  00059	8b 45 e0	 mov	 eax, DWORD PTR _result$[ebp]

; 435  : }

  0005c	5f		 pop	 edi
  0005d	5e		 pop	 esi
  0005e	5b		 pop	 ebx
  0005f	81 c4 e4 00 00
	00		 add	 esp, 228		; 000000e4H
  00065	3b ec		 cmp	 ebp, esp
  00067	e8 00 00 00 00	 call	 __RTC_CheckEsp
  0006c	c9		 leave
  0006d	c3		 ret	 0
?Check_input_rows@Solution@@AAEHXZ ENDP			; Solution::Check_input_rows
_TEXT	ENDS
; Function compile flags: /Odsp /RTCsu /ZI
; File J:\work\SUDOKU\SUDOKU\SUDOKU\Solution.cpp
;	COMDAT ?Check_input_grid@Solution@@AAEHXZ
_TEXT	SEGMENT
_result$ = -20						; size = 4
_this$ = -8						; size = 4
?Check_input_grid@Solution@@AAEHXZ PROC			; Solution::Check_input_grid, COMDAT
; _this$ = ecx

; 408  : {

  00000	55		 push	 ebp
  00001	8b ec		 mov	 ebp, esp
  00003	81 ec d8 00 00
	00		 sub	 esp, 216		; 000000d8H
  00009	53		 push	 ebx
  0000a	56		 push	 esi
  0000b	57		 push	 edi
  0000c	51		 push	 ecx
  0000d	8d 7d e8	 lea	 edi, DWORD PTR [ebp-24]
  00010	6a 06		 push	 6
  00012	59		 pop	 ecx
  00013	b8 cc cc cc cc	 mov	 eax, -858993460		; ccccccccH
  00018	f3 ab		 rep stosd
  0001a	59		 pop	 ecx
  0001b	89 4d f8	 mov	 DWORD PTR _this$[ebp], ecx
  0001e	b9 00 00 00 00	 mov	 ecx, OFFSET __CBE53D1F_Solution@cpp
  00023	e8 00 00 00 00	 call	 @__CheckForDebuggerJustMyCode@4

; 409  : 	/* Check whether any duplicate throughout the grid. */
; 410  : 	int result = TRUE;

  00028	c7 45 ec 01 00
	00 00		 mov	 DWORD PTR _result$[ebp], 1

; 411  : 
; 412  : 	if (!Check_input_rows()) result = FALSE;

  0002f	8b 4d f8	 mov	 ecx, DWORD PTR _this$[ebp]
  00032	e8 00 00 00 00	 call	 ?Check_input_rows@Solution@@AAEHXZ ; Solution::Check_input_rows
  00037	85 c0		 test	 eax, eax
  00039	75 04		 jne	 SHORT $LN2@Check_inpu
  0003b	83 65 ec 00	 and	 DWORD PTR _result$[ebp], 0
$LN2@Check_inpu:

; 413  : 	if (!Check_input_columns()) result = FALSE;

  0003f	8b 4d f8	 mov	 ecx, DWORD PTR _this$[ebp]
  00042	e8 00 00 00 00	 call	 ?Check_input_columns@Solution@@AAEHXZ ; Solution::Check_input_columns
  00047	85 c0		 test	 eax, eax
  00049	75 04		 jne	 SHORT $LN3@Check_inpu
  0004b	83 65 ec 00	 and	 DWORD PTR _result$[ebp], 0
$LN3@Check_inpu:

; 414  : 	if (!Check_input_sub_squares()) result = FALSE;

  0004f	8b 4d f8	 mov	 ecx, DWORD PTR _this$[ebp]
  00052	e8 00 00 00 00	 call	 ?Check_input_sub_squares@Solution@@AAEHXZ ; Solution::Check_input_sub_squares
  00057	85 c0		 test	 eax, eax
  00059	75 04		 jne	 SHORT $LN4@Check_inpu
  0005b	83 65 ec 00	 and	 DWORD PTR _result$[ebp], 0
$LN4@Check_inpu:

; 415  : 
; 416  : 	return result;

  0005f	8b 45 ec	 mov	 eax, DWORD PTR _result$[ebp]

; 417  : }

  00062	5f		 pop	 edi
  00063	5e		 pop	 esi
  00064	5b		 pop	 ebx
  00065	81 c4 d8 00 00
	00		 add	 esp, 216		; 000000d8H
  0006b	3b ec		 cmp	 ebp, esp
  0006d	e8 00 00 00 00	 call	 __RTC_CheckEsp
  00072	c9		 leave
  00073	c3		 ret	 0
?Check_input_grid@Solution@@AAEHXZ ENDP			; Solution::Check_input_grid
_TEXT	ENDS
; Function compile flags: /Odsp /RTCsu /ZI
; File J:\work\SUDOKU\SUDOKU\SUDOKU\Solution.cpp
;	COMDAT ?Raz@Solution@@AAEXXZ
_TEXT	SEGMENT
_col$1 = -32						; size = 4
_row$2 = -20						; size = 4
_this$ = -8						; size = 4
?Raz@Solution@@AAEXXZ PROC				; Solution::Raz, COMDAT
; _this$ = ecx

; 576  : {

  00000	55		 push	 ebp
  00001	8b ec		 mov	 ebp, esp
  00003	81 ec e4 00 00
	00		 sub	 esp, 228		; 000000e4H
  00009	53		 push	 ebx
  0000a	56		 push	 esi
  0000b	57		 push	 edi
  0000c	51		 push	 ecx
  0000d	8d 7d dc	 lea	 edi, DWORD PTR [ebp-36]
  00010	6a 09		 push	 9
  00012	59		 pop	 ecx
  00013	b8 cc cc cc cc	 mov	 eax, -858993460		; ccccccccH
  00018	f3 ab		 rep stosd
  0001a	59		 pop	 ecx
  0001b	89 4d f8	 mov	 DWORD PTR _this$[ebp], ecx
  0001e	b9 00 00 00 00	 mov	 ecx, OFFSET __CBE53D1F_Solution@cpp
  00023	e8 00 00 00 00	 call	 @__CheckForDebuggerJustMyCode@4

; 577  : 
; 578  :   // Mise  zro de la grille
; 579  :   for (int row = 0; row < MAX; row++)

  00028	83 65 ec 00	 and	 DWORD PTR _row$2[ebp], 0
  0002c	eb 07		 jmp	 SHORT $LN4@Raz
$LN2@Raz:
  0002e	8b 45 ec	 mov	 eax, DWORD PTR _row$2[ebp]
  00031	40		 inc	 eax
  00032	89 45 ec	 mov	 DWORD PTR _row$2[ebp], eax
$LN4@Raz:
  00035	83 7d ec 09	 cmp	 DWORD PTR _row$2[ebp], 9
  00039	7d 26		 jge	 SHORT $LN3@Raz

; 580  :   {
; 581  : 	  for (int col = 0; col < MAX; col++)

  0003b	83 65 e0 00	 and	 DWORD PTR _col$1[ebp], 0
  0003f	eb 07		 jmp	 SHORT $LN7@Raz
$LN5@Raz:
  00041	8b 45 e0	 mov	 eax, DWORD PTR _col$1[ebp]
  00044	40		 inc	 eax
  00045	89 45 e0	 mov	 DWORD PTR _col$1[ebp], eax
$LN7@Raz:
  00048	83 7d e0 09	 cmp	 DWORD PTR _col$1[ebp], 9
  0004c	7d 11		 jge	 SHORT $LN6@Raz

; 582  : 	  {
; 583  : 		  grid[row][col] = 0;

  0004e	6b 45 ec 24	 imul	 eax, DWORD PTR _row$2[ebp], 36
  00052	8b 4d e0	 mov	 ecx, DWORD PTR _col$1[ebp]
  00055	83 a4 88 00 00
	00 00 00	 and	 DWORD PTR ?grid@@3PAY08HA[eax+ecx*4], 0

; 584  : 	  }

  0005d	eb e2		 jmp	 SHORT $LN5@Raz
$LN6@Raz:

; 585  :   }

  0005f	eb cd		 jmp	 SHORT $LN2@Raz
$LN3@Raz:

; 586  :   ::SetDlgItemTextW(Save_Curent_windows, IDC_STATIC, _T(""));

  00061	8b f4		 mov	 esi, esp
  00063	68 00 00 00 00	 push	 OFFSET ??_C@_11LOCGONAA@@
  00068	6a ff		 push	 -1
  0006a	8b 45 f8	 mov	 eax, DWORD PTR _this$[ebp]
  0006d	ff b0 48 01 00
	00		 push	 DWORD PTR [eax+328]
  00073	ff 15 00 00 00
	00		 call	 DWORD PTR __imp__SetDlgItemTextW@12
  00079	3b f4		 cmp	 esi, esp
  0007b	e8 00 00 00 00	 call	 __RTC_CheckEsp

; 587  : }

  00080	5f		 pop	 edi
  00081	5e		 pop	 esi
  00082	5b		 pop	 ebx
  00083	81 c4 e4 00 00
	00		 add	 esp, 228		; 000000e4H
  00089	3b ec		 cmp	 ebp, esp
  0008b	e8 00 00 00 00	 call	 __RTC_CheckEsp
  00090	c9		 leave
  00091	c3		 ret	 0
?Raz@Solution@@AAEXXZ ENDP				; Solution::Raz
_TEXT	ENDS
; Function compile flags: /Odsp /RTCsu /ZI
; File J:\work\SUDOKU\SUDOKU\SUDOKU\Solution.cpp
;	COMDAT ?Charger_From_a_File@Solution@@QAEHPAUHWND__@@@Z
_TEXT	SEGMENT
_data$1 = -340						; size = 4
_row$2 = -328						; size = 4
_buffer$ = -316						; size = 260
_pt_fichier$ = -48					; size = 4
_valeur$ = -36						; size = 4
_result$ = -24						; size = 4
_this$ = -12						; size = 4
__$ArrayPad$ = -4					; size = 4
_Curent_windows$ = 8					; size = 4
?Charger_From_a_File@Solution@@QAEHPAUHWND__@@@Z PROC	; Solution::Charger_From_a_File, COMDAT
; _this$ = ecx

; 117  : {

  00000	55		 push	 ebp
  00001	8b ec		 mov	 ebp, esp
  00003	81 ec 18 02 00
	00		 sub	 esp, 536		; 00000218H
  00009	53		 push	 ebx
  0000a	56		 push	 esi
  0000b	57		 push	 edi
  0000c	51		 push	 ecx
  0000d	8d bd a8 fe ff
	ff		 lea	 edi, DWORD PTR [ebp-344]
  00013	6a 56		 push	 86			; 00000056H
  00015	59		 pop	 ecx
  00016	b8 cc cc cc cc	 mov	 eax, -858993460		; ccccccccH
  0001b	f3 ab		 rep stosd
  0001d	59		 pop	 ecx
  0001e	a1 00 00 00 00	 mov	 eax, DWORD PTR ___security_cookie
  00023	33 c5		 xor	 eax, ebp
  00025	89 45 fc	 mov	 DWORD PTR __$ArrayPad$[ebp], eax
  00028	89 4d f4	 mov	 DWORD PTR _this$[ebp], ecx
  0002b	b9 00 00 00 00	 mov	 ecx, OFFSET __CBE53D1F_Solution@cpp
  00030	e8 00 00 00 00	 call	 @__CheckForDebuggerJustMyCode@4

; 118  : 	int result = TRUE;

  00035	c7 45 e8 01 00
	00 00		 mov	 DWORD PTR _result$[ebp], 1

; 119  : 	int valeur = 0;

  0003c	83 65 dc 00	 and	 DWORD PTR _valeur$[ebp], 0

; 120  : 	FILE *pt_fichier;
; 121  : 	char buffer[MAX_PATH];
; 122  : 
; 123  : 	// mise  zro de la grille d'origine
; 124  : 	Raz();

  00040	8b 4d f4	 mov	 ecx, DWORD PTR _this$[ebp]
  00043	e8 00 00 00 00	 call	 ?Raz@Solution@@AAEXXZ	; Solution::Raz

; 125  : 	Charge_tableau_relation();

  00048	8b 4d f4	 mov	 ecx, DWORD PTR _this$[ebp]
  0004b	e8 00 00 00 00	 call	 ?Charge_tableau_relation@Solution@@AAEXXZ ; Solution::Charge_tableau_relation

; 126  : 	Definition_limite(Curent_windows);

  00050	ff 75 08	 push	 DWORD PTR _Curent_windows$[ebp]
  00053	8b 4d f4	 mov	 ecx, DWORD PTR _this$[ebp]
  00056	e8 00 00 00 00	 call	 ?Definition_limite@Solution@@AAEXPAUHWND__@@@Z ; Solution::Definition_limite

; 127  : 
; 128  : 	if (Open_File(_T("Sudoku_input.txt")) == TRUE)

  0005b	68 00 00 00 00	 push	 OFFSET ??_C@_1CC@DBEOBEPH@?$AAS?$AAu?$AAd?$AAo?$AAk?$AAu?$AA_?$AAi?$AAn?$AAp?$AAu?$AAt?$AA?4?$AAt?$AAx@
  00060	8b 4d f4	 mov	 ecx, DWORD PTR _this$[ebp]
  00063	e8 00 00 00 00	 call	 ?Open_File@Solution@@AAEHPA_W@Z ; Solution::Open_File
  00068	83 f8 01	 cmp	 eax, 1
  0006b	0f 85 e9 00 00
	00		 jne	 $LN8@Charger_Fr

; 129  : 	{
; 130  : 
; 131  : 	 pt_fichier = _wfopen(pszSource.GetBuffer(), _T("rt"));

  00071	68 00 00 00 00	 push	 OFFSET ??_C@_15OMIKMFFN@?$AAr?$AAt@
  00076	8b 4d f4	 mov	 ecx, DWORD PTR _this$[ebp]
  00079	81 c1 50 01 00
	00		 add	 ecx, 336		; 00000150H
  0007f	e8 00 00 00 00	 call	 ?GetBuffer@?$CSimpleStringT@_W$0A@@ATL@@QAEPA_WXZ ; ATL::CSimpleStringT<wchar_t,0>::GetBuffer
  00084	50		 push	 eax
  00085	e8 00 00 00 00	 call	 __wfopen
  0008a	59		 pop	 ecx
  0008b	59		 pop	 ecx
  0008c	89 45 d0	 mov	 DWORD PTR _pt_fichier$[ebp], eax

; 132  : 
; 133  : 	 if (pt_fichier != 0)

  0008f	83 7d d0 00	 cmp	 DWORD PTR _pt_fichier$[ebp], 0
  00093	0f 84 bd 00 00
	00		 je	 $LN9@Charger_Fr

; 134  : 	  {
; 135  : 	
; 136  : 	   for (int row = 0; row < MAX; row++)

  00099	83 a5 b8 fe ff
	ff 00		 and	 DWORD PTR _row$2[ebp], 0
  000a0	eb 0d		 jmp	 SHORT $LN4@Charger_Fr
$LN2@Charger_Fr:
  000a2	8b 85 b8 fe ff
	ff		 mov	 eax, DWORD PTR _row$2[ebp]
  000a8	40		 inc	 eax
  000a9	89 85 b8 fe ff
	ff		 mov	 DWORD PTR _row$2[ebp], eax
$LN4@Charger_Fr:
  000af	83 bd b8 fe ff
	ff 09		 cmp	 DWORD PTR _row$2[ebp], 9
  000b6	0f 8d 8f 00 00
	00		 jge	 $LN3@Charger_Fr

; 137  : 	    {
; 138  : 
; 139  : 		fgets(&buffer[0], MAX_PATH, pt_fichier);

  000bc	ff 75 d0	 push	 DWORD PTR _pt_fichier$[ebp]
  000bf	68 04 01 00 00	 push	 260			; 00000104H
  000c4	33 c0		 xor	 eax, eax
  000c6	40		 inc	 eax
  000c7	6b c0 00	 imul	 eax, eax, 0
  000ca	8d 84 05 c4 fe
	ff ff		 lea	 eax, DWORD PTR _buffer$[ebp+eax]
  000d1	50		 push	 eax
  000d2	e8 00 00 00 00	 call	 _fgets
  000d7	83 c4 0c	 add	 esp, 12			; 0000000cH

; 140  : 
; 141  : 		for (int data = 0; data < MAX; data++)

  000da	83 a5 ac fe ff
	ff 00		 and	 DWORD PTR _data$1[ebp], 0
  000e1	eb 0d		 jmp	 SHORT $LN7@Charger_Fr
$LN5@Charger_Fr:
  000e3	8b 85 ac fe ff
	ff		 mov	 eax, DWORD PTR _data$1[ebp]
  000e9	40		 inc	 eax
  000ea	89 85 ac fe ff
	ff		 mov	 DWORD PTR _data$1[ebp], eax
$LN7@Charger_Fr:
  000f0	83 bd ac fe ff
	ff 09		 cmp	 DWORD PTR _data$1[ebp], 9
  000f7	7d 4d		 jge	 SHORT $LN6@Charger_Fr

; 142  : 		  {
; 143  : 			
; 144  : 			valeur = atoi(&buffer[data * 2]);

  000f9	8b 85 ac fe ff
	ff		 mov	 eax, DWORD PTR _data$1[ebp]
  000ff	8d 84 45 c4 fe
	ff ff		 lea	 eax, DWORD PTR _buffer$[ebp+eax*2]
  00106	50		 push	 eax
  00107	e8 00 00 00 00	 call	 _atoi
  0010c	59		 pop	 ecx
  0010d	89 45 dc	 mov	 DWORD PTR _valeur$[ebp], eax

; 145  : 			if (valeur > 0)

  00110	83 7d dc 00	 cmp	 DWORD PTR _valeur$[ebp], 0
  00114	7e 19		 jle	 SHORT $LN11@Charger_Fr

; 146  : 			{
; 147  : 			grid[row][data] = valeur;

  00116	6b 85 b8 fe ff
	ff 24		 imul	 eax, DWORD PTR _row$2[ebp], 36
  0011d	8b 8d ac fe ff
	ff		 mov	 ecx, DWORD PTR _data$1[ebp]
  00123	8b 55 dc	 mov	 edx, DWORD PTR _valeur$[ebp]
  00126	89 94 88 00 00
	00 00		 mov	 DWORD PTR ?grid@@3PAY08HA[eax+ecx*4], edx

; 148  : 			}

  0012d	eb 15		 jmp	 SHORT $LN12@Charger_Fr
$LN11@Charger_Fr:

; 149  : 			else
; 150  : 			{
; 151  : 			 grid[row][data] = 0;

  0012f	6b 85 b8 fe ff
	ff 24		 imul	 eax, DWORD PTR _row$2[ebp], 36
  00136	8b 8d ac fe ff
	ff		 mov	 ecx, DWORD PTR _data$1[ebp]
  0013c	83 a4 88 00 00
	00 00 00	 and	 DWORD PTR ?grid@@3PAY08HA[eax+ecx*4], 0
$LN12@Charger_Fr:

; 152  : 			}
; 153  : 		  }

  00144	eb 9d		 jmp	 SHORT $LN5@Charger_Fr
$LN6@Charger_Fr:

; 154  : 
; 155  : 	    }

  00146	e9 57 ff ff ff	 jmp	 $LN2@Charger_Fr
$LN3@Charger_Fr:

; 156  : 
; 157  : 	   fclose(pt_fichier);

  0014b	ff 75 d0	 push	 DWORD PTR _pt_fichier$[ebp]
  0014e	e8 00 00 00 00	 call	 _fclose
  00153	59		 pop	 ecx

; 158  : 
; 159  : 	  }

  00154	eb 04		 jmp	 SHORT $LN8@Charger_Fr
$LN9@Charger_Fr:

; 160  : 	 else
; 161  : 	 {
; 162  : 		 result = FALSE;

  00156	83 65 e8 00	 and	 DWORD PTR _result$[ebp], 0
$LN8@Charger_Fr:

; 163  : 	 }
; 164  : 
; 165  : 	}
; 166  : 
; 167  : 	// On vrifie le grille 
; 168  : 	if (!Check_input_grid())

  0015a	8b 4d f4	 mov	 ecx, DWORD PTR _this$[ebp]
  0015d	e8 00 00 00 00	 call	 ?Check_input_grid@Solution@@AAEHXZ ; Solution::Check_input_grid
  00162	85 c0		 test	 eax, eax
  00164	75 04		 jne	 SHORT $LN13@Charger_Fr

; 169  : 	{
; 170  : 		result = FALSE;

  00166	83 65 e8 00	 and	 DWORD PTR _result$[ebp], 0
$LN13@Charger_Fr:

; 171  : 	}
; 172  : 
; 173  : 	::SetDlgItemTextW(Save_Curent_windows, IDC_STATIC, _T(""));

  0016a	8b f4		 mov	 esi, esp
  0016c	68 00 00 00 00	 push	 OFFSET ??_C@_11LOCGONAA@@
  00171	6a ff		 push	 -1
  00173	8b 45 f4	 mov	 eax, DWORD PTR _this$[ebp]
  00176	ff b0 48 01 00
	00		 push	 DWORD PTR [eax+328]
  0017c	ff 15 00 00 00
	00		 call	 DWORD PTR __imp__SetDlgItemTextW@12
  00182	3b f4		 cmp	 esi, esp
  00184	e8 00 00 00 00	 call	 __RTC_CheckEsp

; 174  : 	// Et on Affiche
; 175  : 	Display_grille(Curent_windows);

  00189	ff 75 08	 push	 DWORD PTR _Curent_windows$[ebp]
  0018c	8b 4d f4	 mov	 ecx, DWORD PTR _this$[ebp]
  0018f	e8 00 00 00 00	 call	 ?Display_grille@Solution@@AAEXPAUHWND__@@@Z ; Solution::Display_grille

; 176  : 	
; 177  : 	return result;

  00194	8b 45 e8	 mov	 eax, DWORD PTR _result$[ebp]

; 178  : 
; 179  : }

  00197	52		 push	 edx
  00198	8b cd		 mov	 ecx, ebp
  0019a	50		 push	 eax
  0019b	8d 15 00 00 00
	00		 lea	 edx, DWORD PTR $LN17@Charger_Fr
  001a1	e8 00 00 00 00	 call	 @_RTC_CheckStackVars@8
  001a6	58		 pop	 eax
  001a7	5a		 pop	 edx
  001a8	5f		 pop	 edi
  001a9	5e		 pop	 esi
  001aa	5b		 pop	 ebx
  001ab	8b 4d fc	 mov	 ecx, DWORD PTR __$ArrayPad$[ebp]
  001ae	33 cd		 xor	 ecx, ebp
  001b0	e8 00 00 00 00	 call	 @__security_check_cookie@4
  001b5	81 c4 18 02 00
	00		 add	 esp, 536		; 00000218H
  001bb	3b ec		 cmp	 ebp, esp
  001bd	e8 00 00 00 00	 call	 __RTC_CheckEsp
  001c2	c9		 leave
  001c3	c2 04 00	 ret	 4
  001c6	66 90		 npad	 2
$LN17@Charger_Fr:
  001c8	01 00 00 00	 DD	 1
  001cc	00 00 00 00	 DD	 $LN16@Charger_Fr
$LN16@Charger_Fr:
  001d0	c4 fe ff ff	 DD	 -316			; fffffec4H
  001d4	04 01 00 00	 DD	 260			; 00000104H
  001d8	00 00 00 00	 DD	 $LN15@Charger_Fr
$LN15@Charger_Fr:
  001dc	62		 DB	 98			; 00000062H
  001dd	75		 DB	 117			; 00000075H
  001de	66		 DB	 102			; 00000066H
  001df	66		 DB	 102			; 00000066H
  001e0	65		 DB	 101			; 00000065H
  001e1	72		 DB	 114			; 00000072H
  001e2	00		 DB	 0
?Charger_From_a_File@Solution@@QAEHPAUHWND__@@@Z ENDP	; Solution::Charger_From_a_File
_TEXT	ENDS
; Function compile flags: /Odsp /RTCsu /ZI
; File J:\work\SUDOKU\SUDOKU\SUDOKU\Solution.cpp
;	COMDAT ?Charger_valeur_saisie@Solution@@QAEHPAUHWND__@@@Z
_TEXT	SEGMENT
$T2 = -312						; size = 4
_col$3 = -108						; size = 4
_row$4 = -96						; size = 4
_Valeur$ = -84						; size = 4
_Car_courr$ = -69					; size = 1
_valeur_lue$ = -60					; size = 4
_z$ = -48						; size = 4
_result$ = -36						; size = 4
_this$ = -24						; size = 4
__$ArrayPad$ = -16					; size = 4
__$EHRec$ = -12						; size = 12
_Curent_windows$ = 8					; size = 4
?Charger_valeur_saisie@Solution@@QAEHPAUHWND__@@@Z PROC	; Solution::Charger_valeur_saisie, COMDAT
; _this$ = ecx

; 287  : {

  00000	55		 push	 ebp
  00001	8b ec		 mov	 ebp, esp
  00003	6a ff		 push	 -1
  00005	68 00 00 00 00	 push	 __ehhandler$?Charger_valeur_saisie@Solution@@QAEHPAUHWND__@@@Z
  0000a	64 a1 00 00 00
	00		 mov	 eax, DWORD PTR fs:0
  00010	50		 push	 eax
  00011	81 ec 30 01 00
	00		 sub	 esp, 304		; 00000130H
  00017	53		 push	 ebx
  00018	56		 push	 esi
  00019	57		 push	 edi
  0001a	51		 push	 ecx
  0001b	8d 7d 84	 lea	 edi, DWORD PTR [ebp-124]
  0001e	6a 1c		 push	 28			; 0000001cH
  00020	59		 pop	 ecx
  00021	b8 cc cc cc cc	 mov	 eax, -858993460		; ccccccccH
  00026	f3 ab		 rep stosd
  00028	59		 pop	 ecx
  00029	a1 00 00 00 00	 mov	 eax, DWORD PTR ___security_cookie
  0002e	33 c5		 xor	 eax, ebp
  00030	89 45 f0	 mov	 DWORD PTR __$ArrayPad$[ebp], eax
  00033	50		 push	 eax
  00034	8d 45 f4	 lea	 eax, DWORD PTR __$EHRec$[ebp]
  00037	64 a3 00 00 00
	00		 mov	 DWORD PTR fs:0, eax
  0003d	89 4d e8	 mov	 DWORD PTR _this$[ebp], ecx
  00040	b9 00 00 00 00	 mov	 ecx, OFFSET __CBE53D1F_Solution@cpp
  00045	e8 00 00 00 00	 call	 @__CheckForDebuggerJustMyCode@4

; 288  : 	BOOL result = TRUE;

  0004a	c7 45 dc 01 00
	00 00		 mov	 DWORD PTR _result$[ebp], 1

; 289  : 	int  z = 0;

  00051	83 65 d0 00	 and	 DWORD PTR _z$[ebp], 0

; 290  : 	int valeur_lue= 0;

  00055	83 65 c4 00	 and	 DWORD PTR _valeur_lue$[ebp], 0

; 291  : 	char Car_courr = 0x00;

  00059	c6 45 bb 00	 mov	 BYTE PTR _Car_courr$[ebp], 0

; 292  : 	CString Valeur;

  0005d	6a 04		 push	 4
  0005f	8d 4d ac	 lea	 ecx, DWORD PTR _Valeur$[ebp]
  00062	e8 00 00 00 00	 call	 ?__autoclassinit2@?$CStringT@_WV?$StrTraitMFC@_WV?$ChTraitsCRT@_W@ATL@@@@@ATL@@QAEXI@Z
  00067	8d 4d ac	 lea	 ecx, DWORD PTR _Valeur$[ebp]
  0006a	e8 00 00 00 00	 call	 ??0?$CStringT@_WV?$StrTraitMFC@_WV?$ChTraitsCRT@_W@ATL@@@@@ATL@@QAE@XZ ; ATL::CStringT<wchar_t,StrTraitMFC<wchar_t,ATL::ChTraitsCRT<wchar_t> > >::CStringT<wchar_t,StrTraitMFC<wchar_t,ATL::ChTraitsCRT<wchar_t> > >
  0006f	83 65 fc 00	 and	 DWORD PTR __$EHRec$[ebp+8], 0

; 293  : 
; 294  : 	ASSERT(IsWindow(Curent_windows) != 0);

  00073	8b f4		 mov	 esi, esp
  00075	ff 75 08	 push	 DWORD PTR _Curent_windows$[ebp]
  00078	ff 15 00 00 00
	00		 call	 DWORD PTR __imp__IsWindow@4
  0007e	3b f4		 cmp	 esi, esp
  00080	e8 00 00 00 00	 call	 __RTC_CheckEsp
  00085	85 c0		 test	 eax, eax
  00087	75 18		 jne	 SHORT $LN12@Charger_va
  00089	a1 00 00 00 00	 mov	 eax, DWORD PTR ?__LINE__Var@?0??Charger_valeur_saisie@Solution@@QAEHPAUHWND__@@@Z@4JA
  0008e	83 c0 07	 add	 eax, 7
  00091	50		 push	 eax
  00092	68 00 00 00 00	 push	 OFFSET ??_C@_0CK@JGFDDPMM@J?3?2work?2SUDOKU?2SUDOKU?2SUDOKU?2So@
  00097	e8 00 00 00 00	 call	 ?AfxAssertFailedLine@@YGHPBDH@Z ; AfxAssertFailedLine
  0009c	85 c0		 test	 eax, eax
  0009e	74 01		 je	 SHORT $LN12@Charger_va
  000a0	cc		 int	 3
$LN12@Charger_va:

; 295  : 
; 296  : 	// mise  zro de la grille d'origine
; 297  : 	Raz();

  000a1	8b 4d e8	 mov	 ecx, DWORD PTR _this$[ebp]
  000a4	e8 00 00 00 00	 call	 ?Raz@Solution@@AAEXXZ	; Solution::Raz

; 298  : 
; 299  : 	for (int row = 0; row < MAX; row++)

  000a9	83 65 a0 00	 and	 DWORD PTR _row$4[ebp], 0
  000ad	eb 07		 jmp	 SHORT $LN4@Charger_va
$LN2@Charger_va:
  000af	8b 45 a0	 mov	 eax, DWORD PTR _row$4[ebp]
  000b2	40		 inc	 eax
  000b3	89 45 a0	 mov	 DWORD PTR _row$4[ebp], eax
$LN4@Charger_va:
  000b6	83 7d a0 09	 cmp	 DWORD PTR _row$4[ebp], 9
  000ba	0f 8d a5 00 00
	00		 jge	 $LN3@Charger_va

; 300  : 	{
; 301  : 		for (int col = 0; col < MAX; col++)

  000c0	83 65 94 00	 and	 DWORD PTR _col$3[ebp], 0
  000c4	eb 07		 jmp	 SHORT $LN7@Charger_va
$LN5@Charger_va:
  000c6	8b 45 94	 mov	 eax, DWORD PTR _col$3[ebp]
  000c9	40		 inc	 eax
  000ca	89 45 94	 mov	 DWORD PTR _col$3[ebp], eax
$LN7@Charger_va:
  000cd	83 7d 94 09	 cmp	 DWORD PTR _col$3[ebp], 9
  000d1	0f 8d 89 00 00
	00		 jge	 $LN6@Charger_va

; 302  : 		{
; 303  : 		  ::GetDlgItemTextW(Curent_windows,tableau_de_saisie[z], (LPWSTR)Valeur.GetBuffer(255),255);

  000d7	8b f4		 mov	 esi, esp
  000d9	68 ff 00 00 00	 push	 255			; 000000ffH
  000de	68 ff 00 00 00	 push	 255			; 000000ffH
  000e3	8d 4d ac	 lea	 ecx, DWORD PTR _Valeur$[ebp]
  000e6	e8 00 00 00 00	 call	 ?GetBuffer@?$CSimpleStringT@_W$0A@@ATL@@QAEPA_WH@Z ; ATL::CSimpleStringT<wchar_t,0>::GetBuffer
  000eb	50		 push	 eax
  000ec	8b 45 d0	 mov	 eax, DWORD PTR _z$[ebp]
  000ef	8b 4d e8	 mov	 ecx, DWORD PTR _this$[ebp]
  000f2	ff 74 81 04	 push	 DWORD PTR [ecx+eax*4+4]
  000f6	ff 75 08	 push	 DWORD PTR _Curent_windows$[ebp]
  000f9	ff 15 00 00 00
	00		 call	 DWORD PTR __imp__GetDlgItemTextW@16
  000ff	3b f4		 cmp	 esi, esp
  00101	e8 00 00 00 00	 call	 __RTC_CheckEsp

; 304  : 		  Valeur.ReleaseBuffer();

  00106	6a ff		 push	 -1
  00108	8d 4d ac	 lea	 ecx, DWORD PTR _Valeur$[ebp]
  0010b	e8 00 00 00 00	 call	 ?ReleaseBuffer@?$CSimpleStringT@_W$0A@@ATL@@QAEXH@Z ; ATL::CSimpleStringT<wchar_t,0>::ReleaseBuffer

; 305  : 		  valeur_lue = 0;

  00110	83 65 c4 00	 and	 DWORD PTR _valeur_lue$[ebp], 0

; 306  : 		  valeur_lue = atoi((char *)Valeur.GetBuffer());	

  00114	8d 4d ac	 lea	 ecx, DWORD PTR _Valeur$[ebp]
  00117	e8 00 00 00 00	 call	 ?GetBuffer@?$CSimpleStringT@_W$0A@@ATL@@QAEPA_WXZ ; ATL::CSimpleStringT<wchar_t,0>::GetBuffer
  0011c	50		 push	 eax
  0011d	e8 00 00 00 00	 call	 _atoi
  00122	59		 pop	 ecx
  00123	89 45 c4	 mov	 DWORD PTR _valeur_lue$[ebp], eax

; 307  : 		  z++;

  00126	8b 45 d0	 mov	 eax, DWORD PTR _z$[ebp]
  00129	40		 inc	 eax
  0012a	89 45 d0	 mov	 DWORD PTR _z$[ebp], eax

; 308  : 		  if ( (valeur_lue >= 1) && (valeur_lue < 10 )   )

  0012d	83 7d c4 01	 cmp	 DWORD PTR _valeur_lue$[ebp], 1
  00131	7c 19		 jl	 SHORT $LN8@Charger_va
  00133	83 7d c4 0a	 cmp	 DWORD PTR _valeur_lue$[ebp], 10 ; 0000000aH
  00137	7d 13		 jge	 SHORT $LN8@Charger_va

; 309  : 		  {
; 310  : 
; 311  : 		    grid[row][col] = valeur_lue;

  00139	6b 45 a0 24	 imul	 eax, DWORD PTR _row$4[ebp], 36
  0013d	8b 4d 94	 mov	 ecx, DWORD PTR _col$3[ebp]
  00140	8b 55 c4	 mov	 edx, DWORD PTR _valeur_lue$[ebp]
  00143	89 94 88 00 00
	00 00		 mov	 DWORD PTR ?grid@@3PAY08HA[eax+ecx*4], edx

; 312  : 
; 313  : 		  }

  0014a	eb 0f		 jmp	 SHORT $LN9@Charger_va
$LN8@Charger_va:

; 314  : 		  else
; 315  : 		  {
; 316  : 			  grid[row][col] = 0;

  0014c	6b 45 a0 24	 imul	 eax, DWORD PTR _row$4[ebp], 36
  00150	8b 4d 94	 mov	 ecx, DWORD PTR _col$3[ebp]
  00153	83 a4 88 00 00
	00 00 00	 and	 DWORD PTR ?grid@@3PAY08HA[eax+ecx*4], 0
$LN9@Charger_va:

; 317  : 
; 318  : 		  }
; 319  : 		}

  0015b	e9 66 ff ff ff	 jmp	 $LN5@Charger_va
$LN6@Charger_va:

; 320  : 	}

  00160	e9 4a ff ff ff	 jmp	 $LN2@Charger_va
$LN3@Charger_va:

; 321  : 
; 322  : 	// Savegarde de la configuration d'origine
; 323  : 	// 
; 324  : 	Save_Load_Data();

