; Listing generated by Microsoft (R) Optimizing Compiler Version 18.00.21005.1 

	TITLE	C:\Projets\SUDOKU\SUDOKU\SUDOKU\Solution.cpp
	.686P
	.XMM
	include listing.inc
	.model	flat

INCLUDELIB MSVCRTD
INCLUDELIB OLDNAMES

PUBLIC	?m_nLevel@CTrace@ATL@@1IA			; ATL::CTrace::m_nLevel
PUBLIC	?m_nCategory@CTrace@ATL@@1IA			; ATL::CTrace::m_nCategory
PUBLIC	?m_nLastCategory@CTrace@ATL@@1IA		; ATL::CTrace::m_nLastCategory
PUBLIC	?m_nMap@CTrace@ATL@@1PAUCategoryMap@12@A	; ATL::CTrace::m_nMap
;	COMDAT ?m_nLevel@CTrace@ATL@@1IA
_BSS	SEGMENT
?m_nLevel@CTrace@ATL@@1IA DD 01H DUP (?)		; ATL::CTrace::m_nLevel
_BSS	ENDS
;	COMDAT ?m_nLastCategory@CTrace@ATL@@1IA
_BSS	SEGMENT
?m_nLastCategory@CTrace@ATL@@1IA DD 01H DUP (?)		; ATL::CTrace::m_nLastCategory
_BSS	ENDS
;	COMDAT ?m_nMap@CTrace@ATL@@1PAUCategoryMap@12@A
_BSS	SEGMENT
?m_nMap@CTrace@ATL@@1PAUCategoryMap@12@A DB 02080H DUP (?) ; ATL::CTrace::m_nMap
_BSS	ENDS
;	COMDAT ?m_nCategory@CTrace@ATL@@1IA
_DATA	SEGMENT
?m_nCategory@CTrace@ATL@@1IA DD 0ffffffffH		; ATL::CTrace::m_nCategory
_DATA	ENDS
PUBLIC	??0?$CTraceCategoryEx@$0CAAA@$0A@@ATL@@QAE@PB_W@Z ; ATL::CTraceCategoryEx<8192,0>::CTraceCategoryEx<8192,0>
PUBLIC	??B?$CTraceCategoryEx@$0CAAA@$0A@@ATL@@QAEIXZ	; ATL::CTraceCategoryEx<8192,0>::operator unsigned int
PUBLIC	??0?$CTraceCategoryEx@$0CAAAA@$0A@@ATL@@QAE@PB_W@Z ; ATL::CTraceCategoryEx<131072,0>::CTraceCategoryEx<131072,0>
PUBLIC	?GetCategoryName@CTrace@ATL@@CAPA_WI@Z		; ATL::CTrace::GetCategoryName
PUBLIC	?TraceV@CTrace@ATL@@CAXPBDHIIPB_W@Z		; ATL::CTrace::TraceV
PUBLIC	?TraceV@CTrace@ATL@@SAXPBDHIIPB_WPAD@Z		; ATL::CTrace::TraceV
PUBLIC	?RegisterCategory@CTrace@ATL@@SAXPB_WI@Z	; ATL::CTrace::RegisterCategory
PUBLIC	??0CTraceFileAndLineInfo@ATL@@QAE@PBDH@Z	; ATL::CTraceFileAndLineInfo::CTraceFileAndLineInfo
PUBLIC	??RCTraceFileAndLineInfo@ATL@@QBAXHIPB_WZZ	; ATL::CTraceFileAndLineInfo::operator()
PUBLIC	?AtlThrowImpl@ATL@@YGXJ@Z			; ATL::AtlThrowImpl
PUBLIC	??HATL@@YA?AV?$CStringT@_WV?$StrTraitMFC_DLL@_WV?$ChTraitsCRT@_W@ATL@@@@@0@ABV10@0@Z ; ATL::operator+
PUBLIC	?GetTickCount@CTime@ATL@@SG?AV12@XZ		; ATL::CTime::GetTickCount
PUBLIC	??0CTime@ATL@@QAE@_J@Z				; ATL::CTime::CTime
PUBLIC	?GetLocalTm@CTime@ATL@@QBEPAUtm@@PAU3@@Z	; ATL::CTime::GetLocalTm
PUBLIC	?GetMinute@CTime@ATL@@QBEHXZ			; ATL::CTime::GetMinute
PUBLIC	?GetSecond@CTime@ATL@@QBEHXZ			; ATL::CTime::GetSecond
PUBLIC	?__autoclassinit2@CFileDialog@@QAEXI@Z		; CFileDialog::__autoclassinit2
PUBLIC	??0_bstr_t@@QAE@ABV0@@Z				; _bstr_t::_bstr_t
PUBLIC	??0_bstr_t@@QAE@PBD@Z				; _bstr_t::_bstr_t
PUBLIC	??0_bstr_t@@QAE@PB_W@Z				; _bstr_t::_bstr_t
PUBLIC	??1_bstr_t@@QAE@XZ				; _bstr_t::~_bstr_t
PUBLIC	??Y_bstr_t@@QAEAAV0@ABV0@@Z			; _bstr_t::operator+=
PUBLIC	??H@YA?AV_bstr_t@@PB_WABV0@@Z			; operator+
PUBLIC	??B_bstr_t@@QBEPB_WXZ				; _bstr_t::operator wchar_t const *
PUBLIC	?length@_bstr_t@@QBEIXZ				; _bstr_t::length
PUBLIC	??0Data_t@_bstr_t@@QAE@PBD@Z			; _bstr_t::Data_t::Data_t
PUBLIC	??0Data_t@_bstr_t@@QAE@PB_W@Z			; _bstr_t::Data_t::Data_t
PUBLIC	??0Data_t@_bstr_t@@QAE@ABV1@0@Z			; _bstr_t::Data_t::Data_t
PUBLIC	?AddRef@Data_t@_bstr_t@@QAEKXZ			; _bstr_t::Data_t::AddRef
PUBLIC	?Release@Data_t@_bstr_t@@QAEKXZ			; _bstr_t::Data_t::Release
PUBLIC	?GetWString@Data_t@_bstr_t@@QAEAAPA_WXZ		; _bstr_t::Data_t::GetWString
PUBLIC	?Length@Data_t@_bstr_t@@QBEIXZ			; _bstr_t::Data_t::Length
PUBLIC	??2Data_t@_bstr_t@@SAPAXI@Z			; _bstr_t::Data_t::operator new
PUBLIC	??1Data_t@_bstr_t@@AAE@XZ			; _bstr_t::Data_t::~Data_t
PUBLIC	?_Free@Data_t@_bstr_t@@AAEXXZ			; _bstr_t::Data_t::_Free
PUBLIC	?__autoclassinit2@Data_t@_bstr_t@@QAEXI@Z	; _bstr_t::Data_t::__autoclassinit2
PUBLIC	??_GData_t@_bstr_t@@AAEPAXI@Z			; _bstr_t::Data_t::`scalar deleting destructor'
PUBLIC	?_AddRef@_bstr_t@@AAEXXZ			; _bstr_t::_AddRef
PUBLIC	?_Free@_bstr_t@@AAEXXZ				; _bstr_t::_Free
PUBLIC	?__autoclassinit2@_bstr_t@@QAEXI@Z		; _bstr_t::__autoclassinit2
PUBLIC	??0Solution@@QAE@XZ				; Solution::Solution
PUBLIC	??0Solution@@QAE@PAUHWND__@@@Z			; Solution::Solution
PUBLIC	??1Solution@@UAE@XZ				; Solution::~Solution
PUBLIC	?Charger_valeur_saisie@Solution@@QAEHPAUHWND__@@@Z ; Solution::Charger_valeur_saisie
PUBLIC	?Charger_From_a_File@Solution@@QAEHPAUHWND__@@@Z ; Solution::Charger_From_a_File
PUBLIC	?Raz@Solution@@AAEXXZ				; Solution::Raz
PUBLIC	?Check_input_grid@Solution@@AAEHXZ		; Solution::Check_input_grid
PUBLIC	?Check_input_rows@Solution@@AAEHXZ		; Solution::Check_input_rows
PUBLIC	?Check_input_a_row@Solution@@AAEHH@Z		; Solution::Check_input_a_row
PUBLIC	?Check_input_columns@Solution@@AAEHXZ		; Solution::Check_input_columns
PUBLIC	?Check_input_a_column@Solution@@AAEHH@Z		; Solution::Check_input_a_column
PUBLIC	?Check_input_sub_squares@Solution@@AAEHXZ	; Solution::Check_input_sub_squares
PUBLIC	?Check_input_a_sub_square@Solution@@AAEHH@Z	; Solution::Check_input_a_sub_square
PUBLIC	?Trans_sub_square@Solution@@AAEXQADH@Z		; Solution::Trans_sub_square
PUBLIC	?Resolve@Solution@@AAEXXZ			; Solution::Resolve
PUBLIC	?write_Time@Solution@@AAEXVCTime@ATL@@0@Z	; Solution::write_Time
PUBLIC	?Free_cell_for_number@Solution@@AAEHHHH@Z	; Solution::Free_cell_for_number
PUBLIC	?Trans_sub_square_of_cell@Solution@@AAEXQADHH@Z	; Solution::Trans_sub_square_of_cell
PUBLIC	?Finished_grid@Solution@@AAEHXZ			; Solution::Finished_grid
PUBLIC	?Display_grille@Solution@@AAEXPAUHWND__@@@Z	; Solution::Display_grille
PUBLIC	?Print@Solution@@AAEXXZ				; Solution::Print
PUBLIC	?Charge_tableau_relation@Solution@@AAEXXZ	; Solution::Charge_tableau_relation
PUBLIC	?Definition_limite@Solution@@AAEXPAUHWND__@@@Z	; Solution::Definition_limite
PUBLIC	?Current_Dir@Solution@@AAE?AV?$CStringT@_WV?$StrTraitMFC_DLL@_WV?$ChTraitsCRT@_W@ATL@@@@@ATL@@XZ ; Solution::Current_Dir
PUBLIC	?Open_File@Solution@@AAE_NPA_W@Z		; Solution::Open_File
PUBLIC	?Folder@Solution@@AAE?AV?$CStringT@_WV?$StrTraitMFC_DLL@_WV?$ChTraitsCRT@_W@ATL@@@@@ATL@@XZ ; Solution::Folder
PUBLIC	?Sepcial_Folder@Solution@@AAE?AV?$CStringT@_WV?$StrTraitMFC_DLL@_WV?$ChTraitsCRT@_W@ATL@@@@@ATL@@H@Z ; Solution::Sepcial_Folder
PUBLIC	?Dur_Dur@Solution@@AAEXXZ			; Solution::Dur_Dur
PUBLIC	?Conversion@Solution@@AAEXV?$CStringT@_WV?$StrTraitMFC_DLL@_WV?$ChTraitsCRT@_W@ATL@@@@@ATL@@@Z ; Solution::Conversion
PUBLIC	??_GSolution@@UAEPAXI@Z				; Solution::`scalar deleting destructor'
PUBLIC	??_C@_15GANGMFKL@?$AA?$CF?$AAs?$AA?$AA@		; `string'
PUBLIC	?atlTraceException@ATL@@3V?$CTraceCategoryEx@$0CAAA@$0A@@1@A ; ATL::atlTraceException
PUBLIC	??_C@_1CE@IMMADNAP@?$AAa?$AAt?$AAl?$AAT?$AAr?$AAa?$AAc?$AAe?$AAE?$AAx?$AAc?$AAe?$AAp?$AAt?$AAi?$AAo?$AAn?$AA?$AA@ ; `string'
PUBLIC	?atlTraceString@ATL@@3V?$CTraceCategoryEx@$0CAAAA@$0A@@1@A ; ATL::atlTraceString
PUBLIC	??_C@_1BO@GMLILNDJ@?$AAa?$AAt?$AAl?$AAT?$AAr?$AAa?$AAc?$AAe?$AAS?$AAt?$AAr?$AAi?$AAn?$AAg?$AA?$AA@ ; `string'
PUBLIC	??_C@_1M@PLLAHAGD@?$AA?$CF?$AAs?$AA?5?$AA?9?$AA?5?$AA?$AA@ ; `string'
PUBLIC	??_C@_1M@PGKOAACE@?$AA?$CF?$AAu?$AA?5?$AA?9?$AA?5?$AA?$AA@ ; `string'
PUBLIC	??_C@_15MAOEGKJF@?$AA?$CF?$AAS?$AA?$AA@		; `string'
PUBLIC	??_C@_1EO@EBPPKGOM@?$AAf?$AAa?$AAl?$AAs?$AAe?$AA?5?$AA?$CG?$AA?$CG?$AA?5?$AA?$CC?$AAT?$AAo?$AAo?$AA?5?$AAm?$AAa?$AAn?$AAy?$AA?5?$AAc?$AAa?$AAt?$AAe?$AAg?$AAo?$AAr?$AAi?$AAe?$AAs?$AA?5?$AAd?$AAe@ ; `string'
PUBLIC	??_C@_1KC@GEMPEEJK@?$AAc?$AA?3?$AA?2?$AAp?$AAr?$AAo?$AAg?$AAr?$AAa?$AAm?$AA?5?$AAf?$AAi?$AAl?$AAe?$AAs?$AA?5?$AA?$CI?$AAx?$AA8?$AA6?$AA?$CJ?$AA?2?$AAm?$AAi?$AAc?$AAr?$AAo?$AAs?$AAo?$AAf?$AAt@ ; `string'
PUBLIC	?__LINE__Var@?1??AtlThrowImpl@ATL@@YGXJ@Z@4JA	; `ATL::AtlThrowImpl'::`2'::__LINE__Var
PUBLIC	??_C@_0FC@OFGMOGKO@c?3?2program?5files?5?$CIx86?$CJ?2microsoft@ ; `string'
PUBLIC	??_C@_1CK@DFMKPFAK@?$AAA?$AAt?$AAl?$AAT?$AAh?$AAr?$AAo?$AAw?$AA?3?$AA?5?$AAh?$AAr?$AA?5?$AA?$DN?$AA?5?$AA0?$AAx?$AA?$CF?$AAx?$AA?6?$AA?$AA@ ; `string'
PUBLIC	??_C@_1BM@GBBOFEAE@?$AA_?$AA_?$AAa?$AAt?$AAl?$AA_?$AAc?$AAo?$AAn?$AAd?$AAV?$AAa?$AAl?$AA?$AA@ ; `string'
PUBLIC	??_C@_13FPGAJAPJ@?$AA?2?$AA?$AA@		; `string'
PUBLIC	??_C@_1KA@OKIDMIHM@?$AAc?$AA?3?$AA?2?$AAp?$AAr?$AAo?$AAg?$AAr?$AAa?$AAm?$AA?5?$AAf?$AAi?$AAl?$AAe?$AAs?$AA?5?$AA?$CI?$AAx?$AA8?$AA6?$AA?$CJ?$AA?2?$AAm?$AAi?$AAc?$AAr?$AAo?$AAs?$AAo?$AAf?$AAt@ ; `string'
PUBLIC	?__LINE__Var@?1??GetLocalTm@CTime@ATL@@QBEPAUtm@@PAU4@@Z@4JA ; `ATL::CTime::GetLocalTm'::`2'::__LINE__Var
PUBLIC	??_C@_15KNBIKKIN@?$AA?$CF?$AAd?$AA?$AA@		; `string'
PUBLIC	??_C@_11LOCGONAA@?$AA?$AA@			; `string'
PUBLIC	??_C@_01EEMJAFIK@?6?$AA@			; `string'
PUBLIC	??_7Solution@@6B@				; Solution::`vftable'
PUBLIC	?__LINE__Var@?1??Definition_limite@Solution@@AAEXPAUHWND__@@@Z@4JA ; `Solution::Definition_limite'::`2'::__LINE__Var
PUBLIC	??_C@_0CN@IHCCPHM@c?3?2projets?2sudoku?2sudoku?2sudoku?2@ ; `string'
PUBLIC	??_C@_0BJ@LICJPAK@Text?5File?5?$CI?$CK?4txt?$CJ?$HM?$CK?4txt?$HM?$AA@ ; `string'
PUBLIC	??_C@_0BG@FALAGNOM@All?5Files?5?$CI?$CK?4?$CK?$CJ?$HM?$CK?4?$CK?$HM?$HM?$AA@ ; `string'
PUBLIC	??_C@_1BI@LHMMMGAL@?$AAS?$AAu?$AAd?$AAo?$AAk?$AAu?$AA?5?$AAF?$AAi?$AAl?$AAe?$AA?$AA@ ; `string'
PUBLIC	??_C@_1CC@DBEOBEPH@?$AAS?$AAu?$AAd?$AAo?$AAk?$AAu?$AA_?$AAi?$AAn?$AAp?$AAu?$AAt?$AA?4?$AAt?$AAx?$AAt?$AA?$AA@ ; `string'
PUBLIC	??_C@_15OMIKMFFN@?$AAr?$AAt?$AA?$AA@		; `string'
PUBLIC	??_C@_0BH@JLAFPNCO@Nombre?5d?8essais?5?3?5?$CFd?6?6?$AA@ ; `string'
PUBLIC	??_C@_1CK@FIOBKKHN@?$AAN?$AAo?$AAm?$AAb?$AAr?$AAe?$AA?5?$AAd?$AA?8?$AAe?$AAs?$AAs?$AAa?$AAi?$AAs?$AA?5?$AA?3?$AA?5?$AA?$CF?$AAd?$AA?$AA@ ; `string'
PUBLIC	??_C@_03JDANDILB@?$CFd?5?$AA@			; `string'
PUBLIC	??_C@_03EGHOKNNL@?6?6?6?$AA@			; `string'
PUBLIC	?__LINE__Var@?1???0Solution@@QAE@PAUHWND__@@@Z@4JA ; `Solution::Solution'::`2'::__LINE__Var
PUBLIC	??_C@_0N@EJFANHGM@resultat?4txt?$AA@		; `string'
PUBLIC	??_C@_17LFHOHKCB@?$AAw?$AA?$CL?$AAt?$AA?$AA@	; `string'
PUBLIC	?__LINE__Var@?1??Charger_valeur_saisie@Solution@@QAEHPAUHWND__@@@Z@4JA ; `Solution::Charger_valeur_saisie'::`2'::__LINE__Var
PUBLIC	?__LINE__Var@?1??Display_grille@Solution@@AAEXPAUHWND__@@@Z@4JA ; `Solution::Display_grille'::`2'::__LINE__Var
PUBLIC	??_C@_1DM@DDLFPJCI@?$AAE?$AAr?$AAr?$AAe?$AAu?$AAr?$AA?5?$AAl?$AAi?$AAg?$AAn?$AAe?$AA?5?$AA?$CF?$AAd?$AA?3?$AA?5?$AAn?$AAo?$AAm?$AAb?$AAr?$AAe?$AA?5?$AAe?$AAg?$AAa?$AAu?$AAx?$AA?$AA@ ; `string'
PUBLIC	??_C@_1EA@OLIANHL@?$AAE?$AAr?$AAr?$AAe?$AAu?$AAr?$AA?5?$AAc?$AAo?$AAl?$AAo?$AAn?$AAn?$AAe?$AA?5?$AA?$CF?$AAd?$AA?3?$AA?5?$AAn?$AAo?$AAm?$AAb?$AAr?$AAe?$AA?5?$AAe?$AAg?$AAa?$AAu?$AAx?$AA?$AA@ ; `string'
PUBLIC	??_C@_1EG@ECKKEMMN@?$AAE?$AAr?$AAr?$AAe?$AAu?$AAr?$AA?5?$AAs?$AAo?$AAu?$AAs?$AA?5?$AAc?$AAa?$AAr?$AAr?$AA?i?$AA?5?$AA?$CF?$AAd?$AA?3?$AA?5?$AAn?$AAo?$AAm?$AAb?$AAr?$AAe?$AA?5?$AAe?$AAg?$AAa@ ; `string'
PUBLIC	??_C@_1DI@EODPNPOH@?$AAH?$AAe?$AAu?$AAr?$AAe?$AA?5?$AAd?$AAe?$AA?5?$AAd?$AA?i?$AAb?$AAu?$AAt?$AA?5?$AA?5?$AA?3?$AA?5?$AA?$CF?$AAd?$AA?3?$AA?$CF?$AAd?$AA?3?$AA?$CF?$AAd?$AA?6?$AA?$AA@ ; `string'
PUBLIC	??_C@_1DM@CLCPNAMK@?$AAH?$AAe?$AAu?$AAr?$AAe?$AA?5?$AAd?$AAe?$AA?5?$AAf?$AAi?$AAn?$AA?5?$AA?5?$AA?5?$AA?5?$AA?3?$AA?5?$AA?$CF?$AAd?$AA?3?$AA?$CF?$AAd?$AA?3?$AA?$CF?$AAd?$AA?6?$AA?6?$AA?6?$AA?$AA@ ; `string'
PUBLIC	??_C@_02DKCKIIND@?$CFs?$AA@			; `string'
PUBLIC	??_R4Solution@@6B@				; Solution::`RTTI Complete Object Locator'
PUBLIC	??_R0?AVSolution@@@8				; Solution `RTTI Type Descriptor'
PUBLIC	??_R3Solution@@8				; Solution::`RTTI Class Hierarchy Descriptor'
PUBLIC	??_R2Solution@@8				; Solution::`RTTI Base Class Array'
PUBLIC	??_R1A@?0A@EA@Solution@@8			; Solution::`RTTI Base Class Descriptor at (0,-1,0,64)'
EXTRN	??2@YAPAXI@Z:PROC				; operator new
EXTRN	??3@YAXPAX@Z:PROC				; operator delete
EXTRN	__imp__memcpy_s:PROC
EXTRN	__imp__wcscpy_s:PROC
EXTRN	__imp__GetCurrentDirectoryW@8:PROC
EXTRN	__imp__SendMessageW@16:PROC
EXTRN	__imp__IsWindow@4:PROC
EXTRN	__imp__GetDlgItem@8:PROC
EXTRN	__imp__SetDlgItemTextW@12:PROC
EXTRN	__imp__GetDlgItemTextW@16:PROC
EXTRN	__imp__swprintf_s:PROC
EXTRN	__imp___vsnwprintf_s:PROC
EXTRN	__imp___wfopen:PROC
EXTRN	__imp__fclose:PROC
EXTRN	__imp__fgets:PROC
EXTRN	__imp__fprintf:PROC
EXTRN	__imp__atoi:PROC
EXTRN	__imp__wcstombs_s:PROC
EXTRN	__imp___localtime64_s:PROC
EXTRN	__imp___time64:PROC
EXTRN	__imp___CrtDbgReportW:PROC
EXTRN	??_U@YAPAXI@Z:PROC				; operator new[]
EXTRN	??_V@YAXPAX@Z:PROC				; operator delete[]
EXTRN	?AfxAssertFailedLine@@YGHPBDH@Z:PROC		; AfxAssertFailedLine
EXTRN	__imp__SysAllocString@4:PROC
EXTRN	__imp__SysFreeString@4:PROC
EXTRN	__imp__SysStringLen@4:PROC
EXTRN	__imp__SysAllocStringByteLen@8:PROC
EXTRN	?AfxThrowMemoryException@@YGXXZ:PROC		; AfxThrowMemoryException
EXTRN	?AfxThrowOleException@@YGXJ@Z:PROC		; AfxThrowOleException
EXTRN	__imp_??B?$CSimpleStringT@_W$00@ATL@@QBEPB_WXZ:PROC
EXTRN	__imp_?GetBuffer@?$CSimpleStringT@_W$00@ATL@@QAEPA_WXZ:PROC
EXTRN	__imp_?GetBuffer@?$CSimpleStringT@_W$00@ATL@@QAEPA_WH@Z:PROC
EXTRN	__imp_?GetLength@?$CSimpleStringT@_W$00@ATL@@QBEHXZ:PROC
EXTRN	__imp_?ReleaseBuffer@?$CSimpleStringT@_W$00@ATL@@QAEXH@Z:PROC
EXTRN	__imp_?Concatenate@?$CSimpleStringT@_W$00@ATL@@KAXAAV12@PB_WH1H@Z:PROC
EXTRN	__imp_??0?$CStringT@_WV?$StrTraitMFC_DLL@_WV?$ChTraitsCRT@_W@ATL@@@@@ATL@@QAE@XZ:PROC
EXTRN	__imp_??0?$CStringT@_WV?$StrTraitMFC_DLL@_WV?$ChTraitsCRT@_W@ATL@@@@@ATL@@QAE@PAUIAtlStringMgr@1@@Z:PROC
EXTRN	__imp_??0?$CStringT@_WV?$StrTraitMFC_DLL@_WV?$ChTraitsCRT@_W@ATL@@@@@ATL@@QAE@ABV01@@Z:PROC
EXTRN	__imp_??0?$CStringT@_WV?$StrTraitMFC_DLL@_WV?$ChTraitsCRT@_W@ATL@@@@@ATL@@QAE@PB_W@Z:PROC
EXTRN	__imp_??1?$CStringT@_WV?$StrTraitMFC_DLL@_WV?$ChTraitsCRT@_W@ATL@@@@@ATL@@QAE@XZ:PROC
EXTRN	__imp_??4?$CStringT@_WV?$StrTraitMFC_DLL@_WV?$ChTraitsCRT@_W@ATL@@@@@ATL@@QAEAAV01@PB_W@Z:PROC
EXTRN	__imp_??4?$CStringT@_WV?$StrTraitMFC_DLL@_WV?$ChTraitsCRT@_W@ATL@@@@@ATL@@QAEAAV01@PBD@Z:PROC
EXTRN	__imp_??Y?$CStringT@_WV?$StrTraitMFC_DLL@_WV?$ChTraitsCRT@_W@ATL@@@@@ATL@@QAEAAV01@PBD@Z:PROC
EXTRN	__imp_?GetManager@?$CStringT@_WV?$StrTraitMFC_DLL@_WV?$ChTraitsCRT@_W@ATL@@@@@ATL@@QBEPAUIAtlStringMgr@2@XZ:PROC
EXTRN	__imp_?Format@?$CStringT@_WV?$StrTraitMFC_DLL@_WV?$ChTraitsCRT@_W@ATL@@@@@ATL@@QAAXPB_WZZ:PROC
EXTRN	?AfxGetMainWnd@@YGPAVCWnd@@XZ:PROC		; AfxGetMainWnd
EXTRN	?AfxMessageBox@@YGHPB_WII@Z:PROC		; AfxMessageBox
EXTRN	?GetOFN@CFileDialog@@QAEAAUtagOFNW@@XZ:PROC	; CFileDialog::GetOFN
EXTRN	??0CFileDialog@@QAE@HPB_W0K0PAVCWnd@@KH@Z:PROC	; CFileDialog::CFileDialog
EXTRN	??1CFileDialog@@UAE@XZ:PROC			; CFileDialog::~CFileDialog
EXTRN	?DoModal@CFileDialog@@UAEHXZ:PROC		; CFileDialog::DoModal
EXTRN	__imp__SHGetFolderPathW@20:PROC
EXTRN	?_com_issue_error@@YGXJ@Z:PROC			; _com_issue_error
EXTRN	?ConvertStringToBSTR@_com_util@@YGPA_WPBD@Z:PROC ; _com_util::ConvertStringToBSTR
EXTRN	??_ESolution@@UAEPAXI@Z:PROC			; Solution::`vector deleting destructor'
EXTRN	@_RTC_CheckStackVars@8:PROC
EXTRN	@__security_check_cookie@4:PROC
EXTRN	__RTC_CheckEsp:PROC
EXTRN	__RTC_InitBase:PROC
EXTRN	__RTC_Shutdown:PROC
EXTRN	___CxxFrameHandler3:PROC
EXTRN	_memset:PROC
EXTRN	??_7type_info@@6B@:QWORD			; type_info::`vftable'
EXTRN	___security_cookie:DWORD
;	COMDAT ?atlTraceException@ATL@@3V?$CTraceCategoryEx@$0CAAA@$0A@@1@A
_BSS	SEGMENT
?atlTraceException@ATL@@3V?$CTraceCategoryEx@$0CAAA@$0A@@1@A DD 01H DUP (?) ; ATL::atlTraceException
_BSS	ENDS
;	COMDAT ?atlTraceString@ATL@@3V?$CTraceCategoryEx@$0CAAAA@$0A@@1@A
_BSS	SEGMENT
?atlTraceString@ATL@@3V?$CTraceCategoryEx@$0CAAAA@$0A@@1@A DD 01H DUP (?) ; ATL::atlTraceString
_BSS	ENDS
;	COMDAT CRT$XCU
CRT$XCU	SEGMENT
_atlTraceException$initializer$ DD FLAT:??__EatlTraceException@ATL@@YAXXZ
CRT$XCU	ENDS
;	COMDAT rtc$TMZ
rtc$TMZ	SEGMENT
__RTC_Shutdown.rtc$TMZ DD FLAT:__RTC_Shutdown
rtc$TMZ	ENDS
;	COMDAT rtc$IMZ
rtc$IMZ	SEGMENT
__RTC_InitBase.rtc$IMZ DD FLAT:__RTC_InitBase
rtc$IMZ	ENDS
;	COMDAT ??_R1A@?0A@EA@Solution@@8
rdata$r	SEGMENT
??_R1A@?0A@EA@Solution@@8 DD FLAT:??_R0?AVSolution@@@8	; Solution::`RTTI Base Class Descriptor at (0,-1,0,64)'
	DD	00H
	DD	00H
	DD	0ffffffffH
	DD	00H
	DD	040H
	DD	FLAT:??_R3Solution@@8
rdata$r	ENDS
;	COMDAT ??_R2Solution@@8
rdata$r	SEGMENT
??_R2Solution@@8 DD FLAT:??_R1A@?0A@EA@Solution@@8	; Solution::`RTTI Base Class Array'
rdata$r	ENDS
;	COMDAT ??_R3Solution@@8
rdata$r	SEGMENT
??_R3Solution@@8 DD 00H					; Solution::`RTTI Class Hierarchy Descriptor'
	DD	00H
	DD	01H
	DD	FLAT:??_R2Solution@@8
rdata$r	ENDS
;	COMDAT ??_R0?AVSolution@@@8
data$r	SEGMENT
??_R0?AVSolution@@@8 DD FLAT:??_7type_info@@6B@		; Solution `RTTI Type Descriptor'
	DD	00H
	DB	'.?AVSolution@@', 00H
data$r	ENDS
;	COMDAT ??_R4Solution@@6B@
rdata$r	SEGMENT
??_R4Solution@@6B@ DD 00H				; Solution::`RTTI Complete Object Locator'
	DD	00H
	DD	00H
	DD	FLAT:??_R0?AVSolution@@@8
	DD	FLAT:??_R3Solution@@8
rdata$r	ENDS
;	COMDAT ??_C@_02DKCKIIND@?$CFs?$AA@
CONST	SEGMENT
??_C@_02DKCKIIND@?$CFs?$AA@ DB '%s', 00H		; `string'
CONST	ENDS
;	COMDAT ??_C@_1DM@CLCPNAMK@?$AAH?$AAe?$AAu?$AAr?$AAe?$AA?5?$AAd?$AAe?$AA?5?$AAf?$AAi?$AAn?$AA?5?$AA?5?$AA?5?$AA?5?$AA?3?$AA?5?$AA?$CF?$AAd?$AA?3?$AA?$CF?$AAd?$AA?3?$AA?$CF?$AAd?$AA?6?$AA?6?$AA?6?$AA?$AA@
CONST	SEGMENT
??_C@_1DM@CLCPNAMK@?$AAH?$AAe?$AAu?$AAr?$AAe?$AA?5?$AAd?$AAe?$AA?5?$AAf?$AAi?$AAn?$AA?5?$AA?5?$AA?5?$AA?5?$AA?3?$AA?5?$AA?$CF?$AAd?$AA?3?$AA?$CF?$AAd?$AA?3?$AA?$CF?$AAd?$AA?6?$AA?6?$AA?6?$AA?$AA@ DB 'H'
	DB	00H, 'e', 00H, 'u', 00H, 'r', 00H, 'e', 00H, ' ', 00H, 'd', 00H
	DB	'e', 00H, ' ', 00H, 'f', 00H, 'i', 00H, 'n', 00H, ' ', 00H, ' '
	DB	00H, ' ', 00H, ' ', 00H, ':', 00H, ' ', 00H, '%', 00H, 'd', 00H
	DB	':', 00H, '%', 00H, 'd', 00H, ':', 00H, '%', 00H, 'd', 00H, 0aH
	DB	00H, 0aH, 00H, 0aH, 00H, 00H, 00H		; `string'
CONST	ENDS
;	COMDAT ??_C@_1DI@EODPNPOH@?$AAH?$AAe?$AAu?$AAr?$AAe?$AA?5?$AAd?$AAe?$AA?5?$AAd?$AA?i?$AAb?$AAu?$AAt?$AA?5?$AA?5?$AA?3?$AA?5?$AA?$CF?$AAd?$AA?3?$AA?$CF?$AAd?$AA?3?$AA?$CF?$AAd?$AA?6?$AA?$AA@
CONST	SEGMENT
??_C@_1DI@EODPNPOH@?$AAH?$AAe?$AAu?$AAr?$AAe?$AA?5?$AAd?$AAe?$AA?5?$AAd?$AA?i?$AAb?$AAu?$AAt?$AA?5?$AA?5?$AA?3?$AA?5?$AA?$CF?$AAd?$AA?3?$AA?$CF?$AAd?$AA?3?$AA?$CF?$AAd?$AA?6?$AA?$AA@ DB 'H'
	DB	00H, 'e', 00H, 'u', 00H, 'r', 00H, 'e', 00H, ' ', 00H, 'd', 00H
	DB	'e', 00H, ' ', 00H, 'd', 00H, 0e9H, 00H, 'b', 00H, 'u', 00H, 't'
	DB	00H, ' ', 00H, ' ', 00H, ':', 00H, ' ', 00H, '%', 00H, 'd', 00H
	DB	':', 00H, '%', 00H, 'd', 00H, ':', 00H, '%', 00H, 'd', 00H, 0aH
	DB	00H, 00H, 00H				; `string'
CONST	ENDS
;	COMDAT ??_C@_1EG@ECKKEMMN@?$AAE?$AAr?$AAr?$AAe?$AAu?$AAr?$AA?5?$AAs?$AAo?$AAu?$AAs?$AA?5?$AAc?$AAa?$AAr?$AAr?$AA?i?$AA?5?$AA?$CF?$AAd?$AA?3?$AA?5?$AAn?$AAo?$AAm?$AAb?$AAr?$AAe?$AA?5?$AAe?$AAg?$AAa@
CONST	SEGMENT
??_C@_1EG@ECKKEMMN@?$AAE?$AAr?$AAr?$AAe?$AAu?$AAr?$AA?5?$AAs?$AAo?$AAu?$AAs?$AA?5?$AAc?$AAa?$AAr?$AAr?$AA?i?$AA?5?$AA?$CF?$AAd?$AA?3?$AA?5?$AAn?$AAo?$AAm?$AAb?$AAr?$AAe?$AA?5?$AAe?$AAg?$AAa@ DB 'E'
	DB	00H, 'r', 00H, 'r', 00H, 'e', 00H, 'u', 00H, 'r', 00H, ' ', 00H
	DB	's', 00H, 'o', 00H, 'u', 00H, 's', 00H, ' ', 00H, 'c', 00H, 'a'
	DB	00H, 'r', 00H, 'r', 00H, 0e9H, 00H, ' ', 00H, '%', 00H, 'd', 00H
	DB	':', 00H, ' ', 00H, 'n', 00H, 'o', 00H, 'm', 00H, 'b', 00H, 'r'
	DB	00H, 'e', 00H, ' ', 00H, 'e', 00H, 'g', 00H, 'a', 00H, 'u', 00H
	DB	'x', 00H, 00H, 00H				; `string'
CONST	ENDS
;	COMDAT ??_C@_1EA@OLIANHL@?$AAE?$AAr?$AAr?$AAe?$AAu?$AAr?$AA?5?$AAc?$AAo?$AAl?$AAo?$AAn?$AAn?$AAe?$AA?5?$AA?$CF?$AAd?$AA?3?$AA?5?$AAn?$AAo?$AAm?$AAb?$AAr?$AAe?$AA?5?$AAe?$AAg?$AAa?$AAu?$AAx?$AA?$AA@
CONST	SEGMENT
??_C@_1EA@OLIANHL@?$AAE?$AAr?$AAr?$AAe?$AAu?$AAr?$AA?5?$AAc?$AAo?$AAl?$AAo?$AAn?$AAn?$AAe?$AA?5?$AA?$CF?$AAd?$AA?3?$AA?5?$AAn?$AAo?$AAm?$AAb?$AAr?$AAe?$AA?5?$AAe?$AAg?$AAa?$AAu?$AAx?$AA?$AA@ DB 'E'
	DB	00H, 'r', 00H, 'r', 00H, 'e', 00H, 'u', 00H, 'r', 00H, ' ', 00H
	DB	'c', 00H, 'o', 00H, 'l', 00H, 'o', 00H, 'n', 00H, 'n', 00H, 'e'
	DB	00H, ' ', 00H, '%', 00H, 'd', 00H, ':', 00H, ' ', 00H, 'n', 00H
	DB	'o', 00H, 'm', 00H, 'b', 00H, 'r', 00H, 'e', 00H, ' ', 00H, 'e'
	DB	00H, 'g', 00H, 'a', 00H, 'u', 00H, 'x', 00H, 00H, 00H ; `string'
CONST	ENDS
;	COMDAT ??_C@_1DM@DDLFPJCI@?$AAE?$AAr?$AAr?$AAe?$AAu?$AAr?$AA?5?$AAl?$AAi?$AAg?$AAn?$AAe?$AA?5?$AA?$CF?$AAd?$AA?3?$AA?5?$AAn?$AAo?$AAm?$AAb?$AAr?$AAe?$AA?5?$AAe?$AAg?$AAa?$AAu?$AAx?$AA?$AA@
CONST	SEGMENT
??_C@_1DM@DDLFPJCI@?$AAE?$AAr?$AAr?$AAe?$AAu?$AAr?$AA?5?$AAl?$AAi?$AAg?$AAn?$AAe?$AA?5?$AA?$CF?$AAd?$AA?3?$AA?5?$AAn?$AAo?$AAm?$AAb?$AAr?$AAe?$AA?5?$AAe?$AAg?$AAa?$AAu?$AAx?$AA?$AA@ DB 'E'
	DB	00H, 'r', 00H, 'r', 00H, 'e', 00H, 'u', 00H, 'r', 00H, ' ', 00H
	DB	'l', 00H, 'i', 00H, 'g', 00H, 'n', 00H, 'e', 00H, ' ', 00H, '%'
	DB	00H, 'd', 00H, ':', 00H, ' ', 00H, 'n', 00H, 'o', 00H, 'm', 00H
	DB	'b', 00H, 'r', 00H, 'e', 00H, ' ', 00H, 'e', 00H, 'g', 00H, 'a'
	DB	00H, 'u', 00H, 'x', 00H, 00H, 00H		; `string'
CONST	ENDS
;	COMDAT ?__LINE__Var@?1??Display_grille@Solution@@AAEXPAUHWND__@@@Z@4JA
_DATA	SEGMENT
?__LINE__Var@?1??Display_grille@Solution@@AAEXPAUHWND__@@@Z@4JA DD 0115H ; `Solution::Display_grille'::`2'::__LINE__Var
_DATA	ENDS
;	COMDAT ?__LINE__Var@?1??Charger_valeur_saisie@Solution@@QAEHPAUHWND__@@@Z@4JA
_DATA	SEGMENT
?__LINE__Var@?1??Charger_valeur_saisie@Solution@@QAEHPAUHWND__@@@Z@4JA DD 0e0H ; `Solution::Charger_valeur_saisie'::`2'::__LINE__Var
_DATA	ENDS
;	COMDAT ??_C@_17LFHOHKCB@?$AAw?$AA?$CL?$AAt?$AA?$AA@
CONST	SEGMENT
??_C@_17LFHOHKCB@?$AAw?$AA?$CL?$AAt?$AA?$AA@ DB 'w', 00H, '+', 00H, 't', 00H
	DB	00H, 00H					; `string'
CONST	ENDS
;	COMDAT ??_C@_0N@EJFANHGM@resultat?4txt?$AA@
CONST	SEGMENT
??_C@_0N@EJFANHGM@resultat?4txt?$AA@ DB 'resultat.txt', 00H ; `string'
CONST	ENDS
;	COMDAT ?__LINE__Var@?1???0Solution@@QAE@PAUHWND__@@@Z@4JA
_DATA	SEGMENT
?__LINE__Var@?1???0Solution@@QAE@PAUHWND__@@@Z@4JA DD 0c5H ; `Solution::Solution'::`2'::__LINE__Var
_DATA	ENDS
;	COMDAT ??_C@_03EGHOKNNL@?6?6?6?$AA@
CONST	SEGMENT
??_C@_03EGHOKNNL@?6?6?6?$AA@ DB 0aH, 0aH, 0aH, 00H	; `string'
CONST	ENDS
;	COMDAT ??_C@_03JDANDILB@?$CFd?5?$AA@
CONST	SEGMENT
??_C@_03JDANDILB@?$CFd?5?$AA@ DB '%d ', 00H		; `string'
CONST	ENDS
;	COMDAT ??_C@_1CK@FIOBKKHN@?$AAN?$AAo?$AAm?$AAb?$AAr?$AAe?$AA?5?$AAd?$AA?8?$AAe?$AAs?$AAs?$AAa?$AAi?$AAs?$AA?5?$AA?3?$AA?5?$AA?$CF?$AAd?$AA?$AA@
CONST	SEGMENT
??_C@_1CK@FIOBKKHN@?$AAN?$AAo?$AAm?$AAb?$AAr?$AAe?$AA?5?$AAd?$AA?8?$AAe?$AAs?$AAs?$AAa?$AAi?$AAs?$AA?5?$AA?3?$AA?5?$AA?$CF?$AAd?$AA?$AA@ DB 'N'
	DB	00H, 'o', 00H, 'm', 00H, 'b', 00H, 'r', 00H, 'e', 00H, ' ', 00H
	DB	'd', 00H, '''', 00H, 'e', 00H, 's', 00H, 's', 00H, 'a', 00H, 'i'
	DB	00H, 's', 00H, ' ', 00H, ':', 00H, ' ', 00H, '%', 00H, 'd', 00H
	DB	00H, 00H					; `string'
CONST	ENDS
;	COMDAT ??_C@_0BH@JLAFPNCO@Nombre?5d?8essais?5?3?5?$CFd?6?6?$AA@
CONST	SEGMENT
??_C@_0BH@JLAFPNCO@Nombre?5d?8essais?5?3?5?$CFd?6?6?$AA@ DB 'Nombre d''es'
	DB	'sais : %d', 0aH, 0aH, 00H			; `string'
CONST	ENDS
;	COMDAT ??_C@_15OMIKMFFN@?$AAr?$AAt?$AA?$AA@
CONST	SEGMENT
??_C@_15OMIKMFFN@?$AAr?$AAt?$AA?$AA@ DB 'r', 00H, 't', 00H, 00H, 00H ; `string'
CONST	ENDS
;	COMDAT ??_C@_1CC@DBEOBEPH@?$AAS?$AAu?$AAd?$AAo?$AAk?$AAu?$AA_?$AAi?$AAn?$AAp?$AAu?$AAt?$AA?4?$AAt?$AAx?$AAt?$AA?$AA@
CONST	SEGMENT
??_C@_1CC@DBEOBEPH@?$AAS?$AAu?$AAd?$AAo?$AAk?$AAu?$AA_?$AAi?$AAn?$AAp?$AAu?$AAt?$AA?4?$AAt?$AAx?$AAt?$AA?$AA@ DB 'S'
	DB	00H, 'u', 00H, 'd', 00H, 'o', 00H, 'k', 00H, 'u', 00H, '_', 00H
	DB	'i', 00H, 'n', 00H, 'p', 00H, 'u', 00H, 't', 00H, '.', 00H, 't'
	DB	00H, 'x', 00H, 't', 00H, 00H, 00H		; `string'
CONST	ENDS
;	COMDAT ??_C@_1BI@LHMMMGAL@?$AAS?$AAu?$AAd?$AAo?$AAk?$AAu?$AA?5?$AAF?$AAi?$AAl?$AAe?$AA?$AA@
CONST	SEGMENT
??_C@_1BI@LHMMMGAL@?$AAS?$AAu?$AAd?$AAo?$AAk?$AAu?$AA?5?$AAF?$AAi?$AAl?$AAe?$AA?$AA@ DB 'S'
	DB	00H, 'u', 00H, 'd', 00H, 'o', 00H, 'k', 00H, 'u', 00H, ' ', 00H
	DB	'F', 00H, 'i', 00H, 'l', 00H, 'e', 00H, 00H, 00H ; `string'
CONST	ENDS
;	COMDAT ??_C@_0BG@FALAGNOM@All?5Files?5?$CI?$CK?4?$CK?$CJ?$HM?$CK?4?$CK?$HM?$HM?$AA@
CONST	SEGMENT
??_C@_0BG@FALAGNOM@All?5Files?5?$CI?$CK?4?$CK?$CJ?$HM?$CK?4?$CK?$HM?$HM?$AA@ DB 'A'
	DB	'll Files (*.*)|*.*||', 00H			; `string'
CONST	ENDS
;	COMDAT ??_C@_0BJ@LICJPAK@Text?5File?5?$CI?$CK?4txt?$CJ?$HM?$CK?4txt?$HM?$AA@
CONST	SEGMENT
??_C@_0BJ@LICJPAK@Text?5File?5?$CI?$CK?4txt?$CJ?$HM?$CK?4txt?$HM?$AA@ DB 'T'
	DB	'ext File (*.txt)|*.txt|', 00H		; `string'
CONST	ENDS
;	COMDAT ??_C@_0CN@IHCCPHM@c?3?2projets?2sudoku?2sudoku?2sudoku?2@
CONST	SEGMENT
??_C@_0CN@IHCCPHM@c?3?2projets?2sudoku?2sudoku?2sudoku?2@ DB 'c:\projets\'
	DB	'sudoku\sudoku\sudoku\solution.cpp', 00H	; `string'
CONST	ENDS
;	COMDAT ?__LINE__Var@?1??Definition_limite@Solution@@AAEXPAUHWND__@@@Z@4JA
_DATA	SEGMENT
?__LINE__Var@?1??Definition_limite@Solution@@AAEXPAUHWND__@@@Z@4JA DD 016H ; `Solution::Definition_limite'::`2'::__LINE__Var
_DATA	ENDS
;	COMDAT ??_7Solution@@6B@
CONST	SEGMENT
??_7Solution@@6B@ DD FLAT:??_R4Solution@@6B@		; Solution::`vftable'
	DD	FLAT:??_ESolution@@UAEPAXI@Z
CONST	ENDS
;	COMDAT ??_C@_01EEMJAFIK@?6?$AA@
CONST	SEGMENT
??_C@_01EEMJAFIK@?6?$AA@ DB 0aH, 00H			; `string'
CONST	ENDS
;	COMDAT ??_C@_11LOCGONAA@?$AA?$AA@
CONST	SEGMENT
??_C@_11LOCGONAA@?$AA?$AA@ DB 00H, 00H			; `string'
CONST	ENDS
;	COMDAT ??_C@_15KNBIKKIN@?$AA?$CF?$AAd?$AA?$AA@
CONST	SEGMENT
??_C@_15KNBIKKIN@?$AA?$CF?$AAd?$AA?$AA@ DB '%', 00H, 'd', 00H, 00H, 00H ; `string'
CONST	ENDS
;	COMDAT ?__LINE__Var@?1??GetLocalTm@CTime@ATL@@QBEPAUtm@@PAU4@@Z@4JA
_DATA	SEGMENT
?__LINE__Var@?1??GetLocalTm@CTime@ATL@@QBEPAUtm@@PAU4@@Z@4JA DD 0258H ; `ATL::CTime::GetLocalTm'::`2'::__LINE__Var
_DATA	ENDS
;	COMDAT ??_C@_1KA@OKIDMIHM@?$AAc?$AA?3?$AA?2?$AAp?$AAr?$AAo?$AAg?$AAr?$AAa?$AAm?$AA?5?$AAf?$AAi?$AAl?$AAe?$AAs?$AA?5?$AA?$CI?$AAx?$AA8?$AA6?$AA?$CJ?$AA?2?$AAm?$AAi?$AAc?$AAr?$AAo?$AAs?$AAo?$AAf?$AAt@
CONST	SEGMENT
??_C@_1KA@OKIDMIHM@?$AAc?$AA?3?$AA?2?$AAp?$AAr?$AAo?$AAg?$AAr?$AAa?$AAm?$AA?5?$AAf?$AAi?$AAl?$AAe?$AAs?$AA?5?$AA?$CI?$AAx?$AA8?$AA6?$AA?$CJ?$AA?2?$AAm?$AAi?$AAc?$AAr?$AAo?$AAs?$AAo?$AAf?$AAt@ DB 'c'
	DB	00H, ':', 00H, '\', 00H, 'p', 00H, 'r', 00H, 'o', 00H, 'g', 00H
	DB	'r', 00H, 'a', 00H, 'm', 00H, ' ', 00H, 'f', 00H, 'i', 00H, 'l'
	DB	00H, 'e', 00H, 's', 00H, ' ', 00H, '(', 00H, 'x', 00H, '8', 00H
	DB	'6', 00H, ')', 00H, '\', 00H, 'm', 00H, 'i', 00H, 'c', 00H, 'r'
	DB	00H, 'o', 00H, 's', 00H, 'o', 00H, 'f', 00H, 't', 00H, ' ', 00H
	DB	'v', 00H, 'i', 00H, 's', 00H, 'u', 00H, 'a', 00H, 'l', 00H, ' '
	DB	00H, 's', 00H, 't', 00H, 'u', 00H, 'd', 00H, 'i', 00H, 'o', 00H
	DB	' ', 00H, '1', 00H, '2', 00H, '.', 00H, '0', 00H, '\', 00H, 'v'
	DB	00H, 'c', 00H, '\', 00H, 'a', 00H, 't', 00H, 'l', 00H, 'm', 00H
	DB	'f', 00H, 'c', 00H, '\', 00H, 'i', 00H, 'n', 00H, 'c', 00H, 'l'
	DB	00H, 'u', 00H, 'd', 00H, 'e', 00H, '\', 00H, 'a', 00H, 't', 00H
	DB	'l', 00H, 't', 00H, 'i', 00H, 'm', 00H, 'e', 00H, '.', 00H, 'h'
	DB	00H, 00H, 00H				; `string'
CONST	ENDS
;	COMDAT ??_C@_13FPGAJAPJ@?$AA?2?$AA?$AA@
CONST	SEGMENT
??_C@_13FPGAJAPJ@?$AA?2?$AA?$AA@ DB '\', 00H, 00H, 00H	; `string'
CONST	ENDS
;	COMDAT ??_C@_1BM@GBBOFEAE@?$AA_?$AA_?$AAa?$AAt?$AAl?$AA_?$AAc?$AAo?$AAn?$AAd?$AAV?$AAa?$AAl?$AA?$AA@
CONST	SEGMENT
??_C@_1BM@GBBOFEAE@?$AA_?$AA_?$AAa?$AAt?$AAl?$AA_?$AAc?$AAo?$AAn?$AAd?$AAV?$AAa?$AAl?$AA?$AA@ DB '_'
	DB	00H, '_', 00H, 'a', 00H, 't', 00H, 'l', 00H, '_', 00H, 'c', 00H
	DB	'o', 00H, 'n', 00H, 'd', 00H, 'V', 00H, 'a', 00H, 'l', 00H, 00H
	DB	00H						; `string'
CONST	ENDS
;	COMDAT ??_C@_1CK@DFMKPFAK@?$AAA?$AAt?$AAl?$AAT?$AAh?$AAr?$AAo?$AAw?$AA?3?$AA?5?$AAh?$AAr?$AA?5?$AA?$DN?$AA?5?$AA0?$AAx?$AA?$CF?$AAx?$AA?6?$AA?$AA@
CONST	SEGMENT
??_C@_1CK@DFMKPFAK@?$AAA?$AAt?$AAl?$AAT?$AAh?$AAr?$AAo?$AAw?$AA?3?$AA?5?$AAh?$AAr?$AA?5?$AA?$DN?$AA?5?$AA0?$AAx?$AA?$CF?$AAx?$AA?6?$AA?$AA@ DB 'A'
	DB	00H, 't', 00H, 'l', 00H, 'T', 00H, 'h', 00H, 'r', 00H, 'o', 00H
	DB	'w', 00H, ':', 00H, ' ', 00H, 'h', 00H, 'r', 00H, ' ', 00H, '='
	DB	00H, ' ', 00H, '0', 00H, 'x', 00H, '%', 00H, 'x', 00H, 0aH, 00H
	DB	00H, 00H					; `string'
CONST	ENDS
;	COMDAT ??_C@_0FC@OFGMOGKO@c?3?2program?5files?5?$CIx86?$CJ?2microsoft@
CONST	SEGMENT
??_C@_0FC@OFGMOGKO@c?3?2program?5files?5?$CIx86?$CJ?2microsoft@ DB 'c:\pr'
	DB	'ogram files (x86)\microsoft visual studio 12.0\vc\atlmfc\incl'
	DB	'ude\atlexcept.h', 00H			; `string'
CONST	ENDS
;	COMDAT ?__LINE__Var@?1??AtlThrowImpl@ATL@@YGXJ@Z@4JA
_DATA	SEGMENT
?__LINE__Var@?1??AtlThrowImpl@ATL@@YGXJ@Z@4JA DD 041H	; `ATL::AtlThrowImpl'::`2'::__LINE__Var
_DATA	ENDS
;	COMDAT ??_C@_1KC@GEMPEEJK@?$AAc?$AA?3?$AA?2?$AAp?$AAr?$AAo?$AAg?$AAr?$AAa?$AAm?$AA?5?$AAf?$AAi?$AAl?$AAe?$AAs?$AA?5?$AA?$CI?$AAx?$AA8?$AA6?$AA?$CJ?$AA?2?$AAm?$AAi?$AAc?$AAr?$AAo?$AAs?$AAo?$AAf?$AAt@
CONST	SEGMENT
??_C@_1KC@GEMPEEJK@?$AAc?$AA?3?$AA?2?$AAp?$AAr?$AAo?$AAg?$AAr?$AAa?$AAm?$AA?5?$AAf?$AAi?$AAl?$AAe?$AAs?$AA?5?$AA?$CI?$AAx?$AA8?$AA6?$AA?$CJ?$AA?2?$AAm?$AAi?$AAc?$AAr?$AAo?$AAs?$AAo?$AAf?$AAt@ DB 'c'
	DB	00H, ':', 00H, '\', 00H, 'p', 00H, 'r', 00H, 'o', 00H, 'g', 00H
	DB	'r', 00H, 'a', 00H, 'm', 00H, ' ', 00H, 'f', 00H, 'i', 00H, 'l'
	DB	00H, 'e', 00H, 's', 00H, ' ', 00H, '(', 00H, 'x', 00H, '8', 00H
	DB	'6', 00H, ')', 00H, '\', 00H, 'm', 00H, 'i', 00H, 'c', 00H, 'r'
	DB	00H, 'o', 00H, 's', 00H, 'o', 00H, 'f', 00H, 't', 00H, ' ', 00H
	DB	'v', 00H, 'i', 00H, 's', 00H, 'u', 00H, 'a', 00H, 'l', 00H, ' '
	DB	00H, 's', 00H, 't', 00H, 'u', 00H, 'd', 00H, 'i', 00H, 'o', 00H
	DB	' ', 00H, '1', 00H, '2', 00H, '.', 00H, '0', 00H, '\', 00H, 'v'
	DB	00H, 'c', 00H, '\', 00H, 'a', 00H, 't', 00H, 'l', 00H, 'm', 00H
	DB	'f', 00H, 'c', 00H, '\', 00H, 'i', 00H, 'n', 00H, 'c', 00H, 'l'
	DB	00H, 'u', 00H, 'd', 00H, 'e', 00H, '\', 00H, 'a', 00H, 't', 00H
	DB	'l', 00H, 't', 00H, 'r', 00H, 'a', 00H, 'c', 00H, 'e', 00H, '.'
	DB	00H, 'h', 00H, 00H, 00H			; `string'
CONST	ENDS
;	COMDAT ??_C@_1EO@EBPPKGOM@?$AAf?$AAa?$AAl?$AAs?$AAe?$AA?5?$AA?$CG?$AA?$CG?$AA?5?$AA?$CC?$AAT?$AAo?$AAo?$AA?5?$AAm?$AAa?$AAn?$AAy?$AA?5?$AAc?$AAa?$AAt?$AAe?$AAg?$AAo?$AAr?$AAi?$AAe?$AAs?$AA?5?$AAd?$AAe@
CONST	SEGMENT
??_C@_1EO@EBPPKGOM@?$AAf?$AAa?$AAl?$AAs?$AAe?$AA?5?$AA?$CG?$AA?$CG?$AA?5?$AA?$CC?$AAT?$AAo?$AAo?$AA?5?$AAm?$AAa?$AAn?$AAy?$AA?5?$AAc?$AAa?$AAt?$AAe?$AAg?$AAo?$AAr?$AAi?$AAe?$AAs?$AA?5?$AAd?$AAe@ DB 'f'
	DB	00H, 'a', 00H, 'l', 00H, 's', 00H, 'e', 00H, ' ', 00H, '&', 00H
	DB	'&', 00H, ' ', 00H, '"', 00H, 'T', 00H, 'o', 00H, 'o', 00H, ' '
	DB	00H, 'm', 00H, 'a', 00H, 'n', 00H, 'y', 00H, ' ', 00H, 'c', 00H
	DB	'a', 00H, 't', 00H, 'e', 00H, 'g', 00H, 'o', 00H, 'r', 00H, 'i'
	DB	00H, 'e', 00H, 's', 00H, ' ', 00H, 'd', 00H, 'e', 00H, 'f', 00H
	DB	'i', 00H, 'n', 00H, 'e', 00H, 'd', 00H, '"', 00H, 00H, 00H ; `string'
CONST	ENDS
;	COMDAT ??_C@_15MAOEGKJF@?$AA?$CF?$AAS?$AA?$AA@
CONST	SEGMENT
??_C@_15MAOEGKJF@?$AA?$CF?$AAS?$AA?$AA@ DB '%', 00H, 'S', 00H, 00H, 00H ; `string'
CONST	ENDS
;	COMDAT ??_C@_1M@PGKOAACE@?$AA?$CF?$AAu?$AA?5?$AA?9?$AA?5?$AA?$AA@
CONST	SEGMENT
??_C@_1M@PGKOAACE@?$AA?$CF?$AAu?$AA?5?$AA?9?$AA?5?$AA?$AA@ DB '%', 00H, 'u'
	DB	00H, ' ', 00H, '-', 00H, ' ', 00H, 00H, 00H	; `string'
CONST	ENDS
;	COMDAT ??_C@_1M@PLLAHAGD@?$AA?$CF?$AAs?$AA?5?$AA?9?$AA?5?$AA?$AA@
CONST	SEGMENT
??_C@_1M@PLLAHAGD@?$AA?$CF?$AAs?$AA?5?$AA?9?$AA?5?$AA?$AA@ DB '%', 00H, 's'
	DB	00H, ' ', 00H, '-', 00H, ' ', 00H, 00H, 00H	; `string'
CONST	ENDS
;	COMDAT ??_C@_1BO@GMLILNDJ@?$AAa?$AAt?$AAl?$AAT?$AAr?$AAa?$AAc?$AAe?$AAS?$AAt?$AAr?$AAi?$AAn?$AAg?$AA?$AA@
CONST	SEGMENT
??_C@_1BO@GMLILNDJ@?$AAa?$AAt?$AAl?$AAT?$AAr?$AAa?$AAc?$AAe?$AAS?$AAt?$AAr?$AAi?$AAn?$AAg?$AA?$AA@ DB 'a'
	DB	00H, 't', 00H, 'l', 00H, 'T', 00H, 'r', 00H, 'a', 00H, 'c', 00H
	DB	'e', 00H, 'S', 00H, 't', 00H, 'r', 00H, 'i', 00H, 'n', 00H, 'g'
	DB	00H, 00H, 00H				; `string'
CONST	ENDS
;	COMDAT ??_C@_1CE@IMMADNAP@?$AAa?$AAt?$AAl?$AAT?$AAr?$AAa?$AAc?$AAe?$AAE?$AAx?$AAc?$AAe?$AAp?$AAt?$AAi?$AAo?$AAn?$AA?$AA@
CONST	SEGMENT
??_C@_1CE@IMMADNAP@?$AAa?$AAt?$AAl?$AAT?$AAr?$AAa?$AAc?$AAe?$AAE?$AAx?$AAc?$AAe?$AAp?$AAt?$AAi?$AAo?$AAn?$AA?$AA@ DB 'a'
	DB	00H, 't', 00H, 'l', 00H, 'T', 00H, 'r', 00H, 'a', 00H, 'c', 00H
	DB	'e', 00H, 'E', 00H, 'x', 00H, 'c', 00H, 'e', 00H, 'p', 00H, 't'
	DB	00H, 'i', 00H, 'o', 00H, 'n', 00H, 00H, 00H	; `string'
CONST	ENDS
;	COMDAT ??_C@_15GANGMFKL@?$AA?$CF?$AAs?$AA?$AA@
CONST	SEGMENT
??_C@_15GANGMFKL@?$AA?$CF?$AAs?$AA?$AA@ DB '%', 00H, 's', 00H, 00H, 00H ; `string'
CONST	ENDS
;	COMDAT xdata$x
xdata$x	SEGMENT
__unwindtable$?Conversion@Solution@@AAEXV?$CStringT@_WV?$StrTraitMFC_DLL@_WV?$ChTraitsCRT@_W@ATL@@@@@ATL@@@Z DD 0ffffffffH
	DD	FLAT:__unwindfunclet$?Conversion@Solution@@AAEXV?$CStringT@_WV?$StrTraitMFC_DLL@_WV?$ChTraitsCRT@_W@ATL@@@@@ATL@@@Z$0
__ehfuncinfo$?Conversion@Solution@@AAEXV?$CStringT@_WV?$StrTraitMFC_DLL@_WV?$ChTraitsCRT@_W@ATL@@@@@ATL@@@Z DD 019930522H
	DD	01H
	DD	FLAT:__unwindtable$?Conversion@Solution@@AAEXV?$CStringT@_WV?$StrTraitMFC_DLL@_WV?$ChTraitsCRT@_W@ATL@@@@@ATL@@@Z
	DD	2 DUP(00H)
	DD	2 DUP(00H)
	DD	00H
	DD	01H
xdata$x	ENDS
;	COMDAT xdata$x
xdata$x	SEGMENT
__unwindtable$?Sepcial_Folder@Solution@@AAE?AV?$CStringT@_WV?$StrTraitMFC_DLL@_WV?$ChTraitsCRT@_W@ATL@@@@@ATL@@H@Z DD 0ffffffffH
	DD	FLAT:__unwindfunclet$?Sepcial_Folder@Solution@@AAE?AV?$CStringT@_WV?$StrTraitMFC_DLL@_WV?$ChTraitsCRT@_W@ATL@@@@@ATL@@H@Z$0
__ehfuncinfo$?Sepcial_Folder@Solution@@AAE?AV?$CStringT@_WV?$StrTraitMFC_DLL@_WV?$ChTraitsCRT@_W@ATL@@@@@ATL@@H@Z DD 019930522H
	DD	01H
	DD	FLAT:__unwindtable$?Sepcial_Folder@Solution@@AAE?AV?$CStringT@_WV?$StrTraitMFC_DLL@_WV?$ChTraitsCRT@_W@ATL@@@@@ATL@@H@Z
	DD	2 DUP(00H)
	DD	2 DUP(00H)
	DD	00H
	DD	01H
xdata$x	ENDS
;	COMDAT xdata$x
xdata$x	SEGMENT
__unwindtable$?Folder@Solution@@AAE?AV?$CStringT@_WV?$StrTraitMFC_DLL@_WV?$ChTraitsCRT@_W@ATL@@@@@ATL@@XZ DD 0ffffffffH
	DD	FLAT:__unwindfunclet$?Folder@Solution@@AAE?AV?$CStringT@_WV?$StrTraitMFC_DLL@_WV?$ChTraitsCRT@_W@ATL@@@@@ATL@@XZ$0
	DD	00H
	DD	FLAT:__unwindfunclet$?Folder@Solution@@AAE?AV?$CStringT@_WV?$StrTraitMFC_DLL@_WV?$ChTraitsCRT@_W@ATL@@@@@ATL@@XZ$1
	DD	01H
	DD	FLAT:__unwindfunclet$?Folder@Solution@@AAE?AV?$CStringT@_WV?$StrTraitMFC_DLL@_WV?$ChTraitsCRT@_W@ATL@@@@@ATL@@XZ$2
	DD	00H
	DD	FLAT:__unwindfunclet$?Folder@Solution@@AAE?AV?$CStringT@_WV?$StrTraitMFC_DLL@_WV?$ChTraitsCRT@_W@ATL@@@@@ATL@@XZ$2
__ehfuncinfo$?Folder@Solution@@AAE?AV?$CStringT@_WV?$StrTraitMFC_DLL@_WV?$ChTraitsCRT@_W@ATL@@@@@ATL@@XZ DD 019930522H
	DD	04H
	DD	FLAT:__unwindtable$?Folder@Solution@@AAE?AV?$CStringT@_WV?$StrTraitMFC_DLL@_WV?$ChTraitsCRT@_W@ATL@@@@@ATL@@XZ
	DD	2 DUP(00H)
	DD	2 DUP(00H)
	DD	00H
	DD	01H
xdata$x	ENDS
;	COMDAT xdata$x
xdata$x	SEGMENT
__unwindtable$?Open_File@Solution@@AAE_NPA_W@Z DD 0ffffffffH
	DD	FLAT:__unwindfunclet$?Open_File@Solution@@AAE_NPA_W@Z$0
	DD	00H
	DD	FLAT:__unwindfunclet$?Open_File@Solution@@AAE_NPA_W@Z$1
	DD	01H
	DD	FLAT:__unwindfunclet$?Open_File@Solution@@AAE_NPA_W@Z$2
	DD	02H
	DD	FLAT:__unwindfunclet$?Open_File@Solution@@AAE_NPA_W@Z$3
__ehfuncinfo$?Open_File@Solution@@AAE_NPA_W@Z DD 019930522H
	DD	04H
	DD	FLAT:__unwindtable$?Open_File@Solution@@AAE_NPA_W@Z
	DD	2 DUP(00H)
	DD	2 DUP(00H)
	DD	00H
	DD	01H
xdata$x	ENDS
;	COMDAT xdata$x
xdata$x	SEGMENT
__unwindtable$?Current_Dir@Solution@@AAE?AV?$CStringT@_WV?$StrTraitMFC_DLL@_WV?$ChTraitsCRT@_W@ATL@@@@@ATL@@XZ DD 0ffffffffH
	DD	FLAT:__unwindfunclet$?Current_Dir@Solution@@AAE?AV?$CStringT@_WV?$StrTraitMFC_DLL@_WV?$ChTraitsCRT@_W@ATL@@@@@ATL@@XZ$0
__ehfuncinfo$?Current_Dir@Solution@@AAE?AV?$CStringT@_WV?$StrTraitMFC_DLL@_WV?$ChTraitsCRT@_W@ATL@@@@@ATL@@XZ DD 019930522H
	DD	01H
	DD	FLAT:__unwindtable$?Current_Dir@Solution@@AAE?AV?$CStringT@_WV?$StrTraitMFC_DLL@_WV?$ChTraitsCRT@_W@ATL@@@@@ATL@@XZ
	DD	2 DUP(00H)
	DD	2 DUP(00H)
	DD	00H
	DD	01H
xdata$x	ENDS
;	COMDAT xdata$x
xdata$x	SEGMENT
__unwindtable$?Print@Solution@@AAEXXZ DD 0ffffffffH
	DD	FLAT:__unwindfunclet$?Print@Solution@@AAEXXZ$0
__ehfuncinfo$?Print@Solution@@AAEXXZ DD 019930522H
	DD	01H
	DD	FLAT:__unwindtable$?Print@Solution@@AAEXXZ
	DD	2 DUP(00H)
	DD	2 DUP(00H)
	DD	00H
	DD	01H
xdata$x	ENDS
;	COMDAT xdata$x
xdata$x	SEGMENT
__unwindtable$?Display_grille@Solution@@AAEXPAUHWND__@@@Z DD 0ffffffffH
	DD	FLAT:__unwindfunclet$?Display_grille@Solution@@AAEXPAUHWND__@@@Z$0
__ehfuncinfo$?Display_grille@Solution@@AAEXPAUHWND__@@@Z DD 019930522H
	DD	01H
	DD	FLAT:__unwindtable$?Display_grille@Solution@@AAEXPAUHWND__@@@Z
	DD	2 DUP(00H)
	DD	2 DUP(00H)
	DD	00H
	DD	01H
xdata$x	ENDS
;	COMDAT xdata$x
xdata$x	SEGMENT
__unwindtable$?Check_input_a_sub_square@Solution@@AAEHH@Z DD 0ffffffffH
	DD	FLAT:__unwindfunclet$?Check_input_a_sub_square@Solution@@AAEHH@Z$0
__ehfuncinfo$?Check_input_a_sub_square@Solution@@AAEHH@Z DD 019930522H
	DD	01H
	DD	FLAT:__unwindtable$?Check_input_a_sub_square@Solution@@AAEHH@Z
	DD	2 DUP(00H)
	DD	2 DUP(00H)
	DD	00H
	DD	01H
xdata$x	ENDS
;	COMDAT xdata$x
xdata$x	SEGMENT
__unwindtable$?Check_input_a_column@Solution@@AAEHH@Z DD 0ffffffffH
	DD	FLAT:__unwindfunclet$?Check_input_a_column@Solution@@AAEHH@Z$0
__ehfuncinfo$?Check_input_a_column@Solution@@AAEHH@Z DD 019930522H
	DD	01H
	DD	FLAT:__unwindtable$?Check_input_a_column@Solution@@AAEHH@Z
	DD	2 DUP(00H)
	DD	2 DUP(00H)
	DD	00H
	DD	01H
xdata$x	ENDS
;	COMDAT xdata$x
xdata$x	SEGMENT
__unwindtable$?Check_input_a_row@Solution@@AAEHH@Z DD 0ffffffffH
	DD	FLAT:__unwindfunclet$?Check_input_a_row@Solution@@AAEHH@Z$0
__ehfuncinfo$?Check_input_a_row@Solution@@AAEHH@Z DD 019930522H
	DD	01H
	DD	FLAT:__unwindtable$?Check_input_a_row@Solution@@AAEHH@Z
	DD	2 DUP(00H)
	DD	2 DUP(00H)
	DD	00H
	DD	01H
xdata$x	ENDS
;	COMDAT xdata$x
xdata$x	SEGMENT
__unwindtable$?Charger_valeur_saisie@Solution@@QAEHPAUHWND__@@@Z DD 0ffffffffH
	DD	FLAT:__unwindfunclet$?Charger_valeur_saisie@Solution@@QAEHPAUHWND__@@@Z$0
__ehfuncinfo$?Charger_valeur_saisie@Solution@@QAEHPAUHWND__@@@Z DD 019930522H
	DD	01H
	DD	FLAT:__unwindtable$?Charger_valeur_saisie@Solution@@QAEHPAUHWND__@@@Z
	DD	2 DUP(00H)
	DD	2 DUP(00H)
	DD	00H
	DD	01H
xdata$x	ENDS
;	COMDAT xdata$x
xdata$x	SEGMENT
__ehfuncinfo$??0Solution@@QAE@PAUHWND__@@@Z DD 019930522H
	DD	0aH
	DD	FLAT:__unwindtable$??0Solution@@QAE@PAUHWND__@@@Z
	DD	2 DUP(00H)
	DD	2 DUP(00H)
	DD	00H
	DD	01H
__unwindtable$??0Solution@@QAE@PAUHWND__@@@Z DD 0ffffffffH
	DD	FLAT:__unwindfunclet$??0Solution@@QAE@PAUHWND__@@@Z$0
	DD	00H
	DD	FLAT:__unwindfunclet$??0Solution@@QAE@PAUHWND__@@@Z$1
	DD	01H
	DD	FLAT:__unwindfunclet$??0Solution@@QAE@PAUHWND__@@@Z$2
	DD	02H
	DD	FLAT:__unwindfunclet$??0Solution@@QAE@PAUHWND__@@@Z$3
	DD	03H
	DD	FLAT:__unwindfunclet$??0Solution@@QAE@PAUHWND__@@@Z$4
	DD	04H
	DD	FLAT:__unwindfunclet$??0Solution@@QAE@PAUHWND__@@@Z$5
	DD	05H
	DD	FLAT:__unwindfunclet$??0Solution@@QAE@PAUHWND__@@@Z$6
	DD	04H
	DD	FLAT:__unwindfunclet$??0Solution@@QAE@PAUHWND__@@@Z$6
	DD	03H
	DD	FLAT:__unwindfunclet$??0Solution@@QAE@PAUHWND__@@@Z$6
	DD	02H
	DD	FLAT:__unwindfunclet$??0Solution@@QAE@PAUHWND__@@@Z$6
xdata$x	ENDS
;	COMDAT xdata$x
xdata$x	SEGMENT
__unwindtable$??H@YA?AV_bstr_t@@PB_WABV0@@Z DD 0ffffffffH
	DD	FLAT:__unwindfunclet$??H@YA?AV_bstr_t@@PB_WABV0@@Z$0
__ehfuncinfo$??H@YA?AV_bstr_t@@PB_WABV0@@Z DD 019930522H
	DD	01H
	DD	FLAT:__unwindtable$??H@YA?AV_bstr_t@@PB_WABV0@@Z
	DD	2 DUP(00H)
	DD	2 DUP(00H)
	DD	00H
	DD	01H
xdata$x	ENDS
;	COMDAT xdata$x
xdata$x	SEGMENT
__unwindtable$??Y_bstr_t@@QAEAAV0@ABV0@@Z DD 0ffffffffH
	DD	FLAT:__unwindfunclet$??Y_bstr_t@@QAEAAV0@ABV0@@Z$0
__ehfuncinfo$??Y_bstr_t@@QAEAAV0@ABV0@@Z DD 019930522H
	DD	01H
	DD	FLAT:__unwindtable$??Y_bstr_t@@QAEAAV0@ABV0@@Z
	DD	2 DUP(00H)
	DD	2 DUP(00H)
	DD	00H
	DD	01H
xdata$x	ENDS
;	COMDAT xdata$x
xdata$x	SEGMENT
__unwindtable$??0_bstr_t@@QAE@PB_W@Z DD 0ffffffffH
	DD	FLAT:__unwindfunclet$??0_bstr_t@@QAE@PB_W@Z$0
__ehfuncinfo$??0_bstr_t@@QAE@PB_W@Z DD 019930522H
	DD	01H
	DD	FLAT:__unwindtable$??0_bstr_t@@QAE@PB_W@Z
	DD	2 DUP(00H)
	DD	2 DUP(00H)
	DD	00H
	DD	01H
xdata$x	ENDS
;	COMDAT xdata$x
xdata$x	SEGMENT
__unwindtable$??0_bstr_t@@QAE@PBD@Z DD 0ffffffffH
	DD	FLAT:__unwindfunclet$??0_bstr_t@@QAE@PBD@Z$0
__ehfuncinfo$??0_bstr_t@@QAE@PBD@Z DD 019930522H
	DD	01H
	DD	FLAT:__unwindtable$??0_bstr_t@@QAE@PBD@Z
	DD	2 DUP(00H)
	DD	2 DUP(00H)
	DD	00H
	DD	01H
xdata$x	ENDS
;	COMDAT xdata$x
xdata$x	SEGMENT
__unwindtable$??HATL@@YA?AV?$CStringT@_WV?$StrTraitMFC_DLL@_WV?$ChTraitsCRT@_W@ATL@@@@@0@ABV10@0@Z DD 0ffffffffH
	DD	FLAT:__unwindfunclet$??HATL@@YA?AV?$CStringT@_WV?$StrTraitMFC_DLL@_WV?$ChTraitsCRT@_W@ATL@@@@@0@ABV10@0@Z$0
__ehfuncinfo$??HATL@@YA?AV?$CStringT@_WV?$StrTraitMFC_DLL@_WV?$ChTraitsCRT@_W@ATL@@@@@0@ABV10@0@Z DD 019930522H
	DD	01H
	DD	FLAT:__unwindtable$??HATL@@YA?AV?$CStringT@_WV?$StrTraitMFC_DLL@_WV?$ChTraitsCRT@_W@ATL@@@@@0@ABV10@0@Z
	DD	2 DUP(00H)
	DD	2 DUP(00H)
	DD	00H
	DD	01H
xdata$x	ENDS
;	COMDAT CRT$XCU
CRT$XCU	SEGMENT
_atlTraceString$initializer$ DD FLAT:??__EatlTraceString@ATL@@YAXXZ
CRT$XCU	ENDS
; Function compile flags: /Odsp /RTCsu /ZI
;	COMDAT ??_GSolution@@UAEPAXI@Z
_TEXT	SEGMENT
_this$ = -8						; size = 4
___flags$ = 8						; size = 4
??_GSolution@@UAEPAXI@Z PROC				; Solution::`scalar deleting destructor', COMDAT
; _this$ = ecx
	push	ebp
	mov	ebp, esp
	sub	esp, 204				; 000000ccH
	push	ebx
	push	esi
	push	edi
	push	ecx
	lea	edi, DWORD PTR [ebp-204]
	push	51					; 00000033H
	pop	ecx
	mov	eax, -858993460				; ccccccccH
	rep stosd
	pop	ecx
	mov	DWORD PTR _this$[ebp], ecx
	mov	ecx, DWORD PTR _this$[ebp]
	call	??1Solution@@UAE@XZ			; Solution::~Solution
	mov	eax, DWORD PTR ___flags$[ebp]
	and	eax, 1
	je	SHORT $LN1@scalar
	push	DWORD PTR _this$[ebp]
	call	??3@YAXPAX@Z				; operator delete
	pop	ecx
$LN1@scalar:
	mov	eax, DWORD PTR _this$[ebp]
	pop	edi
	pop	esi
	pop	ebx
	add	esp, 204				; 000000ccH
	cmp	ebp, esp
	call	__RTC_CheckEsp
	mov	esp, ebp
	pop	ebp
	ret	4
??_GSolution@@UAEPAXI@Z ENDP				; Solution::`scalar deleting destructor'
_TEXT	ENDS
; Function compile flags: /Odsp /RTCsu /ZI
; File c:\projets\sudoku\sudoku\sudoku\solution.cpp
;	COMDAT ?Conversion@Solution@@AAEXV?$CStringT@_WV?$StrTraitMFC_DLL@_WV?$ChTraitsCRT@_W@ATL@@@@@ATL@@@Z
_TEXT	SEGMENT
tv92 = -284						; size = 4
$T2 = -276						; size = 4
$T3 = -264						; size = 4
_convertedCharsw$ = -60					; size = 4
_nstringw$ = -48					; size = 4
_newsizew$ = -36					; size = 4
_this$ = -24						; size = 4
__$ArrayPad$ = -16					; size = 4
__$EHRec$ = -12						; size = 12
_chaine$ = 8						; size = 4
?Conversion@Solution@@AAEXV?$CStringT@_WV?$StrTraitMFC_DLL@_WV?$ChTraitsCRT@_W@ATL@@@@@ATL@@@Z PROC ; Solution::Conversion, COMDAT
; _this$ = ecx

; 512  : {

	push	ebp
	mov	ebp, esp
	push	-1
	push	__ehhandler$?Conversion@Solution@@AAEXV?$CStringT@_WV?$StrTraitMFC_DLL@_WV?$ChTraitsCRT@_W@ATL@@@@@ATL@@@Z
	mov	eax, DWORD PTR fs:0
	push	eax
	sub	esp, 272				; 00000110H
	push	ebx
	push	esi
	push	edi
	push	ecx
	lea	edi, DWORD PTR [ebp-284]
	push	68					; 00000044H
	pop	ecx
	mov	eax, -858993460				; ccccccccH
	rep stosd
	pop	ecx
	mov	eax, DWORD PTR ___security_cookie
	xor	eax, ebp
	mov	DWORD PTR __$ArrayPad$[ebp], eax
	push	eax
	lea	eax, DWORD PTR __$EHRec$[ebp]
	mov	DWORD PTR fs:0, eax
	mov	DWORD PTR _this$[ebp], ecx
	and	DWORD PTR __$EHRec$[ebp+8], 0

; 513  : 	const size_t newsizew = (chaine.GetLength() + 1) * 2;

	mov	esi, esp
	lea	ecx, DWORD PTR _chaine$[ebp]
	call	DWORD PTR __imp_?GetLength@?$CSimpleStringT@_W$00@ATL@@QBEHXZ
	cmp	esi, esp
	call	__RTC_CheckEsp
	lea	eax, DWORD PTR [eax+eax+2]
	mov	DWORD PTR _newsizew$[ebp], eax

; 514  : 	char *nstringw = new char[newsizew];

	push	DWORD PTR _newsizew$[ebp]
	call	??_U@YAPAXI@Z				; operator new[]
	pop	ecx
	mov	DWORD PTR $T2[ebp], eax
	mov	eax, DWORD PTR $T2[ebp]
	mov	DWORD PTR _nstringw$[ebp], eax

; 515  : 	size_t convertedCharsw = 0;

	and	DWORD PTR _convertedCharsw$[ebp], 0

; 516  : 	wcstombs_s(&convertedCharsw, nstringw, newsizew, chaine, _TRUNCATE);

	mov	esi, esp
	push	-1
	mov	edi, esp
	lea	ecx, DWORD PTR _chaine$[ebp]
	call	DWORD PTR __imp_??B?$CSimpleStringT@_W$00@ATL@@QBEPB_WXZ
	cmp	edi, esp
	call	__RTC_CheckEsp
	push	eax
	push	DWORD PTR _newsizew$[ebp]
	push	DWORD PTR _nstringw$[ebp]
	lea	eax, DWORD PTR _convertedCharsw$[ebp]
	push	eax
	call	DWORD PTR __imp__wcstombs_s
	add	esp, 20					; 00000014H
	cmp	esi, esp
	call	__RTC_CheckEsp

; 517  : 	fprintf(pt_fichier, "%s", nstringw);

	mov	esi, esp
	push	DWORD PTR _nstringw$[ebp]
	push	OFFSET ??_C@_02DKCKIIND@?$CFs?$AA@
	mov	eax, DWORD PTR _this$[ebp]
	push	DWORD PTR [eax+664]
	call	DWORD PTR __imp__fprintf
	add	esp, 12					; 0000000cH
	cmp	esi, esp
	call	__RTC_CheckEsp

; 518  : 	delete nstringw;

	mov	eax, DWORD PTR _nstringw$[ebp]
	mov	DWORD PTR $T3[ebp], eax
	push	DWORD PTR $T3[ebp]
	call	??3@YAXPAX@Z				; operator delete
	pop	ecx
	cmp	DWORD PTR $T3[ebp], 0
	jne	SHORT $LN3@Conversion
	and	DWORD PTR tv92[ebp], 0
	jmp	SHORT $LN4@Conversion
$LN3@Conversion:
	mov	DWORD PTR _nstringw$[ebp], 33059	; 00008123H
	mov	eax, DWORD PTR _nstringw$[ebp]
	mov	DWORD PTR tv92[ebp], eax
$LN4@Conversion:

; 519  : 
; 520  : }

	or	DWORD PTR __$EHRec$[ebp+8], -1
	mov	esi, esp
	lea	ecx, DWORD PTR _chaine$[ebp]
	call	DWORD PTR __imp_??1?$CStringT@_WV?$StrTraitMFC_DLL@_WV?$ChTraitsCRT@_W@ATL@@@@@ATL@@QAE@XZ
	cmp	esi, esp
	call	__RTC_CheckEsp
	push	edx
	mov	ecx, ebp
	push	eax
	lea	edx, DWORD PTR $LN9@Conversion
	call	@_RTC_CheckStackVars@8
	pop	eax
	pop	edx
	mov	ecx, DWORD PTR __$EHRec$[ebp]
	mov	DWORD PTR fs:0, ecx
	pop	ecx
	pop	edi
	pop	esi
	pop	ebx
	mov	ecx, DWORD PTR __$ArrayPad$[ebp]
	xor	ecx, ebp
	call	@__security_check_cookie@4
	add	esp, 284				; 0000011cH
	cmp	ebp, esp
	call	__RTC_CheckEsp
	mov	esp, ebp
	pop	ebp
	ret	4
	npad	3
$LN9@Conversion:
	DD	1
	DD	$LN8@Conversion
$LN8@Conversion:
	DD	-60					; ffffffc4H
	DD	4
	DD	$LN6@Conversion
$LN6@Conversion:
	DB	99					; 00000063H
	DB	111					; 0000006fH
	DB	110					; 0000006eH
	DB	118					; 00000076H
	DB	101					; 00000065H
	DB	114					; 00000072H
	DB	116					; 00000074H
	DB	101					; 00000065H
	DB	100					; 00000064H
	DB	67					; 00000043H
	DB	104					; 00000068H
	DB	97					; 00000061H
	DB	114					; 00000072H
	DB	115					; 00000073H
	DB	119					; 00000077H
	DB	0
_TEXT	ENDS
;	COMDAT text$x
text$x	SEGMENT
__unwindfunclet$?Conversion@Solution@@AAEXV?$CStringT@_WV?$StrTraitMFC_DLL@_WV?$ChTraitsCRT@_W@ATL@@@@@ATL@@@Z$0:
	mov	esi, esp
	lea	ecx, DWORD PTR _chaine$[ebp]
	call	DWORD PTR __imp_??1?$CStringT@_WV?$StrTraitMFC_DLL@_WV?$ChTraitsCRT@_W@ATL@@@@@ATL@@QAE@XZ
	cmp	esi, esp
	jmp	__RTC_CheckEsp
__ehhandler$?Conversion@Solution@@AAEXV?$CStringT@_WV?$StrTraitMFC_DLL@_WV?$ChTraitsCRT@_W@ATL@@@@@ATL@@@Z:
	mov	edx, DWORD PTR [esp+8]
	lea	eax, DWORD PTR [edx+12]
	mov	ecx, DWORD PTR [edx-288]
	xor	ecx, eax
	call	@__security_check_cookie@4
	mov	ecx, DWORD PTR [edx-4]
	xor	ecx, eax
	call	@__security_check_cookie@4
	mov	eax, OFFSET __ehfuncinfo$?Conversion@Solution@@AAEXV?$CStringT@_WV?$StrTraitMFC_DLL@_WV?$ChTraitsCRT@_W@ATL@@@@@ATL@@@Z
	jmp	___CxxFrameHandler3
text$x	ENDS
?Conversion@Solution@@AAEXV?$CStringT@_WV?$StrTraitMFC_DLL@_WV?$ChTraitsCRT@_W@ATL@@@@@ATL@@@Z ENDP ; Solution::Conversion
; Function compile flags: /Odsp /RTCsu /ZI
; File c:\projets\sudoku\sudoku\sudoku\solution.cpp
;	COMDAT ?Dur_Dur@Solution@@AAEXXZ
_TEXT	SEGMENT
_time_end$ = -76					; size = 8
_time_start$ = -60					; size = 8
_osBinaryTime_end$ = -44				; size = 8
_osBinaryTime_begin$ = -28				; size = 8
_this$ = -12						; size = 4
__$ArrayPad$ = -4					; size = 4
?Dur_Dur@Solution@@AAEXXZ PROC				; Solution::Dur_Dur, COMDAT
; _this$ = ecx

; 136  : {

	push	ebp
	mov	ebp, esp
	sub	esp, 272				; 00000110H
	push	ebx
	push	esi
	push	edi
	push	ecx
	lea	edi, DWORD PTR [ebp-272]
	push	68					; 00000044H
	pop	ecx
	mov	eax, -858993460				; ccccccccH
	rep stosd
	pop	ecx
	mov	eax, DWORD PTR ___security_cookie
	xor	eax, ebp
	mov	DWORD PTR __$ArrayPad$[ebp], eax
	mov	DWORD PTR _this$[ebp], ecx

; 137  : 
; 138  : 	time_t osBinaryTime_begin = 0;

	xorpd	xmm0, xmm0
	movlpd	QWORD PTR _osBinaryTime_begin$[ebp], xmm0

; 139  : 	time_t osBinaryTime_end = 0;

	xorpd	xmm0, xmm0
	movlpd	QWORD PTR _osBinaryTime_end$[ebp], xmm0

; 140  : 
; 141  : 	time(&osBinaryTime_begin);

	lea	eax, DWORD PTR _osBinaryTime_begin$[ebp]
	push	eax
	call	_time
	pop	ecx

; 142  : 	CTime time_start(osBinaryTime_begin);

	push	DWORD PTR _osBinaryTime_begin$[ebp+4]
	push	DWORD PTR _osBinaryTime_begin$[ebp]
	lea	ecx, DWORD PTR _time_start$[ebp]
	call	??0CTime@ATL@@QAE@_J@Z			; ATL::CTime::CTime

; 143  : 	Resolve();

	mov	ecx, DWORD PTR _this$[ebp]
	call	?Resolve@Solution@@AAEXXZ		; Solution::Resolve

; 144  : 	time(&osBinaryTime_end);

	lea	eax, DWORD PTR _osBinaryTime_end$[ebp]
	push	eax
	call	_time
	pop	ecx

; 145  : 	CTime time_end(osBinaryTime_end);

	push	DWORD PTR _osBinaryTime_end$[ebp+4]
	push	DWORD PTR _osBinaryTime_end$[ebp]
	lea	ecx, DWORD PTR _time_end$[ebp]
	call	??0CTime@ATL@@QAE@_J@Z			; ATL::CTime::CTime

; 146  : 	write_Time(time_start, time_end);

	push	DWORD PTR _time_end$[ebp+4]
	push	DWORD PTR _time_end$[ebp]
	push	DWORD PTR _time_start$[ebp+4]
	push	DWORD PTR _time_start$[ebp]
	mov	ecx, DWORD PTR _this$[ebp]
	call	?write_Time@Solution@@AAEXVCTime@ATL@@0@Z ; Solution::write_Time

; 147  : }

	push	edx
	mov	ecx, ebp
	push	eax
	lea	edx, DWORD PTR $LN8@Dur_Dur
	call	@_RTC_CheckStackVars@8
	pop	eax
	pop	edx
	pop	edi
	pop	esi
	pop	ebx
	mov	ecx, DWORD PTR __$ArrayPad$[ebp]
	xor	ecx, ebp
	call	@__security_check_cookie@4
	add	esp, 272				; 00000110H
	cmp	ebp, esp
	call	__RTC_CheckEsp
	mov	esp, ebp
	pop	ebp
	ret	0
$LN8@Dur_Dur:
	DD	4
	DD	$LN7@Dur_Dur
$LN7@Dur_Dur:
	DD	-28					; ffffffe4H
	DD	8
	DD	$LN3@Dur_Dur
	DD	-44					; ffffffd4H
	DD	8
	DD	$LN4@Dur_Dur
	DD	-60					; ffffffc4H
	DD	8
	DD	$LN5@Dur_Dur
	DD	-76					; ffffffb4H
	DD	8
	DD	$LN6@Dur_Dur
$LN6@Dur_Dur:
	DB	116					; 00000074H
	DB	105					; 00000069H
	DB	109					; 0000006dH
	DB	101					; 00000065H
	DB	95					; 0000005fH
	DB	101					; 00000065H
	DB	110					; 0000006eH
	DB	100					; 00000064H
	DB	0
$LN5@Dur_Dur:
	DB	116					; 00000074H
	DB	105					; 00000069H
	DB	109					; 0000006dH
	DB	101					; 00000065H
	DB	95					; 0000005fH
	DB	115					; 00000073H
	DB	116					; 00000074H
	DB	97					; 00000061H
	DB	114					; 00000072H
	DB	116					; 00000074H
	DB	0
$LN4@Dur_Dur:
	DB	111					; 0000006fH
	DB	115					; 00000073H
	DB	66					; 00000042H
	DB	105					; 00000069H
	DB	110					; 0000006eH
	DB	97					; 00000061H
	DB	114					; 00000072H
	DB	121					; 00000079H
	DB	84					; 00000054H
	DB	105					; 00000069H
	DB	109					; 0000006dH
	DB	101					; 00000065H
	DB	95					; 0000005fH
	DB	101					; 00000065H
	DB	110					; 0000006eH
	DB	100					; 00000064H
	DB	0
$LN3@Dur_Dur:
	DB	111					; 0000006fH
	DB	115					; 00000073H
	DB	66					; 00000042H
	DB	105					; 00000069H
	DB	110					; 0000006eH
	DB	97					; 00000061H
	DB	114					; 00000072H
	DB	121					; 00000079H
	DB	84					; 00000054H
	DB	105					; 00000069H
	DB	109					; 0000006dH
	DB	101					; 00000065H
	DB	95					; 0000005fH
	DB	98					; 00000062H
	DB	101					; 00000065H
	DB	103					; 00000067H
	DB	105					; 00000069H
	DB	110					; 0000006eH
	DB	0
?Dur_Dur@Solution@@AAEXXZ ENDP				; Solution::Dur_Dur
_TEXT	ENDS
; Function compile flags: /Odsp /RTCsu /ZI
; File c:\projets\sudoku\sudoku\sudoku\solution.cpp
;	COMDAT ?Sepcial_Folder@Solution@@AAE?AV?$CStringT@_WV?$StrTraitMFC_DLL@_WV?$ChTraitsCRT@_W@ATL@@@@@ATL@@H@Z
_TEXT	SEGMENT
$T2 = -768						; size = 4
_chaine$ = -564						; size = 4
_szPath$ = -552						; size = 520
_this$ = -24						; size = 4
__$ArrayPad$ = -16					; size = 4
__$EHRec$ = -12						; size = 12
___$ReturnUdt$ = 8					; size = 4
__directory_resquest$ = 12				; size = 4
?Sepcial_Folder@Solution@@AAE?AV?$CStringT@_WV?$StrTraitMFC_DLL@_WV?$ChTraitsCRT@_W@ATL@@@@@ATL@@H@Z PROC ; Solution::Sepcial_Folder, COMDAT
; _this$ = ecx

; 152  : {

	push	ebp
	mov	ebp, esp
	push	-1
	push	__ehhandler$?Sepcial_Folder@Solution@@AAE?AV?$CStringT@_WV?$StrTraitMFC_DLL@_WV?$ChTraitsCRT@_W@ATL@@@@@ATL@@H@Z
	mov	eax, DWORD PTR fs:0
	push	eax
	sub	esp, 760				; 000002f8H
	push	ebx
	push	esi
	push	edi
	push	ecx
	lea	edi, DWORD PTR [ebp-772]
	mov	ecx, 190				; 000000beH
	mov	eax, -858993460				; ccccccccH
	rep stosd
	pop	ecx
	mov	eax, DWORD PTR ___security_cookie
	xor	eax, ebp
	mov	DWORD PTR __$ArrayPad$[ebp], eax
	push	eax
	lea	eax, DWORD PTR __$EHRec$[ebp]
	mov	DWORD PTR fs:0, eax
	mov	DWORD PTR _this$[ebp], ecx
	and	DWORD PTR $T2[ebp], 0

; 153  : 	TCHAR szPath[MAX_PATH];
; 154  : 
; 155  : 	SHGetFolderPath(NULL, _directory_resquest, NULL, 0, szPath);

	mov	esi, esp
	lea	eax, DWORD PTR _szPath$[ebp]
	push	eax
	push	0
	push	0
	push	DWORD PTR __directory_resquest$[ebp]
	push	0
	call	DWORD PTR __imp__SHGetFolderPathW@20
	cmp	esi, esp
	call	__RTC_CheckEsp

; 156  : 
; 157  : 	CString chaine(szPath);

	mov	esi, esp
	lea	eax, DWORD PTR _szPath$[ebp]
	push	eax
	lea	ecx, DWORD PTR _chaine$[ebp]
	call	DWORD PTR __imp_??0?$CStringT@_WV?$StrTraitMFC_DLL@_WV?$ChTraitsCRT@_W@ATL@@@@@ATL@@QAE@PB_W@Z
	cmp	esi, esp
	call	__RTC_CheckEsp
	and	DWORD PTR __$EHRec$[ebp+8], 0

; 158  : 	return (chaine);

	mov	esi, esp
	lea	eax, DWORD PTR _chaine$[ebp]
	push	eax
	mov	ecx, DWORD PTR ___$ReturnUdt$[ebp]
	call	DWORD PTR __imp_??0?$CStringT@_WV?$StrTraitMFC_DLL@_WV?$ChTraitsCRT@_W@ATL@@@@@ATL@@QAE@ABV01@@Z
	cmp	esi, esp
	call	__RTC_CheckEsp
	mov	eax, DWORD PTR $T2[ebp]
	or	eax, 1
	mov	DWORD PTR $T2[ebp], eax
	or	DWORD PTR __$EHRec$[ebp+8], -1
	mov	esi, esp
	lea	ecx, DWORD PTR _chaine$[ebp]
	call	DWORD PTR __imp_??1?$CStringT@_WV?$StrTraitMFC_DLL@_WV?$ChTraitsCRT@_W@ATL@@@@@ATL@@QAE@XZ
	cmp	esi, esp
	call	__RTC_CheckEsp
	mov	eax, DWORD PTR ___$ReturnUdt$[ebp]

; 159  : 
; 160  : }

	push	edx
	mov	ecx, ebp
	push	eax
	lea	edx, DWORD PTR $LN10@Sepcial_Fo
	call	@_RTC_CheckStackVars@8
	pop	eax
	pop	edx
	mov	ecx, DWORD PTR __$EHRec$[ebp]
	mov	DWORD PTR fs:0, ecx
	pop	ecx
	pop	edi
	pop	esi
	pop	ebx
	mov	ecx, DWORD PTR __$ArrayPad$[ebp]
	xor	ecx, ebp
	call	@__security_check_cookie@4
	add	esp, 772				; 00000304H
	cmp	ebp, esp
	call	__RTC_CheckEsp
	mov	esp, ebp
	pop	ebp
	ret	8
	npad	1
$LN10@Sepcial_Fo:
	DD	2
	DD	$LN9@Sepcial_Fo
$LN9@Sepcial_Fo:
	DD	-552					; fffffdd8H
	DD	520					; 00000208H
	DD	$LN6@Sepcial_Fo
	DD	-564					; fffffdccH
	DD	4
	DD	$LN7@Sepcial_Fo
$LN7@Sepcial_Fo:
	DB	99					; 00000063H
	DB	104					; 00000068H
	DB	97					; 00000061H
	DB	105					; 00000069H
	DB	110					; 0000006eH
	DB	101					; 00000065H
	DB	0
$LN6@Sepcial_Fo:
	DB	115					; 00000073H
	DB	122					; 0000007aH
	DB	80					; 00000050H
	DB	97					; 00000061H
	DB	116					; 00000074H
	DB	104					; 00000068H
	DB	0
_TEXT	ENDS
;	COMDAT text$x
text$x	SEGMENT
__unwindfunclet$?Sepcial_Folder@Solution@@AAE?AV?$CStringT@_WV?$StrTraitMFC_DLL@_WV?$ChTraitsCRT@_W@ATL@@@@@ATL@@H@Z$0:
	mov	esi, esp
	lea	ecx, DWORD PTR _chaine$[ebp]
	call	DWORD PTR __imp_??1?$CStringT@_WV?$StrTraitMFC_DLL@_WV?$ChTraitsCRT@_W@ATL@@@@@ATL@@QAE@XZ
	cmp	esi, esp
	jmp	__RTC_CheckEsp
__ehhandler$?Sepcial_Folder@Solution@@AAE?AV?$CStringT@_WV?$StrTraitMFC_DLL@_WV?$ChTraitsCRT@_W@ATL@@@@@ATL@@H@Z:
	mov	edx, DWORD PTR [esp+8]
	lea	eax, DWORD PTR [edx+12]
	mov	ecx, DWORD PTR [edx-776]
	xor	ecx, eax
	call	@__security_check_cookie@4
	mov	ecx, DWORD PTR [edx-4]
	xor	ecx, eax
	call	@__security_check_cookie@4
	mov	eax, OFFSET __ehfuncinfo$?Sepcial_Folder@Solution@@AAE?AV?$CStringT@_WV?$StrTraitMFC_DLL@_WV?$ChTraitsCRT@_W@ATL@@@@@ATL@@H@Z
	jmp	___CxxFrameHandler3
text$x	ENDS
?Sepcial_Folder@Solution@@AAE?AV?$CStringT@_WV?$StrTraitMFC_DLL@_WV?$ChTraitsCRT@_W@ATL@@@@@ATL@@H@Z ENDP ; Solution::Sepcial_Folder
; Function compile flags: /Odsp /RTCsu /ZI
; File c:\projets\sudoku\sudoku\sudoku\solution.cpp
;	COMDAT ?Folder@Solution@@AAE?AV?$CStringT@_WV?$StrTraitMFC_DLL@_WV?$ChTraitsCRT@_W@ATL@@@@@ATL@@XZ
_TEXT	SEGMENT
tv85 = -276						; size = 4
tv94 = -272						; size = 4
$T2 = -264						; size = 4
$T3 = -252						; size = 4
_Output_diectory$ = -48					; size = 4
_Back_slash$ = -36					; size = 4
_this$ = -24						; size = 4
__$ArrayPad$ = -16					; size = 4
__$EHRec$ = -12						; size = 12
___$ReturnUdt$ = 8					; size = 4
?Folder@Solution@@AAE?AV?$CStringT@_WV?$StrTraitMFC_DLL@_WV?$ChTraitsCRT@_W@ATL@@@@@ATL@@XZ PROC ; Solution::Folder, COMDAT
; _this$ = ecx

; 163  : {

	push	ebp
	mov	ebp, esp
	push	-1
	push	__ehhandler$?Folder@Solution@@AAE?AV?$CStringT@_WV?$StrTraitMFC_DLL@_WV?$ChTraitsCRT@_W@ATL@@@@@ATL@@XZ
	mov	eax, DWORD PTR fs:0
	push	eax
	sub	esp, 264				; 00000108H
	push	ebx
	push	esi
	push	edi
	push	ecx
	lea	edi, DWORD PTR [ebp-276]
	push	66					; 00000042H
	pop	ecx
	mov	eax, -858993460				; ccccccccH
	rep stosd
	pop	ecx
	mov	eax, DWORD PTR ___security_cookie
	xor	eax, ebp
	mov	DWORD PTR __$ArrayPad$[ebp], eax
	push	eax
	lea	eax, DWORD PTR __$EHRec$[ebp]
	mov	DWORD PTR fs:0, eax
	mov	DWORD PTR _this$[ebp], ecx
	and	DWORD PTR $T3[ebp], 0

; 164  : 	CString Back_slash = _T("\\");

	mov	esi, esp
	push	OFFSET ??_C@_13FPGAJAPJ@?$AA?2?$AA?$AA@
	lea	ecx, DWORD PTR _Back_slash$[ebp]
	call	DWORD PTR __imp_??0?$CStringT@_WV?$StrTraitMFC_DLL@_WV?$ChTraitsCRT@_W@ATL@@@@@ATL@@QAE@PB_W@Z
	cmp	esi, esp
	call	__RTC_CheckEsp
	and	DWORD PTR __$EHRec$[ebp+8], 0

; 165  : 	CString Output_diectory = Sepcial_Folder(CSIDL_PERSONAL) + Back_slash;

	lea	eax, DWORD PTR _Back_slash$[ebp]
	push	eax
	push	5
	lea	eax, DWORD PTR $T2[ebp]
	push	eax
	mov	ecx, DWORD PTR _this$[ebp]
	call	?Sepcial_Folder@Solution@@AAE?AV?$CStringT@_WV?$StrTraitMFC_DLL@_WV?$ChTraitsCRT@_W@ATL@@@@@ATL@@H@Z ; Solution::Sepcial_Folder
	mov	DWORD PTR tv94[ebp], eax
	mov	eax, DWORD PTR tv94[ebp]
	mov	DWORD PTR tv85[ebp], eax
	mov	BYTE PTR __$EHRec$[ebp+8], 1
	push	DWORD PTR tv85[ebp]
	lea	eax, DWORD PTR _Output_diectory$[ebp]
	push	eax
	call	??HATL@@YA?AV?$CStringT@_WV?$StrTraitMFC_DLL@_WV?$ChTraitsCRT@_W@ATL@@@@@0@ABV10@0@Z ; ATL::operator+
	add	esp, 12					; 0000000cH
	mov	BYTE PTR __$EHRec$[ebp+8], 3
	mov	esi, esp
	lea	ecx, DWORD PTR $T2[ebp]
	call	DWORD PTR __imp_??1?$CStringT@_WV?$StrTraitMFC_DLL@_WV?$ChTraitsCRT@_W@ATL@@@@@ATL@@QAE@XZ
	cmp	esi, esp
	call	__RTC_CheckEsp

; 166  : 	return (Output_diectory);

	mov	esi, esp
	lea	eax, DWORD PTR _Output_diectory$[ebp]
	push	eax
	mov	ecx, DWORD PTR ___$ReturnUdt$[ebp]
	call	DWORD PTR __imp_??0?$CStringT@_WV?$StrTraitMFC_DLL@_WV?$ChTraitsCRT@_W@ATL@@@@@ATL@@QAE@ABV01@@Z
	cmp	esi, esp
	call	__RTC_CheckEsp
	mov	eax, DWORD PTR $T3[ebp]
	or	eax, 1
	mov	DWORD PTR $T3[ebp], eax
	mov	BYTE PTR __$EHRec$[ebp+8], 0
	mov	esi, esp
	lea	ecx, DWORD PTR _Output_diectory$[ebp]
	call	DWORD PTR __imp_??1?$CStringT@_WV?$StrTraitMFC_DLL@_WV?$ChTraitsCRT@_W@ATL@@@@@ATL@@QAE@XZ
	cmp	esi, esp
	call	__RTC_CheckEsp
	or	DWORD PTR __$EHRec$[ebp+8], -1
	mov	esi, esp
	lea	ecx, DWORD PTR _Back_slash$[ebp]
	call	DWORD PTR __imp_??1?$CStringT@_WV?$StrTraitMFC_DLL@_WV?$ChTraitsCRT@_W@ATL@@@@@ATL@@QAE@XZ
	cmp	esi, esp
	call	__RTC_CheckEsp
	mov	eax, DWORD PTR ___$ReturnUdt$[ebp]

; 167  : }

	push	edx
	mov	ecx, ebp
	push	eax
	lea	edx, DWORD PTR $LN12@Folder
	call	@_RTC_CheckStackVars@8
	pop	eax
	pop	edx
	mov	ecx, DWORD PTR __$EHRec$[ebp]
	mov	DWORD PTR fs:0, ecx
	pop	ecx
	pop	edi
	pop	esi
	pop	ebx
	mov	ecx, DWORD PTR __$ArrayPad$[ebp]
	xor	ecx, ebp
	call	@__security_check_cookie@4
	add	esp, 276				; 00000114H
	cmp	ebp, esp
	call	__RTC_CheckEsp
	mov	esp, ebp
	pop	ebp
	ret	4
	npad	1
$LN12@Folder:
	DD	2
	DD	$LN11@Folder
$LN11@Folder:
	DD	-36					; ffffffdcH
	DD	4
	DD	$LN8@Folder
	DD	-48					; ffffffd0H
	DD	4
	DD	$LN9@Folder
$LN9@Folder:
	DB	79					; 0000004fH
	DB	117					; 00000075H
	DB	116					; 00000074H
	DB	112					; 00000070H
	DB	117					; 00000075H
	DB	116					; 00000074H
	DB	95					; 0000005fH
	DB	100					; 00000064H
	DB	105					; 00000069H
	DB	101					; 00000065H
	DB	99					; 00000063H
	DB	116					; 00000074H
	DB	111					; 0000006fH
	DB	114					; 00000072H
	DB	121					; 00000079H
	DB	0
$LN8@Folder:
	DB	66					; 00000042H
	DB	97					; 00000061H
	DB	99					; 00000063H
	DB	107					; 0000006bH
	DB	95					; 0000005fH
	DB	115					; 00000073H
	DB	108					; 0000006cH
	DB	97					; 00000061H
	DB	115					; 00000073H
	DB	104					; 00000068H
	DB	0
_TEXT	ENDS
;	COMDAT text$x
text$x	SEGMENT
__unwindfunclet$?Folder@Solution@@AAE?AV?$CStringT@_WV?$StrTraitMFC_DLL@_WV?$ChTraitsCRT@_W@ATL@@@@@ATL@@XZ$0:
	mov	esi, esp
	lea	ecx, DWORD PTR _Back_slash$[ebp]
	call	DWORD PTR __imp_??1?$CStringT@_WV?$StrTraitMFC_DLL@_WV?$ChTraitsCRT@_W@ATL@@@@@ATL@@QAE@XZ
	cmp	esi, esp
	jmp	__RTC_CheckEsp
__unwindfunclet$?Folder@Solution@@AAE?AV?$CStringT@_WV?$StrTraitMFC_DLL@_WV?$ChTraitsCRT@_W@ATL@@@@@ATL@@XZ$1:
	mov	esi, esp
	lea	ecx, DWORD PTR $T2[ebp]
	call	DWORD PTR __imp_??1?$CStringT@_WV?$StrTraitMFC_DLL@_WV?$ChTraitsCRT@_W@ATL@@@@@ATL@@QAE@XZ
	cmp	esi, esp
	jmp	__RTC_CheckEsp
__unwindfunclet$?Folder@Solution@@AAE?AV?$CStringT@_WV?$StrTraitMFC_DLL@_WV?$ChTraitsCRT@_W@ATL@@@@@ATL@@XZ$2:
	mov	esi, esp
	lea	ecx, DWORD PTR _Output_diectory$[ebp]
	call	DWORD PTR __imp_??1?$CStringT@_WV?$StrTraitMFC_DLL@_WV?$ChTraitsCRT@_W@ATL@@@@@ATL@@QAE@XZ
	cmp	esi, esp
	jmp	__RTC_CheckEsp
__ehhandler$?Folder@Solution@@AAE?AV?$CStringT@_WV?$StrTraitMFC_DLL@_WV?$ChTraitsCRT@_W@ATL@@@@@ATL@@XZ:
	mov	edx, DWORD PTR [esp+8]
	lea	eax, DWORD PTR [edx+12]
	mov	ecx, DWORD PTR [edx-280]
	xor	ecx, eax
	call	@__security_check_cookie@4
	mov	ecx, DWORD PTR [edx-4]
	xor	ecx, eax
	call	@__security_check_cookie@4
	mov	eax, OFFSET __ehfuncinfo$?Folder@Solution@@AAE?AV?$CStringT@_WV?$StrTraitMFC_DLL@_WV?$ChTraitsCRT@_W@ATL@@@@@ATL@@XZ
	jmp	___CxxFrameHandler3
text$x	ENDS
?Folder@Solution@@AAE?AV?$CStringT@_WV?$StrTraitMFC_DLL@_WV?$ChTraitsCRT@_W@ATL@@@@@ATL@@XZ ENDP ; Solution::Folder
; Function compile flags: /Odsp /RTCsu /ZI
; File c:\projets\sudoku\sudoku\sudoku\solution.cpp
;	COMDAT ?Open_File@Solution@@AAE_NPA_W@Z
_TEXT	SEGMENT
tv163 = -1148						; size = 4
tv78 = -1144						; size = 4
$T2 = -1136						; size = 4
$T3 = -1121						; size = 1
$T4 = -1109						; size = 1
_FileOpenDialog$ = -908					; size = 852
_local_File$ = -48					; size = 4
_OpenFilter$ = -36					; size = 4
_this$ = -24						; size = 4
__$ArrayPad$ = -16					; size = 4
__$EHRec$ = -12						; size = 12
_File$ = 8						; size = 4
?Open_File@Solution@@AAE_NPA_W@Z PROC			; Solution::Open_File, COMDAT
; _this$ = ecx

; 35   : {

	push	ebp
	mov	ebp, esp
	push	-1
	push	__ehhandler$?Open_File@Solution@@AAE_NPA_W@Z
	mov	eax, DWORD PTR fs:0
	push	eax
	sub	esp, 1136				; 00000470H
	push	ebx
	push	esi
	push	edi
	push	ecx
	lea	edi, DWORD PTR [ebp-1148]
	mov	ecx, 284				; 0000011cH
	mov	eax, -858993460				; ccccccccH
	rep stosd
	pop	ecx
	mov	eax, DWORD PTR ___security_cookie
	xor	eax, ebp
	mov	DWORD PTR __$ArrayPad$[ebp], eax
	push	eax
	lea	eax, DWORD PTR __$EHRec$[ebp]
	mov	DWORD PTR fs:0, eax
	mov	DWORD PTR _this$[ebp], ecx

; 36   : 	CString OpenFilter;

	mov	esi, esp
	lea	ecx, DWORD PTR _OpenFilter$[ebp]
	call	DWORD PTR __imp_??0?$CStringT@_WV?$StrTraitMFC_DLL@_WV?$ChTraitsCRT@_W@ATL@@@@@ATL@@QAE@XZ
	cmp	esi, esp
	call	__RTC_CheckEsp
	and	DWORD PTR __$EHRec$[ebp+8], 0

; 37   : 	CString local_File(File);

	mov	esi, esp
	push	DWORD PTR _File$[ebp]
	lea	ecx, DWORD PTR _local_File$[ebp]
	call	DWORD PTR __imp_??0?$CStringT@_WV?$StrTraitMFC_DLL@_WV?$ChTraitsCRT@_W@ATL@@@@@ATL@@QAE@PB_W@Z
	cmp	esi, esp
	call	__RTC_CheckEsp
	mov	BYTE PTR __$EHRec$[ebp+8], 1

; 38   : 
; 39   : 	OpenFilter = "Text File (*.txt)|*.txt|";

	mov	esi, esp
	push	OFFSET ??_C@_0BJ@LICJPAK@Text?5File?5?$CI?$CK?4txt?$CJ?$HM?$CK?4txt?$HM?$AA@
	lea	ecx, DWORD PTR _OpenFilter$[ebp]
	call	DWORD PTR __imp_??4?$CStringT@_WV?$StrTraitMFC_DLL@_WV?$ChTraitsCRT@_W@ATL@@@@@ATL@@QAEAAV01@PBD@Z
	cmp	esi, esp
	call	__RTC_CheckEsp

; 40   : 	OpenFilter += "All Files (*.*)|*.*||";

	mov	esi, esp
	push	OFFSET ??_C@_0BG@FALAGNOM@All?5Files?5?$CI?$CK?4?$CK?$CJ?$HM?$CK?4?$CK?$HM?$HM?$AA@
	lea	ecx, DWORD PTR _OpenFilter$[ebp]
	call	DWORD PTR __imp_??Y?$CStringT@_WV?$StrTraitMFC_DLL@_WV?$ChTraitsCRT@_W@ATL@@@@@ATL@@QAEAAV01@PBD@Z
	cmp	esi, esp
	call	__RTC_CheckEsp

; 41   : 
; 42   : 	CFileDialog FileOpenDialog(
; 43   : 		TRUE,
; 44   : 		NULL,
; 45   : 		local_File,
; 46   : 		OFN_FILEMUSTEXIST | OFN_HIDEREADONLY | OFN_PATHMUSTEXIST,
; 47   : 		OpenFilter,                       // filter
; 48   : 		AfxGetMainWnd());               // the parent window 

	push	852					; 00000354H
	lea	ecx, DWORD PTR _FileOpenDialog$[ebp]
	call	?__autoclassinit2@CFileDialog@@QAEXI@Z
	push	1
	push	0
	call	?AfxGetMainWnd@@YGPAVCWnd@@XZ		; AfxGetMainWnd
	push	eax
	mov	esi, esp
	lea	ecx, DWORD PTR _OpenFilter$[ebp]
	call	DWORD PTR __imp_??B?$CSimpleStringT@_W$00@ATL@@QBEPB_WXZ
	cmp	esi, esp
	call	__RTC_CheckEsp
	push	eax
	push	6148					; 00001804H
	mov	esi, esp
	lea	ecx, DWORD PTR _local_File$[ebp]
	call	DWORD PTR __imp_??B?$CSimpleStringT@_W$00@ATL@@QBEPB_WXZ
	cmp	esi, esp
	call	__RTC_CheckEsp
	push	eax
	push	0
	push	1
	lea	ecx, DWORD PTR _FileOpenDialog$[ebp]
	call	??0CFileDialog@@QAE@HPB_W0K0PAVCWnd@@KH@Z ; CFileDialog::CFileDialog
	mov	BYTE PTR __$EHRec$[ebp+8], 2

; 49   : 
; 50   : 	FileOpenDialog.m_ofn.lpstrInitialDir = Current_Dir();

	lea	eax, DWORD PTR $T2[ebp]
	push	eax
	mov	ecx, DWORD PTR _this$[ebp]
	call	?Current_Dir@Solution@@AAE?AV?$CStringT@_WV?$StrTraitMFC_DLL@_WV?$ChTraitsCRT@_W@ATL@@@@@ATL@@XZ ; Solution::Current_Dir
	mov	DWORD PTR tv78[ebp], eax
	mov	eax, DWORD PTR tv78[ebp]
	mov	DWORD PTR tv163[ebp], eax
	mov	BYTE PTR __$EHRec$[ebp+8], 3
	mov	esi, esp
	mov	ecx, DWORD PTR tv163[ebp]
	call	DWORD PTR __imp_??B?$CSimpleStringT@_W$00@ATL@@QBEPB_WXZ
	cmp	esi, esp
	call	__RTC_CheckEsp
	mov	esi, eax
	lea	ecx, DWORD PTR _FileOpenDialog$[ebp]
	call	?GetOFN@CFileDialog@@QAEAAUtagOFNW@@XZ	; CFileDialog::GetOFN
	mov	DWORD PTR [eax+44], esi
	mov	BYTE PTR __$EHRec$[ebp+8], 2
	mov	esi, esp
	lea	ecx, DWORD PTR $T2[ebp]
	call	DWORD PTR __imp_??1?$CStringT@_WV?$StrTraitMFC_DLL@_WV?$ChTraitsCRT@_W@ATL@@@@@ATL@@QAE@XZ
	cmp	esi, esp
	call	__RTC_CheckEsp

; 51   : 	FileOpenDialog.m_ofn.lpstrTitle = _T("Sudoku File");

	lea	ecx, DWORD PTR _FileOpenDialog$[ebp]
	call	?GetOFN@CFileDialog@@QAEAAUtagOFNW@@XZ	; CFileDialog::GetOFN
	mov	DWORD PTR [eax+48], OFFSET ??_C@_1BI@LHMMMGAL@?$AAS?$AAu?$AAd?$AAo?$AAk?$AAu?$AA?5?$AAF?$AAi?$AAl?$AAe?$AA?$AA@

; 52   : 
; 53   : 	if (FileOpenDialog.DoModal() == IDOK)

	lea	ecx, DWORD PTR _FileOpenDialog$[ebp]
	call	?DoModal@CFileDialog@@UAEHXZ		; CFileDialog::DoModal
	cmp	eax, 1
	jne	SHORT $LN1@Open_File

; 54   : 	{
; 55   : 		pszSource = FileOpenDialog.m_ofn.lpstrFile;

	lea	ecx, DWORD PTR _FileOpenDialog$[ebp]
	call	?GetOFN@CFileDialog@@QAEAAUtagOFNW@@XZ	; CFileDialog::GetOFN
	mov	esi, esp
	push	DWORD PTR [eax+28]
	mov	ecx, DWORD PTR _this$[ebp]
	add	ecx, 660				; 00000294H
	call	DWORD PTR __imp_??4?$CStringT@_WV?$StrTraitMFC_DLL@_WV?$ChTraitsCRT@_W@ATL@@@@@ATL@@QAEAAV01@PB_W@Z
	cmp	esi, esp
	call	__RTC_CheckEsp

; 56   : 		return true;

	mov	BYTE PTR $T3[ebp], 1
	mov	BYTE PTR __$EHRec$[ebp+8], 1
	lea	ecx, DWORD PTR _FileOpenDialog$[ebp]
	call	??1CFileDialog@@UAE@XZ			; CFileDialog::~CFileDialog
	mov	BYTE PTR __$EHRec$[ebp+8], 0
	mov	esi, esp
	lea	ecx, DWORD PTR _local_File$[ebp]
	call	DWORD PTR __imp_??1?$CStringT@_WV?$StrTraitMFC_DLL@_WV?$ChTraitsCRT@_W@ATL@@@@@ATL@@QAE@XZ
	cmp	esi, esp
	call	__RTC_CheckEsp
	or	DWORD PTR __$EHRec$[ebp+8], -1
	mov	esi, esp
	lea	ecx, DWORD PTR _OpenFilter$[ebp]
	call	DWORD PTR __imp_??1?$CStringT@_WV?$StrTraitMFC_DLL@_WV?$ChTraitsCRT@_W@ATL@@@@@ATL@@QAE@XZ
	cmp	esi, esp
	call	__RTC_CheckEsp
	mov	al, BYTE PTR $T3[ebp]
	jmp	SHORT $LN2@Open_File
$LN1@Open_File:

; 57   : 	}
; 58   : 
; 59   : 	return false;

	mov	BYTE PTR $T4[ebp], 0
	mov	BYTE PTR __$EHRec$[ebp+8], 1
	lea	ecx, DWORD PTR _FileOpenDialog$[ebp]
	call	??1CFileDialog@@UAE@XZ			; CFileDialog::~CFileDialog
	mov	BYTE PTR __$EHRec$[ebp+8], 0
	mov	esi, esp
	lea	ecx, DWORD PTR _local_File$[ebp]
	call	DWORD PTR __imp_??1?$CStringT@_WV?$StrTraitMFC_DLL@_WV?$ChTraitsCRT@_W@ATL@@@@@ATL@@QAE@XZ
	cmp	esi, esp
	call	__RTC_CheckEsp
	or	DWORD PTR __$EHRec$[ebp+8], -1
	mov	esi, esp
	lea	ecx, DWORD PTR _OpenFilter$[ebp]
	call	DWORD PTR __imp_??1?$CStringT@_WV?$StrTraitMFC_DLL@_WV?$ChTraitsCRT@_W@ATL@@@@@ATL@@QAE@XZ
	cmp	esi, esp
	call	__RTC_CheckEsp
	mov	al, BYTE PTR $T4[ebp]
$LN2@Open_File:

; 60   : 
; 61   : }

	push	edx
	mov	ecx, ebp
	push	eax
	lea	edx, DWORD PTR $LN13@Open_File
	call	@_RTC_CheckStackVars@8
	pop	eax
	pop	edx
	mov	ecx, DWORD PTR __$EHRec$[ebp]
	mov	DWORD PTR fs:0, ecx
	pop	ecx
	pop	edi
	pop	esi
	pop	ebx
	mov	ecx, DWORD PTR __$ArrayPad$[ebp]
	xor	ecx, ebp
	call	@__security_check_cookie@4
	add	esp, 1148				; 0000047cH
	cmp	ebp, esp
	call	__RTC_CheckEsp
	mov	esp, ebp
	pop	ebp
	ret	4
	npad	1
$LN13@Open_File:
	DD	3
	DD	$LN12@Open_File
$LN12@Open_File:
	DD	-36					; ffffffdcH
	DD	4
	DD	$LN8@Open_File
	DD	-48					; ffffffd0H
	DD	4
	DD	$LN9@Open_File
	DD	-908					; fffffc74H
	DD	852					; 00000354H
	DD	$LN10@Open_File
$LN10@Open_File:
	DB	70					; 00000046H
	DB	105					; 00000069H
	DB	108					; 0000006cH
	DB	101					; 00000065H
	DB	79					; 0000004fH
	DB	112					; 00000070H
	DB	101					; 00000065H
	DB	110					; 0000006eH
	DB	68					; 00000044H
	DB	105					; 00000069H
	DB	97					; 00000061H
	DB	108					; 0000006cH
	DB	111					; 0000006fH
	DB	103					; 00000067H
	DB	0
$LN9@Open_File:
	DB	108					; 0000006cH
	DB	111					; 0000006fH
	DB	99					; 00000063H
	DB	97					; 00000061H
	DB	108					; 0000006cH
	DB	95					; 0000005fH
	DB	70					; 00000046H
	DB	105					; 00000069H
	DB	108					; 0000006cH
	DB	101					; 00000065H
	DB	0
$LN8@Open_File:
	DB	79					; 0000004fH
	DB	112					; 00000070H
	DB	101					; 00000065H
	DB	110					; 0000006eH
	DB	70					; 00000046H
	DB	105					; 00000069H
	DB	108					; 0000006cH
	DB	116					; 00000074H
	DB	101					; 00000065H
	DB	114					; 00000072H
	DB	0
_TEXT	ENDS
;	COMDAT text$x
text$x	SEGMENT
__unwindfunclet$?Open_File@Solution@@AAE_NPA_W@Z$0:
	mov	esi, esp
	lea	ecx, DWORD PTR _OpenFilter$[ebp]
	call	DWORD PTR __imp_??1?$CStringT@_WV?$StrTraitMFC_DLL@_WV?$ChTraitsCRT@_W@ATL@@@@@ATL@@QAE@XZ
	cmp	esi, esp
	jmp	__RTC_CheckEsp
__unwindfunclet$?Open_File@Solution@@AAE_NPA_W@Z$1:
	mov	esi, esp
	lea	ecx, DWORD PTR _local_File$[ebp]
	call	DWORD PTR __imp_??1?$CStringT@_WV?$StrTraitMFC_DLL@_WV?$ChTraitsCRT@_W@ATL@@@@@ATL@@QAE@XZ
	cmp	esi, esp
	jmp	__RTC_CheckEsp
__unwindfunclet$?Open_File@Solution@@AAE_NPA_W@Z$2:
	lea	ecx, DWORD PTR _FileOpenDialog$[ebp]
	jmp	??1CFileDialog@@UAE@XZ			; CFileDialog::~CFileDialog
__unwindfunclet$?Open_File@Solution@@AAE_NPA_W@Z$3:
	mov	esi, esp
	lea	ecx, DWORD PTR $T2[ebp]
	call	DWORD PTR __imp_??1?$CStringT@_WV?$StrTraitMFC_DLL@_WV?$ChTraitsCRT@_W@ATL@@@@@ATL@@QAE@XZ
	cmp	esi, esp
	jmp	__RTC_CheckEsp
__ehhandler$?Open_File@Solution@@AAE_NPA_W@Z:
	mov	edx, DWORD PTR [esp+8]
	lea	eax, DWORD PTR [edx+12]
	mov	ecx, DWORD PTR [edx-1152]
	xor	ecx, eax
	call	@__security_check_cookie@4
	mov	ecx, DWORD PTR [edx-4]
	xor	ecx, eax
	call	@__security_check_cookie@4
	mov	eax, OFFSET __ehfuncinfo$?Open_File@Solution@@AAE_NPA_W@Z
	jmp	___CxxFrameHandler3
text$x	ENDS
?Open_File@Solution@@AAE_NPA_W@Z ENDP			; Solution::Open_File
; Function compile flags: /Odsp /RTCsu /ZI
; File c:\projets\sudoku\sudoku\sudoku\solution.cpp
;	COMDAT ?Current_Dir@Solution@@AAE?AV?$CStringT@_WV?$StrTraitMFC_DLL@_WV?$ChTraitsCRT@_W@ATL@@@@@ATL@@XZ
_TEXT	SEGMENT
$T2 = -240						; size = 4
_Chaine$ = -36						; size = 4
_this$ = -24						; size = 4
__$ArrayPad$ = -16					; size = 4
__$EHRec$ = -12						; size = 12
___$ReturnUdt$ = 8					; size = 4
?Current_Dir@Solution@@AAE?AV?$CStringT@_WV?$StrTraitMFC_DLL@_WV?$ChTraitsCRT@_W@ATL@@@@@ATL@@XZ PROC ; Solution::Current_Dir, COMDAT
; _this$ = ecx

; 65   : {

	push	ebp
	mov	ebp, esp
	push	-1
	push	__ehhandler$?Current_Dir@Solution@@AAE?AV?$CStringT@_WV?$StrTraitMFC_DLL@_WV?$ChTraitsCRT@_W@ATL@@@@@ATL@@XZ
	mov	eax, DWORD PTR fs:0
	push	eax
	sub	esp, 232				; 000000e8H
	push	ebx
	push	esi
	push	edi
	push	ecx
	lea	edi, DWORD PTR [ebp-244]
	push	58					; 0000003aH
	pop	ecx
	mov	eax, -858993460				; ccccccccH
	rep stosd
	pop	ecx
	mov	eax, DWORD PTR ___security_cookie
	xor	eax, ebp
	mov	DWORD PTR __$ArrayPad$[ebp], eax
	push	eax
	lea	eax, DWORD PTR __$EHRec$[ebp]
	mov	DWORD PTR fs:0, eax
	mov	DWORD PTR _this$[ebp], ecx
	and	DWORD PTR $T2[ebp], 0

; 66   : 	CString Chaine;

	mov	esi, esp
	lea	ecx, DWORD PTR _Chaine$[ebp]
	call	DWORD PTR __imp_??0?$CStringT@_WV?$StrTraitMFC_DLL@_WV?$ChTraitsCRT@_W@ATL@@@@@ATL@@QAE@XZ
	cmp	esi, esp
	call	__RTC_CheckEsp
	and	DWORD PTR __$EHRec$[ebp+8], 0

; 67   : 
; 68   : 	::GetCurrentDirectory(MAX_PATH, Chaine.GetBuffer(MAX_PATH));

	mov	esi, esp
	push	260					; 00000104H
	lea	ecx, DWORD PTR _Chaine$[ebp]
	call	DWORD PTR __imp_?GetBuffer@?$CSimpleStringT@_W$00@ATL@@QAEPA_WH@Z
	cmp	esi, esp
	call	__RTC_CheckEsp
	mov	esi, esp
	push	eax
	push	260					; 00000104H
	call	DWORD PTR __imp__GetCurrentDirectoryW@8
	cmp	esi, esp
	call	__RTC_CheckEsp

; 69   : 	Chaine.ReleaseBuffer();

	mov	esi, esp
	push	-1
	lea	ecx, DWORD PTR _Chaine$[ebp]
	call	DWORD PTR __imp_?ReleaseBuffer@?$CSimpleStringT@_W$00@ATL@@QAEXH@Z
	cmp	esi, esp
	call	__RTC_CheckEsp

; 70   : 	return (Chaine);

	mov	esi, esp
	lea	eax, DWORD PTR _Chaine$[ebp]
	push	eax
	mov	ecx, DWORD PTR ___$ReturnUdt$[ebp]
	call	DWORD PTR __imp_??0?$CStringT@_WV?$StrTraitMFC_DLL@_WV?$ChTraitsCRT@_W@ATL@@@@@ATL@@QAE@ABV01@@Z
	cmp	esi, esp
	call	__RTC_CheckEsp
	mov	eax, DWORD PTR $T2[ebp]
	or	eax, 1
	mov	DWORD PTR $T2[ebp], eax
	or	DWORD PTR __$EHRec$[ebp+8], -1
	mov	esi, esp
	lea	ecx, DWORD PTR _Chaine$[ebp]
	call	DWORD PTR __imp_??1?$CStringT@_WV?$StrTraitMFC_DLL@_WV?$ChTraitsCRT@_W@ATL@@@@@ATL@@QAE@XZ
	cmp	esi, esp
	call	__RTC_CheckEsp
	mov	eax, DWORD PTR ___$ReturnUdt$[ebp]

; 71   : 
; 72   : }

	push	edx
	mov	ecx, ebp
	push	eax
	lea	edx, DWORD PTR $LN9@Current_Di
	call	@_RTC_CheckStackVars@8
	pop	eax
	pop	edx
	mov	ecx, DWORD PTR __$EHRec$[ebp]
	mov	DWORD PTR fs:0, ecx
	pop	ecx
	pop	edi
	pop	esi
	pop	ebx
	mov	ecx, DWORD PTR __$ArrayPad$[ebp]
	xor	ecx, ebp
	call	@__security_check_cookie@4
	add	esp, 244				; 000000f4H
	cmp	ebp, esp
	call	__RTC_CheckEsp
	mov	esp, ebp
	pop	ebp
	ret	4
	npad	2
$LN9@Current_Di:
	DD	1
	DD	$LN8@Current_Di
$LN8@Current_Di:
	DD	-36					; ffffffdcH
	DD	4
	DD	$LN6@Current_Di
$LN6@Current_Di:
	DB	67					; 00000043H
	DB	104					; 00000068H
	DB	97					; 00000061H
	DB	105					; 00000069H
	DB	110					; 0000006eH
	DB	101					; 00000065H
	DB	0
_TEXT	ENDS
;	COMDAT text$x
text$x	SEGMENT
__unwindfunclet$?Current_Dir@Solution@@AAE?AV?$CStringT@_WV?$StrTraitMFC_DLL@_WV?$ChTraitsCRT@_W@ATL@@@@@ATL@@XZ$0:
	mov	esi, esp
	lea	ecx, DWORD PTR _Chaine$[ebp]
	call	DWORD PTR __imp_??1?$CStringT@_WV?$StrTraitMFC_DLL@_WV?$ChTraitsCRT@_W@ATL@@@@@ATL@@QAE@XZ
	cmp	esi, esp
	jmp	__RTC_CheckEsp
__ehhandler$?Current_Dir@Solution@@AAE?AV?$CStringT@_WV?$StrTraitMFC_DLL@_WV?$ChTraitsCRT@_W@ATL@@@@@ATL@@XZ:
	mov	edx, DWORD PTR [esp+8]
	lea	eax, DWORD PTR [edx+12]
	mov	ecx, DWORD PTR [edx-248]
	xor	ecx, eax
	call	@__security_check_cookie@4
	mov	ecx, DWORD PTR [edx-4]
	xor	ecx, eax
	call	@__security_check_cookie@4
	mov	eax, OFFSET __ehfuncinfo$?Current_Dir@Solution@@AAE?AV?$CStringT@_WV?$StrTraitMFC_DLL@_WV?$ChTraitsCRT@_W@ATL@@@@@ATL@@XZ
	jmp	___CxxFrameHandler3
text$x	ENDS
?Current_Dir@Solution@@AAE?AV?$CStringT@_WV?$StrTraitMFC_DLL@_WV?$ChTraitsCRT@_W@ATL@@@@@ATL@@XZ ENDP ; Solution::Current_Dir
; Function compile flags: /Odsp /RTCsu /ZI
; File c:\projets\sudoku\sudoku\sudoku\solution.cpp
;	COMDAT ?Definition_limite@Solution@@AAEXPAUHWND__@@@Z
_TEXT	SEGMENT
_i$1 = -32						; size = 4
_pt_edit_combo$ = -20					; size = 4
_this$ = -8						; size = 4
_Curent_windows$ = 8					; size = 4
?Definition_limite@Solution@@AAEXPAUHWND__@@@Z PROC	; Solution::Definition_limite, COMDAT
; _this$ = ecx

; 22   : {

	push	ebp
	mov	ebp, esp
	sub	esp, 228				; 000000e4H
	push	ebx
	push	esi
	push	edi
	push	ecx
	lea	edi, DWORD PTR [ebp-228]
	push	57					; 00000039H
	pop	ecx
	mov	eax, -858993460				; ccccccccH
	rep stosd
	pop	ecx
	mov	DWORD PTR _this$[ebp], ecx

; 23   : 	CEdit *pt_edit_combo;
; 24   : 
; 25   : 	for (int i = 0; i <(sizeof(tableau_de_saisie) / sizeof(int)); i++)

	and	DWORD PTR _i$1[ebp], 0
	jmp	SHORT $LN3@Definition
$LN2@Definition:
	mov	eax, DWORD PTR _i$1[ebp]
	inc	eax
	mov	DWORD PTR _i$1[ebp], eax
$LN3@Definition:
	cmp	DWORD PTR _i$1[ebp], 81			; 00000051H
	jae	SHORT $LN4@Definition

; 26   : 	{
; 27   : 		pt_edit_combo = (CEdit *)GetDlgItem(Save_Curent_windows, tableau_de_saisie[i]);

	mov	esi, esp
	mov	eax, DWORD PTR _i$1[ebp]
	mov	ecx, DWORD PTR _this$[ebp]
	push	DWORD PTR [ecx+eax*4+4]
	mov	eax, DWORD PTR _this$[ebp]
	push	DWORD PTR [eax+652]
	call	DWORD PTR __imp__GetDlgItem@8
	cmp	esi, esp
	call	__RTC_CheckEsp
	mov	DWORD PTR _pt_edit_combo$[ebp], eax

; 28   : 		ASSERT(IsWindow((HWND)pt_edit_combo) != 0);

	mov	esi, esp
	push	DWORD PTR _pt_edit_combo$[ebp]
	call	DWORD PTR __imp__IsWindow@4
	cmp	esi, esp
	call	__RTC_CheckEsp
	test	eax, eax
	jne	SHORT $LN6@Definition
	mov	eax, DWORD PTR ?__LINE__Var@?1??Definition_limite@Solution@@AAEXPAUHWND__@@@Z@4JA
	add	eax, 6
	push	eax
	push	OFFSET ??_C@_0CN@IHCCPHM@c?3?2projets?2sudoku?2sudoku?2sudoku?2@
	call	?AfxAssertFailedLine@@YGHPBDH@Z		; AfxAssertFailedLine
	test	eax, eax
	je	SHORT $LN6@Definition
	int	3
$LN6@Definition:

; 29   : 		::SendMessage((HWND)pt_edit_combo, EM_SETLIMITTEXT, 1, 0);

	mov	esi, esp
	push	0
	push	1
	push	197					; 000000c5H
	push	DWORD PTR _pt_edit_combo$[ebp]
	call	DWORD PTR __imp__SendMessageW@16
	cmp	esi, esp
	call	__RTC_CheckEsp

; 30   : 	}

	jmp	SHORT $LN2@Definition
$LN4@Definition:

; 31   : }

	pop	edi
	pop	esi
	pop	ebx
	add	esp, 228				; 000000e4H
	cmp	ebp, esp
	call	__RTC_CheckEsp
	mov	esp, ebp
	pop	ebp
	ret	4
?Definition_limite@Solution@@AAEXPAUHWND__@@@Z ENDP	; Solution::Definition_limite
_TEXT	ENDS
; Function compile flags: /Odsp /RTCsu /ZI
; File c:\projets\sudoku\sudoku\sudoku\solution.cpp
;	COMDAT ?Charge_tableau_relation@Solution@@AAEXXZ
_TEXT	SEGMENT
_i$1 = -20						; size = 4
_this$ = -8						; size = 4
?Charge_tableau_relation@Solution@@AAEXXZ PROC		; Solution::Charge_tableau_relation, COMDAT
; _this$ = ecx

; 14   : {

	push	ebp
	mov	ebp, esp
	sub	esp, 216				; 000000d8H
	push	ebx
	push	esi
	push	edi
	push	ecx
	lea	edi, DWORD PTR [ebp-216]
	push	54					; 00000036H
	pop	ecx
	mov	eax, -858993460				; ccccccccH
	rep stosd
	pop	ecx
	mov	DWORD PTR _this$[ebp], ecx

; 15   : 	for (int i = 0; i < (sizeof(tableau_de_saisie) / sizeof(int)); i++)

	and	DWORD PTR _i$1[ebp], 0
	jmp	SHORT $LN3@Charge_tab
$LN2@Charge_tab:
	mov	eax, DWORD PTR _i$1[ebp]
	inc	eax
	mov	DWORD PTR _i$1[ebp], eax
$LN3@Charge_tab:
	cmp	DWORD PTR _i$1[ebp], 81			; 00000051H
	jae	SHORT $LN4@Charge_tab

; 16   : 	{
; 17   : 		tableau_de_saisie[i] = (IDC_EDIT1 + i);

	mov	eax, DWORD PTR _i$1[ebp]
	add	eax, 1000				; 000003e8H
	mov	ecx, DWORD PTR _i$1[ebp]
	mov	edx, DWORD PTR _this$[ebp]
	mov	DWORD PTR [edx+ecx*4+4], eax

; 18   : 	}

	jmp	SHORT $LN2@Charge_tab
$LN4@Charge_tab:

; 19   : }

	pop	edi
	pop	esi
	pop	ebx
	mov	esp, ebp
	pop	ebp
	ret	0
?Charge_tableau_relation@Solution@@AAEXXZ ENDP		; Solution::Charge_tableau_relation
_TEXT	ENDS
; Function compile flags: /Odsp /RTCsu /ZI
; File c:\projets\sudoku\sudoku\sudoku\solution.cpp
;	COMDAT ?Print@Solution@@AAEXXZ
_TEXT	SEGMENT
_col$2 = -60						; size = 4
_row$3 = -48						; size = 4
_chaine$ = -36						; size = 4
_this$ = -24						; size = 4
__$ArrayPad$ = -16					; size = 4
__$EHRec$ = -12						; size = 12
?Print@Solution@@AAEXXZ PROC				; Solution::Print, COMDAT
; _this$ = ecx

; 170  : {

	push	ebp
	mov	ebp, esp
	push	-1
	push	__ehhandler$?Print@Solution@@AAEXXZ
	mov	eax, DWORD PTR fs:0
	push	eax
	sub	esp, 244				; 000000f4H
	push	ebx
	push	esi
	push	edi
	push	ecx
	lea	edi, DWORD PTR [ebp-256]
	push	61					; 0000003dH
	pop	ecx
	mov	eax, -858993460				; ccccccccH
	rep stosd
	pop	ecx
	mov	eax, DWORD PTR ___security_cookie
	xor	eax, ebp
	mov	DWORD PTR __$ArrayPad$[ebp], eax
	push	eax
	lea	eax, DWORD PTR __$EHRec$[ebp]
	mov	DWORD PTR fs:0, eax
	mov	DWORD PTR _this$[ebp], ecx

; 171  : 
; 172  : 	fprintf(pt_fichier, "Nombre d'essais : %d\n\n", g_test_counter);

	mov	esi, esp
	mov	eax, DWORD PTR _this$[ebp]
	push	DWORD PTR [eax+656]
	push	OFFSET ??_C@_0BH@JLAFPNCO@Nombre?5d?8essais?5?3?5?$CFd?6?6?$AA@
	mov	eax, DWORD PTR _this$[ebp]
	push	DWORD PTR [eax+664]
	call	DWORD PTR __imp__fprintf
	add	esp, 12					; 0000000cH
	cmp	esi, esp
	call	__RTC_CheckEsp

; 173  : 	CString chaine;

	mov	esi, esp
	lea	ecx, DWORD PTR _chaine$[ebp]
	call	DWORD PTR __imp_??0?$CStringT@_WV?$StrTraitMFC_DLL@_WV?$ChTraitsCRT@_W@ATL@@@@@ATL@@QAE@XZ
	cmp	esi, esp
	call	__RTC_CheckEsp
	and	DWORD PTR __$EHRec$[ebp+8], 0

; 174  : 	chaine.Format(_T("Nombre d'essais : %d"),g_test_counter);

	mov	esi, esp
	mov	eax, DWORD PTR _this$[ebp]
	push	DWORD PTR [eax+656]
	push	OFFSET ??_C@_1CK@FIOBKKHN@?$AAN?$AAo?$AAm?$AAb?$AAr?$AAe?$AA?5?$AAd?$AA?8?$AAe?$AAs?$AAs?$AAa?$AAi?$AAs?$AA?5?$AA?3?$AA?5?$AA?$CF?$AAd?$AA?$AA@
	lea	eax, DWORD PTR _chaine$[ebp]
	push	eax
	call	DWORD PTR __imp_?Format@?$CStringT@_WV?$StrTraitMFC_DLL@_WV?$ChTraitsCRT@_W@ATL@@@@@ATL@@QAAXPB_WZZ
	add	esp, 12					; 0000000cH
	cmp	esi, esp
	call	__RTC_CheckEsp

; 175  : 
; 176  : 	// IDC_STATIC
; 177  : 	::SetDlgItemTextW(Save_Curent_windows, IDC_STATIC, (LPWSTR)chaine.GetBuffer());

	mov	esi, esp
	lea	ecx, DWORD PTR _chaine$[ebp]
	call	DWORD PTR __imp_?GetBuffer@?$CSimpleStringT@_W$00@ATL@@QAEPA_WXZ
	cmp	esi, esp
	call	__RTC_CheckEsp
	mov	esi, esp
	push	eax
	push	-1
	mov	eax, DWORD PTR _this$[ebp]
	push	DWORD PTR [eax+652]
	call	DWORD PTR __imp__SetDlgItemTextW@12
	cmp	esi, esp
	call	__RTC_CheckEsp

; 178  : 
; 179  : 	for (int row = 0; row < MAX; row++)

	and	DWORD PTR _row$3[ebp], 0
	jmp	SHORT $LN6@Print
$LN5@Print:
	mov	eax, DWORD PTR _row$3[ebp]
	inc	eax
	mov	DWORD PTR _row$3[ebp], eax
$LN6@Print:
	cmp	DWORD PTR _row$3[ebp], 9
	jge	SHORT $LN4@Print

; 180  : 	{
; 181  : 		for (int col = 0; col < MAX; col++)

	and	DWORD PTR _col$2[ebp], 0
	jmp	SHORT $LN3@Print
$LN2@Print:
	mov	eax, DWORD PTR _col$2[ebp]
	inc	eax
	mov	DWORD PTR _col$2[ebp], eax
$LN3@Print:
	cmp	DWORD PTR _col$2[ebp], 9
	jge	SHORT $LN1@Print

; 182  : 		{
; 183  : 
; 184  : 			fprintf(pt_fichier, "%d ", grid[row][col]);

	imul	eax, DWORD PTR _row$3[ebp], 36
	mov	ecx, DWORD PTR _this$[ebp]
	lea	eax, DWORD PTR [ecx+eax+328]
	mov	esi, esp
	mov	ecx, DWORD PTR _col$2[ebp]
	push	DWORD PTR [eax+ecx*4]
	push	OFFSET ??_C@_03JDANDILB@?$CFd?5?$AA@
	mov	eax, DWORD PTR _this$[ebp]
	push	DWORD PTR [eax+664]
	call	DWORD PTR __imp__fprintf
	add	esp, 12					; 0000000cH
	cmp	esi, esp
	call	__RTC_CheckEsp

; 185  : 
; 186  : 		}

	jmp	SHORT $LN2@Print
$LN1@Print:

; 187  : 
; 188  : 		fprintf(pt_fichier, "\n");

	mov	esi, esp
	push	OFFSET ??_C@_01EEMJAFIK@?6?$AA@
	mov	eax, DWORD PTR _this$[ebp]
	push	DWORD PTR [eax+664]
	call	DWORD PTR __imp__fprintf
	pop	ecx
	pop	ecx
	cmp	esi, esp
	call	__RTC_CheckEsp

; 189  : 	}

	jmp	SHORT $LN5@Print
$LN4@Print:

; 190  : 
; 191  : 	fprintf(pt_fichier, "\n\n\n");

	mov	esi, esp
	push	OFFSET ??_C@_03EGHOKNNL@?6?6?6?$AA@
	mov	eax, DWORD PTR _this$[ebp]
	push	DWORD PTR [eax+664]
	call	DWORD PTR __imp__fprintf
	pop	ecx
	pop	ecx
	cmp	esi, esp
	call	__RTC_CheckEsp

; 192  : }

	or	DWORD PTR __$EHRec$[ebp+8], -1
	mov	esi, esp
	lea	ecx, DWORD PTR _chaine$[ebp]
	call	DWORD PTR __imp_??1?$CStringT@_WV?$StrTraitMFC_DLL@_WV?$ChTraitsCRT@_W@ATL@@@@@ATL@@QAE@XZ
	cmp	esi, esp
	call	__RTC_CheckEsp
	push	edx
	mov	ecx, ebp
	push	eax
	lea	edx, DWORD PTR $LN13@Print
	call	@_RTC_CheckStackVars@8
	pop	eax
	pop	edx
	mov	ecx, DWORD PTR __$EHRec$[ebp]
	mov	DWORD PTR fs:0, ecx
	pop	ecx
	pop	edi
	pop	esi
	pop	ebx
	mov	ecx, DWORD PTR __$ArrayPad$[ebp]
	xor	ecx, ebp
	call	@__security_check_cookie@4
	add	esp, 256				; 00000100H
	cmp	ebp, esp
	call	__RTC_CheckEsp
	mov	esp, ebp
	pop	ebp
	ret	0
	npad	1
$LN13@Print:
	DD	1
	DD	$LN12@Print
$LN12@Print:
	DD	-36					; ffffffdcH
	DD	4
	DD	$LN10@Print
$LN10@Print:
	DB	99					; 00000063H
	DB	104					; 00000068H
	DB	97					; 00000061H
	DB	105					; 00000069H
	DB	110					; 0000006eH
	DB	101					; 00000065H
	DB	0
_TEXT	ENDS
;	COMDAT text$x
text$x	SEGMENT
__unwindfunclet$?Print@Solution@@AAEXXZ$0:
	mov	esi, esp
	lea	ecx, DWORD PTR _chaine$[ebp]
	call	DWORD PTR __imp_??1?$CStringT@_WV?$StrTraitMFC_DLL@_WV?$ChTraitsCRT@_W@ATL@@@@@ATL@@QAE@XZ
	cmp	esi, esp
	jmp	__RTC_CheckEsp
__ehhandler$?Print@Solution@@AAEXXZ:
	mov	edx, DWORD PTR [esp+8]
	lea	eax, DWORD PTR [edx+12]
	mov	ecx, DWORD PTR [edx-260]
	xor	ecx, eax
	call	@__security_check_cookie@4
	mov	ecx, DWORD PTR [edx-4]
	xor	ecx, eax
	call	@__security_check_cookie@4
	mov	eax, OFFSET __ehfuncinfo$?Print@Solution@@AAEXXZ
	jmp	___CxxFrameHandler3
text$x	ENDS
?Print@Solution@@AAEXXZ ENDP				; Solution::Print
; Function compile flags: /Odsp /RTCsu /ZI
; File c:\projets\sudoku\sudoku\sudoku\solution.cpp
;	COMDAT ?Display_grille@Solution@@AAEXPAUHWND__@@@Z
_TEXT	SEGMENT
_col$2 = -72						; size = 4
_row$3 = -60						; size = 4
_Chaine$ = -48						; size = 4
_z$ = -36						; size = 4
_this$ = -24						; size = 4
__$ArrayPad$ = -16					; size = 4
__$EHRec$ = -12						; size = 12
_Curent_windows$ = 8					; size = 4
?Display_grille@Solution@@AAEXPAUHWND__@@@Z PROC	; Solution::Display_grille, COMDAT
; _this$ = ecx

; 277  : {	

	push	ebp
	mov	ebp, esp
	push	-1
	push	__ehhandler$?Display_grille@Solution@@AAEXPAUHWND__@@@Z
	mov	eax, DWORD PTR fs:0
	push	eax
	sub	esp, 256				; 00000100H
	push	ebx
	push	esi
	push	edi
	push	ecx
	lea	edi, DWORD PTR [ebp-268]
	push	64					; 00000040H
	pop	ecx
	mov	eax, -858993460				; ccccccccH
	rep stosd
	pop	ecx
	mov	eax, DWORD PTR ___security_cookie
	xor	eax, ebp
	mov	DWORD PTR __$ArrayPad$[ebp], eax
	push	eax
	lea	eax, DWORD PTR __$EHRec$[ebp]
	mov	DWORD PTR fs:0, eax
	mov	DWORD PTR _this$[ebp], ecx

; 278  : 	int z = 0;

	and	DWORD PTR _z$[ebp], 0

; 279  : 	CString Chaine;

	mov	esi, esp
	lea	ecx, DWORD PTR _Chaine$[ebp]
	call	DWORD PTR __imp_??0?$CStringT@_WV?$StrTraitMFC_DLL@_WV?$ChTraitsCRT@_W@ATL@@@@@ATL@@QAE@XZ
	cmp	esi, esp
	call	__RTC_CheckEsp
	and	DWORD PTR __$EHRec$[ebp+8], 0

; 280  : 
; 281  : 	ASSERT(IsWindow(Curent_windows) != 0);

	mov	esi, esp
	push	DWORD PTR _Curent_windows$[ebp]
	call	DWORD PTR __imp__IsWindow@4
	cmp	esi, esp
	call	__RTC_CheckEsp
	test	eax, eax
	jne	SHORT $LN10@Display_gr
	mov	eax, DWORD PTR ?__LINE__Var@?1??Display_grille@Solution@@AAEXPAUHWND__@@@Z@4JA
	add	eax, 4
	push	eax
	push	OFFSET ??_C@_0CN@IHCCPHM@c?3?2projets?2sudoku?2sudoku?2sudoku?2@
	call	?AfxAssertFailedLine@@YGHPBDH@Z		; AfxAssertFailedLine
	test	eax, eax
	je	SHORT $LN10@Display_gr
	int	3
$LN10@Display_gr:

; 282  : 
; 283  : 	for (int row = 0; row < MAX; row++)

	and	DWORD PTR _row$3[ebp], 0
	jmp	SHORT $LN7@Display_gr
$LN6@Display_gr:
	mov	eax, DWORD PTR _row$3[ebp]
	inc	eax
	mov	DWORD PTR _row$3[ebp], eax
$LN7@Display_gr:
	cmp	DWORD PTR _row$3[ebp], 9
	jge	$LN5@Display_gr

; 284  : 	{
; 285  : 		for (int col = 0; col < MAX; col++)

	and	DWORD PTR _col$2[ebp], 0
	jmp	SHORT $LN4@Display_gr
$LN3@Display_gr:
	mov	eax, DWORD PTR _col$2[ebp]
	inc	eax
	mov	DWORD PTR _col$2[ebp], eax
$LN4@Display_gr:
	cmp	DWORD PTR _col$2[ebp], 9
	jge	$LN2@Display_gr

; 286  : 		{
; 287  : 			Chaine.Format(_T("%d"), grid[row][col]);

	imul	eax, DWORD PTR _row$3[ebp], 36
	mov	ecx, DWORD PTR _this$[ebp]
	lea	eax, DWORD PTR [ecx+eax+328]
	mov	esi, esp
	mov	ecx, DWORD PTR _col$2[ebp]
	push	DWORD PTR [eax+ecx*4]
	push	OFFSET ??_C@_15KNBIKKIN@?$AA?$CF?$AAd?$AA?$AA@
	lea	eax, DWORD PTR _Chaine$[ebp]
	push	eax
	call	DWORD PTR __imp_?Format@?$CStringT@_WV?$StrTraitMFC_DLL@_WV?$ChTraitsCRT@_W@ATL@@@@@ATL@@QAAXPB_WZZ
	add	esp, 12					; 0000000cH
	cmp	esi, esp
	call	__RTC_CheckEsp

; 288  : 			if (grid[row][col] > 0)

	imul	eax, DWORD PTR _row$3[ebp], 36
	mov	ecx, DWORD PTR _this$[ebp]
	lea	eax, DWORD PTR [ecx+eax+328]
	mov	ecx, DWORD PTR _col$2[ebp]
	cmp	DWORD PTR [eax+ecx*4], 0
	jle	SHORT $LN1@Display_gr

; 289  : 			{		
; 290  : 			 ::SetDlgItemTextW(Curent_windows, tableau_de_saisie[z], (LPWSTR)Chaine.GetBuffer());

	mov	esi, esp
	lea	ecx, DWORD PTR _Chaine$[ebp]
	call	DWORD PTR __imp_?GetBuffer@?$CSimpleStringT@_W$00@ATL@@QAEPA_WXZ
	cmp	esi, esp
	call	__RTC_CheckEsp
	mov	esi, esp
	push	eax
	mov	eax, DWORD PTR _z$[ebp]
	mov	ecx, DWORD PTR _this$[ebp]
	push	DWORD PTR [ecx+eax*4+4]
	push	DWORD PTR _Curent_windows$[ebp]
	call	DWORD PTR __imp__SetDlgItemTextW@12
	cmp	esi, esp
	call	__RTC_CheckEsp
$LN1@Display_gr:

; 291  : 			}
; 292  : 			z++;

	mov	eax, DWORD PTR _z$[ebp]
	inc	eax
	mov	DWORD PTR _z$[ebp], eax

; 293  : 		}

	jmp	$LN3@Display_gr
$LN2@Display_gr:

; 294  : 	}

	jmp	$LN6@Display_gr
$LN5@Display_gr:

; 295  : 
; 296  : }

	or	DWORD PTR __$EHRec$[ebp+8], -1
	mov	esi, esp
	lea	ecx, DWORD PTR _Chaine$[ebp]
	call	DWORD PTR __imp_??1?$CStringT@_WV?$StrTraitMFC_DLL@_WV?$ChTraitsCRT@_W@ATL@@@@@ATL@@QAE@XZ
	cmp	esi, esp
	call	__RTC_CheckEsp
	push	edx
	mov	ecx, ebp
	push	eax
	lea	edx, DWORD PTR $LN15@Display_gr
	call	@_RTC_CheckStackVars@8
	pop	eax
	pop	edx
	mov	ecx, DWORD PTR __$EHRec$[ebp]
	mov	DWORD PTR fs:0, ecx
	pop	ecx
	pop	edi
	pop	esi
	pop	ebx
	mov	ecx, DWORD PTR __$ArrayPad$[ebp]
	xor	ecx, ebp
	call	@__security_check_cookie@4
	add	esp, 268				; 0000010cH
	cmp	ebp, esp
	call	__RTC_CheckEsp
	mov	esp, ebp
	pop	ebp
	ret	4
	npad	3
$LN15@Display_gr:
	DD	1
	DD	$LN14@Display_gr
$LN14@Display_gr:
	DD	-48					; ffffffd0H
	DD	4
	DD	$LN12@Display_gr
$LN12@Display_gr:
	DB	67					; 00000043H
	DB	104					; 00000068H
	DB	97					; 00000061H
	DB	105					; 00000069H
	DB	110					; 0000006eH
	DB	101					; 00000065H
	DB	0
_TEXT	ENDS
;	COMDAT text$x
text$x	SEGMENT
__unwindfunclet$?Display_grille@Solution@@AAEXPAUHWND__@@@Z$0:
	mov	esi, esp
	lea	ecx, DWORD PTR _Chaine$[ebp]
	call	DWORD PTR __imp_??1?$CStringT@_WV?$StrTraitMFC_DLL@_WV?$ChTraitsCRT@_W@ATL@@@@@ATL@@QAE@XZ
	cmp	esi, esp
	jmp	__RTC_CheckEsp
__ehhandler$?Display_grille@Solution@@AAEXPAUHWND__@@@Z:
	mov	edx, DWORD PTR [esp+8]
	lea	eax, DWORD PTR [edx+12]
	mov	ecx, DWORD PTR [edx-272]
	xor	ecx, eax
	call	@__security_check_cookie@4
	mov	ecx, DWORD PTR [edx-4]
	xor	ecx, eax
	call	@__security_check_cookie@4
	mov	eax, OFFSET __ehfuncinfo$?Display_grille@Solution@@AAEXPAUHWND__@@@Z
	jmp	___CxxFrameHandler3
text$x	ENDS
?Display_grille@Solution@@AAEXPAUHWND__@@@Z ENDP	; Solution::Display_grille
; Function compile flags: /Odsp /RTCsu /ZI
; File c:\projets\sudoku\sudoku\sudoku\solution.cpp
;	COMDAT ?Finished_grid@Solution@@AAEHXZ
_TEXT	SEGMENT
_col$ = -32						; size = 4
_row$ = -20						; size = 4
_this$ = -8						; size = 4
?Finished_grid@Solution@@AAEHXZ PROC			; Solution::Finished_grid, COMDAT
; _this$ = ecx

; 568  : {

	push	ebp
	mov	ebp, esp
	sub	esp, 228				; 000000e4H
	push	ebx
	push	esi
	push	edi
	push	ecx
	lea	edi, DWORD PTR [ebp-228]
	push	57					; 00000039H
	pop	ecx
	mov	eax, -858993460				; ccccccccH
	rep stosd
	pop	ecx
	mov	DWORD PTR _this$[ebp], ecx

; 569  : 	int row, col;
; 570  : 
; 571  : 	for (row = MAX - 1; row >= 0; row--)

	mov	DWORD PTR _row$[ebp], 8
	jmp	SHORT $LN7@Finished_g
$LN6@Finished_g:
	mov	eax, DWORD PTR _row$[ebp]
	dec	eax
	mov	DWORD PTR _row$[ebp], eax
$LN7@Finished_g:
	cmp	DWORD PTR _row$[ebp], 0
	jl	SHORT $LN5@Finished_g

; 572  : 	{
; 573  : 
; 574  : 		for (col = MAX - 1; col >= 0; col--)

	mov	DWORD PTR _col$[ebp], 8
	jmp	SHORT $LN4@Finished_g
$LN3@Finished_g:
	mov	eax, DWORD PTR _col$[ebp]
	dec	eax
	mov	DWORD PTR _col$[ebp], eax
$LN4@Finished_g:
	cmp	DWORD PTR _col$[ebp], 0
	jl	SHORT $LN2@Finished_g

; 575  : 		{
; 576  : 
; 577  : 			if (grid[row][col] == 0)

	imul	eax, DWORD PTR _row$[ebp], 36
	mov	ecx, DWORD PTR _this$[ebp]
	lea	eax, DWORD PTR [ecx+eax+328]
	mov	ecx, DWORD PTR _col$[ebp]
	cmp	DWORD PTR [eax+ecx*4], 0
	jne	SHORT $LN1@Finished_g

; 578  : 			{
; 579  : 				return FALSE;

	xor	eax, eax
	jmp	SHORT $LN8@Finished_g
$LN1@Finished_g:

; 580  : 			}
; 581  : 
; 582  : 		}/* end for col */

	jmp	SHORT $LN3@Finished_g
$LN2@Finished_g:

; 583  : 	}/* end for row */

	jmp	SHORT $LN6@Finished_g
$LN5@Finished_g:

; 584  : 
; 585  : 	return TRUE;

	xor	eax, eax
	inc	eax
$LN8@Finished_g:

; 586  : }

	pop	edi
	pop	esi
	pop	ebx
	mov	esp, ebp
	pop	ebp
	ret	0
?Finished_grid@Solution@@AAEHXZ ENDP			; Solution::Finished_grid
_TEXT	ENDS
; Function compile flags: /Odsp /RTCsu /ZI
; File c:\projets\sudoku\sudoku\sudoku\solution.cpp
;	COMDAT ?Trans_sub_square_of_cell@Solution@@AAEXQADHH@Z
_TEXT	SEGMENT
_k$ = -44						; size = 4
_j$ = -32						; size = 4
_i$ = -20						; size = 4
_this$ = -8						; size = 4
_buffer$ = 8						; size = 4
_row$ = 12						; size = 4
_col$ = 16						; size = 4
?Trans_sub_square_of_cell@Solution@@AAEXQADHH@Z PROC	; Solution::Trans_sub_square_of_cell, COMDAT
; _this$ = ecx

; 543  : {

	push	ebp
	mov	ebp, esp
	sub	esp, 240				; 000000f0H
	push	ebx
	push	esi
	push	edi
	push	ecx
	lea	edi, DWORD PTR [ebp-240]
	push	60					; 0000003cH
	pop	ecx
	mov	eax, -858993460				; ccccccccH
	rep stosd
	pop	ecx
	mov	DWORD PTR _this$[ebp], ecx
$LN10@Trans_sub_:

; 544  : 	int i, j, k;
; 545  : 
; 546  : 	while ((row % MIN) != 0) row--;

	mov	eax, DWORD PTR _row$[ebp]
	cdq
	push	3
	pop	ecx
	idiv	ecx
	test	edx, edx
	je	SHORT $LN8@Trans_sub_
	mov	eax, DWORD PTR _row$[ebp]
	dec	eax
	mov	DWORD PTR _row$[ebp], eax
	jmp	SHORT $LN10@Trans_sub_
$LN8@Trans_sub_:

; 547  : 	while ((col % MIN) != 0) col--;

	mov	eax, DWORD PTR _col$[ebp]
	cdq
	push	3
	pop	ecx
	idiv	ecx
	test	edx, edx
	je	SHORT $LN7@Trans_sub_
	mov	eax, DWORD PTR _col$[ebp]
	dec	eax
	mov	DWORD PTR _col$[ebp], eax
	jmp	SHORT $LN8@Trans_sub_
$LN7@Trans_sub_:

; 548  : 
; 549  : 	k = 0;

	and	DWORD PTR _k$[ebp], 0

; 550  : 
; 551  : 	for (j = row; j < row + MIN; j++)

	mov	eax, DWORD PTR _row$[ebp]
	mov	DWORD PTR _j$[ebp], eax
	jmp	SHORT $LN6@Trans_sub_
$LN5@Trans_sub_:
	mov	eax, DWORD PTR _j$[ebp]
	inc	eax
	mov	DWORD PTR _j$[ebp], eax
$LN6@Trans_sub_:
	mov	eax, DWORD PTR _row$[ebp]
	add	eax, 3
	cmp	DWORD PTR _j$[ebp], eax
	jge	SHORT $LN11@Trans_sub_

; 552  : 	{
; 553  : 
; 554  : 		for (i = col; i < col + MIN; i++)

	mov	eax, DWORD PTR _col$[ebp]
	mov	DWORD PTR _i$[ebp], eax
	jmp	SHORT $LN3@Trans_sub_
$LN2@Trans_sub_:
	mov	eax, DWORD PTR _i$[ebp]
	inc	eax
	mov	DWORD PTR _i$[ebp], eax
$LN3@Trans_sub_:
	mov	eax, DWORD PTR _col$[ebp]
	add	eax, 3
	cmp	DWORD PTR _i$[ebp], eax
	jge	SHORT $LN1@Trans_sub_

; 555  : 		{
; 556  : 
; 557  : 			buffer[++k] = grid[j][i];

	mov	eax, DWORD PTR _k$[ebp]
	inc	eax
	mov	DWORD PTR _k$[ebp], eax
	imul	eax, DWORD PTR _j$[ebp], 36
	mov	ecx, DWORD PTR _this$[ebp]
	lea	eax, DWORD PTR [ecx+eax+328]
	mov	ecx, DWORD PTR _buffer$[ebp]
	add	ecx, DWORD PTR _k$[ebp]
	mov	edx, DWORD PTR _i$[ebp]
	mov	al, BYTE PTR [eax+edx*4]
	mov	BYTE PTR [ecx], al

; 558  : 
; 559  : 		}/* end for i */

	jmp	SHORT $LN2@Trans_sub_
$LN1@Trans_sub_:

; 560  : 
; 561  : 	}/* end for j */

	jmp	SHORT $LN5@Trans_sub_
$LN11@Trans_sub_:

; 562  : 
; 563  : }/* end trans_sub_square_of_cell */

	pop	edi
	pop	esi
	pop	ebx
	mov	esp, ebp
	pop	ebp
	ret	12					; 0000000cH
?Trans_sub_square_of_cell@Solution@@AAEXQADHH@Z ENDP	; Solution::Trans_sub_square_of_cell
_TEXT	ENDS
; Function compile flags: /Odsp /RTCsu /ZI
; File c:\projets\sudoku\sudoku\sudoku\solution.cpp
;	COMDAT ?Free_cell_for_number@Solution@@AAEHHHH@Z
_TEXT	SEGMENT
_i$ = -52						; size = 4
_buffer$ = -40						; size = 19
_this$ = -12						; size = 4
__$ArrayPad$ = -4					; size = 4
_number$ = 8						; size = 4
_row$ = 12						; size = 4
_col$ = 16						; size = 4
?Free_cell_for_number@Solution@@AAEHHHH@Z PROC		; Solution::Free_cell_for_number, COMDAT
; _this$ = ecx

; 523  : {

	push	ebp
	mov	ebp, esp
	sub	esp, 248				; 000000f8H
	push	ebx
	push	esi
	push	edi
	push	ecx
	lea	edi, DWORD PTR [ebp-248]
	push	62					; 0000003eH
	pop	ecx
	mov	eax, -858993460				; ccccccccH
	rep stosd
	pop	ecx
	mov	eax, DWORD PTR ___security_cookie
	xor	eax, ebp
	mov	DWORD PTR __$ArrayPad$[ebp], eax
	mov	DWORD PTR _this$[ebp], ecx

; 524  : 	/* Test if the number is already in the line, or the column,
; 525  : 	or the sub-square of 3 X 3 afferent at the cell pointed to by line and column. */
; 526  : 
; 527  : 	char buffer[MAX + 10]; int i;
; 528  : 
; 529  : 	/* If the number is used in the line return FALSE */
; 530  : 	for (i = 0; i < MAX; i++) if (grid[row][i] == number) return(FALSE); /* If the number is used in the column return FALSE */

	and	DWORD PTR _i$[ebp], 0
	jmp	SHORT $LN12@Free_cell_
$LN11@Free_cell_:
	mov	eax, DWORD PTR _i$[ebp]
	inc	eax
	mov	DWORD PTR _i$[ebp], eax
$LN12@Free_cell_:
	cmp	DWORD PTR _i$[ebp], 9
	jge	SHORT $LN10@Free_cell_
	imul	eax, DWORD PTR _row$[ebp], 36
	mov	ecx, DWORD PTR _this$[ebp]
	lea	eax, DWORD PTR [ecx+eax+328]
	mov	ecx, DWORD PTR _i$[ebp]
	mov	eax, DWORD PTR [eax+ecx*4]
	cmp	eax, DWORD PTR _number$[ebp]
	jne	SHORT $LN9@Free_cell_
	xor	eax, eax
	jmp	SHORT $LN13@Free_cell_
$LN9@Free_cell_:

; 531  : 
; 532  : 	for (i = 0; i < MAX; i++) if (grid[i][col] == number) return(FALSE); /* If the number is used in the sub-square of 3 X 3 return FALSE */

	jmp	SHORT $LN11@Free_cell_
$LN10@Free_cell_:
	and	DWORD PTR _i$[ebp], 0
	jmp	SHORT $LN8@Free_cell_
$LN7@Free_cell_:
	mov	eax, DWORD PTR _i$[ebp]
	inc	eax
	mov	DWORD PTR _i$[ebp], eax
$LN8@Free_cell_:
	cmp	DWORD PTR _i$[ebp], 9
	jge	SHORT $LN6@Free_cell_
	imul	eax, DWORD PTR _i$[ebp], 36
	mov	ecx, DWORD PTR _this$[ebp]
	lea	eax, DWORD PTR [ecx+eax+328]
	mov	ecx, DWORD PTR _col$[ebp]
	mov	eax, DWORD PTR [eax+ecx*4]
	cmp	eax, DWORD PTR _number$[ebp]
	jne	SHORT $LN5@Free_cell_
	xor	eax, eax
	jmp	SHORT $LN13@Free_cell_
$LN5@Free_cell_:

; 533  : 
; 534  : 	Trans_sub_square_of_cell(buffer, row, col);

	jmp	SHORT $LN7@Free_cell_
$LN6@Free_cell_:
	push	DWORD PTR _col$[ebp]
	push	DWORD PTR _row$[ebp]
	lea	eax, DWORD PTR _buffer$[ebp]
	push	eax
	mov	ecx, DWORD PTR _this$[ebp]
	call	?Trans_sub_square_of_cell@Solution@@AAEXQADHH@Z ; Solution::Trans_sub_square_of_cell

; 535  : 
; 536  : 	for (i = 0; i < MAX; i++) if (buffer[i] == number) return (FALSE);   /* whereby the number is available for the cell, return TRUE. */

	and	DWORD PTR _i$[ebp], 0
	jmp	SHORT $LN4@Free_cell_
$LN3@Free_cell_:
	mov	eax, DWORD PTR _i$[ebp]
	inc	eax
	mov	DWORD PTR _i$[ebp], eax
$LN4@Free_cell_:
	cmp	DWORD PTR _i$[ebp], 9
	jge	SHORT $LN2@Free_cell_
	mov	eax, DWORD PTR _i$[ebp]
	movsx	eax, BYTE PTR _buffer$[ebp+eax]
	cmp	eax, DWORD PTR _number$[ebp]
	jne	SHORT $LN1@Free_cell_
	xor	eax, eax
	jmp	SHORT $LN13@Free_cell_
$LN1@Free_cell_:

; 537  : 
; 538  : 	return(TRUE);

	jmp	SHORT $LN3@Free_cell_
$LN2@Free_cell_:
	xor	eax, eax
	inc	eax
$LN13@Free_cell_:

; 539  : }

	push	edx
	mov	ecx, ebp
	push	eax
	lea	edx, DWORD PTR $LN17@Free_cell_
	call	@_RTC_CheckStackVars@8
	pop	eax
	pop	edx
	pop	edi
	pop	esi
	pop	ebx
	mov	ecx, DWORD PTR __$ArrayPad$[ebp]
	xor	ecx, ebp
	call	@__security_check_cookie@4
	add	esp, 248				; 000000f8H
	cmp	ebp, esp
	call	__RTC_CheckEsp
	mov	esp, ebp
	pop	ebp
	ret	12					; 0000000cH
	npad	1
$LN17@Free_cell_:
	DD	1
	DD	$LN16@Free_cell_
$LN16@Free_cell_:
	DD	-40					; ffffffd8H
	DD	19					; 00000013H
	DD	$LN15@Free_cell_
$LN15@Free_cell_:
	DB	98					; 00000062H
	DB	117					; 00000075H
	DB	102					; 00000066H
	DB	102					; 00000066H
	DB	101					; 00000065H
	DB	114					; 00000072H
	DB	0
?Free_cell_for_number@Solution@@AAEHHHH@Z ENDP		; Solution::Free_cell_for_number
_TEXT	ENDS
; Function compile flags: /Odsp /RTCsu /ZI
; File c:\projets\sudoku\sudoku\sudoku\solution.cpp
;	COMDAT ?write_Time@Solution@@AAEXVCTime@ATL@@0@Z
_TEXT	SEGMENT
$T1 = -256						; size = 8
$T2 = -240						; size = 8
$T3 = -224						; size = 4
$T4 = -212						; size = 4
_this$ = -8						; size = 4
_start$ = 8						; size = 8
_Stop$ = 16						; size = 8
?write_Time@Solution@@AAEXVCTime@ATL@@0@Z PROC		; Solution::write_Time, COMDAT
; _this$ = ecx

; 501  : {

	push	ebp
	mov	ebp, esp
	sub	esp, 260				; 00000104H
	push	ebx
	push	esi
	push	edi
	push	ecx
	lea	edi, DWORD PTR [ebp-260]
	push	65					; 00000041H
	pop	ecx
	mov	eax, -858993460				; ccccccccH
	rep stosd
	pop	ecx
	mov	DWORD PTR _this$[ebp], ecx

; 502  : 
; 503  : 	Start_Time.Format(_T("Heure de dbut  : %d:%d:%d\n"), start.GetMinute(), start.GetSecond(), start.GetTickCount());

	lea	eax, DWORD PTR $T1[ebp]
	push	eax
	call	?GetTickCount@CTime@ATL@@SG?AV12@XZ	; ATL::CTime::GetTickCount
	mov	esi, esp
	push	DWORD PTR [eax+4]
	push	DWORD PTR [eax]
	lea	ecx, DWORD PTR _start$[ebp]
	call	?GetSecond@CTime@ATL@@QBEHXZ		; ATL::CTime::GetSecond
	push	eax
	lea	ecx, DWORD PTR _start$[ebp]
	call	?GetMinute@CTime@ATL@@QBEHXZ		; ATL::CTime::GetMinute
	push	eax
	push	OFFSET ??_C@_1DI@EODPNPOH@?$AAH?$AAe?$AAu?$AAr?$AAe?$AA?5?$AAd?$AAe?$AA?5?$AAd?$AA?i?$AAb?$AAu?$AAt?$AA?5?$AA?5?$AA?3?$AA?5?$AA?$CF?$AAd?$AA?3?$AA?$CF?$AAd?$AA?3?$AA?$CF?$AAd?$AA?6?$AA?$AA@
	mov	eax, DWORD PTR _this$[ebp]
	add	eax, 668				; 0000029cH
	push	eax
	call	DWORD PTR __imp_?Format@?$CStringT@_WV?$StrTraitMFC_DLL@_WV?$ChTraitsCRT@_W@ATL@@@@@ATL@@QAAXPB_WZZ
	add	esp, 24					; 00000018H
	cmp	esi, esp
	call	__RTC_CheckEsp

; 504  : 	End_Time.Format(_T("Heure de fin    : %d:%d:%d\n\n\n"), Stop.GetMinute(), Stop.GetSecond(), Stop.GetTickCount());

	lea	eax, DWORD PTR $T2[ebp]
	push	eax
	call	?GetTickCount@CTime@ATL@@SG?AV12@XZ	; ATL::CTime::GetTickCount
	mov	esi, esp
	push	DWORD PTR [eax+4]
	push	DWORD PTR [eax]
	lea	ecx, DWORD PTR _Stop$[ebp]
	call	?GetSecond@CTime@ATL@@QBEHXZ		; ATL::CTime::GetSecond
	push	eax
	lea	ecx, DWORD PTR _Stop$[ebp]
	call	?GetMinute@CTime@ATL@@QBEHXZ		; ATL::CTime::GetMinute
	push	eax
	push	OFFSET ??_C@_1DM@CLCPNAMK@?$AAH?$AAe?$AAu?$AAr?$AAe?$AA?5?$AAd?$AAe?$AA?5?$AAf?$AAi?$AAn?$AA?5?$AA?5?$AA?5?$AA?5?$AA?3?$AA?5?$AA?$CF?$AAd?$AA?3?$AA?$CF?$AAd?$AA?3?$AA?$CF?$AAd?$AA?6?$AA?6?$AA?6?$AA?$AA@
	mov	eax, DWORD PTR _this$[ebp]
	add	eax, 672				; 000002a0H
	push	eax
	call	DWORD PTR __imp_?Format@?$CStringT@_WV?$StrTraitMFC_DLL@_WV?$ChTraitsCRT@_W@ATL@@@@@ATL@@QAAXPB_WZZ
	add	esp, 24					; 00000018H
	cmp	esi, esp
	call	__RTC_CheckEsp

; 505  : 
; 506  : 	Conversion(Start_Time);

	mov	eax, DWORD PTR _this$[ebp]
	add	eax, 668				; 0000029cH
	push	ecx
	mov	ecx, esp
	mov	DWORD PTR $T3[ebp], esp
	mov	esi, esp
	push	eax
	call	DWORD PTR __imp_??0?$CStringT@_WV?$StrTraitMFC_DLL@_WV?$ChTraitsCRT@_W@ATL@@@@@ATL@@QAE@ABV01@@Z
	cmp	esi, esp
	call	__RTC_CheckEsp
	mov	ecx, DWORD PTR _this$[ebp]
	call	?Conversion@Solution@@AAEXV?$CStringT@_WV?$StrTraitMFC_DLL@_WV?$ChTraitsCRT@_W@ATL@@@@@ATL@@@Z ; Solution::Conversion

; 507  : 	Conversion(End_Time);

	mov	eax, DWORD PTR _this$[ebp]
	add	eax, 672				; 000002a0H
	push	ecx
	mov	ecx, esp
	mov	DWORD PTR $T4[ebp], esp
	mov	esi, esp
	push	eax
	call	DWORD PTR __imp_??0?$CStringT@_WV?$StrTraitMFC_DLL@_WV?$ChTraitsCRT@_W@ATL@@@@@ATL@@QAE@ABV01@@Z
	cmp	esi, esp
	call	__RTC_CheckEsp
	mov	ecx, DWORD PTR _this$[ebp]
	call	?Conversion@Solution@@AAEXV?$CStringT@_WV?$StrTraitMFC_DLL@_WV?$ChTraitsCRT@_W@ATL@@@@@ATL@@@Z ; Solution::Conversion

; 508  : 
; 509  : }

	pop	edi
	pop	esi
	pop	ebx
	add	esp, 260				; 00000104H
	cmp	ebp, esp
	call	__RTC_CheckEsp
	mov	esp, ebp
	pop	ebp
	ret	16					; 00000010H
?write_Time@Solution@@AAEXVCTime@ATL@@0@Z ENDP		; Solution::write_Time
_TEXT	ENDS
; Function compile flags: /Odsp /RTCsu /ZI
; File c:\projets\sudoku\sudoku\sudoku\solution.cpp
;	COMDAT ?Resolve@Solution@@AAEXXZ
_TEXT	SEGMENT
_buffer_number$ = -56					; size = 4
_number$ = -44						; size = 4
_col$ = -32						; size = 4
_row$ = -20						; size = 4
_this$ = -8						; size = 4
?Resolve@Solution@@AAEXXZ PROC				; Solution::Resolve, COMDAT
; _this$ = ecx

; 464  : {

	push	ebp
	mov	ebp, esp
	sub	esp, 252				; 000000fcH
	push	ebx
	push	esi
	push	edi
	push	ecx
	lea	edi, DWORD PTR [ebp-252]
	push	63					; 0000003fH
	pop	ecx
	mov	eax, -858993460				; ccccccccH
	rep stosd
	pop	ecx
	mov	DWORD PTR _this$[ebp], ecx

; 465  : 	
; 466  : 	/* Attention, recursive function... */
; 467  : 	int row, col, number, buffer_number;
; 468  : 
; 469  : 	for (row = 0; row < MAX; row++)

	and	DWORD PTR _row$[ebp], 0
	jmp	SHORT $LN12@Resolve
$LN11@Resolve:
	mov	eax, DWORD PTR _row$[ebp]
	inc	eax
	mov	DWORD PTR _row$[ebp], eax
$LN12@Resolve:
	cmp	DWORD PTR _row$[ebp], 9
	jge	$LN13@Resolve

; 470  : 	{
; 471  : 		for (col = 0; col < MAX; col++)

	and	DWORD PTR _col$[ebp], 0
	jmp	SHORT $LN9@Resolve
$LN8@Resolve:
	mov	eax, DWORD PTR _col$[ebp]
	inc	eax
	mov	DWORD PTR _col$[ebp], eax
$LN9@Resolve:
	cmp	DWORD PTR _col$[ebp], 9
	jge	$LN7@Resolve

; 472  : 		{
; 473  : 			if (grid[row][col]) continue;

	imul	eax, DWORD PTR _row$[ebp], 36
	mov	ecx, DWORD PTR _this$[ebp]
	lea	eax, DWORD PTR [ecx+eax+328]
	mov	ecx, DWORD PTR _col$[ebp]
	cmp	DWORD PTR [eax+ecx*4], 0
	je	SHORT $LN6@Resolve
	jmp	SHORT $LN8@Resolve
$LN6@Resolve:

; 474  : 
; 475  : 			for (number = 1; number <= MAX; number++)

	mov	DWORD PTR _number$[ebp], 1
	jmp	SHORT $LN5@Resolve
$LN4@Resolve:
	mov	eax, DWORD PTR _number$[ebp]
	inc	eax
	mov	DWORD PTR _number$[ebp], eax
$LN5@Resolve:
	cmp	DWORD PTR _number$[ebp], 9
	jg	$LN3@Resolve

; 476  : 			{
; 477  : 
; 478  : 				if (!Free_cell_for_number(number, row, col)) continue;

	push	DWORD PTR _col$[ebp]
	push	DWORD PTR _row$[ebp]
	push	DWORD PTR _number$[ebp]
	mov	ecx, DWORD PTR _this$[ebp]
	call	?Free_cell_for_number@Solution@@AAEHHHH@Z ; Solution::Free_cell_for_number
	test	eax, eax
	jne	SHORT $LN2@Resolve
	jmp	SHORT $LN4@Resolve
$LN2@Resolve:

; 479  : 				buffer_number = grid[row][col]; grid[row][col] = number;

	imul	eax, DWORD PTR _row$[ebp], 36
	mov	ecx, DWORD PTR _this$[ebp]
	lea	eax, DWORD PTR [ecx+eax+328]
	mov	ecx, DWORD PTR _col$[ebp]
	mov	eax, DWORD PTR [eax+ecx*4]
	mov	DWORD PTR _buffer_number$[ebp], eax
	imul	eax, DWORD PTR _row$[ebp], 36
	mov	ecx, DWORD PTR _this$[ebp]
	lea	eax, DWORD PTR [ecx+eax+328]
	mov	ecx, DWORD PTR _col$[ebp]
	mov	edx, DWORD PTR _number$[ebp]
	mov	DWORD PTR [eax+ecx*4], edx

; 480  : 				g_test_counter++;

	mov	eax, DWORD PTR _this$[ebp]
	mov	eax, DWORD PTR [eax+656]
	inc	eax
	mov	ecx, DWORD PTR _this$[ebp]
	mov	DWORD PTR [ecx+656], eax

; 481  : 				Resolve();

	mov	ecx, DWORD PTR _this$[ebp]
	call	?Resolve@Solution@@AAEXXZ		; Solution::Resolve

; 482  : 				// g_test_counter++;
; 483  : 				if (Finished_grid()) return;

	mov	ecx, DWORD PTR _this$[ebp]
	call	?Finished_grid@Solution@@AAEHXZ		; Solution::Finished_grid
	test	eax, eax
	je	SHORT $LN1@Resolve
	jmp	SHORT $LN13@Resolve
$LN1@Resolve:

; 484  : 				/* To see all the solutions of the grids with multiple solutions,
; 485  : 				switch the line above as a comment and remove the comment command
; 486  : 				of the line below.
; 487  : 				*/
; 488  : 				grid[row][col] = buffer_number;

	imul	eax, DWORD PTR _row$[ebp], 36
	mov	ecx, DWORD PTR _this$[ebp]
	lea	eax, DWORD PTR [ecx+eax+328]
	mov	ecx, DWORD PTR _col$[ebp]
	mov	edx, DWORD PTR _buffer_number$[ebp]
	mov	DWORD PTR [eax+ecx*4], edx

; 489  : 
; 490  : 			}/* end for number */

	jmp	$LN4@Resolve
$LN3@Resolve:

; 491  : 			return;

	jmp	SHORT $LN13@Resolve

; 492  : 
; 493  : 		}/* end for col */

	jmp	$LN8@Resolve
$LN7@Resolve:

; 494  : 	}/* end for row */

	jmp	$LN11@Resolve
$LN13@Resolve:

; 495  : 
; 496  : 	return;
; 497  : 
; 498  : }

	pop	edi
	pop	esi
	pop	ebx
	add	esp, 252				; 000000fcH
	cmp	ebp, esp
	call	__RTC_CheckEsp
	mov	esp, ebp
	pop	ebp
	ret	0
?Resolve@Solution@@AAEXXZ ENDP				; Solution::Resolve
_TEXT	ENDS
; Function compile flags: /Odsp /RTCsu /ZI
; File c:\projets\sudoku\sudoku\sudoku\solution.cpp
;	COMDAT ?Trans_sub_square@Solution@@AAEXQADH@Z
_TEXT	SEGMENT
_z$ = -68						; size = 4
_y$ = -56						; size = 4
_x$ = -44						; size = 4
_j$ = -32						; size = 4
_i$ = -20						; size = 4
_this$ = -8						; size = 4
_buffer$ = 8						; size = 4
_sub_square$ = 12					; size = 4
?Trans_sub_square@Solution@@AAEXQADH@Z PROC		; Solution::Trans_sub_square, COMDAT
; _this$ = ecx

; 428  : {

	push	ebp
	mov	ebp, esp
	sub	esp, 264				; 00000108H
	push	ebx
	push	esi
	push	edi
	push	ecx
	lea	edi, DWORD PTR [ebp-264]
	push	66					; 00000042H
	pop	ecx
	mov	eax, -858993460				; ccccccccH
	rep stosd
	pop	ecx
	mov	DWORD PTR _this$[ebp], ecx

; 429  : 	/* Transfer the sub-square of 3 x 3 into a one-dimensional array. */
; 430  : 	int i, j, x, y, z;
; 431  : 
; 432  : 	x = (((sub_square) % MIN)*MIN);

	mov	eax, DWORD PTR _sub_square$[ebp]
	cdq
	push	3
	pop	ecx
	idiv	ecx
	imul	eax, edx, 3
	mov	DWORD PTR _x$[ebp], eax

; 433  : 	y = (((sub_square + MIN) / MIN)*MIN) - MIN;

	mov	eax, DWORD PTR _sub_square$[ebp]
	add	eax, 3
	cdq
	push	3
	pop	ecx
	idiv	ecx
	imul	eax, eax, 3
	sub	eax, 3
	mov	DWORD PTR _y$[ebp], eax

; 434  : 	z = 0;

	and	DWORD PTR _z$[ebp], 0

; 435  : 
; 436  : 	for (j = y; j < y + MIN; j++)

	mov	eax, DWORD PTR _y$[ebp]
	mov	DWORD PTR _j$[ebp], eax
	jmp	SHORT $LN6@Trans_sub_
$LN5@Trans_sub_:
	mov	eax, DWORD PTR _j$[ebp]
	inc	eax
	mov	DWORD PTR _j$[ebp], eax
$LN6@Trans_sub_:
	mov	eax, DWORD PTR _y$[ebp]
	add	eax, 3
	cmp	DWORD PTR _j$[ebp], eax
	jge	SHORT $LN7@Trans_sub_

; 437  : 	{
; 438  : 
; 439  : 		for (i = x; i < x + MIN; i++)

	mov	eax, DWORD PTR _x$[ebp]
	mov	DWORD PTR _i$[ebp], eax
	jmp	SHORT $LN3@Trans_sub_
$LN2@Trans_sub_:
	mov	eax, DWORD PTR _i$[ebp]
	inc	eax
	mov	DWORD PTR _i$[ebp], eax
$LN3@Trans_sub_:
	mov	eax, DWORD PTR _x$[ebp]
	add	eax, 3
	cmp	DWORD PTR _i$[ebp], eax
	jge	SHORT $LN1@Trans_sub_

; 440  : 		{
; 441  : 
; 442  : 			buffer[z++] = grid[j][i];

	imul	eax, DWORD PTR _j$[ebp], 36
	mov	ecx, DWORD PTR _this$[ebp]
	lea	eax, DWORD PTR [ecx+eax+328]
	mov	ecx, DWORD PTR _buffer$[ebp]
	add	ecx, DWORD PTR _z$[ebp]
	mov	edx, DWORD PTR _i$[ebp]
	mov	al, BYTE PTR [eax+edx*4]
	mov	BYTE PTR [ecx], al
	mov	eax, DWORD PTR _z$[ebp]
	inc	eax
	mov	DWORD PTR _z$[ebp], eax

; 443  : 
; 444  : 		}/* end for i */

	jmp	SHORT $LN2@Trans_sub_
$LN1@Trans_sub_:

; 445  : 
; 446  : 	}/* end for j */

	jmp	SHORT $LN5@Trans_sub_
$LN7@Trans_sub_:

; 447  : }

	pop	edi
	pop	esi
	pop	ebx
	mov	esp, ebp
	pop	ebp
	ret	8
?Trans_sub_square@Solution@@AAEXQADH@Z ENDP		; Solution::Trans_sub_square
_TEXT	ENDS
; Function compile flags: /Odsp /RTCsu /ZI
; File c:\projets\sudoku\sudoku\sudoku\solution.cpp
;	COMDAT ?Check_input_a_sub_square@Solution@@AAEHH@Z
_TEXT	SEGMENT
$T2 = -292						; size = 4
_chaine$3 = -88						; size = 4
_j$ = -76						; size = 4
_i$ = -64						; size = 4
_buffer$ = -52						; size = 19
_this$ = -24						; size = 4
__$ArrayPad$ = -16					; size = 4
__$EHRec$ = -12						; size = 12
_sub_square$ = 8					; size = 4
?Check_input_a_sub_square@Solution@@AAEHH@Z PROC	; Solution::Check_input_a_sub_square, COMDAT
; _this$ = ecx

; 401  : {

	push	ebp
	mov	ebp, esp
	push	-1
	push	__ehhandler$?Check_input_a_sub_square@Solution@@AAEHH@Z
	mov	eax, DWORD PTR fs:0
	push	eax
	sub	esp, 284				; 0000011cH
	push	ebx
	push	esi
	push	edi
	push	ecx
	lea	edi, DWORD PTR [ebp-296]
	push	71					; 00000047H
	pop	ecx
	mov	eax, -858993460				; ccccccccH
	rep stosd
	pop	ecx
	mov	eax, DWORD PTR ___security_cookie
	xor	eax, ebp
	mov	DWORD PTR __$ArrayPad$[ebp], eax
	push	eax
	lea	eax, DWORD PTR __$EHRec$[ebp]
	mov	DWORD PTR fs:0, eax
	mov	DWORD PTR _this$[ebp], ecx

; 402  : 	/* Checks if no duplicate into the sub-square of 3 x 3. */
; 403  : 	char buffer[MAX + 10];
; 404  : 	int i, j;
; 405  : 
; 406  : 	Trans_sub_square(buffer, sub_square);

	push	DWORD PTR _sub_square$[ebp]
	lea	eax, DWORD PTR _buffer$[ebp]
	push	eax
	mov	ecx, DWORD PTR _this$[ebp]
	call	?Trans_sub_square@Solution@@AAEXQADH@Z	; Solution::Trans_sub_square

; 407  : 
; 408  : 	for (i = 0; i < MAX - 1; i++)

	and	DWORD PTR _i$[ebp], 0
	jmp	SHORT $LN8@Check_inpu
$LN7@Check_inpu:
	mov	eax, DWORD PTR _i$[ebp]
	inc	eax
	mov	DWORD PTR _i$[ebp], eax
$LN8@Check_inpu:
	cmp	DWORD PTR _i$[ebp], 8
	jge	$LN6@Check_inpu

; 409  : 	{
; 410  : 		if (buffer[i] == 0) continue;

	mov	eax, DWORD PTR _i$[ebp]
	movsx	eax, BYTE PTR _buffer$[ebp+eax]
	test	eax, eax
	jne	SHORT $LN5@Check_inpu
	jmp	SHORT $LN7@Check_inpu
$LN5@Check_inpu:

; 411  : 
; 412  : 		for (j = i + 1; j < MAX; j++)

	mov	eax, DWORD PTR _i$[ebp]
	inc	eax
	mov	DWORD PTR _j$[ebp], eax
	jmp	SHORT $LN4@Check_inpu
$LN3@Check_inpu:
	mov	eax, DWORD PTR _j$[ebp]
	inc	eax
	mov	DWORD PTR _j$[ebp], eax
$LN4@Check_inpu:
	cmp	DWORD PTR _j$[ebp], 9
	jge	$LN2@Check_inpu

; 413  : 		{
; 414  : 			if (buffer[i] == buffer[j])

	mov	eax, DWORD PTR _i$[ebp]
	movsx	eax, BYTE PTR _buffer$[ebp+eax]
	mov	ecx, DWORD PTR _j$[ebp]
	movsx	ecx, BYTE PTR _buffer$[ebp+ecx]
	cmp	eax, ecx
	jne	SHORT $LN1@Check_inpu

; 415  : 			{
; 416  : 				CString chaine;

	mov	esi, esp
	lea	ecx, DWORD PTR _chaine$3[ebp]
	call	DWORD PTR __imp_??0?$CStringT@_WV?$StrTraitMFC_DLL@_WV?$ChTraitsCRT@_W@ATL@@@@@ATL@@QAE@XZ
	cmp	esi, esp
	call	__RTC_CheckEsp
	and	DWORD PTR __$EHRec$[ebp+8], 0

; 417  : 				chaine.Format(_T("Erreur sous carr %d: nombre egaux"), sub_square + 1);

	mov	eax, DWORD PTR _sub_square$[ebp]
	inc	eax
	mov	esi, esp
	push	eax
	push	OFFSET ??_C@_1EG@ECKKEMMN@?$AAE?$AAr?$AAr?$AAe?$AAu?$AAr?$AA?5?$AAs?$AAo?$AAu?$AAs?$AA?5?$AAc?$AAa?$AAr?$AAr?$AA?i?$AA?5?$AA?$CF?$AAd?$AA?3?$AA?5?$AAn?$AAo?$AAm?$AAb?$AAr?$AAe?$AA?5?$AAe?$AAg?$AAa@
	lea	eax, DWORD PTR _chaine$3[ebp]
	push	eax
	call	DWORD PTR __imp_?Format@?$CStringT@_WV?$StrTraitMFC_DLL@_WV?$ChTraitsCRT@_W@ATL@@@@@ATL@@QAAXPB_WZZ
	add	esp, 12					; 0000000cH
	cmp	esi, esp
	call	__RTC_CheckEsp

; 418  : 				AfxMessageBox(chaine, MB_OK);

	push	0
	push	0
	mov	esi, esp
	lea	ecx, DWORD PTR _chaine$3[ebp]
	call	DWORD PTR __imp_??B?$CSimpleStringT@_W$00@ATL@@QBEPB_WXZ
	cmp	esi, esp
	call	__RTC_CheckEsp
	push	eax
	call	?AfxMessageBox@@YGHPB_WII@Z		; AfxMessageBox

; 419  : 				return FALSE;

	and	DWORD PTR $T2[ebp], 0
	or	DWORD PTR __$EHRec$[ebp+8], -1
	mov	esi, esp
	lea	ecx, DWORD PTR _chaine$3[ebp]
	call	DWORD PTR __imp_??1?$CStringT@_WV?$StrTraitMFC_DLL@_WV?$ChTraitsCRT@_W@ATL@@@@@ATL@@QAE@XZ
	cmp	esi, esp
	call	__RTC_CheckEsp
	mov	eax, DWORD PTR $T2[ebp]
	jmp	SHORT $LN9@Check_inpu
$LN1@Check_inpu:

; 420  : 
; 421  : 			}/* end if */
; 422  : 		}/* end for j */

	jmp	$LN3@Check_inpu
$LN2@Check_inpu:

; 423  : 	}/* end for i */

	jmp	$LN7@Check_inpu
$LN6@Check_inpu:

; 424  : 	return TRUE;

	xor	eax, eax
	inc	eax
$LN9@Check_inpu:

; 425  : }

	push	edx
	mov	ecx, ebp
	push	eax
	lea	edx, DWORD PTR $LN16@Check_inpu
	call	@_RTC_CheckStackVars@8
	pop	eax
	pop	edx
	mov	ecx, DWORD PTR __$EHRec$[ebp]
	mov	DWORD PTR fs:0, ecx
	pop	ecx
	pop	edi
	pop	esi
	pop	ebx
	mov	ecx, DWORD PTR __$ArrayPad$[ebp]
	xor	ecx, ebp
	call	@__security_check_cookie@4
	add	esp, 296				; 00000128H
	cmp	ebp, esp
	call	__RTC_CheckEsp
	mov	esp, ebp
	pop	ebp
	ret	4
	npad	3
$LN16@Check_inpu:
	DD	2
	DD	$LN15@Check_inpu
$LN15@Check_inpu:
	DD	-52					; ffffffccH
	DD	19					; 00000013H
	DD	$LN12@Check_inpu
	DD	-88					; ffffffa8H
	DD	4
	DD	$LN13@Check_inpu
$LN13@Check_inpu:
	DB	99					; 00000063H
	DB	104					; 00000068H
	DB	97					; 00000061H
	DB	105					; 00000069H
	DB	110					; 0000006eH
	DB	101					; 00000065H
	DB	0
$LN12@Check_inpu:
	DB	98					; 00000062H
	DB	117					; 00000075H
	DB	102					; 00000066H
	DB	102					; 00000066H
	DB	101					; 00000065H
	DB	114					; 00000072H
	DB	0
_TEXT	ENDS
;	COMDAT text$x
text$x	SEGMENT
__unwindfunclet$?Check_input_a_sub_square@Solution@@AAEHH@Z$0:
	mov	esi, esp
	lea	ecx, DWORD PTR _chaine$3[ebp]
	call	DWORD PTR __imp_??1?$CStringT@_WV?$StrTraitMFC_DLL@_WV?$ChTraitsCRT@_W@ATL@@@@@ATL@@QAE@XZ
	cmp	esi, esp
	jmp	__RTC_CheckEsp
__ehhandler$?Check_input_a_sub_square@Solution@@AAEHH@Z:
	mov	edx, DWORD PTR [esp+8]
	lea	eax, DWORD PTR [edx+12]
	mov	ecx, DWORD PTR [edx-300]
	xor	ecx, eax
	call	@__security_check_cookie@4
	mov	ecx, DWORD PTR [edx-4]
	xor	ecx, eax
	call	@__security_check_cookie@4
	mov	eax, OFFSET __ehfuncinfo$?Check_input_a_sub_square@Solution@@AAEHH@Z
	jmp	___CxxFrameHandler3
text$x	ENDS
?Check_input_a_sub_square@Solution@@AAEHH@Z ENDP	; Solution::Check_input_a_sub_square
; Function compile flags: /Odsp /RTCsu /ZI
; File c:\projets\sudoku\sudoku\sudoku\solution.cpp
;	COMDAT ?Check_input_sub_squares@Solution@@AAEHXZ
_TEXT	SEGMENT
_result$ = -32						; size = 4
_sub_square$ = -20					; size = 4
_this$ = -8						; size = 4
?Check_input_sub_squares@Solution@@AAEHXZ PROC		; Solution::Check_input_sub_squares, COMDAT
; _this$ = ecx

; 386  : {

	push	ebp
	mov	ebp, esp
	sub	esp, 228				; 000000e4H
	push	ebx
	push	esi
	push	edi
	push	ecx
	lea	edi, DWORD PTR [ebp-228]
	push	57					; 00000039H
	pop	ecx
	mov	eax, -858993460				; ccccccccH
	rep stosd
	pop	ecx
	mov	DWORD PTR _this$[ebp], ecx

; 387  : 	/* Checks if no duplicate into the sub-squares of 3 x 3. */
; 388  : 	int sub_square;
; 389  : 	int result = TRUE;

	mov	DWORD PTR _result$[ebp], 1

; 390  : 
; 391  : 	for (sub_square = 0; sub_square < MAX; sub_square++)

	and	DWORD PTR _sub_square$[ebp], 0
	jmp	SHORT $LN4@Check_inpu
$LN3@Check_inpu:
	mov	eax, DWORD PTR _sub_square$[ebp]
	inc	eax
	mov	DWORD PTR _sub_square$[ebp], eax
$LN4@Check_inpu:
	cmp	DWORD PTR _sub_square$[ebp], 9
	jge	SHORT $LN2@Check_inpu

; 392  : 	{
; 393  : 
; 394  : 		if (!Check_input_a_sub_square(sub_square)) result = FALSE;

	push	DWORD PTR _sub_square$[ebp]
	mov	ecx, DWORD PTR _this$[ebp]
	call	?Check_input_a_sub_square@Solution@@AAEHH@Z ; Solution::Check_input_a_sub_square
	test	eax, eax
	jne	SHORT $LN1@Check_inpu
	and	DWORD PTR _result$[ebp], 0
$LN1@Check_inpu:

; 395  : 
; 396  : 	}/* end for */

	jmp	SHORT $LN3@Check_inpu
$LN2@Check_inpu:

; 397  : 	return result;

	mov	eax, DWORD PTR _result$[ebp]

; 398  : }

	pop	edi
	pop	esi
	pop	ebx
	add	esp, 228				; 000000e4H
	cmp	ebp, esp
	call	__RTC_CheckEsp
	mov	esp, ebp
	pop	ebp
	ret	0
?Check_input_sub_squares@Solution@@AAEHXZ ENDP		; Solution::Check_input_sub_squares
_TEXT	ENDS
; Function compile flags: /Odsp /RTCsu /ZI
; File c:\projets\sudoku\sudoku\sudoku\solution.cpp
;	COMDAT ?Check_input_a_column@Solution@@AAEHH@Z
_TEXT	SEGMENT
$T2 = -264						; size = 4
_chaine$3 = -60						; size = 4
_j$ = -48						; size = 4
_i$ = -36						; size = 4
_this$ = -24						; size = 4
__$ArrayPad$ = -16					; size = 4
__$EHRec$ = -12						; size = 12
_col$ = 8						; size = 4
?Check_input_a_column@Solution@@AAEHH@Z PROC		; Solution::Check_input_a_column, COMDAT
; _this$ = ecx

; 361  : {

	push	ebp
	mov	ebp, esp
	push	-1
	push	__ehhandler$?Check_input_a_column@Solution@@AAEHH@Z
	mov	eax, DWORD PTR fs:0
	push	eax
	sub	esp, 256				; 00000100H
	push	ebx
	push	esi
	push	edi
	push	ecx
	lea	edi, DWORD PTR [ebp-268]
	push	64					; 00000040H
	pop	ecx
	mov	eax, -858993460				; ccccccccH
	rep stosd
	pop	ecx
	mov	eax, DWORD PTR ___security_cookie
	xor	eax, ebp
	mov	DWORD PTR __$ArrayPad$[ebp], eax
	push	eax
	lea	eax, DWORD PTR __$EHRec$[ebp]
	mov	DWORD PTR fs:0, eax
	mov	DWORD PTR _this$[ebp], ecx

; 362  : 	/* Checks if no duplicate into the column. */
; 363  : 	int i, j;
; 364  : 	for (i = 0; i < MAX - 1; i++)

	and	DWORD PTR _i$[ebp], 0
	jmp	SHORT $LN8@Check_inpu
$LN7@Check_inpu:
	mov	eax, DWORD PTR _i$[ebp]
	inc	eax
	mov	DWORD PTR _i$[ebp], eax
$LN8@Check_inpu:
	cmp	DWORD PTR _i$[ebp], 8
	jge	$LN6@Check_inpu

; 365  : 	{
; 366  : 		if (grid[i][col] == 0) continue;

	imul	eax, DWORD PTR _i$[ebp], 36
	mov	ecx, DWORD PTR _this$[ebp]
	lea	eax, DWORD PTR [ecx+eax+328]
	mov	ecx, DWORD PTR _col$[ebp]
	cmp	DWORD PTR [eax+ecx*4], 0
	jne	SHORT $LN5@Check_inpu
	jmp	SHORT $LN7@Check_inpu
$LN5@Check_inpu:

; 367  : 
; 368  : 		for (j = i + 1; j < MAX; j++)

	mov	eax, DWORD PTR _i$[ebp]
	inc	eax
	mov	DWORD PTR _j$[ebp], eax
	jmp	SHORT $LN4@Check_inpu
$LN3@Check_inpu:
	mov	eax, DWORD PTR _j$[ebp]
	inc	eax
	mov	DWORD PTR _j$[ebp], eax
$LN4@Check_inpu:
	cmp	DWORD PTR _j$[ebp], 9
	jge	$LN2@Check_inpu

; 369  : 		{
; 370  : 
; 371  : 			if (grid[i][col] == grid[j][col])

	imul	eax, DWORD PTR _i$[ebp], 36
	mov	ecx, DWORD PTR _this$[ebp]
	lea	eax, DWORD PTR [ecx+eax+328]
	imul	ecx, DWORD PTR _j$[ebp], 36
	mov	edx, DWORD PTR _this$[ebp]
	lea	ecx, DWORD PTR [edx+ecx+328]
	mov	edx, DWORD PTR _col$[ebp]
	mov	esi, DWORD PTR _col$[ebp]
	mov	eax, DWORD PTR [eax+edx*4]
	cmp	eax, DWORD PTR [ecx+esi*4]
	jne	SHORT $LN1@Check_inpu

; 372  : 			{
; 373  : 
; 374  : 				CString chaine;

	mov	esi, esp
	lea	ecx, DWORD PTR _chaine$3[ebp]
	call	DWORD PTR __imp_??0?$CStringT@_WV?$StrTraitMFC_DLL@_WV?$ChTraitsCRT@_W@ATL@@@@@ATL@@QAE@XZ
	cmp	esi, esp
	call	__RTC_CheckEsp
	and	DWORD PTR __$EHRec$[ebp+8], 0

; 375  : 				chaine.Format(_T("Erreur colonne %d: nombre egaux"),col + 1);

	mov	eax, DWORD PTR _col$[ebp]
	inc	eax
	mov	esi, esp
	push	eax
	push	OFFSET ??_C@_1EA@OLIANHL@?$AAE?$AAr?$AAr?$AAe?$AAu?$AAr?$AA?5?$AAc?$AAo?$AAl?$AAo?$AAn?$AAn?$AAe?$AA?5?$AA?$CF?$AAd?$AA?3?$AA?5?$AAn?$AAo?$AAm?$AAb?$AAr?$AAe?$AA?5?$AAe?$AAg?$AAa?$AAu?$AAx?$AA?$AA@
	lea	eax, DWORD PTR _chaine$3[ebp]
	push	eax
	call	DWORD PTR __imp_?Format@?$CStringT@_WV?$StrTraitMFC_DLL@_WV?$ChTraitsCRT@_W@ATL@@@@@ATL@@QAAXPB_WZZ
	add	esp, 12					; 0000000cH
	cmp	esi, esp
	call	__RTC_CheckEsp

; 376  : 				AfxMessageBox(chaine, MB_OK);

	push	0
	push	0
	mov	esi, esp
	lea	ecx, DWORD PTR _chaine$3[ebp]
	call	DWORD PTR __imp_??B?$CSimpleStringT@_W$00@ATL@@QBEPB_WXZ
	cmp	esi, esp
	call	__RTC_CheckEsp
	push	eax
	call	?AfxMessageBox@@YGHPB_WII@Z		; AfxMessageBox

; 377  : 				return FALSE;

	and	DWORD PTR $T2[ebp], 0
	or	DWORD PTR __$EHRec$[ebp+8], -1
	mov	esi, esp
	lea	ecx, DWORD PTR _chaine$3[ebp]
	call	DWORD PTR __imp_??1?$CStringT@_WV?$StrTraitMFC_DLL@_WV?$ChTraitsCRT@_W@ATL@@@@@ATL@@QAE@XZ
	cmp	esi, esp
	call	__RTC_CheckEsp
	mov	eax, DWORD PTR $T2[ebp]
	jmp	SHORT $LN9@Check_inpu
$LN1@Check_inpu:

; 378  : 
; 379  : 			}/* end if */
; 380  : 		}/* end for j */

	jmp	$LN3@Check_inpu
$LN2@Check_inpu:

; 381  : 	}/* end for i */

	jmp	$LN7@Check_inpu
$LN6@Check_inpu:

; 382  : 	return TRUE;

	xor	eax, eax
	inc	eax
$LN9@Check_inpu:

; 383  : }

	push	edx
	mov	ecx, ebp
	push	eax
	lea	edx, DWORD PTR $LN15@Check_inpu
	call	@_RTC_CheckStackVars@8
	pop	eax
	pop	edx
	mov	ecx, DWORD PTR __$EHRec$[ebp]
	mov	DWORD PTR fs:0, ecx
	pop	ecx
	pop	edi
	pop	esi
	pop	ebx
	mov	ecx, DWORD PTR __$ArrayPad$[ebp]
	xor	ecx, ebp
	call	@__security_check_cookie@4
	add	esp, 268				; 0000010cH
	cmp	ebp, esp
	call	__RTC_CheckEsp
	mov	esp, ebp
	pop	ebp
	ret	4
	npad	1
$LN15@Check_inpu:
	DD	1
	DD	$LN14@Check_inpu
$LN14@Check_inpu:
	DD	-60					; ffffffc4H
	DD	4
	DD	$LN12@Check_inpu
$LN12@Check_inpu:
	DB	99					; 00000063H
	DB	104					; 00000068H
	DB	97					; 00000061H
	DB	105					; 00000069H
	DB	110					; 0000006eH
	DB	101					; 00000065H
	DB	0
_TEXT	ENDS
;	COMDAT text$x
text$x	SEGMENT
__unwindfunclet$?Check_input_a_column@Solution@@AAEHH@Z$0:
	mov	esi, esp
	lea	ecx, DWORD PTR _chaine$3[ebp]
	call	DWORD PTR __imp_??1?$CStringT@_WV?$StrTraitMFC_DLL@_WV?$ChTraitsCRT@_W@ATL@@@@@ATL@@QAE@XZ
	cmp	esi, esp
	jmp	__RTC_CheckEsp
__ehhandler$?Check_input_a_column@Solution@@AAEHH@Z:
	mov	edx, DWORD PTR [esp+8]
	lea	eax, DWORD PTR [edx+12]
	mov	ecx, DWORD PTR [edx-272]
	xor	ecx, eax
	call	@__security_check_cookie@4
	mov	ecx, DWORD PTR [edx-4]
	xor	ecx, eax
	call	@__security_check_cookie@4
	mov	eax, OFFSET __ehfuncinfo$?Check_input_a_column@Solution@@AAEHH@Z
	jmp	___CxxFrameHandler3
text$x	ENDS
?Check_input_a_column@Solution@@AAEHH@Z ENDP		; Solution::Check_input_a_column
; Function compile flags: /Odsp /RTCsu /ZI
; File c:\projets\sudoku\sudoku\sudoku\solution.cpp
;	COMDAT ?Check_input_columns@Solution@@AAEHXZ
_TEXT	SEGMENT
_result$ = -32						; size = 4
_col$ = -20						; size = 4
_this$ = -8						; size = 4
?Check_input_columns@Solution@@AAEHXZ PROC		; Solution::Check_input_columns, COMDAT
; _this$ = ecx

; 345  : {

	push	ebp
	mov	ebp, esp
	sub	esp, 228				; 000000e4H
	push	ebx
	push	esi
	push	edi
	push	ecx
	lea	edi, DWORD PTR [ebp-228]
	push	57					; 00000039H
	pop	ecx
	mov	eax, -858993460				; ccccccccH
	rep stosd
	pop	ecx
	mov	DWORD PTR _this$[ebp], ecx

; 346  : 	/* Checks if no duplicate into the columns. */
; 347  : 	int col;
; 348  : 	int result = TRUE;

	mov	DWORD PTR _result$[ebp], 1

; 349  : 
; 350  : 	for (col = 0; col < MAX; col++)

	and	DWORD PTR _col$[ebp], 0
	jmp	SHORT $LN4@Check_inpu
$LN3@Check_inpu:
	mov	eax, DWORD PTR _col$[ebp]
	inc	eax
	mov	DWORD PTR _col$[ebp], eax
$LN4@Check_inpu:
	cmp	DWORD PTR _col$[ebp], 9
	jge	SHORT $LN2@Check_inpu

; 351  : 	{
; 352  : 
; 353  : 		if (!Check_input_a_column(col)) result = FALSE;

	push	DWORD PTR _col$[ebp]
	mov	ecx, DWORD PTR _this$[ebp]
	call	?Check_input_a_column@Solution@@AAEHH@Z	; Solution::Check_input_a_column
	test	eax, eax
	jne	SHORT $LN1@Check_inpu
	and	DWORD PTR _result$[ebp], 0
$LN1@Check_inpu:

; 354  : 
; 355  : 	}/* end for */

	jmp	SHORT $LN3@Check_inpu
$LN2@Check_inpu:

; 356  : 
; 357  : 	return result;

	mov	eax, DWORD PTR _result$[ebp]

; 358  : }

	pop	edi
	pop	esi
	pop	ebx
	add	esp, 228				; 000000e4H
	cmp	ebp, esp
	call	__RTC_CheckEsp
	mov	esp, ebp
	pop	ebp
	ret	0
?Check_input_columns@Solution@@AAEHXZ ENDP		; Solution::Check_input_columns
_TEXT	ENDS
; Function compile flags: /Odsp /RTCsu /ZI
; File c:\projets\sudoku\sudoku\sudoku\solution.cpp
;	COMDAT ?Check_input_a_row@Solution@@AAEHH@Z
_TEXT	SEGMENT
$T2 = -264						; size = 4
_chaine$3 = -60						; size = 4
_j$ = -48						; size = 4
_i$ = -36						; size = 4
_this$ = -24						; size = 4
__$ArrayPad$ = -16					; size = 4
__$EHRec$ = -12						; size = 12
_row$ = 8						; size = 4
?Check_input_a_row@Solution@@AAEHH@Z PROC		; Solution::Check_input_a_row, COMDAT
; _this$ = ecx

; 323  : {

	push	ebp
	mov	ebp, esp
	push	-1
	push	__ehhandler$?Check_input_a_row@Solution@@AAEHH@Z
	mov	eax, DWORD PTR fs:0
	push	eax
	sub	esp, 256				; 00000100H
	push	ebx
	push	esi
	push	edi
	push	ecx
	lea	edi, DWORD PTR [ebp-268]
	push	64					; 00000040H
	pop	ecx
	mov	eax, -858993460				; ccccccccH
	rep stosd
	pop	ecx
	mov	eax, DWORD PTR ___security_cookie
	xor	eax, ebp
	mov	DWORD PTR __$ArrayPad$[ebp], eax
	push	eax
	lea	eax, DWORD PTR __$EHRec$[ebp]
	mov	DWORD PTR fs:0, eax
	mov	DWORD PTR _this$[ebp], ecx

; 324  : 	/* Checks if no duplicate into the row. */
; 325  : 	int i, j;
; 326  : 	for (i = 0; i < MAX - 1; i++)

	and	DWORD PTR _i$[ebp], 0
	jmp	SHORT $LN8@Check_inpu
$LN7@Check_inpu:
	mov	eax, DWORD PTR _i$[ebp]
	inc	eax
	mov	DWORD PTR _i$[ebp], eax
$LN8@Check_inpu:
	cmp	DWORD PTR _i$[ebp], 8
	jge	$LN6@Check_inpu

; 327  : 	{
; 328  : 		if (grid[row][i] == 0) continue;

	imul	eax, DWORD PTR _row$[ebp], 36
	mov	ecx, DWORD PTR _this$[ebp]
	lea	eax, DWORD PTR [ecx+eax+328]
	mov	ecx, DWORD PTR _i$[ebp]
	cmp	DWORD PTR [eax+ecx*4], 0
	jne	SHORT $LN5@Check_inpu
	jmp	SHORT $LN7@Check_inpu
$LN5@Check_inpu:

; 329  : 		for (j = i + 1; j < MAX; j++) {

	mov	eax, DWORD PTR _i$[ebp]
	inc	eax
	mov	DWORD PTR _j$[ebp], eax
	jmp	SHORT $LN4@Check_inpu
$LN3@Check_inpu:
	mov	eax, DWORD PTR _j$[ebp]
	inc	eax
	mov	DWORD PTR _j$[ebp], eax
$LN4@Check_inpu:
	cmp	DWORD PTR _j$[ebp], 9
	jge	$LN2@Check_inpu

; 330  : 			if (grid[row][i] == grid[row][j])

	imul	eax, DWORD PTR _row$[ebp], 36
	mov	ecx, DWORD PTR _this$[ebp]
	lea	eax, DWORD PTR [ecx+eax+328]
	imul	ecx, DWORD PTR _row$[ebp], 36
	mov	edx, DWORD PTR _this$[ebp]
	lea	ecx, DWORD PTR [edx+ecx+328]
	mov	edx, DWORD PTR _i$[ebp]
	mov	esi, DWORD PTR _j$[ebp]
	mov	eax, DWORD PTR [eax+edx*4]
	cmp	eax, DWORD PTR [ecx+esi*4]
	jne	SHORT $LN1@Check_inpu

; 331  : 			{
; 332  : 
; 333  : 				CString chaine;

	mov	esi, esp
	lea	ecx, DWORD PTR _chaine$3[ebp]
	call	DWORD PTR __imp_??0?$CStringT@_WV?$StrTraitMFC_DLL@_WV?$ChTraitsCRT@_W@ATL@@@@@ATL@@QAE@XZ
	cmp	esi, esp
	call	__RTC_CheckEsp
	and	DWORD PTR __$EHRec$[ebp+8], 0

; 334  : 				chaine.Format(_T("Erreur ligne %d: nombre egaux"), row + 1);

	mov	eax, DWORD PTR _row$[ebp]
	inc	eax
	mov	esi, esp
	push	eax
	push	OFFSET ??_C@_1DM@DDLFPJCI@?$AAE?$AAr?$AAr?$AAe?$AAu?$AAr?$AA?5?$AAl?$AAi?$AAg?$AAn?$AAe?$AA?5?$AA?$CF?$AAd?$AA?3?$AA?5?$AAn?$AAo?$AAm?$AAb?$AAr?$AAe?$AA?5?$AAe?$AAg?$AAa?$AAu?$AAx?$AA?$AA@
	lea	eax, DWORD PTR _chaine$3[ebp]
	push	eax
	call	DWORD PTR __imp_?Format@?$CStringT@_WV?$StrTraitMFC_DLL@_WV?$ChTraitsCRT@_W@ATL@@@@@ATL@@QAAXPB_WZZ
	add	esp, 12					; 0000000cH
	cmp	esi, esp
	call	__RTC_CheckEsp

; 335  : 				AfxMessageBox(chaine,MB_OK);

	push	0
	push	0
	mov	esi, esp
	lea	ecx, DWORD PTR _chaine$3[ebp]
	call	DWORD PTR __imp_??B?$CSimpleStringT@_W$00@ATL@@QBEPB_WXZ
	cmp	esi, esp
	call	__RTC_CheckEsp
	push	eax
	call	?AfxMessageBox@@YGHPB_WII@Z		; AfxMessageBox

; 336  : 				return FALSE;

	and	DWORD PTR $T2[ebp], 0
	or	DWORD PTR __$EHRec$[ebp+8], -1
	mov	esi, esp
	lea	ecx, DWORD PTR _chaine$3[ebp]
	call	DWORD PTR __imp_??1?$CStringT@_WV?$StrTraitMFC_DLL@_WV?$ChTraitsCRT@_W@ATL@@@@@ATL@@QAE@XZ
	cmp	esi, esp
	call	__RTC_CheckEsp
	mov	eax, DWORD PTR $T2[ebp]
	jmp	SHORT $LN9@Check_inpu
$LN1@Check_inpu:

; 337  : 
; 338  : 			}/* end if */
; 339  : 		}/* end for j */

	jmp	$LN3@Check_inpu
$LN2@Check_inpu:

; 340  : 	}/* end for i */

	jmp	$LN7@Check_inpu
$LN6@Check_inpu:

; 341  : 	return TRUE;

	xor	eax, eax
	inc	eax
$LN9@Check_inpu:

; 342  : }

	push	edx
	mov	ecx, ebp
	push	eax
	lea	edx, DWORD PTR $LN15@Check_inpu
	call	@_RTC_CheckStackVars@8
	pop	eax
	pop	edx
	mov	ecx, DWORD PTR __$EHRec$[ebp]
	mov	DWORD PTR fs:0, ecx
	pop	ecx
	pop	edi
	pop	esi
	pop	ebx
	mov	ecx, DWORD PTR __$ArrayPad$[ebp]
	xor	ecx, ebp
	call	@__security_check_cookie@4
	add	esp, 268				; 0000010cH
	cmp	ebp, esp
	call	__RTC_CheckEsp
	mov	esp, ebp
	pop	ebp
	ret	4
	npad	1
$LN15@Check_inpu:
	DD	1
	DD	$LN14@Check_inpu
$LN14@Check_inpu:
	DD	-60					; ffffffc4H
	DD	4
	DD	$LN12@Check_inpu
$LN12@Check_inpu:
	DB	99					; 00000063H
	DB	104					; 00000068H
	DB	97					; 00000061H
	DB	105					; 00000069H
	DB	110					; 0000006eH
	DB	101					; 00000065H
	DB	0
_TEXT	ENDS
;	COMDAT text$x
text$x	SEGMENT
__unwindfunclet$?Check_input_a_row@Solution@@AAEHH@Z$0:
	mov	esi, esp
	lea	ecx, DWORD PTR _chaine$3[ebp]
	call	DWORD PTR __imp_??1?$CStringT@_WV?$StrTraitMFC_DLL@_WV?$ChTraitsCRT@_W@ATL@@@@@ATL@@QAE@XZ
	cmp	esi, esp
	jmp	__RTC_CheckEsp
__ehhandler$?Check_input_a_row@Solution@@AAEHH@Z:
	mov	edx, DWORD PTR [esp+8]
	lea	eax, DWORD PTR [edx+12]
	mov	ecx, DWORD PTR [edx-272]
	xor	ecx, eax
	call	@__security_check_cookie@4
	mov	ecx, DWORD PTR [edx-4]
	xor	ecx, eax
	call	@__security_check_cookie@4
	mov	eax, OFFSET __ehfuncinfo$?Check_input_a_row@Solution@@AAEHH@Z
	jmp	___CxxFrameHandler3
text$x	ENDS
?Check_input_a_row@Solution@@AAEHH@Z ENDP		; Solution::Check_input_a_row
; Function compile flags: /Odsp /RTCsu /ZI
; File c:\projets\sudoku\sudoku\sudoku\solution.cpp
;	COMDAT ?Check_input_rows@Solution@@AAEHXZ
_TEXT	SEGMENT
_result$ = -32						; size = 4
_row$ = -20						; size = 4
_this$ = -8						; size = 4
?Check_input_rows@Solution@@AAEHXZ PROC			; Solution::Check_input_rows, COMDAT
; _this$ = ecx

; 310  : {

	push	ebp
	mov	ebp, esp
	sub	esp, 228				; 000000e4H
	push	ebx
	push	esi
	push	edi
	push	ecx
	lea	edi, DWORD PTR [ebp-228]
	push	57					; 00000039H
	pop	ecx
	mov	eax, -858993460				; ccccccccH
	rep stosd
	pop	ecx
	mov	DWORD PTR _this$[ebp], ecx

; 311  : 	/* Checks if no duplicate into the rows. */
; 312  : 	int row;
; 313  : 	int result = TRUE;

	mov	DWORD PTR _result$[ebp], 1

; 314  : 	for (row = 0; row < MAX; row++)

	and	DWORD PTR _row$[ebp], 0
	jmp	SHORT $LN4@Check_inpu
$LN3@Check_inpu:
	mov	eax, DWORD PTR _row$[ebp]
	inc	eax
	mov	DWORD PTR _row$[ebp], eax
$LN4@Check_inpu:
	cmp	DWORD PTR _row$[ebp], 9
	jge	SHORT $LN2@Check_inpu

; 315  : 	{
; 316  : 		if (!Check_input_a_row(row)) result = FALSE;

	push	DWORD PTR _row$[ebp]
	mov	ecx, DWORD PTR _this$[ebp]
	call	?Check_input_a_row@Solution@@AAEHH@Z	; Solution::Check_input_a_row
	test	eax, eax
	jne	SHORT $LN1@Check_inpu
	and	DWORD PTR _result$[ebp], 0
$LN1@Check_inpu:

; 317  : 	}/* end for */

	jmp	SHORT $LN3@Check_inpu
$LN2@Check_inpu:

; 318  : 
; 319  : 	return result;

	mov	eax, DWORD PTR _result$[ebp]

; 320  : }

	pop	edi
	pop	esi
	pop	ebx
	add	esp, 228				; 000000e4H
	cmp	ebp, esp
	call	__RTC_CheckEsp
	mov	esp, ebp
	pop	ebp
	ret	0
?Check_input_rows@Solution@@AAEHXZ ENDP			; Solution::Check_input_rows
_TEXT	ENDS
; Function compile flags: /Odsp /RTCsu /ZI
; File c:\projets\sudoku\sudoku\sudoku\solution.cpp
;	COMDAT ?Check_input_grid@Solution@@AAEHXZ
_TEXT	SEGMENT
_result$ = -20						; size = 4
_this$ = -8						; size = 4
?Check_input_grid@Solution@@AAEHXZ PROC			; Solution::Check_input_grid, COMDAT
; _this$ = ecx

; 299  : {

	push	ebp
	mov	ebp, esp
	sub	esp, 216				; 000000d8H
	push	ebx
	push	esi
	push	edi
	push	ecx
	lea	edi, DWORD PTR [ebp-216]
	push	54					; 00000036H
	pop	ecx
	mov	eax, -858993460				; ccccccccH
	rep stosd
	pop	ecx
	mov	DWORD PTR _this$[ebp], ecx

; 300  : 	/* Check whether any duplicate throughout the grid. */
; 301  : 	int result = TRUE;

	mov	DWORD PTR _result$[ebp], 1

; 302  : 	if (!Check_input_rows()) result = FALSE;

	mov	ecx, DWORD PTR _this$[ebp]
	call	?Check_input_rows@Solution@@AAEHXZ	; Solution::Check_input_rows
	test	eax, eax
	jne	SHORT $LN3@Check_inpu
	and	DWORD PTR _result$[ebp], 0
$LN3@Check_inpu:

; 303  : 	if (!Check_input_columns()) result = FALSE;

	mov	ecx, DWORD PTR _this$[ebp]
	call	?Check_input_columns@Solution@@AAEHXZ	; Solution::Check_input_columns
	test	eax, eax
	jne	SHORT $LN2@Check_inpu
	and	DWORD PTR _result$[ebp], 0
$LN2@Check_inpu:

; 304  : 	if (!Check_input_sub_squares()) result = FALSE;

	mov	ecx, DWORD PTR _this$[ebp]
	call	?Check_input_sub_squares@Solution@@AAEHXZ ; Solution::Check_input_sub_squares
	test	eax, eax
	jne	SHORT $LN1@Check_inpu
	and	DWORD PTR _result$[ebp], 0
$LN1@Check_inpu:

; 305  : 
; 306  : 	return result;

	mov	eax, DWORD PTR _result$[ebp]

; 307  : }

	pop	edi
	pop	esi
	pop	ebx
	add	esp, 216				; 000000d8H
	cmp	ebp, esp
	call	__RTC_CheckEsp
	mov	esp, ebp
	pop	ebp
	ret	0
?Check_input_grid@Solution@@AAEHXZ ENDP			; Solution::Check_input_grid
_TEXT	ENDS
; Function compile flags: /Odsp /RTCsu /ZI
; File c:\projets\sudoku\sudoku\sudoku\solution.cpp
;	COMDAT ?Raz@Solution@@AAEXXZ
_TEXT	SEGMENT
_col$1 = -32						; size = 4
_row$2 = -20						; size = 4
_this$ = -8						; size = 4
?Raz@Solution@@AAEXXZ PROC				; Solution::Raz, COMDAT
; _this$ = ecx

; 450  : {

	push	ebp
	mov	ebp, esp
	sub	esp, 228				; 000000e4H
	push	ebx
	push	esi
	push	edi
	push	ecx
	lea	edi, DWORD PTR [ebp-228]
	push	57					; 00000039H
	pop	ecx
	mov	eax, -858993460				; ccccccccH
	rep stosd
	pop	ecx
	mov	DWORD PTR _this$[ebp], ecx

; 451  : 
; 452  :   // Mise  zro de la grille
; 453  :   for (int row = 0; row < MAX; row++)

	and	DWORD PTR _row$2[ebp], 0
	jmp	SHORT $LN6@Raz
$LN5@Raz:
	mov	eax, DWORD PTR _row$2[ebp]
	inc	eax
	mov	DWORD PTR _row$2[ebp], eax
$LN6@Raz:
	cmp	DWORD PTR _row$2[ebp], 9
	jge	SHORT $LN4@Raz

; 454  :   {
; 455  : 	  for (int col = 0; col < MAX; col++)

	and	DWORD PTR _col$1[ebp], 0
	jmp	SHORT $LN3@Raz
$LN2@Raz:
	mov	eax, DWORD PTR _col$1[ebp]
	inc	eax
	mov	DWORD PTR _col$1[ebp], eax
$LN3@Raz:
	cmp	DWORD PTR _col$1[ebp], 9
	jge	SHORT $LN1@Raz

; 456  : 	  {
; 457  : 		  grid[row][col] = 0;

	imul	eax, DWORD PTR _row$2[ebp], 36
	mov	ecx, DWORD PTR _this$[ebp]
	lea	eax, DWORD PTR [ecx+eax+328]
	mov	ecx, DWORD PTR _col$1[ebp]
	and	DWORD PTR [eax+ecx*4], 0

; 458  : 	  }

	jmp	SHORT $LN2@Raz
$LN1@Raz:

; 459  :   }

	jmp	SHORT $LN5@Raz
$LN4@Raz:

; 460  :   ::SetDlgItemTextW(Save_Curent_windows, IDC_STATIC, _T(""));

	mov	esi, esp
	push	OFFSET ??_C@_11LOCGONAA@?$AA?$AA@
	push	-1
	mov	eax, DWORD PTR _this$[ebp]
	push	DWORD PTR [eax+652]
	call	DWORD PTR __imp__SetDlgItemTextW@12
	cmp	esi, esp
	call	__RTC_CheckEsp

; 461  : }

	pop	edi
	pop	esi
	pop	ebx
	add	esp, 228				; 000000e4H
	cmp	ebp, esp
	call	__RTC_CheckEsp
	mov	esp, ebp
	pop	ebp
	ret	0
?Raz@Solution@@AAEXXZ ENDP				; Solution::Raz
_TEXT	ENDS
; Function compile flags: /Odsp /RTCsu /ZI
; File c:\projets\sudoku\sudoku\sudoku\solution.cpp
;	COMDAT ?Charger_From_a_File@Solution@@QAEHPAUHWND__@@@Z
_TEXT	SEGMENT
_data$1 = -340						; size = 4
_row$2 = -328						; size = 4
_buffer$ = -316						; size = 260
_pt_fichier$ = -48					; size = 4
_valeur$ = -36						; size = 4
_result$ = -24						; size = 4
_this$ = -12						; size = 4
__$ArrayPad$ = -4					; size = 4
_Curent_windows$ = 8					; size = 4
?Charger_From_a_File@Solution@@QAEHPAUHWND__@@@Z PROC	; Solution::Charger_From_a_File, COMDAT
; _this$ = ecx

; 75   : {

	push	ebp
	mov	ebp, esp
	sub	esp, 536				; 00000218H
	push	ebx
	push	esi
	push	edi
	push	ecx
	lea	edi, DWORD PTR [ebp-536]
	mov	ecx, 134				; 00000086H
	mov	eax, -858993460				; ccccccccH
	rep stosd
	pop	ecx
	mov	eax, DWORD PTR ___security_cookie
	xor	eax, ebp
	mov	DWORD PTR __$ArrayPad$[ebp], eax
	mov	DWORD PTR _this$[ebp], ecx

; 76   : 	int result = TRUE;

	mov	DWORD PTR _result$[ebp], 1

; 77   : 	int valeur = 0;

	and	DWORD PTR _valeur$[ebp], 0

; 78   : 	FILE *pt_fichier;
; 79   : 	char buffer[MAX_PATH];
; 80   : 
; 81   : 	// mise  zro de la grille d'origine
; 82   : 	Raz();

	mov	ecx, DWORD PTR _this$[ebp]
	call	?Raz@Solution@@AAEXXZ			; Solution::Raz

; 83   : 	Charge_tableau_relation();

	mov	ecx, DWORD PTR _this$[ebp]
	call	?Charge_tableau_relation@Solution@@AAEXXZ ; Solution::Charge_tableau_relation

; 84   : 	Definition_limite(Curent_windows);

	push	DWORD PTR _Curent_windows$[ebp]
	mov	ecx, DWORD PTR _this$[ebp]
	call	?Definition_limite@Solution@@AAEXPAUHWND__@@@Z ; Solution::Definition_limite

; 85   : 
; 86   : 	if (Open_File(_T("Sudoku_input.txt")) == TRUE)

	push	OFFSET ??_C@_1CC@DBEOBEPH@?$AAS?$AAu?$AAd?$AAo?$AAk?$AAu?$AA_?$AAi?$AAn?$AAp?$AAu?$AAt?$AA?4?$AAt?$AAx?$AAt?$AA?$AA@
	mov	ecx, DWORD PTR _this$[ebp]
	call	?Open_File@Solution@@AAE_NPA_W@Z	; Solution::Open_File
	movzx	eax, al
	cmp	eax, 1
	jne	$LN11@Charger_Fr

; 87   : 	{
; 88   : 
; 89   : 	 pt_fichier = _wfopen(pszSource.GetBuffer(), _T("rt"));

	mov	esi, esp
	push	OFFSET ??_C@_15OMIKMFFN@?$AAr?$AAt?$AA?$AA@
	mov	ecx, DWORD PTR _this$[ebp]
	add	ecx, 660				; 00000294H
	mov	edi, esp
	call	DWORD PTR __imp_?GetBuffer@?$CSimpleStringT@_W$00@ATL@@QAEPA_WXZ
	cmp	edi, esp
	call	__RTC_CheckEsp
	push	eax
	call	DWORD PTR __imp___wfopen
	pop	ecx
	pop	ecx
	cmp	esi, esp
	call	__RTC_CheckEsp
	mov	DWORD PTR _pt_fichier$[ebp], eax

; 90   : 
; 91   : 	 if (pt_fichier != 0)

	cmp	DWORD PTR _pt_fichier$[ebp], 0
	je	$LN10@Charger_Fr

; 92   : 	  {
; 93   : 	
; 94   : 	   for (int row = 0; row < MAX; row++)

	and	DWORD PTR _row$2[ebp], 0
	jmp	SHORT $LN9@Charger_Fr
$LN8@Charger_Fr:
	mov	eax, DWORD PTR _row$2[ebp]
	inc	eax
	mov	DWORD PTR _row$2[ebp], eax
$LN9@Charger_Fr:
	cmp	DWORD PTR _row$2[ebp], 9
	jge	$LN7@Charger_Fr

; 95   : 	    {
; 96   : 
; 97   : 		fgets(&buffer[0], MAX_PATH, pt_fichier);

	mov	esi, esp
	push	DWORD PTR _pt_fichier$[ebp]
	push	260					; 00000104H
	xor	eax, eax
	inc	eax
	imul	eax, eax, 0
	lea	eax, DWORD PTR _buffer$[ebp+eax]
	push	eax
	call	DWORD PTR __imp__fgets
	add	esp, 12					; 0000000cH
	cmp	esi, esp
	call	__RTC_CheckEsp

; 98   : 
; 99   : 		for (int data = 0; data < MAX; data++)

	and	DWORD PTR _data$1[ebp], 0
	jmp	SHORT $LN6@Charger_Fr
$LN5@Charger_Fr:
	mov	eax, DWORD PTR _data$1[ebp]
	inc	eax
	mov	DWORD PTR _data$1[ebp], eax
$LN6@Charger_Fr:
	cmp	DWORD PTR _data$1[ebp], 9
	jge	SHORT $LN4@Charger_Fr

; 100  : 		  {
; 101  : 			
; 102  : 			valeur = atoi(&buffer[data * 2]);

	mov	eax, DWORD PTR _data$1[ebp]
	lea	eax, DWORD PTR _buffer$[ebp+eax*2]
	mov	esi, esp
	push	eax
	call	DWORD PTR __imp__atoi
	pop	ecx
	cmp	esi, esp
	call	__RTC_CheckEsp
	mov	DWORD PTR _valeur$[ebp], eax

; 103  : 			if (valeur > 0)

	cmp	DWORD PTR _valeur$[ebp], 0
	jle	SHORT $LN3@Charger_Fr

; 104  : 			{
; 105  : 			grid[row][data] = valeur;

	imul	eax, DWORD PTR _row$2[ebp], 36
	mov	ecx, DWORD PTR _this$[ebp]
	lea	eax, DWORD PTR [ecx+eax+328]
	mov	ecx, DWORD PTR _data$1[ebp]
	mov	edx, DWORD PTR _valeur$[ebp]
	mov	DWORD PTR [eax+ecx*4], edx
$LN3@Charger_Fr:

; 106  : 			}
; 107  : 		  }

	jmp	SHORT $LN5@Charger_Fr
$LN4@Charger_Fr:

; 108  : 
; 109  : 	    }

	jmp	$LN8@Charger_Fr
$LN7@Charger_Fr:

; 110  : 
; 111  : 	   fclose(pt_fichier);

	mov	esi, esp
	push	DWORD PTR _pt_fichier$[ebp]
	call	DWORD PTR __imp__fclose
	pop	ecx
	cmp	esi, esp
	call	__RTC_CheckEsp

; 112  : 
; 113  : 	  }
; 114  : 	 else

	jmp	SHORT $LN11@Charger_Fr
$LN10@Charger_Fr:

; 115  : 	 {
; 116  : 		 result = FALSE;

	and	DWORD PTR _result$[ebp], 0
$LN11@Charger_Fr:

; 117  : 	 }
; 118  : 
; 119  : 	}
; 120  : 
; 121  : 	// On vrifie le grille 
; 122  : 	if (!Check_input_grid())

	mov	ecx, DWORD PTR _this$[ebp]
	call	?Check_input_grid@Solution@@AAEHXZ	; Solution::Check_input_grid
	test	eax, eax
	jne	SHORT $LN1@Charger_Fr

; 123  : 	{
; 124  : 		result = FALSE;

	and	DWORD PTR _result$[ebp], 0
$LN1@Charger_Fr:

; 125  : 	}
; 126  : 
; 127  : 	::SetDlgItemTextW(Save_Curent_windows, IDC_STATIC, _T(""));

	mov	esi, esp
	push	OFFSET ??_C@_11LOCGONAA@?$AA?$AA@
	push	-1
	mov	eax, DWORD PTR _this$[ebp]
	push	DWORD PTR [eax+652]
	call	DWORD PTR __imp__SetDlgItemTextW@12
	cmp	esi, esp
	call	__RTC_CheckEsp

; 128  : 	// Et on Affiche
; 129  : 	Display_grille(Curent_windows);

	push	DWORD PTR _Curent_windows$[ebp]
	mov	ecx, DWORD PTR _this$[ebp]
	call	?Display_grille@Solution@@AAEXPAUHWND__@@@Z ; Solution::Display_grille

; 130  : 	
; 131  : 	return result;

	mov	eax, DWORD PTR _result$[ebp]

; 132  : 
; 133  : }

	push	edx
	mov	ecx, ebp
	push	eax
	lea	edx, DWORD PTR $LN16@Charger_Fr
	call	@_RTC_CheckStackVars@8
	pop	eax
	pop	edx
	pop	edi
	pop	esi
	pop	ebx
	mov	ecx, DWORD PTR __$ArrayPad$[ebp]
	xor	ecx, ebp
	call	@__security_check_cookie@4
	add	esp, 536				; 00000218H
	cmp	ebp, esp
	call	__RTC_CheckEsp
	mov	esp, ebp
	pop	ebp
	ret	4
$LN16@Charger_Fr:
	DD	1
	DD	$LN15@Charger_Fr
$LN15@Charger_Fr:
	DD	-316					; fffffec4H
	DD	260					; 00000104H
	DD	$LN14@Charger_Fr
$LN14@Charger_Fr:
	DB	98					; 00000062H
	DB	117					; 00000075H
	DB	102					; 00000066H
	DB	102					; 00000066H
	DB	101					; 00000065H
	DB	114					; 00000072H
	DB	0
?Charger_From_a_File@Solution@@QAEHPAUHWND__@@@Z ENDP	; Solution::Charger_From_a_File
_TEXT	ENDS
; Function compile flags: /Odsp /RTCsu /ZI
; File c:\projets\sudoku\sudoku\sudoku\solution.cpp
;	COMDAT ?Charger_valeur_saisie@Solution@@QAEHPAUHWND__@@@Z
_TEXT	SEGMENT
tv145 = -324						; size = 4
tv143 = -320						; size = 4
$T2 = -312						; size = 4
_col$3 = -108						; size = 4
_row$4 = -96						; size = 4
_Valeur$ = -84						; size = 4
_Car_courr$ = -69					; size = 1
_valeur_lue$ = -60					; size = 4
_z$ = -48						; size = 4
_result$ = -36						; size = 4
_this$ = -24						; size = 4
__$ArrayPad$ = -16					; size = 4
__$EHRec$ = -12						; size = 12
_Curent_windows$ = 8					; size = 4
?Charger_valeur_saisie@Solution@@QAEHPAUHWND__@@@Z PROC	; Solution::Charger_valeur_saisie, COMDAT
; _this$ = ecx

; 224  : {

	push	ebp
	mov	ebp, esp
	push	-1
	push	__ehhandler$?Charger_valeur_saisie@Solution@@QAEHPAUHWND__@@@Z
	mov	eax, DWORD PTR fs:0
	push	eax
	sub	esp, 312				; 00000138H
	push	ebx
	push	esi
	push	edi
	push	ecx
	lea	edi, DWORD PTR [ebp-324]
	push	78					; 0000004eH
	pop	ecx
	mov	eax, -858993460				; ccccccccH
	rep stosd
	pop	ecx
	mov	eax, DWORD PTR ___security_cookie
	xor	eax, ebp
	mov	DWORD PTR __$ArrayPad$[ebp], eax
	push	eax
	lea	eax, DWORD PTR __$EHRec$[ebp]
	mov	DWORD PTR fs:0, eax
	mov	DWORD PTR _this$[ebp], ecx

; 225  : 	int result = TRUE;

	mov	DWORD PTR _result$[ebp], 1

; 226  : 	int  z = 0;

	and	DWORD PTR _z$[ebp], 0

; 227  : 	int valeur_lue= 0;

	and	DWORD PTR _valeur_lue$[ebp], 0

; 228  : 	char Car_courr = 0x00;

	mov	BYTE PTR _Car_courr$[ebp], 0

; 229  : 	CString Valeur;

	mov	esi, esp
	lea	ecx, DWORD PTR _Valeur$[ebp]
	call	DWORD PTR __imp_??0?$CStringT@_WV?$StrTraitMFC_DLL@_WV?$ChTraitsCRT@_W@ATL@@@@@ATL@@QAE@XZ
	cmp	esi, esp
	call	__RTC_CheckEsp
	and	DWORD PTR __$EHRec$[ebp+8], 0

; 230  : 
; 231  : 	ASSERT(IsWindow(Curent_windows) != 0);

	mov	esi, esp
	push	DWORD PTR _Curent_windows$[ebp]
	call	DWORD PTR __imp__IsWindow@4
	cmp	esi, esp
	call	__RTC_CheckEsp
	test	eax, eax
	jne	SHORT $LN12@Charger_va
	mov	eax, DWORD PTR ?__LINE__Var@?1??Charger_valeur_saisie@Solution@@QAEHPAUHWND__@@@Z@4JA
	add	eax, 7
	push	eax
	push	OFFSET ??_C@_0CN@IHCCPHM@c?3?2projets?2sudoku?2sudoku?2sudoku?2@
	call	?AfxAssertFailedLine@@YGHPBDH@Z		; AfxAssertFailedLine
	test	eax, eax
	je	SHORT $LN12@Charger_va
	int	3
$LN12@Charger_va:

; 232  : 
; 233  : 	// mise  zro de la grille d'origine
; 234  : 	Raz();

	mov	ecx, DWORD PTR _this$[ebp]
	call	?Raz@Solution@@AAEXXZ			; Solution::Raz

; 235  : 
; 236  : 	for (int row = 0; row < MAX; row++)

	and	DWORD PTR _row$4[ebp], 0
	jmp	SHORT $LN9@Charger_va
$LN8@Charger_va:
	mov	eax, DWORD PTR _row$4[ebp]
	inc	eax
	mov	DWORD PTR _row$4[ebp], eax
$LN9@Charger_va:
	cmp	DWORD PTR _row$4[ebp], 9
	jge	$LN7@Charger_va

; 237  : 	{
; 238  : 		for (int col = 0; col < MAX; col++)

	and	DWORD PTR _col$3[ebp], 0
	jmp	SHORT $LN6@Charger_va
$LN5@Charger_va:
	mov	eax, DWORD PTR _col$3[ebp]
	inc	eax
	mov	DWORD PTR _col$3[ebp], eax
$LN6@Charger_va:
	cmp	DWORD PTR _col$3[ebp], 9
	jge	$LN4@Charger_va

; 239  : 		{
; 240  : 		  ::GetDlgItemTextW(Curent_windows,tableau_de_saisie[z], (LPWSTR)Valeur.GetBuffer(255),255);

	mov	esi, esp
	push	255					; 000000ffH
	mov	edi, esp
	push	255					; 000000ffH
	lea	ecx, DWORD PTR _Valeur$[ebp]
	call	DWORD PTR __imp_?GetBuffer@?$CSimpleStringT@_W$00@ATL@@QAEPA_WH@Z
	cmp	edi, esp
	call	__RTC_CheckEsp
	push	eax
	mov	eax, DWORD PTR _z$[ebp]
	mov	ecx, DWORD PTR _this$[ebp]
	push	DWORD PTR [ecx+eax*4+4]
	push	DWORD PTR _Curent_windows$[ebp]
	call	DWORD PTR __imp__GetDlgItemTextW@16
	cmp	esi, esp
	call	__RTC_CheckEsp

; 241  : 		  Valeur.ReleaseBuffer();

	mov	esi, esp
	push	-1
	lea	ecx, DWORD PTR _Valeur$[ebp]
	call	DWORD PTR __imp_?ReleaseBuffer@?$CSimpleStringT@_W$00@ATL@@QAEXH@Z
	cmp	esi, esp
	call	__RTC_CheckEsp

; 242  : 		  valeur_lue = 0;

	and	DWORD PTR _valeur_lue$[ebp], 0

; 243  : 		  valeur_lue = atoi((char *)Valeur.GetBuffer());	

	mov	esi, esp
	lea	ecx, DWORD PTR _Valeur$[ebp]
	call	DWORD PTR __imp_?GetBuffer@?$CSimpleStringT@_W$00@ATL@@QAEPA_WXZ
	cmp	esi, esp
	call	__RTC_CheckEsp
	mov	esi, esp
	push	eax
	call	DWORD PTR __imp__atoi
	pop	ecx
	cmp	esi, esp
	call	__RTC_CheckEsp
	mov	DWORD PTR _valeur_lue$[ebp], eax

; 244  : 		  z++;

	mov	eax, DWORD PTR _z$[ebp]
	inc	eax
	mov	DWORD PTR _z$[ebp], eax

; 245  : 		  if ( (valeur_lue >= 1) & (valeur_lue < 10 )   )

	cmp	DWORD PTR _valeur_lue$[ebp], 1
	jl	SHORT $LN13@Charger_va
	mov	DWORD PTR tv143[ebp], 1
	jmp	SHORT $LN14@Charger_va
$LN13@Charger_va:
	and	DWORD PTR tv143[ebp], 0
$LN14@Charger_va:
	cmp	DWORD PTR _valeur_lue$[ebp], 10		; 0000000aH
	jge	SHORT $LN15@Charger_va
	mov	DWORD PTR tv145[ebp], 1
	jmp	SHORT $LN16@Charger_va
$LN15@Charger_va:
	and	DWORD PTR tv145[ebp], 0
$LN16@Charger_va:
	mov	eax, DWORD PTR tv143[ebp]
	and	eax, DWORD PTR tv145[ebp]
	je	SHORT $LN3@Charger_va

; 246  : 		  {
; 247  : 
; 248  : 		    grid[row][col] = valeur_lue;

	imul	eax, DWORD PTR _row$4[ebp], 36
	mov	ecx, DWORD PTR _this$[ebp]
	lea	eax, DWORD PTR [ecx+eax+328]
	mov	ecx, DWORD PTR _col$3[ebp]
	mov	edx, DWORD PTR _valeur_lue$[ebp]
	mov	DWORD PTR [eax+ecx*4], edx

; 249  : 
; 250  : 		  }
; 251  : 		  else

	jmp	SHORT $LN2@Charger_va
$LN3@Charger_va:

; 252  : 		  {
; 253  : 			  grid[row][col] = 0;

	imul	eax, DWORD PTR _row$4[ebp], 36
	mov	ecx, DWORD PTR _this$[ebp]
	lea	eax, DWORD PTR [ecx+eax+328]
	mov	ecx, DWORD PTR _col$3[ebp]
	and	DWORD PTR [eax+ecx*4], 0
$LN2@Charger_va:

; 254  : 
; 255  : 		  }
; 256  : 		}

	jmp	$LN5@Charger_va
$LN4@Charger_va:

; 257  : 	}

	jmp	$LN8@Charger_va
$LN7@Charger_va:

; 258  : 
; 259  : 	// On vrifie le grille 
; 260  : 	 if (!Check_input_grid())

	mov	ecx, DWORD PTR _this$[ebp]
	call	?Check_input_grid@Solution@@AAEHXZ	; Solution::Check_input_grid
	test	eax, eax
	jne	SHORT $LN1@Charger_va

; 261  : 	 {
; 262  : 		result = FALSE;

	and	DWORD PTR _result$[ebp], 0
$LN1@Charger_va:

; 263  : 	  }
; 264  : 	
; 265  : 	 // Allez on bosse dur
; 266  : 	 Dur_Dur();

	mov	ecx, DWORD PTR _this$[ebp]
	call	?Dur_Dur@Solution@@AAEXXZ		; Solution::Dur_Dur

; 267  : 
; 268  : 	 Print();

	mov	ecx, DWORD PTR _this$[ebp]
	call	?Print@Solution@@AAEXXZ			; Solution::Print

; 269  : 
; 270  : 	// Et on Affiche
; 271  : 	 Display_grille(Curent_windows);

	push	DWORD PTR _Curent_windows$[ebp]
	mov	ecx, DWORD PTR _this$[ebp]
	call	?Display_grille@Solution@@AAEXPAUHWND__@@@Z ; Solution::Display_grille

; 272  : 
; 273  : 	 return result;

	mov	eax, DWORD PTR _result$[ebp]
	mov	DWORD PTR $T2[ebp], eax
	or	DWORD PTR __$EHRec$[ebp+8], -1
	mov	esi, esp
	lea	ecx, DWORD PTR _Valeur$[ebp]
	call	DWORD PTR __imp_??1?$CStringT@_WV?$StrTraitMFC_DLL@_WV?$ChTraitsCRT@_W@ATL@@@@@ATL@@QAE@XZ
	cmp	esi, esp
	call	__RTC_CheckEsp
	mov	eax, DWORD PTR $T2[ebp]

; 274  : }

	push	edx
	mov	ecx, ebp
	push	eax
	lea	edx, DWORD PTR $LN21@Charger_va
	call	@_RTC_CheckStackVars@8
	pop	eax
	pop	edx
	mov	ecx, DWORD PTR __$EHRec$[ebp]
	mov	DWORD PTR fs:0, ecx
	pop	ecx
	pop	edi
	pop	esi
	pop	ebx
	mov	ecx, DWORD PTR __$ArrayPad$[ebp]
	xor	ecx, ebp
	call	@__security_check_cookie@4
	add	esp, 324				; 00000144H
	cmp	ebp, esp
	call	__RTC_CheckEsp
	mov	esp, ebp
	pop	ebp
	ret	4
	npad	2
$LN21@Charger_va:
	DD	1
	DD	$LN20@Charger_va
$LN20@Charger_va:
	DD	-84					; ffffffacH
	DD	4
	DD	$LN18@Charger_va
$LN18@Charger_va:
	DB	86					; 00000056H
	DB	97					; 00000061H
	DB	108					; 0000006cH
	DB	101					; 00000065H
	DB	117					; 00000075H
	DB	114					; 00000072H
	DB	0
_TEXT	ENDS
;	COMDAT text$x
text$x	SEGMENT
__unwindfunclet$?Charger_valeur_saisie@Solution@@QAEHPAUHWND__@@@Z$0:
	mov	esi, esp
	lea	ecx, DWORD PTR _Valeur$[ebp]
	call	DWORD PTR __imp_??1?$CStringT@_WV?$StrTraitMFC_DLL@_WV?$ChTraitsCRT@_W@ATL@@@@@ATL@@QAE@XZ
	cmp	esi, esp
	jmp	__RTC_CheckEsp
__ehhandler$?Charger_valeur_saisie@Solution@@QAEHPAUHWND__@@@Z:
	mov	edx, DWORD PTR [esp+8]
	lea	eax, DWORD PTR [edx+12]
	mov	ecx, DWORD PTR [edx-328]
	xor	ecx, eax
	call	@__security_check_cookie@4
	mov	ecx, DWORD PTR [edx-4]
	xor	ecx, eax
	call	@__security_check_cookie@4
	mov	eax, OFFSET __ehfuncinfo$?Charger_valeur_saisie@Solution@@QAEHPAUHWND__@@@Z
	jmp	___CxxFrameHandler3
text$x	ENDS
?Charger_valeur_saisie@Solution@@QAEHPAUHWND__@@@Z ENDP	; Solution::Charger_valeur_saisie
; Function compile flags: /Odsp /RTCsu /ZI
; File c:\projets\sudoku\sudoku\sudoku\solution.cpp
;	COMDAT ??1Solution@@UAE@XZ
_TEXT	SEGMENT
_this$ = -8						; size = 4
??1Solution@@UAE@XZ PROC				; Solution::~Solution, COMDAT
; _this$ = ecx

; 217  : {

	push	ebp
	mov	ebp, esp
	sub	esp, 204				; 000000ccH
	push	ebx
	push	esi
	push	edi
	push	ecx
	lea	edi, DWORD PTR [ebp-204]
	push	51					; 00000033H
	pop	ecx
	mov	eax, -858993460				; ccccccccH
	rep stosd
	pop	ecx
	mov	DWORD PTR _this$[ebp], ecx
	mov	eax, DWORD PTR _this$[ebp]
	mov	DWORD PTR [eax], OFFSET ??_7Solution@@6B@

; 218  : 
; 219  : 	fclose(pt_fichier);

	mov	esi, esp
	mov	eax, DWORD PTR _this$[ebp]
	push	DWORD PTR [eax+664]
	call	DWORD PTR __imp__fclose
	pop	ecx
	cmp	esi, esp
	call	__RTC_CheckEsp

; 220  : 
; 221  : }

	mov	ecx, DWORD PTR _this$[ebp]
	add	ecx, 672				; 000002a0H
	mov	esi, esp
	call	DWORD PTR __imp_??1?$CStringT@_WV?$StrTraitMFC_DLL@_WV?$ChTraitsCRT@_W@ATL@@@@@ATL@@QAE@XZ
	cmp	esi, esp
	call	__RTC_CheckEsp
	mov	ecx, DWORD PTR _this$[ebp]
	add	ecx, 668				; 0000029cH
	mov	esi, esp
	call	DWORD PTR __imp_??1?$CStringT@_WV?$StrTraitMFC_DLL@_WV?$ChTraitsCRT@_W@ATL@@@@@ATL@@QAE@XZ
	cmp	esi, esp
	call	__RTC_CheckEsp
	mov	ecx, DWORD PTR _this$[ebp]
	add	ecx, 660				; 00000294H
	mov	esi, esp
	call	DWORD PTR __imp_??1?$CStringT@_WV?$StrTraitMFC_DLL@_WV?$ChTraitsCRT@_W@ATL@@@@@ATL@@QAE@XZ
	cmp	esi, esp
	call	__RTC_CheckEsp
	pop	edi
	pop	esi
	pop	ebx
	add	esp, 204				; 000000ccH
	cmp	ebp, esp
	call	__RTC_CheckEsp
	mov	esp, ebp
	pop	ebp
	ret	0
??1Solution@@UAE@XZ ENDP				; Solution::~Solution
_TEXT	ENDS
; Function compile flags: /Odsp /RTCsu /ZI
; File c:\projets\sudoku\sudoku\sudoku\solution.cpp
;	COMDAT ??0Solution@@QAE@PAUHWND__@@@Z
_TEXT	SEGMENT
tv171 = -284						; size = 4
tv191 = -280						; size = 4
tv169 = -276						; size = 4
tv92 = -272						; size = 4
$T2 = -264						; size = 4
$T3 = -252						; size = 4
$T4 = -240						; size = 4
_Out_dir$ = -36						; size = 4
_this$ = -24						; size = 4
__$ArrayPad$ = -16					; size = 4
__$EHRec$ = -12						; size = 12
_Curent_windows$ = 8					; size = 4
??0Solution@@QAE@PAUHWND__@@@Z PROC			; Solution::Solution, COMDAT
; _this$ = ecx

; 197  : {		

	push	ebp
	mov	ebp, esp
	push	-1
	push	__ehhandler$??0Solution@@QAE@PAUHWND__@@@Z
	mov	eax, DWORD PTR fs:0
	push	eax
	sub	esp, 272				; 00000110H
	push	ebx
	push	esi
	push	edi
	push	ecx
	lea	edi, DWORD PTR [ebp-284]
	push	68					; 00000044H
	pop	ecx
	mov	eax, -858993460				; ccccccccH
	rep stosd
	pop	ecx
	mov	eax, DWORD PTR ___security_cookie
	xor	eax, ebp
	mov	DWORD PTR __$ArrayPad$[ebp], eax
	push	eax
	lea	eax, DWORD PTR __$EHRec$[ebp]
	mov	DWORD PTR fs:0, eax
	mov	DWORD PTR _this$[ebp], ecx
	mov	eax, DWORD PTR _this$[ebp]
	mov	DWORD PTR [eax], OFFSET ??_7Solution@@6B@
	mov	ecx, DWORD PTR _this$[ebp]
	add	ecx, 660				; 00000294H
	mov	esi, esp
	call	DWORD PTR __imp_??0?$CStringT@_WV?$StrTraitMFC_DLL@_WV?$ChTraitsCRT@_W@ATL@@@@@ATL@@QAE@XZ
	cmp	esi, esp
	call	__RTC_CheckEsp
	and	DWORD PTR __$EHRec$[ebp+8], 0
	mov	ecx, DWORD PTR _this$[ebp]
	add	ecx, 668				; 0000029cH
	mov	esi, esp
	call	DWORD PTR __imp_??0?$CStringT@_WV?$StrTraitMFC_DLL@_WV?$ChTraitsCRT@_W@ATL@@@@@ATL@@QAE@XZ
	cmp	esi, esp
	call	__RTC_CheckEsp
	mov	BYTE PTR __$EHRec$[ebp+8], 1
	mov	ecx, DWORD PTR _this$[ebp]
	add	ecx, 672				; 000002a0H
	mov	esi, esp
	call	DWORD PTR __imp_??0?$CStringT@_WV?$StrTraitMFC_DLL@_WV?$ChTraitsCRT@_W@ATL@@@@@ATL@@QAE@XZ
	cmp	esi, esp
	call	__RTC_CheckEsp
	mov	BYTE PTR __$EHRec$[ebp+8], 2

; 198  : 
; 199  : 	// Sauvegarde de la fentre d'appel
; 200  : 	Save_Curent_windows = Curent_windows;

	mov	eax, DWORD PTR _this$[ebp]
	mov	ecx, DWORD PTR _Curent_windows$[ebp]
	mov	DWORD PTR [eax+652], ecx

; 201  : 	ASSERT(Curent_windows != 0);

	cmp	DWORD PTR _Curent_windows$[ebp], 0
	jne	SHORT $LN3@Solution
	mov	eax, DWORD PTR ?__LINE__Var@?1???0Solution@@QAE@PAUHWND__@@@Z@4JA
	add	eax, 4
	push	eax
	push	OFFSET ??_C@_0CN@IHCCPHM@c?3?2projets?2sudoku?2sudoku?2sudoku?2@
	call	?AfxAssertFailedLine@@YGHPBDH@Z		; AfxAssertFailedLine
	test	eax, eax
	je	SHORT $LN3@Solution
	int	3
$LN3@Solution:

; 202  : 
; 203  : 	CString Out_dir = Folder() + "resultat.txt";

	push	OFFSET ??_C@_0N@EJFANHGM@resultat?4txt?$AA@
	lea	ecx, DWORD PTR $T2[ebp]
	call	??0_bstr_t@@QAE@PBD@Z			; _bstr_t::_bstr_t
	mov	BYTE PTR __$EHRec$[ebp+8], 3
	lea	eax, DWORD PTR $T2[ebp]
	push	eax
	lea	eax, DWORD PTR $T3[ebp]
	push	eax
	mov	ecx, DWORD PTR _this$[ebp]
	call	?Folder@Solution@@AAE?AV?$CStringT@_WV?$StrTraitMFC_DLL@_WV?$ChTraitsCRT@_W@ATL@@@@@ATL@@XZ ; Solution::Folder
	mov	DWORD PTR tv92[ebp], eax
	mov	eax, DWORD PTR tv92[ebp]
	mov	DWORD PTR tv169[ebp], eax
	mov	BYTE PTR __$EHRec$[ebp+8], 4
	mov	esi, esp
	mov	ecx, DWORD PTR tv169[ebp]
	call	DWORD PTR __imp_??B?$CSimpleStringT@_W$00@ATL@@QBEPB_WXZ
	cmp	esi, esp
	call	__RTC_CheckEsp
	push	eax
	lea	eax, DWORD PTR $T4[ebp]
	push	eax
	call	??H@YA?AV_bstr_t@@PB_WABV0@@Z		; operator+
	add	esp, 12					; 0000000cH
	mov	DWORD PTR tv191[ebp], eax
	mov	eax, DWORD PTR tv191[ebp]
	mov	DWORD PTR tv171[ebp], eax
	mov	BYTE PTR __$EHRec$[ebp+8], 5
	mov	ecx, DWORD PTR tv171[ebp]
	call	??B_bstr_t@@QBEPB_WXZ			; _bstr_t::operator wchar_t const *
	mov	esi, esp
	push	eax
	lea	ecx, DWORD PTR _Out_dir$[ebp]
	call	DWORD PTR __imp_??0?$CStringT@_WV?$StrTraitMFC_DLL@_WV?$ChTraitsCRT@_W@ATL@@@@@ATL@@QAE@PB_W@Z
	cmp	esi, esp
	call	__RTC_CheckEsp
	mov	BYTE PTR __$EHRec$[ebp+8], 7
	lea	ecx, DWORD PTR $T4[ebp]
	call	??1_bstr_t@@QAE@XZ			; _bstr_t::~_bstr_t
	mov	BYTE PTR __$EHRec$[ebp+8], 8
	mov	esi, esp
	lea	ecx, DWORD PTR $T3[ebp]
	call	DWORD PTR __imp_??1?$CStringT@_WV?$StrTraitMFC_DLL@_WV?$ChTraitsCRT@_W@ATL@@@@@ATL@@QAE@XZ
	cmp	esi, esp
	call	__RTC_CheckEsp
	mov	BYTE PTR __$EHRec$[ebp+8], 9
	lea	ecx, DWORD PTR $T2[ebp]
	call	??1_bstr_t@@QAE@XZ			; _bstr_t::~_bstr_t

; 204  : 	pt_fichier = _wfopen(Out_dir, _T("w+t"));

	mov	esi, esp
	push	OFFSET ??_C@_17LFHOHKCB@?$AAw?$AA?$CL?$AAt?$AA?$AA@
	mov	edi, esp
	lea	ecx, DWORD PTR _Out_dir$[ebp]
	call	DWORD PTR __imp_??B?$CSimpleStringT@_W$00@ATL@@QBEPB_WXZ
	cmp	edi, esp
	call	__RTC_CheckEsp
	push	eax
	call	DWORD PTR __imp___wfopen
	pop	ecx
	pop	ecx
	cmp	esi, esp
	call	__RTC_CheckEsp
	mov	ecx, DWORD PTR _this$[ebp]
	mov	DWORD PTR [ecx+664], eax

; 205  : 
; 206  : 	// Charge le tableau de relation 
; 207  : 	Charge_tableau_relation();

	mov	ecx, DWORD PTR _this$[ebp]
	call	?Charge_tableau_relation@Solution@@AAEXXZ ; Solution::Charge_tableau_relation

; 208  : 	
; 209  : 	// Dfinition des limtes etc...
; 210  : 	Definition_limite(Curent_windows);

	push	DWORD PTR _Curent_windows$[ebp]
	mov	ecx, DWORD PTR _this$[ebp]
	call	?Definition_limite@Solution@@AAEXPAUHWND__@@@Z ; Solution::Definition_limite

; 211  : 	g_test_counter = 0;

	mov	eax, DWORD PTR _this$[ebp]
	and	DWORD PTR [eax+656], 0

; 212  : 
; 213  : 
; 214  : }

	mov	BYTE PTR __$EHRec$[ebp+8], 2
	mov	esi, esp
	lea	ecx, DWORD PTR _Out_dir$[ebp]
	call	DWORD PTR __imp_??1?$CStringT@_WV?$StrTraitMFC_DLL@_WV?$ChTraitsCRT@_W@ATL@@@@@ATL@@QAE@XZ
	cmp	esi, esp
	call	__RTC_CheckEsp
	or	DWORD PTR __$EHRec$[ebp+8], -1
	mov	eax, DWORD PTR _this$[ebp]
	push	edx
	mov	ecx, ebp
	push	eax
	lea	edx, DWORD PTR $LN14@Solution
	call	@_RTC_CheckStackVars@8
	pop	eax
	pop	edx
	mov	ecx, DWORD PTR __$EHRec$[ebp]
	mov	DWORD PTR fs:0, ecx
	pop	ecx
	pop	edi
	pop	esi
	pop	ebx
	mov	ecx, DWORD PTR __$ArrayPad$[ebp]
	xor	ecx, ebp
	call	@__security_check_cookie@4
	add	esp, 284				; 0000011cH
	cmp	ebp, esp
	call	__RTC_CheckEsp
	mov	esp, ebp
	pop	ebp
	ret	4
	npad	2
$LN14@Solution:
	DD	1
	DD	$LN13@Solution
$LN13@Solution:
	DD	-36					; ffffffdcH
	DD	4
	DD	$LN11@Solution
$LN11@Solution:
	DB	79					; 0000004fH
	DB	117					; 00000075H
	DB	116					; 00000074H
	DB	95					; 0000005fH
	DB	100					; 00000064H
	DB	105					; 00000069H
	DB	114					; 00000072H
	DB	0
_TEXT	ENDS
;	COMDAT text$x
text$x	SEGMENT
__unwindfunclet$??0Solution@@QAE@PAUHWND__@@@Z$0:
	mov	ecx, DWORD PTR _this$[ebp]
	add	ecx, 660				; 00000294H
	mov	esi, esp
	call	DWORD PTR __imp_??1?$CStringT@_WV?$StrTraitMFC_DLL@_WV?$ChTraitsCRT@_W@ATL@@@@@ATL@@QAE@XZ
	cmp	esi, esp
	jmp	__RTC_CheckEsp
__unwindfunclet$??0Solution@@QAE@PAUHWND__@@@Z$1:
	mov	ecx, DWORD PTR _this$[ebp]
	add	ecx, 668				; 0000029cH
	mov	esi, esp
	call	DWORD PTR __imp_??1?$CStringT@_WV?$StrTraitMFC_DLL@_WV?$ChTraitsCRT@_W@ATL@@@@@ATL@@QAE@XZ
	cmp	esi, esp
	jmp	__RTC_CheckEsp
__unwindfunclet$??0Solution@@QAE@PAUHWND__@@@Z$2:
	mov	ecx, DWORD PTR _this$[ebp]
	add	ecx, 672				; 000002a0H
	mov	esi, esp
	call	DWORD PTR __imp_??1?$CStringT@_WV?$StrTraitMFC_DLL@_WV?$ChTraitsCRT@_W@ATL@@@@@ATL@@QAE@XZ
	cmp	esi, esp
	jmp	__RTC_CheckEsp
__unwindfunclet$??0Solution@@QAE@PAUHWND__@@@Z$3:
	lea	ecx, DWORD PTR $T2[ebp]
	jmp	??1_bstr_t@@QAE@XZ			; _bstr_t::~_bstr_t
__unwindfunclet$??0Solution@@QAE@PAUHWND__@@@Z$4:
	mov	esi, esp
	lea	ecx, DWORD PTR $T3[ebp]
	call	DWORD PTR __imp_??1?$CStringT@_WV?$StrTraitMFC_DLL@_WV?$ChTraitsCRT@_W@ATL@@@@@ATL@@QAE@XZ
	cmp	esi, esp
	jmp	__RTC_CheckEsp
__unwindfunclet$??0Solution@@QAE@PAUHWND__@@@Z$5:
	lea	ecx, DWORD PTR $T4[ebp]
	jmp	??1_bstr_t@@QAE@XZ			; _bstr_t::~_bstr_t
__unwindfunclet$??0Solution@@QAE@PAUHWND__@@@Z$6:
	mov	esi, esp
	lea	ecx, DWORD PTR _Out_dir$[ebp]
	call	DWORD PTR __imp_??1?$CStringT@_WV?$StrTraitMFC_DLL@_WV?$ChTraitsCRT@_W@ATL@@@@@ATL@@QAE@XZ
	cmp	esi, esp
	jmp	__RTC_CheckEsp
__ehhandler$??0Solution@@QAE@PAUHWND__@@@Z:
	mov	edx, DWORD PTR [esp+8]
	lea	eax, DWORD PTR [edx+12]
	mov	ecx, DWORD PTR [edx-288]
	xor	ecx, eax
	call	@__security_check_cookie@4
	mov	ecx, DWORD PTR [edx-4]
	xor	ecx, eax
	call	@__security_check_cookie@4
	mov	eax, OFFSET __ehfuncinfo$??0Solution@@QAE@PAUHWND__@@@Z
	jmp	___CxxFrameHandler3
text$x	ENDS
??0Solution@@QAE@PAUHWND__@@@Z ENDP			; Solution::Solution
; Function compile flags: /Odsp /RTCsu /ZI
; File c:\projets\sudoku\sudoku\sudoku\solution.cpp
;	COMDAT ??0Solution@@QAE@XZ
_TEXT	SEGMENT
_this$ = -8						; size = 4
??0Solution@@QAE@XZ PROC				; Solution::Solution, COMDAT
; _this$ = ecx

; 10   : {

	push	ebp
	mov	ebp, esp
	sub	esp, 204				; 000000ccH
	push	ebx
	push	esi
	push	edi
	push	ecx
	lea	edi, DWORD PTR [ebp-204]
	push	51					; 00000033H
	pop	ecx
	mov	eax, -858993460				; ccccccccH
	rep stosd
	pop	ecx
	mov	DWORD PTR _this$[ebp], ecx
	mov	eax, DWORD PTR _this$[ebp]
	mov	DWORD PTR [eax], OFFSET ??_7Solution@@6B@
	mov	ecx, DWORD PTR _this$[ebp]
	add	ecx, 660				; 00000294H
	mov	esi, esp
	call	DWORD PTR __imp_??0?$CStringT@_WV?$StrTraitMFC_DLL@_WV?$ChTraitsCRT@_W@ATL@@@@@ATL@@QAE@XZ
	cmp	esi, esp
	call	__RTC_CheckEsp
	mov	ecx, DWORD PTR _this$[ebp]
	add	ecx, 668				; 0000029cH
	mov	esi, esp
	call	DWORD PTR __imp_??0?$CStringT@_WV?$StrTraitMFC_DLL@_WV?$ChTraitsCRT@_W@ATL@@@@@ATL@@QAE@XZ
	cmp	esi, esp
	call	__RTC_CheckEsp
	mov	ecx, DWORD PTR _this$[ebp]
	add	ecx, 672				; 000002a0H
	mov	esi, esp
	call	DWORD PTR __imp_??0?$CStringT@_WV?$StrTraitMFC_DLL@_WV?$ChTraitsCRT@_W@ATL@@@@@ATL@@QAE@XZ
	cmp	esi, esp
	call	__RTC_CheckEsp

; 11   : }

	mov	eax, DWORD PTR _this$[ebp]
	pop	edi
	pop	esi
	pop	ebx
	add	esp, 204				; 000000ccH
	cmp	ebp, esp
	call	__RTC_CheckEsp
	mov	esp, ebp
	pop	ebp
	ret	0
??0Solution@@QAE@XZ ENDP				; Solution::Solution
_TEXT	ENDS
; Function compile flags: /Odsp /RTCsu /ZI
;	COMDAT ?__autoclassinit2@_bstr_t@@QAEXI@Z
_TEXT	SEGMENT
_this$ = -8						; size = 4
_classSize$ = 8						; size = 4
?__autoclassinit2@_bstr_t@@QAEXI@Z PROC			; _bstr_t::__autoclassinit2, COMDAT
; _this$ = ecx
	push	ebp
	mov	ebp, esp
	sub	esp, 204				; 000000ccH
	push	ebx
	push	esi
	push	edi
	push	ecx
	lea	edi, DWORD PTR [ebp-204]
	push	51					; 00000033H
	pop	ecx
	mov	eax, -858993460				; ccccccccH
	rep stosd
	pop	ecx
	mov	DWORD PTR _this$[ebp], ecx
	push	DWORD PTR _classSize$[ebp]
	push	0
	push	DWORD PTR _this$[ebp]
	call	_memset
	add	esp, 12					; 0000000cH
	pop	edi
	pop	esi
	pop	ebx
	add	esp, 204				; 000000ccH
	cmp	ebp, esp
	call	__RTC_CheckEsp
	mov	esp, ebp
	pop	ebp
	ret	4
?__autoclassinit2@_bstr_t@@QAEXI@Z ENDP			; _bstr_t::__autoclassinit2
_TEXT	ENDS
; Function compile flags: /Odsp /RTCsu /ZI
; File c:\program files (x86)\microsoft visual studio 12.0\vc\include\comutil.h
;	COMDAT ?_Free@_bstr_t@@AAEXXZ
_TEXT	SEGMENT
_this$ = -8						; size = 4
?_Free@_bstr_t@@AAEXXZ PROC				; _bstr_t::_Free, COMDAT
; _this$ = ecx

; 636  : {

	push	ebp
	mov	ebp, esp
	sub	esp, 204				; 000000ccH
	push	ebx
	push	esi
	push	edi
	push	ecx
	lea	edi, DWORD PTR [ebp-204]
	push	51					; 00000033H
	pop	ecx
	mov	eax, -858993460				; ccccccccH
	rep stosd
	pop	ecx
	mov	DWORD PTR _this$[ebp], ecx

; 637  :     if (m_Data != NULL) {

	mov	eax, DWORD PTR _this$[ebp]
	cmp	DWORD PTR [eax], 0
	je	SHORT $LN2@Free

; 638  :         m_Data->Release();

	mov	eax, DWORD PTR _this$[ebp]
	mov	ecx, DWORD PTR [eax]
	call	?Release@Data_t@_bstr_t@@QAEKXZ		; _bstr_t::Data_t::Release

; 639  :         m_Data = NULL;

	mov	eax, DWORD PTR _this$[ebp]
	and	DWORD PTR [eax], 0
$LN2@Free:

; 640  :     }
; 641  : }

	pop	edi
	pop	esi
	pop	ebx
	add	esp, 204				; 000000ccH
	cmp	ebp, esp
	call	__RTC_CheckEsp
	mov	esp, ebp
	pop	ebp
	ret	0
?_Free@_bstr_t@@AAEXXZ ENDP				; _bstr_t::_Free
_TEXT	ENDS
; Function compile flags: /Odsp /RTCsu /ZI
; File c:\program files (x86)\microsoft visual studio 12.0\vc\include\comutil.h
;	COMDAT ?_AddRef@_bstr_t@@AAEXXZ
_TEXT	SEGMENT
_this$ = -8						; size = 4
?_AddRef@_bstr_t@@AAEXXZ PROC				; _bstr_t::_AddRef, COMDAT
; _this$ = ecx

; 627  : {

	push	ebp
	mov	ebp, esp
	sub	esp, 204				; 000000ccH
	push	ebx
	push	esi
	push	edi
	push	ecx
	lea	edi, DWORD PTR [ebp-204]
	push	51					; 00000033H
	pop	ecx
	mov	eax, -858993460				; ccccccccH
	rep stosd
	pop	ecx
	mov	DWORD PTR _this$[ebp], ecx

; 628  :     if (m_Data != NULL) {

	mov	eax, DWORD PTR _this$[ebp]
	cmp	DWORD PTR [eax], 0
	je	SHORT $LN2@AddRef

; 629  :         m_Data->AddRef();

	mov	eax, DWORD PTR _this$[ebp]
	mov	ecx, DWORD PTR [eax]
	call	?AddRef@Data_t@_bstr_t@@QAEKXZ		; _bstr_t::Data_t::AddRef
$LN2@AddRef:

; 630  :     }
; 631  : }

	pop	edi
	pop	esi
	pop	ebx
	add	esp, 204				; 000000ccH
	cmp	ebp, esp
	call	__RTC_CheckEsp
	mov	esp, ebp
	pop	ebp
	ret	0
?_AddRef@_bstr_t@@AAEXXZ ENDP				; _bstr_t::_AddRef
_TEXT	ENDS
; Function compile flags: /Odsp /RTCsu /ZI
;	COMDAT ??_GData_t@_bstr_t@@AAEPAXI@Z
_TEXT	SEGMENT
_this$ = -8						; size = 4
___flags$ = 8						; size = 4
??_GData_t@_bstr_t@@AAEPAXI@Z PROC			; _bstr_t::Data_t::`scalar deleting destructor', COMDAT
; _this$ = ecx
	push	ebp
	mov	ebp, esp
	sub	esp, 204				; 000000ccH
	push	ebx
	push	esi
	push	edi
	push	ecx
	lea	edi, DWORD PTR [ebp-204]
	push	51					; 00000033H
	pop	ecx
	mov	eax, -858993460				; ccccccccH
	rep stosd
	pop	ecx
	mov	DWORD PTR _this$[ebp], ecx
	mov	ecx, DWORD PTR _this$[ebp]
	call	??1Data_t@_bstr_t@@AAE@XZ		; _bstr_t::Data_t::~Data_t
	mov	eax, DWORD PTR ___flags$[ebp]
	and	eax, 1
	je	SHORT $LN1@scalar
	push	DWORD PTR _this$[ebp]
	call	??3@YAXPAX@Z				; operator delete
	pop	ecx
$LN1@scalar:
	mov	eax, DWORD PTR _this$[ebp]
	pop	edi
	pop	esi
	pop	ebx
	add	esp, 204				; 000000ccH
	cmp	ebp, esp
	call	__RTC_CheckEsp
	mov	esp, ebp
	pop	ebp
	ret	4
??_GData_t@_bstr_t@@AAEPAXI@Z ENDP			; _bstr_t::Data_t::`scalar deleting destructor'
_TEXT	ENDS
; Function compile flags: /Odsp /RTCsu /ZI
;	COMDAT ?__autoclassinit2@Data_t@_bstr_t@@QAEXI@Z
_TEXT	SEGMENT
_this$ = -8						; size = 4
_classSize$ = 8						; size = 4
?__autoclassinit2@Data_t@_bstr_t@@QAEXI@Z PROC		; _bstr_t::Data_t::__autoclassinit2, COMDAT
; _this$ = ecx
	push	ebp
	mov	ebp, esp
	sub	esp, 204				; 000000ccH
	push	ebx
	push	esi
	push	edi
	push	ecx
	lea	edi, DWORD PTR [ebp-204]
	push	51					; 00000033H
	pop	ecx
	mov	eax, -858993460				; ccccccccH
	rep stosd
	pop	ecx
	mov	DWORD PTR _this$[ebp], ecx
	push	DWORD PTR _classSize$[ebp]
	push	0
	push	DWORD PTR _this$[ebp]
	call	_memset
	add	esp, 12					; 0000000cH
	pop	edi
	pop	esi
	pop	ebx
	add	esp, 204				; 000000ccH
	cmp	ebp, esp
	call	__RTC_CheckEsp
	mov	esp, ebp
	pop	ebp
	ret	4
?__autoclassinit2@Data_t@_bstr_t@@QAEXI@Z ENDP		; _bstr_t::Data_t::__autoclassinit2
_TEXT	ENDS
; Function compile flags: /Odsp /RTCsu /ZI
; File c:\program files (x86)\microsoft visual studio 12.0\vc\include\comutil.h
;	COMDAT ?_Free@Data_t@_bstr_t@@AAEXXZ
_TEXT	SEGMENT
$T1 = -212						; size = 4
_this$ = -8						; size = 4
?_Free@Data_t@_bstr_t@@AAEXXZ PROC			; _bstr_t::Data_t::_Free, COMDAT
; _this$ = ecx

; 929  : {

	push	ebp
	mov	ebp, esp
	sub	esp, 216				; 000000d8H
	push	ebx
	push	esi
	push	edi
	push	ecx
	lea	edi, DWORD PTR [ebp-216]
	push	54					; 00000036H
	pop	ecx
	mov	eax, -858993460				; ccccccccH
	rep stosd
	pop	ecx
	mov	DWORD PTR _this$[ebp], ecx

; 930  :     if (m_wstr != NULL) {

	mov	eax, DWORD PTR _this$[ebp]
	cmp	DWORD PTR [eax], 0
	je	SHORT $LN2@Free

; 931  :         ::SysFreeString(m_wstr);

	mov	esi, esp
	mov	eax, DWORD PTR _this$[ebp]
	push	DWORD PTR [eax]
	call	DWORD PTR __imp__SysFreeString@4
	cmp	esi, esp
	call	__RTC_CheckEsp

; 932  :         m_wstr = NULL;

	mov	eax, DWORD PTR _this$[ebp]
	and	DWORD PTR [eax], 0
$LN2@Free:

; 933  :     }
; 934  : 
; 935  :     if (m_str != NULL) {

	mov	eax, DWORD PTR _this$[ebp]
	cmp	DWORD PTR [eax+4], 0
	je	SHORT $LN3@Free

; 936  :         delete [] m_str;

	mov	eax, DWORD PTR _this$[ebp]
	mov	eax, DWORD PTR [eax+4]
	mov	DWORD PTR $T1[ebp], eax
	push	DWORD PTR $T1[ebp]
	call	??_V@YAXPAX@Z				; operator delete[]
	pop	ecx

; 937  :         m_str = NULL;

	mov	eax, DWORD PTR _this$[ebp]
	and	DWORD PTR [eax+4], 0
$LN3@Free:

; 938  :     }
; 939  : }

	pop	edi
	pop	esi
	pop	ebx
	add	esp, 216				; 000000d8H
	cmp	ebp, esp
	call	__RTC_CheckEsp
	mov	esp, ebp
	pop	ebp
	ret	0
?_Free@Data_t@_bstr_t@@AAEXXZ ENDP			; _bstr_t::Data_t::_Free
_TEXT	ENDS
; Function compile flags: /Odsp /RTCsu /ZI
; File c:\program files (x86)\microsoft visual studio 12.0\vc\include\comutil.h
;	COMDAT ??1Data_t@_bstr_t@@AAE@XZ
_TEXT	SEGMENT
_this$ = -8						; size = 4
??1Data_t@_bstr_t@@AAE@XZ PROC				; _bstr_t::Data_t::~Data_t, COMDAT
; _this$ = ecx

; 922  : {

	push	ebp
	mov	ebp, esp
	sub	esp, 204				; 000000ccH
	push	ebx
	push	esi
	push	edi
	push	ecx
	lea	edi, DWORD PTR [ebp-204]
	push	51					; 00000033H
	pop	ecx
	mov	eax, -858993460				; ccccccccH
	rep stosd
	pop	ecx
	mov	DWORD PTR _this$[ebp], ecx

; 923  :     _Free();

	mov	ecx, DWORD PTR _this$[ebp]
	call	?_Free@Data_t@_bstr_t@@AAEXXZ		; _bstr_t::Data_t::_Free

; 924  : }

	pop	edi
	pop	esi
	pop	ebx
	add	esp, 204				; 000000ccH
	cmp	ebp, esp
	call	__RTC_CheckEsp
	mov	esp, ebp
	pop	ebp
	ret	0
??1Data_t@_bstr_t@@AAE@XZ ENDP				; _bstr_t::Data_t::~Data_t
_TEXT	ENDS
; Function compile flags: /Odsp /RTCsu /ZI
; File c:\program files (x86)\microsoft visual studio 12.0\vc\include\comutil.h
;	COMDAT ??2Data_t@_bstr_t@@SAPAXI@Z
_TEXT	SEGMENT
_sz$ = 8						; size = 4
??2Data_t@_bstr_t@@SAPAXI@Z PROC			; _bstr_t::Data_t::operator new, COMDAT

; 914  : {

	push	ebp
	mov	ebp, esp
	sub	esp, 192				; 000000c0H
	push	ebx
	push	esi
	push	edi
	lea	edi, DWORD PTR [ebp-192]
	push	48					; 00000030H
	pop	ecx
	mov	eax, -858993460				; ccccccccH
	rep stosd

; 915  :     return ::operator new(sz);

	push	DWORD PTR _sz$[ebp]
	call	??2@YAPAXI@Z				; operator new
	pop	ecx

; 916  : }

	pop	edi
	pop	esi
	pop	ebx
	add	esp, 192				; 000000c0H
	cmp	ebp, esp
	call	__RTC_CheckEsp
	mov	esp, ebp
	pop	ebp
	ret	0
??2Data_t@_bstr_t@@SAPAXI@Z ENDP			; _bstr_t::Data_t::operator new
_TEXT	ENDS
; Function compile flags: /Odsp /RTCsu /ZI
; File c:\program files (x86)\microsoft visual studio 12.0\vc\include\comutil.h
;	COMDAT ?Length@Data_t@_bstr_t@@QBEIXZ
_TEXT	SEGMENT
tv69 = -208						; size = 4
_this$ = -8						; size = 4
?Length@Data_t@_bstr_t@@QBEIXZ PROC			; _bstr_t::Data_t::Length, COMDAT
; _this$ = ecx

; 870  : {

	push	ebp
	mov	ebp, esp
	sub	esp, 208				; 000000d0H
	push	ebx
	push	esi
	push	edi
	push	ecx
	lea	edi, DWORD PTR [ebp-208]
	push	52					; 00000034H
	pop	ecx
	mov	eax, -858993460				; ccccccccH
	rep stosd
	pop	ecx
	mov	DWORD PTR _this$[ebp], ecx

; 871  :     return m_wstr ? ::SysStringLen(m_wstr) : 0;

	mov	eax, DWORD PTR _this$[ebp]
	cmp	DWORD PTR [eax], 0
	je	SHORT $LN3@Length
	mov	esi, esp
	mov	eax, DWORD PTR _this$[ebp]
	push	DWORD PTR [eax]
	call	DWORD PTR __imp__SysStringLen@4
	cmp	esi, esp
	call	__RTC_CheckEsp
	mov	DWORD PTR tv69[ebp], eax
	jmp	SHORT $LN4@Length
$LN3@Length:
	and	DWORD PTR tv69[ebp], 0
$LN4@Length:
	mov	eax, DWORD PTR tv69[ebp]

; 872  : }

	pop	edi
	pop	esi
	pop	ebx
	add	esp, 208				; 000000d0H
	cmp	ebp, esp
	call	__RTC_CheckEsp
	mov	esp, ebp
	pop	ebp
	ret	0
?Length@Data_t@_bstr_t@@QBEIXZ ENDP			; _bstr_t::Data_t::Length
_TEXT	ENDS
; Function compile flags: /Odsp /RTCsu /ZI
; File c:\program files (x86)\microsoft visual studio 12.0\vc\include\comutil.h
;	COMDAT ?GetWString@Data_t@_bstr_t@@QAEAAPA_WXZ
_TEXT	SEGMENT
_this$ = -8						; size = 4
?GetWString@Data_t@_bstr_t@@QAEAAPA_WXZ PROC		; _bstr_t::Data_t::GetWString, COMDAT
; _this$ = ecx

; 818  : {

	push	ebp
	mov	ebp, esp
	sub	esp, 204				; 000000ccH
	push	ebx
	push	esi
	push	edi
	push	ecx
	lea	edi, DWORD PTR [ebp-204]
	push	51					; 00000033H
	pop	ecx
	mov	eax, -858993460				; ccccccccH
	rep stosd
	pop	ecx
	mov	DWORD PTR _this$[ebp], ecx

; 819  :     return m_wstr;

	mov	eax, DWORD PTR _this$[ebp]

; 820  : }

	pop	edi
	pop	esi
	pop	ebx
	mov	esp, ebp
	pop	ebp
	ret	0
?GetWString@Data_t@_bstr_t@@QAEAAPA_WXZ ENDP		; _bstr_t::Data_t::GetWString
_TEXT	ENDS
; Function compile flags: /Odsp /RTCsu /ZI
; File c:\program files (x86)\microsoft visual studio 12.0\vc\include\comutil.h
;	COMDAT ?Release@Data_t@_bstr_t@@QAEKXZ
_TEXT	SEGMENT
tv72 = -244						; size = 4
$T1 = -236						; size = 4
$T2 = -224						; size = 4
_cRef$ = -20						; size = 4
_this$ = -8						; size = 4
?Release@Data_t@_bstr_t@@QAEKXZ PROC			; _bstr_t::Data_t::Release, COMDAT
; _this$ = ecx

; 772  : {

	push	ebp
	mov	ebp, esp
	sub	esp, 244				; 000000f4H
	push	ebx
	push	esi
	push	edi
	push	ecx
	lea	edi, DWORD PTR [ebp-244]
	push	61					; 0000003dH
	pop	ecx
	mov	eax, -858993460				; ccccccccH
	rep stosd
	pop	ecx
	mov	DWORD PTR _this$[ebp], ecx

; 773  :     unsigned long cRef = InterlockedDecrement(reinterpret_cast<long*>(&m_RefCount));

	mov	eax, DWORD PTR _this$[ebp]
	add	eax, 8
	or	ecx, -1
	lock	 xadd	 DWORD PTR [eax], ecx
	dec	ecx
	mov	DWORD PTR _cRef$[ebp], ecx

; 774  :     if (cRef == 0) {

	jne	SHORT $LN1@Release

; 775  :         delete this;

	mov	eax, DWORD PTR _this$[ebp]
	mov	DWORD PTR $T2[ebp], eax
	mov	eax, DWORD PTR $T2[ebp]
	mov	DWORD PTR $T1[ebp], eax
	cmp	DWORD PTR $T1[ebp], 0
	je	SHORT $LN4@Release
	push	1
	mov	ecx, DWORD PTR $T1[ebp]
	call	??_GData_t@_bstr_t@@AAEPAXI@Z
	mov	DWORD PTR tv72[ebp], eax
	jmp	SHORT $LN1@Release
$LN4@Release:
	and	DWORD PTR tv72[ebp], 0
$LN1@Release:

; 776  :     }
; 777  : 
; 778  :     return cRef;

	mov	eax, DWORD PTR _cRef$[ebp]

; 779  : }

	pop	edi
	pop	esi
	pop	ebx
	add	esp, 244				; 000000f4H
	cmp	ebp, esp
	call	__RTC_CheckEsp
	mov	esp, ebp
	pop	ebp
	ret	0
?Release@Data_t@_bstr_t@@QAEKXZ ENDP			; _bstr_t::Data_t::Release
_TEXT	ENDS
; Function compile flags: /Odsp /RTCsu /ZI
; File c:\program files (x86)\microsoft visual studio 12.0\vc\include\comutil.h
;	COMDAT ?AddRef@Data_t@_bstr_t@@QAEKXZ
_TEXT	SEGMENT
_this$ = -8						; size = 4
?AddRef@Data_t@_bstr_t@@QAEKXZ PROC			; _bstr_t::Data_t::AddRef, COMDAT
; _this$ = ecx

; 766  : {

	push	ebp
	mov	ebp, esp
	sub	esp, 204				; 000000ccH
	push	ebx
	push	esi
	push	edi
	push	ecx
	lea	edi, DWORD PTR [ebp-204]
	push	51					; 00000033H
	pop	ecx
	mov	eax, -858993460				; ccccccccH
	rep stosd
	pop	ecx
	mov	DWORD PTR _this$[ebp], ecx

; 767  :     InterlockedIncrement(reinterpret_cast<long*>(&m_RefCount));

	mov	eax, DWORD PTR _this$[ebp]
	add	eax, 8
	xor	ecx, ecx
	inc	ecx
	lock	 xadd	 DWORD PTR [eax], ecx

; 768  :     return m_RefCount;

	mov	eax, DWORD PTR _this$[ebp]
	mov	eax, DWORD PTR [eax+8]

; 769  : }

	pop	edi
	pop	esi
	pop	ebx
	mov	esp, ebp
	pop	ebp
	ret	0
?AddRef@Data_t@_bstr_t@@QAEKXZ ENDP			; _bstr_t::Data_t::AddRef
_TEXT	ENDS
; Function compile flags: /Odsp /RTCsu /ZI
; File c:\program files (x86)\microsoft visual studio 12.0\vc\include\comutil.h
;	COMDAT ??0Data_t@_bstr_t@@QAE@ABV1@0@Z
_TEXT	SEGMENT
_wstr2$ = -72						; size = 4
_wstr1$ = -60						; size = 4
_l3$ = -48						; size = 4
_l2$ = -36						; size = 4
_l1$ = -24						; size = 4
_this$ = -12						; size = 4
__$ArrayPad$ = -4					; size = 4
_s1$ = 8						; size = 4
_s2$ = 12						; size = 4
??0Data_t@_bstr_t@@QAE@ABV1@0@Z PROC			; _bstr_t::Data_t::Data_t, COMDAT
; _this$ = ecx

; 721  : {

	push	ebp
	mov	ebp, esp
	sub	esp, 268				; 0000010cH
	push	ebx
	push	esi
	push	edi
	push	ecx
	lea	edi, DWORD PTR [ebp-268]
	push	67					; 00000043H
	pop	ecx
	mov	eax, -858993460				; ccccccccH
	rep stosd
	pop	ecx
	mov	eax, DWORD PTR ___security_cookie
	xor	eax, ebp
	mov	DWORD PTR __$ArrayPad$[ebp], eax
	mov	DWORD PTR _this$[ebp], ecx
	mov	eax, DWORD PTR _this$[ebp]
	and	DWORD PTR [eax+4], 0
	mov	eax, DWORD PTR _this$[ebp]
	mov	DWORD PTR [eax+8], 1

; 722  : 	const unsigned int l1 = s1.length();

	mov	ecx, DWORD PTR _s1$[ebp]
	call	?length@_bstr_t@@QBEIXZ			; _bstr_t::length
	mov	DWORD PTR _l1$[ebp], eax

; 723  : 	const unsigned int l2 = s2.length();

	mov	ecx, DWORD PTR _s2$[ebp]
	call	?length@_bstr_t@@QBEIXZ			; _bstr_t::length
	mov	DWORD PTR _l2$[ebp], eax

; 724  : 	unsigned int l3;
; 725  : 
; 726  : 	if (FAILED(_com_util::UIntAdd(l1, l2, &l3)) ||
; 727  : 		FAILED(_com_util::UIntMult(l3, sizeof(wchar_t), &l3)))

	lea	eax, DWORD PTR _l3$[ebp]
	push	eax
	push	DWORD PTR _l2$[ebp]
	push	DWORD PTR _l1$[ebp]
	call	?UIntAdd@_com_util@@YAJIIPAI@Z		; _com_util::UIntAdd
	add	esp, 12					; 0000000cH
	test	eax, eax
	jl	SHORT $LN5@Data_t
	lea	eax, DWORD PTR _l3$[ebp]
	push	eax
	push	2
	push	DWORD PTR _l3$[ebp]
	call	?UIntMult@_com_util@@YAJIIPAI@Z		; _com_util::UIntMult
	add	esp, 12					; 0000000cH
	test	eax, eax
	jge	SHORT $LN6@Data_t
$LN5@Data_t:

; 728  : 	{
; 729  : 		_com_issue_error(E_OUTOFMEMORY);

	push	-2147024882				; 8007000eH
	call	?_com_issue_error@@YGXJ@Z		; _com_issue_error

; 730  : 		return;

	jmp	$LN7@Data_t
$LN6@Data_t:

; 731  : 	}
; 732  : 	
; 733  : 	m_wstr = ::SysAllocStringByteLen(NULL, (l1 + l2) * sizeof(wchar_t));

	mov	eax, DWORD PTR _l1$[ebp]
	add	eax, DWORD PTR _l2$[ebp]
	shl	eax, 1
	mov	esi, esp
	push	eax
	push	0
	call	DWORD PTR __imp__SysAllocStringByteLen@8
	cmp	esi, esp
	call	__RTC_CheckEsp
	mov	ecx, DWORD PTR _this$[ebp]
	mov	DWORD PTR [ecx], eax

; 734  : 	if (m_wstr == NULL) 

	mov	eax, DWORD PTR _this$[ebp]
	cmp	DWORD PTR [eax], 0
	jne	SHORT $LN4@Data_t

; 735  : 	{
; 736  : 		if (l1 + l2 == 0)

	mov	eax, DWORD PTR _l1$[ebp]
	add	eax, DWORD PTR _l2$[ebp]
	jne	SHORT $LN3@Data_t

; 737  : 		{
; 738  : 			return;

	jmp	$LN7@Data_t
$LN3@Data_t:

; 739  : 		}
; 740  : 		_com_issue_error(E_OUTOFMEMORY);

	push	-2147024882				; 8007000eH
	call	?_com_issue_error@@YGXJ@Z		; _com_issue_error

; 741  : 		return;

	jmp	$LN7@Data_t
$LN4@Data_t:

; 742  : 	}
; 743  : 
; 744  : 	const wchar_t* wstr1 = static_cast<const wchar_t*>(s1);

	mov	ecx, DWORD PTR _s1$[ebp]
	call	??B_bstr_t@@QBEPB_WXZ			; _bstr_t::operator wchar_t const *
	mov	DWORD PTR _wstr1$[ebp], eax

; 745  : 
; 746  : 	if (wstr1 != NULL) 

	cmp	DWORD PTR _wstr1$[ebp], 0
	je	SHORT $LN2@Data_t

; 747  : 	{
; 748  : 		_COM_MEMCPY_S(m_wstr, (l1 + l2 + 1) * sizeof(wchar_t), wstr1, (l1 + 1) * sizeof(wchar_t));

	mov	eax, DWORD PTR _l1$[ebp]
	lea	eax, DWORD PTR [eax+eax+2]
	mov	esi, esp
	push	eax
	push	DWORD PTR _wstr1$[ebp]
	mov	eax, DWORD PTR _l1$[ebp]
	add	eax, DWORD PTR _l2$[ebp]
	lea	eax, DWORD PTR [eax+eax+2]
	push	eax
	mov	eax, DWORD PTR _this$[ebp]
	push	DWORD PTR [eax]
	call	DWORD PTR __imp__memcpy_s
	add	esp, 16					; 00000010H
	cmp	esi, esp
	call	__RTC_CheckEsp
$LN2@Data_t:

; 749  : 	}
; 750  : 
; 751  : 	const wchar_t* wstr2 = static_cast<const wchar_t*>(s2);

	mov	ecx, DWORD PTR _s2$[ebp]
	call	??B_bstr_t@@QBEPB_WXZ			; _bstr_t::operator wchar_t const *
	mov	DWORD PTR _wstr2$[ebp], eax

; 752  : 
; 753  : 	if (wstr2 != NULL) 

	cmp	DWORD PTR _wstr2$[ebp], 0
	je	SHORT $LN7@Data_t

; 754  : 	{
; 755  : 		_COM_MEMCPY_S(m_wstr + l1, (l2 + 1) * sizeof(wchar_t), wstr2, (l2 + 1) * sizeof(wchar_t));

	mov	eax, DWORD PTR _l2$[ebp]
	lea	eax, DWORD PTR [eax+eax+2]
	mov	esi, esp
	push	eax
	push	DWORD PTR _wstr2$[ebp]
	mov	eax, DWORD PTR _l2$[ebp]
	lea	eax, DWORD PTR [eax+eax+2]
	push	eax
	mov	eax, DWORD PTR _this$[ebp]
	mov	eax, DWORD PTR [eax]
	mov	ecx, DWORD PTR _l1$[ebp]
	lea	eax, DWORD PTR [eax+ecx*2]
	push	eax
	call	DWORD PTR __imp__memcpy_s
	add	esp, 16					; 00000010H
	cmp	esi, esp
	call	__RTC_CheckEsp
$LN7@Data_t:

; 756  : 	}
; 757  : }

	mov	eax, DWORD PTR _this$[ebp]
$LN8@Data_t:
	push	edx
	mov	ecx, ebp
	push	eax
	lea	edx, DWORD PTR $LN11@Data_t
	call	@_RTC_CheckStackVars@8
	pop	eax
	pop	edx
	pop	edi
	pop	esi
	pop	ebx
	mov	ecx, DWORD PTR __$ArrayPad$[ebp]
	xor	ecx, ebp
	call	@__security_check_cookie@4
	add	esp, 268				; 0000010cH
	cmp	ebp, esp
	call	__RTC_CheckEsp
	mov	esp, ebp
	pop	ebp
	ret	8
	npad	1
$LN11@Data_t:
	DD	1
	DD	$LN10@Data_t
$LN10@Data_t:
	DD	-48					; ffffffd0H
	DD	4
	DD	$LN9@Data_t
$LN9@Data_t:
	DB	108					; 0000006cH
	DB	51					; 00000033H
	DB	0
??0Data_t@_bstr_t@@QAE@ABV1@0@Z ENDP			; _bstr_t::Data_t::Data_t
_TEXT	ENDS
; Function compile flags: /Odsp /RTCsu /ZI
; File c:\program files (x86)\microsoft visual studio 12.0\vc\include\comutil.h
;	COMDAT ??0Data_t@_bstr_t@@QAE@PB_W@Z
_TEXT	SEGMENT
_this$ = -8						; size = 4
_s$ = 8							; size = 4
??0Data_t@_bstr_t@@QAE@PB_W@Z PROC			; _bstr_t::Data_t::Data_t, COMDAT
; _this$ = ecx

; 690  : {

	push	ebp
	mov	ebp, esp
	sub	esp, 204				; 000000ccH
	push	ebx
	push	esi
	push	edi
	push	ecx
	lea	edi, DWORD PTR [ebp-204]
	push	51					; 00000033H
	pop	ecx
	mov	eax, -858993460				; ccccccccH
	rep stosd
	pop	ecx
	mov	DWORD PTR _this$[ebp], ecx
	mov	eax, DWORD PTR _this$[ebp]
	and	DWORD PTR [eax+4], 0
	mov	eax, DWORD PTR _this$[ebp]
	mov	DWORD PTR [eax+8], 1

; 691  :     m_wstr = ::SysAllocString(s);

	mov	esi, esp
	push	DWORD PTR _s$[ebp]
	call	DWORD PTR __imp__SysAllocString@4
	cmp	esi, esp
	call	__RTC_CheckEsp
	mov	ecx, DWORD PTR _this$[ebp]
	mov	DWORD PTR [ecx], eax

; 692  : 
; 693  :     if (m_wstr == NULL && s != NULL) {

	mov	eax, DWORD PTR _this$[ebp]
	cmp	DWORD PTR [eax], 0
	jne	SHORT $LN2@Data_t
	cmp	DWORD PTR _s$[ebp], 0
	je	SHORT $LN2@Data_t

; 694  :         _com_issue_error(E_OUTOFMEMORY);

	push	-2147024882				; 8007000eH
	call	?_com_issue_error@@YGXJ@Z		; _com_issue_error
$LN2@Data_t:

; 695  :     }
; 696  : }

	mov	eax, DWORD PTR _this$[ebp]
$LN3@Data_t:
	pop	edi
	pop	esi
	pop	ebx
	add	esp, 204				; 000000ccH
	cmp	ebp, esp
	call	__RTC_CheckEsp
	mov	esp, ebp
	pop	ebp
	ret	4
??0Data_t@_bstr_t@@QAE@PB_W@Z ENDP			; _bstr_t::Data_t::Data_t
_TEXT	ENDS
; Function compile flags: /Odsp /RTCsu /ZI
; File c:\program files (x86)\microsoft visual studio 12.0\vc\include\comutil.h
;	COMDAT ??0Data_t@_bstr_t@@QAE@PBD@Z
_TEXT	SEGMENT
_this$ = -8						; size = 4
_s$ = 8							; size = 4
??0Data_t@_bstr_t@@QAE@PBD@Z PROC			; _bstr_t::Data_t::Data_t, COMDAT
; _this$ = ecx

; 682  : {

	push	ebp
	mov	ebp, esp
	sub	esp, 204				; 000000ccH
	push	ebx
	push	esi
	push	edi
	push	ecx
	lea	edi, DWORD PTR [ebp-204]
	push	51					; 00000033H
	pop	ecx
	mov	eax, -858993460				; ccccccccH
	rep stosd
	pop	ecx
	mov	DWORD PTR _this$[ebp], ecx
	mov	eax, DWORD PTR _this$[ebp]
	and	DWORD PTR [eax+4], 0
	mov	eax, DWORD PTR _this$[ebp]
	mov	DWORD PTR [eax+8], 1

; 683  :     m_wstr = _com_util::ConvertStringToBSTR(s);

	push	DWORD PTR _s$[ebp]
	call	?ConvertStringToBSTR@_com_util@@YGPA_WPBD@Z ; _com_util::ConvertStringToBSTR
	mov	ecx, DWORD PTR _this$[ebp]
	mov	DWORD PTR [ecx], eax

; 684  : }

	mov	eax, DWORD PTR _this$[ebp]
	pop	edi
	pop	esi
	pop	ebx
	add	esp, 204				; 000000ccH
	cmp	ebp, esp
	call	__RTC_CheckEsp
	mov	esp, ebp
	pop	ebp
	ret	4
??0Data_t@_bstr_t@@QAE@PBD@Z ENDP			; _bstr_t::Data_t::Data_t
_TEXT	ENDS
; Function compile flags: /Odsp /RTCsu /ZI
; File c:\program files (x86)\microsoft visual studio 12.0\vc\include\comutil.h
;	COMDAT ?length@_bstr_t@@QBEIXZ
_TEXT	SEGMENT
tv69 = -208						; size = 4
_this$ = -8						; size = 4
?length@_bstr_t@@QBEIXZ PROC				; _bstr_t::length, COMDAT
; _this$ = ecx

; 553  : {

	push	ebp
	mov	ebp, esp
	sub	esp, 208				; 000000d0H
	push	ebx
	push	esi
	push	edi
	push	ecx
	lea	edi, DWORD PTR [ebp-208]
	push	52					; 00000034H
	pop	ecx
	mov	eax, -858993460				; ccccccccH
	rep stosd
	pop	ecx
	mov	DWORD PTR _this$[ebp], ecx

; 554  :     return (m_Data != NULL) ? m_Data->Length() : 0;

	mov	eax, DWORD PTR _this$[ebp]
	cmp	DWORD PTR [eax], 0
	je	SHORT $LN3@length
	mov	eax, DWORD PTR _this$[ebp]
	mov	ecx, DWORD PTR [eax]
	call	?Length@Data_t@_bstr_t@@QBEIXZ		; _bstr_t::Data_t::Length
	mov	DWORD PTR tv69[ebp], eax
	jmp	SHORT $LN4@length
$LN3@length:
	and	DWORD PTR tv69[ebp], 0
$LN4@length:
	mov	eax, DWORD PTR tv69[ebp]

; 555  : }

	pop	edi
	pop	esi
	pop	ebx
	add	esp, 208				; 000000d0H
	cmp	ebp, esp
	call	__RTC_CheckEsp
	mov	esp, ebp
	pop	ebp
	ret	0
?length@_bstr_t@@QBEIXZ ENDP				; _bstr_t::length
_TEXT	ENDS
; Function compile flags: /Odsp /RTCsu /ZI
; File c:\program files (x86)\microsoft visual studio 12.0\vc\include\comutil.h
;	COMDAT ??B_bstr_t@@QBEPB_WXZ
_TEXT	SEGMENT
tv69 = -208						; size = 4
_this$ = -8						; size = 4
??B_bstr_t@@QBEPB_WXZ PROC				; _bstr_t::operator wchar_t const *, COMDAT
; _this$ = ecx

; 471  : {

	push	ebp
	mov	ebp, esp
	sub	esp, 208				; 000000d0H
	push	ebx
	push	esi
	push	edi
	push	ecx
	lea	edi, DWORD PTR [ebp-208]
	push	52					; 00000034H
	pop	ecx
	mov	eax, -858993460				; ccccccccH
	rep stosd
	pop	ecx
	mov	DWORD PTR _this$[ebp], ecx

; 472  :     return (m_Data != NULL) ? m_Data->GetWString() : NULL;

	mov	eax, DWORD PTR _this$[ebp]
	cmp	DWORD PTR [eax], 0
	je	SHORT $LN3@operator
	mov	eax, DWORD PTR _this$[ebp]
	mov	ecx, DWORD PTR [eax]
	call	?GetWString@Data_t@_bstr_t@@QAEAAPA_WXZ	; _bstr_t::Data_t::GetWString
	mov	eax, DWORD PTR [eax]
	mov	DWORD PTR tv69[ebp], eax
	jmp	SHORT $LN4@operator
$LN3@operator:
	and	DWORD PTR tv69[ebp], 0
$LN4@operator:
	mov	eax, DWORD PTR tv69[ebp]

; 473  : }

	pop	edi
	pop	esi
	pop	ebx
	add	esp, 208				; 000000d0H
	cmp	ebp, esp
	call	__RTC_CheckEsp
	mov	esp, ebp
	pop	ebp
	ret	0
??B_bstr_t@@QBEPB_WXZ ENDP				; _bstr_t::operator wchar_t const *
_TEXT	ENDS
; Function compile flags: /Odsp /RTCsu /ZI
; File c:\program files (x86)\microsoft visual studio 12.0\vc\include\comutil.h
;	COMDAT ??H@YA?AV_bstr_t@@PB_WABV0@@Z
_TEXT	SEGMENT
$T2 = -228						; size = 4
_b$ = -24						; size = 4
__$ArrayPad$ = -16					; size = 4
__$EHRec$ = -12						; size = 12
___$ReturnUdt$ = 8					; size = 4
_s1$ = 12						; size = 4
_s2$ = 16						; size = 4
??H@YA?AV_bstr_t@@PB_WABV0@@Z PROC			; operator+, COMDAT

; 455  : {

	push	ebp
	mov	ebp, esp
	push	-1
	push	__ehhandler$??H@YA?AV_bstr_t@@PB_WABV0@@Z
	mov	eax, DWORD PTR fs:0
	push	eax
	sub	esp, 220				; 000000dcH
	push	ebx
	push	esi
	push	edi
	lea	edi, DWORD PTR [ebp-232]
	push	55					; 00000037H
	pop	ecx
	mov	eax, -858993460				; ccccccccH
	rep stosd
	mov	eax, DWORD PTR ___security_cookie
	xor	eax, ebp
	mov	DWORD PTR __$ArrayPad$[ebp], eax
	push	eax
	lea	eax, DWORD PTR __$EHRec$[ebp]
	mov	DWORD PTR fs:0, eax
	and	DWORD PTR $T2[ebp], 0

; 456  :     _bstr_t b = s1; 

	push	4
	lea	ecx, DWORD PTR _b$[ebp]
	call	?__autoclassinit2@_bstr_t@@QAEXI@Z
	push	DWORD PTR _s1$[ebp]
	lea	ecx, DWORD PTR _b$[ebp]
	call	??0_bstr_t@@QAE@PB_W@Z			; _bstr_t::_bstr_t
	and	DWORD PTR __$EHRec$[ebp+8], 0

; 457  :     b += s2;

	push	DWORD PTR _s2$[ebp]
	lea	ecx, DWORD PTR _b$[ebp]
	call	??Y_bstr_t@@QAEAAV0@ABV0@@Z		; _bstr_t::operator+=

; 458  : 
; 459  :     return b;

	lea	eax, DWORD PTR _b$[ebp]
	push	eax
	mov	ecx, DWORD PTR ___$ReturnUdt$[ebp]
	call	??0_bstr_t@@QAE@ABV0@@Z			; _bstr_t::_bstr_t
	mov	eax, DWORD PTR $T2[ebp]
	or	eax, 1
	mov	DWORD PTR $T2[ebp], eax
	or	DWORD PTR __$EHRec$[ebp+8], -1
	lea	ecx, DWORD PTR _b$[ebp]
	call	??1_bstr_t@@QAE@XZ			; _bstr_t::~_bstr_t
	mov	eax, DWORD PTR ___$ReturnUdt$[ebp]

; 460  : }

	push	edx
	mov	ecx, ebp
	push	eax
	lea	edx, DWORD PTR $LN9@operator
	call	@_RTC_CheckStackVars@8
	pop	eax
	pop	edx
	mov	ecx, DWORD PTR __$EHRec$[ebp]
	mov	DWORD PTR fs:0, ecx
	pop	ecx
	pop	edi
	pop	esi
	pop	ebx
	mov	ecx, DWORD PTR __$ArrayPad$[ebp]
	xor	ecx, ebp
	call	@__security_check_cookie@4
	add	esp, 232				; 000000e8H
	cmp	ebp, esp
	call	__RTC_CheckEsp
	mov	esp, ebp
	pop	ebp
	ret	0
	npad	3
$LN9@operator:
	DD	1
	DD	$LN8@operator
$LN8@operator:
	DD	-24					; ffffffe8H
	DD	4
	DD	$LN6@operator
$LN6@operator:
	DB	98					; 00000062H
	DB	0
_TEXT	ENDS
;	COMDAT text$x
text$x	SEGMENT
__unwindfunclet$??H@YA?AV_bstr_t@@PB_WABV0@@Z$0:
	lea	ecx, DWORD PTR _b$[ebp]
	jmp	??1_bstr_t@@QAE@XZ			; _bstr_t::~_bstr_t
__ehhandler$??H@YA?AV_bstr_t@@PB_WABV0@@Z:
	mov	edx, DWORD PTR [esp+8]
	lea	eax, DWORD PTR [edx+12]
	mov	ecx, DWORD PTR [edx-236]
	xor	ecx, eax
	call	@__security_check_cookie@4
	mov	ecx, DWORD PTR [edx-4]
	xor	ecx, eax
	call	@__security_check_cookie@4
	mov	eax, OFFSET __ehfuncinfo$??H@YA?AV_bstr_t@@PB_WABV0@@Z
	jmp	___CxxFrameHandler3
text$x	ENDS
??H@YA?AV_bstr_t@@PB_WABV0@@Z ENDP			; operator+
; Function compile flags: /Odsp /RTCsu /ZI
; File c:\program files (x86)\microsoft visual studio 12.0\vc\include\comutil.h
;	COMDAT ??Y_bstr_t@@QAEAAV0@ABV0@@Z
_TEXT	SEGMENT
tv75 = -256						; size = 4
$T2 = -248						; size = 4
$T3 = -236						; size = 4
_newData$ = -32						; size = 4
_this$ = -20						; size = 4
__$EHRec$ = -12						; size = 12
_s$ = 8							; size = 4
??Y_bstr_t@@QAEAAV0@ABV0@@Z PROC			; _bstr_t::operator+=, COMDAT
; _this$ = ecx

; 413  : {

	push	ebp
	mov	ebp, esp
	push	-1
	push	__ehhandler$??Y_bstr_t@@QAEAAV0@ABV0@@Z
	mov	eax, DWORD PTR fs:0
	push	eax
	sub	esp, 244				; 000000f4H
	push	ebx
	push	esi
	push	edi
	push	ecx
	lea	edi, DWORD PTR [ebp-256]
	push	61					; 0000003dH
	pop	ecx
	mov	eax, -858993460				; ccccccccH
	rep stosd
	pop	ecx
	mov	eax, DWORD PTR ___security_cookie
	xor	eax, ebp
	push	eax
	lea	eax, DWORD PTR __$EHRec$[ebp]
	mov	DWORD PTR fs:0, eax
	mov	DWORD PTR _this$[ebp], ecx

; 414  :     Data_t* newData = new Data_t(*this, s);

	push	12					; 0000000cH
	call	??2Data_t@_bstr_t@@SAPAXI@Z		; _bstr_t::Data_t::operator new
	pop	ecx
	mov	DWORD PTR $T3[ebp], eax
	and	DWORD PTR __$EHRec$[ebp+8], 0
	cmp	DWORD PTR $T3[ebp], 0
	je	SHORT $LN5@operator
	push	12					; 0000000cH
	mov	ecx, DWORD PTR $T3[ebp]
	call	?__autoclassinit2@Data_t@_bstr_t@@QAEXI@Z
	push	DWORD PTR _s$[ebp]
	push	DWORD PTR _this$[ebp]
	mov	ecx, DWORD PTR $T3[ebp]
	call	??0Data_t@_bstr_t@@QAE@ABV1@0@Z		; _bstr_t::Data_t::Data_t
	mov	DWORD PTR tv75[ebp], eax
	jmp	SHORT $LN6@operator
$LN5@operator:
	and	DWORD PTR tv75[ebp], 0
$LN6@operator:
	mov	eax, DWORD PTR tv75[ebp]
	mov	DWORD PTR $T2[ebp], eax
	or	DWORD PTR __$EHRec$[ebp+8], -1
	mov	eax, DWORD PTR $T2[ebp]
	mov	DWORD PTR _newData$[ebp], eax

; 415  :     if (newData == NULL) {

	cmp	DWORD PTR _newData$[ebp], 0
	jne	SHORT $LN2@operator

; 416  :         _com_issue_error(E_OUTOFMEMORY);

	push	-2147024882				; 8007000eH
	call	?_com_issue_error@@YGXJ@Z		; _com_issue_error

; 417  :     }
; 418  :     else {

	jmp	SHORT $LN1@operator
$LN2@operator:

; 419  :         _Free();

	mov	ecx, DWORD PTR _this$[ebp]
	call	?_Free@_bstr_t@@AAEXXZ			; _bstr_t::_Free

; 420  :         m_Data = newData;

	mov	eax, DWORD PTR _this$[ebp]
	mov	ecx, DWORD PTR _newData$[ebp]
	mov	DWORD PTR [eax], ecx
$LN1@operator:

; 421  :     }
; 422  : 
; 423  :     return *this;

	mov	eax, DWORD PTR _this$[ebp]
$LN4@operator:

; 424  : }

	mov	ecx, DWORD PTR __$EHRec$[ebp]
	mov	DWORD PTR fs:0, ecx
	pop	ecx
	pop	edi
	pop	esi
	pop	ebx
	add	esp, 256				; 00000100H
	cmp	ebp, esp
	call	__RTC_CheckEsp
	mov	esp, ebp
	pop	ebp
	ret	4
_TEXT	ENDS
;	COMDAT text$x
text$x	SEGMENT
__unwindfunclet$??Y_bstr_t@@QAEAAV0@ABV0@@Z$0:
	push	DWORD PTR $T3[ebp]
	call	??3@YAXPAX@Z				; operator delete
	pop	ecx
	ret	0
__ehhandler$??Y_bstr_t@@QAEAAV0@ABV0@@Z:
	mov	edx, DWORD PTR [esp+8]
	lea	eax, DWORD PTR [edx+12]
	mov	ecx, DWORD PTR [edx-260]
	xor	ecx, eax
	call	@__security_check_cookie@4
	mov	eax, OFFSET __ehfuncinfo$??Y_bstr_t@@QAEAAV0@ABV0@@Z
	jmp	___CxxFrameHandler3
text$x	ENDS
??Y_bstr_t@@QAEAAV0@ABV0@@Z ENDP			; _bstr_t::operator+=
; Function compile flags: /Odsp /RTCsu /ZI
; File c:\program files (x86)\microsoft visual studio 12.0\vc\include\comutil.h
;	COMDAT ??1_bstr_t@@QAE@XZ
_TEXT	SEGMENT
_this$ = -8						; size = 4
??1_bstr_t@@QAE@XZ PROC					; _bstr_t::~_bstr_t, COMDAT
; _this$ = ecx

; 342  : {

	push	ebp
	mov	ebp, esp
	sub	esp, 204				; 000000ccH
	push	ebx
	push	esi
	push	edi
	push	ecx
	lea	edi, DWORD PTR [ebp-204]
	push	51					; 00000033H
	pop	ecx
	mov	eax, -858993460				; ccccccccH
	rep stosd
	pop	ecx
	mov	DWORD PTR _this$[ebp], ecx

; 343  :     _Free();

	mov	ecx, DWORD PTR _this$[ebp]
	call	?_Free@_bstr_t@@AAEXXZ			; _bstr_t::_Free

; 344  : }

	pop	edi
	pop	esi
	pop	ebx
	add	esp, 204				; 000000ccH
	cmp	ebp, esp
	call	__RTC_CheckEsp
	mov	esp, ebp
	pop	ebp
	ret	0
??1_bstr_t@@QAE@XZ ENDP					; _bstr_t::~_bstr_t
_TEXT	ENDS
; Function compile flags: /Odsp /RTCsu /ZI
; File c:\program files (x86)\microsoft visual studio 12.0\vc\include\comutil.h
;	COMDAT ??0_bstr_t@@QAE@PB_W@Z
_TEXT	SEGMENT
tv75 = -244						; size = 4
$T2 = -236						; size = 4
$T3 = -224						; size = 4
_this$ = -20						; size = 4
__$EHRec$ = -12						; size = 12
_s$ = 8							; size = 4
??0_bstr_t@@QAE@PB_W@Z PROC				; _bstr_t::_bstr_t, COMDAT
; _this$ = ecx

; 322  : {

	push	ebp
	mov	ebp, esp
	push	-1
	push	__ehhandler$??0_bstr_t@@QAE@PB_W@Z
	mov	eax, DWORD PTR fs:0
	push	eax
	sub	esp, 232				; 000000e8H
	push	ebx
	push	esi
	push	edi
	push	ecx
	lea	edi, DWORD PTR [ebp-244]
	push	58					; 0000003aH
	pop	ecx
	mov	eax, -858993460				; ccccccccH
	rep stosd
	pop	ecx
	mov	eax, DWORD PTR ___security_cookie
	xor	eax, ebp
	push	eax
	lea	eax, DWORD PTR __$EHRec$[ebp]
	mov	DWORD PTR fs:0, eax
	mov	DWORD PTR _this$[ebp], ecx
	push	12					; 0000000cH
	call	??2Data_t@_bstr_t@@SAPAXI@Z		; _bstr_t::Data_t::operator new
	pop	ecx
	mov	DWORD PTR $T3[ebp], eax
	and	DWORD PTR __$EHRec$[ebp+8], 0
	cmp	DWORD PTR $T3[ebp], 0
	je	SHORT $LN4@bstr_t
	push	12					; 0000000cH
	mov	ecx, DWORD PTR $T3[ebp]
	call	?__autoclassinit2@Data_t@_bstr_t@@QAEXI@Z
	push	DWORD PTR _s$[ebp]
	mov	ecx, DWORD PTR $T3[ebp]
	call	??0Data_t@_bstr_t@@QAE@PB_W@Z		; _bstr_t::Data_t::Data_t
	mov	DWORD PTR tv75[ebp], eax
	jmp	SHORT $LN5@bstr_t
$LN4@bstr_t:
	and	DWORD PTR tv75[ebp], 0
$LN5@bstr_t:
	mov	eax, DWORD PTR tv75[ebp]
	mov	DWORD PTR $T2[ebp], eax
	or	DWORD PTR __$EHRec$[ebp+8], -1
	mov	eax, DWORD PTR _this$[ebp]
	mov	ecx, DWORD PTR $T2[ebp]
	mov	DWORD PTR [eax], ecx

; 323  :     if (m_Data == NULL) {

	mov	eax, DWORD PTR _this$[ebp]
	cmp	DWORD PTR [eax], 0
	jne	SHORT $LN2@bstr_t

; 324  :         _com_issue_error(E_OUTOFMEMORY);

	push	-2147024882				; 8007000eH
	call	?_com_issue_error@@YGXJ@Z		; _com_issue_error
$LN2@bstr_t:

; 325  :     }
; 326  : }

	mov	eax, DWORD PTR _this$[ebp]
$LN3@bstr_t:
	mov	ecx, DWORD PTR __$EHRec$[ebp]
	mov	DWORD PTR fs:0, ecx
	pop	ecx
	pop	edi
	pop	esi
	pop	ebx
	add	esp, 244				; 000000f4H
	cmp	ebp, esp
	call	__RTC_CheckEsp
	mov	esp, ebp
	pop	ebp
	ret	4
_TEXT	ENDS
;	COMDAT text$x
text$x	SEGMENT
__unwindfunclet$??0_bstr_t@@QAE@PB_W@Z$0:
	push	DWORD PTR $T3[ebp]
	call	??3@YAXPAX@Z				; operator delete
	pop	ecx
	ret	0
__ehhandler$??0_bstr_t@@QAE@PB_W@Z:
	mov	edx, DWORD PTR [esp+8]
	lea	eax, DWORD PTR [edx+12]
	mov	ecx, DWORD PTR [edx-248]
	xor	ecx, eax
	call	@__security_check_cookie@4
	mov	eax, OFFSET __ehfuncinfo$??0_bstr_t@@QAE@PB_W@Z
	jmp	___CxxFrameHandler3
text$x	ENDS
??0_bstr_t@@QAE@PB_W@Z ENDP				; _bstr_t::_bstr_t
; Function compile flags: /Odsp /RTCsu /ZI
; File c:\program files (x86)\microsoft visual studio 12.0\vc\include\comutil.h
;	COMDAT ??0_bstr_t@@QAE@PBD@Z
_TEXT	SEGMENT
tv75 = -244						; size = 4
$T2 = -236						; size = 4
$T3 = -224						; size = 4
_this$ = -20						; size = 4
__$EHRec$ = -12						; size = 12
_s$ = 8							; size = 4
??0_bstr_t@@QAE@PBD@Z PROC				; _bstr_t::_bstr_t, COMDAT
; _this$ = ecx

; 312  : {

	push	ebp
	mov	ebp, esp
	push	-1
	push	__ehhandler$??0_bstr_t@@QAE@PBD@Z
	mov	eax, DWORD PTR fs:0
	push	eax
	sub	esp, 232				; 000000e8H
	push	ebx
	push	esi
	push	edi
	push	ecx
	lea	edi, DWORD PTR [ebp-244]
	push	58					; 0000003aH
	pop	ecx
	mov	eax, -858993460				; ccccccccH
	rep stosd
	pop	ecx
	mov	eax, DWORD PTR ___security_cookie
	xor	eax, ebp
	push	eax
	lea	eax, DWORD PTR __$EHRec$[ebp]
	mov	DWORD PTR fs:0, eax
	mov	DWORD PTR _this$[ebp], ecx
	push	12					; 0000000cH
	call	??2Data_t@_bstr_t@@SAPAXI@Z		; _bstr_t::Data_t::operator new
	pop	ecx
	mov	DWORD PTR $T3[ebp], eax
	and	DWORD PTR __$EHRec$[ebp+8], 0
	cmp	DWORD PTR $T3[ebp], 0
	je	SHORT $LN4@bstr_t
	push	12					; 0000000cH
	mov	ecx, DWORD PTR $T3[ebp]
	call	?__autoclassinit2@Data_t@_bstr_t@@QAEXI@Z
	push	DWORD PTR _s$[ebp]
	mov	ecx, DWORD PTR $T3[ebp]
	call	??0Data_t@_bstr_t@@QAE@PBD@Z		; _bstr_t::Data_t::Data_t
	mov	DWORD PTR tv75[ebp], eax
	jmp	SHORT $LN5@bstr_t
$LN4@bstr_t:
	and	DWORD PTR tv75[ebp], 0
$LN5@bstr_t:
	mov	eax, DWORD PTR tv75[ebp]
	mov	DWORD PTR $T2[ebp], eax
	or	DWORD PTR __$EHRec$[ebp+8], -1
	mov	eax, DWORD PTR _this$[ebp]
	mov	ecx, DWORD PTR $T2[ebp]
	mov	DWORD PTR [eax], ecx

; 313  :     if (m_Data == NULL) {

	mov	eax, DWORD PTR _this$[ebp]
	cmp	DWORD PTR [eax], 0
	jne	SHORT $LN2@bstr_t

; 314  :         _com_issue_error(E_OUTOFMEMORY);

	push	-2147024882				; 8007000eH
	call	?_com_issue_error@@YGXJ@Z		; _com_issue_error
$LN2@bstr_t:

; 315  :     }
; 316  : }

	mov	eax, DWORD PTR _this$[ebp]
$LN3@bstr_t:
	mov	ecx, DWORD PTR __$EHRec$[ebp]
	mov	DWORD PTR fs:0, ecx
	pop	ecx
	pop	edi
	pop	esi
	pop	ebx
	add	esp, 244				; 000000f4H
	cmp	ebp, esp
	call	__RTC_CheckEsp
	mov	esp, ebp
	pop	ebp
	ret	4
_TEXT	ENDS
;	COMDAT text$x
text$x	SEGMENT
__unwindfunclet$??0_bstr_t@@QAE@PBD@Z$0:
	push	DWORD PTR $T3[ebp]
	call	??3@YAXPAX@Z				; operator delete
	pop	ecx
	ret	0
__ehhandler$??0_bstr_t@@QAE@PBD@Z:
	mov	edx, DWORD PTR [esp+8]
	lea	eax, DWORD PTR [edx+12]
	mov	ecx, DWORD PTR [edx-248]
	xor	ecx, eax
	call	@__security_check_cookie@4
	mov	eax, OFFSET __ehfuncinfo$??0_bstr_t@@QAE@PBD@Z
	jmp	___CxxFrameHandler3
text$x	ENDS
??0_bstr_t@@QAE@PBD@Z ENDP				; _bstr_t::_bstr_t
; Function compile flags: /Odsp /RTCsu /ZI
; File c:\program files (x86)\microsoft visual studio 12.0\vc\include\comutil.h
;	COMDAT ??0_bstr_t@@QAE@ABV0@@Z
_TEXT	SEGMENT
_this$ = -8						; size = 4
_s$ = 8							; size = 4
??0_bstr_t@@QAE@ABV0@@Z PROC				; _bstr_t::_bstr_t, COMDAT
; _this$ = ecx

; 304  : {

	push	ebp
	mov	ebp, esp
	sub	esp, 204				; 000000ccH
	push	ebx
	push	esi
	push	edi
	push	ecx
	lea	edi, DWORD PTR [ebp-204]
	push	51					; 00000033H
	pop	ecx
	mov	eax, -858993460				; ccccccccH
	rep stosd
	pop	ecx
	mov	DWORD PTR _this$[ebp], ecx
	mov	eax, DWORD PTR _this$[ebp]
	mov	ecx, DWORD PTR _s$[ebp]
	mov	ecx, DWORD PTR [ecx]
	mov	DWORD PTR [eax], ecx

; 305  :     _AddRef();

	mov	ecx, DWORD PTR _this$[ebp]
	call	?_AddRef@_bstr_t@@AAEXXZ		; _bstr_t::_AddRef

; 306  : }

	mov	eax, DWORD PTR _this$[ebp]
	pop	edi
	pop	esi
	pop	ebx
	add	esp, 204				; 000000ccH
	cmp	ebp, esp
	call	__RTC_CheckEsp
	mov	esp, ebp
	pop	ebp
	ret	4
??0_bstr_t@@QAE@ABV0@@Z ENDP				; _bstr_t::_bstr_t
_TEXT	ENDS
; Function compile flags: /Odsp /RTCsu /ZI
; File c:\program files (x86)\microsoft visual studio 12.0\vc\include\comutil.h
;	COMDAT ?UIntMult@_com_util@@YAJIIPAI@Z
_TEXT	SEGMENT
_ull64Result$ = -12					; size = 8
_uMultiplicand$ = 8					; size = 4
_uMultiplier$ = 12					; size = 4
_puResult$ = 16						; size = 4
?UIntMult@_com_util@@YAJIIPAI@Z PROC			; _com_util::UIntMult, COMDAT

; 111  : 	{

	push	ebp
	mov	ebp, esp
	sub	esp, 208				; 000000d0H
	push	ebx
	push	esi
	push	edi
	lea	edi, DWORD PTR [ebp-208]
	push	52					; 00000034H
	pop	ecx
	mov	eax, -858993460				; ccccccccH
	rep stosd

; 112  : 		ULONGLONG ull64Result = UInt32x32To64(uMultiplicand, uMultiplier);

	mov	eax, DWORD PTR _uMultiplicand$[ebp]
	mul	DWORD PTR _uMultiplier$[ebp]
	mov	DWORD PTR _ull64Result$[ebp], eax
	mov	DWORD PTR _ull64Result$[ebp+4], edx

; 113  : 		if(ull64Result <= INTSAFE_UINT_MAX)

	cmp	DWORD PTR _ull64Result$[ebp+4], 0
	ja	SHORT $LN1@UIntMult
	jb	SHORT $LN4@UIntMult
	cmp	DWORD PTR _ull64Result$[ebp], -1
	ja	SHORT $LN1@UIntMult
$LN4@UIntMult:

; 114  : 		{
; 115  : 			*puResult = (UINT)ull64Result;

	mov	eax, DWORD PTR _ull64Result$[ebp]
	mov	ecx, DWORD PTR _puResult$[ebp]
	mov	DWORD PTR [ecx], eax

; 116  : 			return S_OK;

	xor	eax, eax
	jmp	SHORT $LN2@UIntMult
$LN1@UIntMult:

; 117  : 		}
; 118  : 		return INTSAFE_E_ARITHMETIC_OVERFLOW;

	mov	eax, -2147024362			; 80070216H
$LN2@UIntMult:

; 119  : 	}

	pop	edi
	pop	esi
	pop	ebx
	mov	esp, ebp
	pop	ebp
	ret	0
?UIntMult@_com_util@@YAJIIPAI@Z ENDP			; _com_util::UIntMult
_TEXT	ENDS
; Function compile flags: /Odsp /RTCsu /ZI
; File c:\program files (x86)\microsoft visual studio 12.0\vc\include\comutil.h
;	COMDAT ?UIntAdd@_com_util@@YAJIIPAI@Z
_TEXT	SEGMENT
_uAugend$ = 8						; size = 4
_uAddend$ = 12						; size = 4
_puResult$ = 16						; size = 4
?UIntAdd@_com_util@@YAJIIPAI@Z PROC			; _com_util::UIntAdd, COMDAT

; 101  : 	{

	push	ebp
	mov	ebp, esp
	sub	esp, 192				; 000000c0H
	push	ebx
	push	esi
	push	edi
	lea	edi, DWORD PTR [ebp-192]
	push	48					; 00000030H
	pop	ecx
	mov	eax, -858993460				; ccccccccH
	rep stosd

; 102  : 		if((uAugend + uAddend) < uAddend)

	mov	eax, DWORD PTR _uAugend$[ebp]
	add	eax, DWORD PTR _uAddend$[ebp]
	cmp	eax, DWORD PTR _uAddend$[ebp]
	jae	SHORT $LN1@UIntAdd

; 103  : 		{
; 104  : 			return INTSAFE_E_ARITHMETIC_OVERFLOW;

	mov	eax, -2147024362			; 80070216H
	jmp	SHORT $LN2@UIntAdd
$LN1@UIntAdd:

; 105  : 		}
; 106  : 		*puResult = uAugend + uAddend;

	mov	eax, DWORD PTR _uAugend$[ebp]
	add	eax, DWORD PTR _uAddend$[ebp]
	mov	ecx, DWORD PTR _puResult$[ebp]
	mov	DWORD PTR [ecx], eax

; 107  : 		return S_OK;

	xor	eax, eax
$LN2@UIntAdd:

; 108  : 	}

	pop	edi
	pop	esi
	pop	ebx
	mov	esp, ebp
	pop	ebp
	ret	0
?UIntAdd@_com_util@@YAJIIPAI@Z ENDP			; _com_util::UIntAdd
_TEXT	ENDS
; Function compile flags: /Odsp /RTCsu /ZI
;	COMDAT ?__autoclassinit2@CFileDialog@@QAEXI@Z
_TEXT	SEGMENT
_this$ = -8						; size = 4
_classSize$ = 8						; size = 4
?__autoclassinit2@CFileDialog@@QAEXI@Z PROC		; CFileDialog::__autoclassinit2, COMDAT
; _this$ = ecx
	push	ebp
	mov	ebp, esp
	sub	esp, 204				; 000000ccH
	push	ebx
	push	esi
	push	edi
	push	ecx
	lea	edi, DWORD PTR [ebp-204]
	push	51					; 00000033H
	pop	ecx
	mov	eax, -858993460				; ccccccccH
	rep stosd
	pop	ecx
	mov	DWORD PTR _this$[ebp], ecx
	push	DWORD PTR _classSize$[ebp]
	push	0
	push	DWORD PTR _this$[ebp]
	call	_memset
	add	esp, 12					; 0000000cH
	pop	edi
	pop	esi
	pop	ebx
	add	esp, 204				; 000000ccH
	cmp	ebp, esp
	call	__RTC_CheckEsp
	mov	esp, ebp
	pop	ebp
	ret	4
?__autoclassinit2@CFileDialog@@QAEXI@Z ENDP		; CFileDialog::__autoclassinit2
_TEXT	ENDS
; Function compile flags: /Odsp /RTCsu /ZI
; File c:\program files (x86)\microsoft visual studio 12.0\vc\atlmfc\include\atltime.h
;	COMDAT ?GetSecond@CTime@ATL@@QBEHXZ
_TEXT	SEGMENT
tv69 = -268						; size = 4
_ptm$ = -68						; size = 4
_ttm$ = -56						; size = 36
_this$ = -12						; size = 4
__$ArrayPad$ = -4					; size = 4
?GetSecond@CTime@ATL@@QBEHXZ PROC			; ATL::CTime::GetSecond, COMDAT
; _this$ = ecx

; 695  : {

	push	ebp
	mov	ebp, esp
	sub	esp, 268				; 0000010cH
	push	ebx
	push	esi
	push	edi
	push	ecx
	lea	edi, DWORD PTR [ebp-268]
	push	67					; 00000043H
	pop	ecx
	mov	eax, -858993460				; ccccccccH
	rep stosd
	pop	ecx
	mov	eax, DWORD PTR ___security_cookie
	xor	eax, ebp
	mov	DWORD PTR __$ArrayPad$[ebp], eax
	mov	DWORD PTR _this$[ebp], ecx

; 696  : 	struct tm ttm;
; 697  : 	struct tm * ptm;
; 698  : 
; 699  : 	ptm = GetLocalTm(&ttm);

	lea	eax, DWORD PTR _ttm$[ebp]
	push	eax
	mov	ecx, DWORD PTR _this$[ebp]
	call	?GetLocalTm@CTime@ATL@@QBEPAUtm@@PAU3@@Z ; ATL::CTime::GetLocalTm
	mov	DWORD PTR _ptm$[ebp], eax

; 700  : 	return ptm ? ptm->tm_sec : -1 ;

	cmp	DWORD PTR _ptm$[ebp], 0
	je	SHORT $LN3@GetSecond
	mov	eax, DWORD PTR _ptm$[ebp]
	mov	eax, DWORD PTR [eax]
	mov	DWORD PTR tv69[ebp], eax
	jmp	SHORT $LN4@GetSecond
$LN3@GetSecond:
	or	DWORD PTR tv69[ebp], -1
$LN4@GetSecond:
	mov	eax, DWORD PTR tv69[ebp]

; 701  : }

	push	edx
	mov	ecx, ebp
	push	eax
	lea	edx, DWORD PTR $LN7@GetSecond
	call	@_RTC_CheckStackVars@8
	pop	eax
	pop	edx
	pop	edi
	pop	esi
	pop	ebx
	mov	ecx, DWORD PTR __$ArrayPad$[ebp]
	xor	ecx, ebp
	call	@__security_check_cookie@4
	add	esp, 268				; 0000010cH
	cmp	ebp, esp
	call	__RTC_CheckEsp
	mov	esp, ebp
	pop	ebp
	ret	0
	npad	3
$LN7@GetSecond:
	DD	1
	DD	$LN6@GetSecond
$LN6@GetSecond:
	DD	-56					; ffffffc8H
	DD	36					; 00000024H
	DD	$LN5@GetSecond
$LN5@GetSecond:
	DB	116					; 00000074H
	DB	116					; 00000074H
	DB	109					; 0000006dH
	DB	0
?GetSecond@CTime@ATL@@QBEHXZ ENDP			; ATL::CTime::GetSecond
_TEXT	ENDS
; Function compile flags: /Odsp /RTCsu /ZI
; File c:\program files (x86)\microsoft visual studio 12.0\vc\atlmfc\include\atltime.h
;	COMDAT ?GetMinute@CTime@ATL@@QBEHXZ
_TEXT	SEGMENT
tv69 = -268						; size = 4
_ptm$ = -68						; size = 4
_ttm$ = -56						; size = 36
_this$ = -12						; size = 4
__$ArrayPad$ = -4					; size = 4
?GetMinute@CTime@ATL@@QBEHXZ PROC			; ATL::CTime::GetMinute, COMDAT
; _this$ = ecx

; 686  : {

	push	ebp
	mov	ebp, esp
	sub	esp, 268				; 0000010cH
	push	ebx
	push	esi
	push	edi
	push	ecx
	lea	edi, DWORD PTR [ebp-268]
	push	67					; 00000043H
	pop	ecx
	mov	eax, -858993460				; ccccccccH
	rep stosd
	pop	ecx
	mov	eax, DWORD PTR ___security_cookie
	xor	eax, ebp
	mov	DWORD PTR __$ArrayPad$[ebp], eax
	mov	DWORD PTR _this$[ebp], ecx

; 687  : 	struct tm ttm;
; 688  : 	struct tm * ptm;
; 689  : 
; 690  : 	ptm = GetLocalTm(&ttm);

	lea	eax, DWORD PTR _ttm$[ebp]
	push	eax
	mov	ecx, DWORD PTR _this$[ebp]
	call	?GetLocalTm@CTime@ATL@@QBEPAUtm@@PAU3@@Z ; ATL::CTime::GetLocalTm
	mov	DWORD PTR _ptm$[ebp], eax

; 691  : 	return ptm ? ptm->tm_min : -1 ;

	cmp	DWORD PTR _ptm$[ebp], 0
	je	SHORT $LN3@GetMinute
	mov	eax, DWORD PTR _ptm$[ebp]
	mov	eax, DWORD PTR [eax+4]
	mov	DWORD PTR tv69[ebp], eax
	jmp	SHORT $LN4@GetMinute
$LN3@GetMinute:
	or	DWORD PTR tv69[ebp], -1
$LN4@GetMinute:
	mov	eax, DWORD PTR tv69[ebp]

; 692  : }

	push	edx
	mov	ecx, ebp
	push	eax
	lea	edx, DWORD PTR $LN7@GetMinute
	call	@_RTC_CheckStackVars@8
	pop	eax
	pop	edx
	pop	edi
	pop	esi
	pop	ebx
	mov	ecx, DWORD PTR __$ArrayPad$[ebp]
	xor	ecx, ebp
	call	@__security_check_cookie@4
	add	esp, 268				; 0000010cH
	cmp	ebp, esp
	call	__RTC_CheckEsp
	mov	esp, ebp
	pop	ebp
	ret	0
	npad	2
$LN7@GetMinute:
	DD	1
	DD	$LN6@GetMinute
$LN6@GetMinute:
	DD	-56					; ffffffc8H
	DD	36					; 00000024H
	DD	$LN5@GetMinute
$LN5@GetMinute:
	DB	116					; 00000074H
	DB	116					; 00000074H
	DB	109					; 0000006dH
	DB	0
?GetMinute@CTime@ATL@@QBEHXZ ENDP			; ATL::CTime::GetMinute
_TEXT	ENDS
; Function compile flags: /Odsp /RTCsu /ZI
; File c:\program files (x86)\microsoft visual studio 12.0\vc\atlmfc\include\atltime.h
;	COMDAT ?GetLocalTm@CTime@ATL@@QBEPAUtm@@PAU3@@Z
_TEXT	SEGMENT
tv65 = -280						; size = 4
_err$1 = -80						; size = 4
_ptmTemp$2 = -68					; size = 36
___atl_condVal$3 = -24					; size = 4
_this$ = -12						; size = 4
__$ArrayPad$ = -4					; size = 4
_ptm$ = 8						; size = 4
?GetLocalTm@CTime@ATL@@QBEPAUtm@@PAU3@@Z PROC		; ATL::CTime::GetLocalTm, COMDAT
; _this$ = ecx

; 600  : {

	push	ebp
	mov	ebp, esp
	sub	esp, 280				; 00000118H
	push	ebx
	push	esi
	push	edi
	push	ecx
	lea	edi, DWORD PTR [ebp-280]
	push	70					; 00000046H
	pop	ecx
	mov	eax, -858993460				; ccccccccH
	rep stosd
	pop	ecx
	mov	eax, DWORD PTR ___security_cookie
	xor	eax, ebp
	mov	DWORD PTR __$ArrayPad$[ebp], eax
	mov	DWORD PTR _this$[ebp], ecx
$LN9@GetLocalTm:

; 601  : 	// Ensure ptm is valid
; 602  : 	ATLENSURE( ptm != NULL );

	cmp	DWORD PTR _ptm$[ebp], 0
	je	SHORT $LN12@GetLocalTm
	mov	DWORD PTR tv65[ebp], 1
	jmp	SHORT $LN13@GetLocalTm
$LN12@GetLocalTm:
	and	DWORD PTR tv65[ebp], 0
$LN13@GetLocalTm:
	mov	eax, DWORD PTR tv65[ebp]
	mov	DWORD PTR ___atl_condVal$3[ebp], eax
$LN6@GetLocalTm:
	cmp	DWORD PTR ___atl_condVal$3[ebp], 0
	jne	SHORT $LN5@GetLocalTm
	mov	esi, esp
	push	OFFSET ??_C@_1BM@GBBOFEAE@?$AA_?$AA_?$AAa?$AAt?$AAl?$AA_?$AAc?$AAo?$AAn?$AAd?$AAV?$AAa?$AAl?$AA?$AA@
	push	OFFSET ??_C@_15GANGMFKL@?$AA?$CF?$AAs?$AA?$AA@
	push	0
	mov	eax, DWORD PTR ?__LINE__Var@?1??GetLocalTm@CTime@ATL@@QBEPAUtm@@PAU4@@Z@4JA
	inc	eax
	inc	eax
	push	eax
	push	OFFSET ??_C@_1KA@OKIDMIHM@?$AAc?$AA?3?$AA?2?$AAp?$AAr?$AAo?$AAg?$AAr?$AAa?$AAm?$AA?5?$AAf?$AAi?$AAl?$AAe?$AAs?$AA?5?$AA?$CI?$AAx?$AA8?$AA6?$AA?$CJ?$AA?2?$AAm?$AAi?$AAc?$AAr?$AAo?$AAs?$AAo?$AAf?$AAt@
	push	2
	call	DWORD PTR __imp___CrtDbgReportW
	add	esp, 24					; 00000018H
	cmp	esi, esp
	call	__RTC_CheckEsp
	cmp	eax, 1
	jne	SHORT $LN5@GetLocalTm
	int	3
$LN5@GetLocalTm:
	xor	eax, eax
	jne	SHORT $LN6@GetLocalTm
	cmp	DWORD PTR ___atl_condVal$3[ebp], 0
	jne	SHORT $LN8@GetLocalTm
	push	-2147467259				; 80004005H
	call	?AtlThrowImpl@ATL@@YGXJ@Z		; ATL::AtlThrowImpl
$LN8@GetLocalTm:
	xor	eax, eax
	jne	SHORT $LN9@GetLocalTm

; 603  : 
; 604  : 	if (ptm != NULL)

	cmp	DWORD PTR _ptm$[ebp], 0
	je	SHORT $LN2@GetLocalTm

; 605  : 	{
; 606  : 		struct tm ptmTemp;
; 607  : 		errno_t err = _localtime64_s(&ptmTemp, &m_time);

	mov	esi, esp
	push	DWORD PTR _this$[ebp]
	lea	eax, DWORD PTR _ptmTemp$2[ebp]
	push	eax
	call	DWORD PTR __imp___localtime64_s
	pop	ecx
	pop	ecx
	cmp	esi, esp
	call	__RTC_CheckEsp
	mov	DWORD PTR _err$1[ebp], eax

; 608  : 
; 609  : 		if (err != 0)

	cmp	DWORD PTR _err$1[ebp], 0
	je	SHORT $LN1@GetLocalTm

; 610  : 		{
; 611  : 			return NULL;    // indicates that m_time was not initialized!

	xor	eax, eax
	jmp	SHORT $LN11@GetLocalTm
$LN1@GetLocalTm:

; 612  : 		}
; 613  : 
; 614  : 		*ptm = ptmTemp;

	push	9
	pop	ecx
	lea	esi, DWORD PTR _ptmTemp$2[ebp]
	mov	edi, DWORD PTR _ptm$[ebp]
	rep movsd

; 615  : 		return ptm;

	mov	eax, DWORD PTR _ptm$[ebp]
	jmp	SHORT $LN11@GetLocalTm
$LN2@GetLocalTm:

; 616  : 	}
; 617  : 
; 618  : 	return NULL;

	xor	eax, eax
$LN11@GetLocalTm:

; 619  : }

	push	edx
	mov	ecx, ebp
	push	eax
	lea	edx, DWORD PTR $LN17@GetLocalTm
	call	@_RTC_CheckStackVars@8
	pop	eax
	pop	edx
	pop	edi
	pop	esi
	pop	ebx
	mov	ecx, DWORD PTR __$ArrayPad$[ebp]
	xor	ecx, ebp
	call	@__security_check_cookie@4
	add	esp, 280				; 00000118H
	cmp	ebp, esp
	call	__RTC_CheckEsp
	mov	esp, ebp
	pop	ebp
	ret	4
$LN17@GetLocalTm:
	DD	1
	DD	$LN16@GetLocalTm
$LN16@GetLocalTm:
	DD	-68					; ffffffbcH
	DD	36					; 00000024H
	DD	$LN15@GetLocalTm
$LN15@GetLocalTm:
	DB	112					; 00000070H
	DB	116					; 00000074H
	DB	109					; 0000006dH
	DB	84					; 00000054H
	DB	101					; 00000065H
	DB	109					; 0000006dH
	DB	112					; 00000070H
	DB	0
?GetLocalTm@CTime@ATL@@QBEPAUtm@@PAU3@@Z ENDP		; ATL::CTime::GetLocalTm
_TEXT	ENDS
; Function compile flags: /Odsp /RTCsu /ZI
; File c:\program files (x86)\microsoft visual studio 12.0\vc\atlmfc\include\atltime.h
;	COMDAT ??0CTime@ATL@@QAE@_J@Z
_TEXT	SEGMENT
_this$ = -8						; size = 4
_time$ = 8						; size = 8
??0CTime@ATL@@QAE@_J@Z PROC				; ATL::CTime::CTime, COMDAT
; _this$ = ecx

; 402  : {

	push	ebp
	mov	ebp, esp
	sub	esp, 204				; 000000ccH
	push	ebx
	push	esi
	push	edi
	push	ecx
	lea	edi, DWORD PTR [ebp-204]
	push	51					; 00000033H
	pop	ecx
	mov	eax, -858993460				; ccccccccH
	rep stosd
	pop	ecx
	mov	DWORD PTR _this$[ebp], ecx
	mov	eax, DWORD PTR _this$[ebp]
	mov	ecx, DWORD PTR _time$[ebp]
	mov	DWORD PTR [eax], ecx
	mov	ecx, DWORD PTR _time$[ebp+4]
	mov	DWORD PTR [eax+4], ecx

; 403  : }

	mov	eax, DWORD PTR _this$[ebp]
	pop	edi
	pop	esi
	pop	ebx
	mov	esp, ebp
	pop	ebp
	ret	8
??0CTime@ATL@@QAE@_J@Z ENDP				; ATL::CTime::CTime
_TEXT	ENDS
; Function compile flags: /Odsp /RTCsu /ZI
; File c:\program files (x86)\microsoft visual studio 12.0\vc\atlmfc\include\atltime.h
;	COMDAT ?GetTickCount@CTime@ATL@@SG?AV12@XZ
_TEXT	SEGMENT
___$ReturnUdt$ = 8					; size = 4
?GetTickCount@CTime@ATL@@SG?AV12@XZ PROC		; ATL::CTime::GetTickCount, COMDAT

; 373  : {

	push	ebp
	mov	ebp, esp
	sub	esp, 192				; 000000c0H
	push	ebx
	push	esi
	push	edi
	lea	edi, DWORD PTR [ebp-192]
	push	48					; 00000030H
	pop	ecx
	mov	eax, -858993460				; ccccccccH
	rep stosd

; 374  : 	return( CTime( ::_time64( NULL ) ) );

	mov	esi, esp
	push	0
	call	DWORD PTR __imp___time64
	pop	ecx
	cmp	esi, esp
	call	__RTC_CheckEsp
	push	edx
	push	eax
	mov	ecx, DWORD PTR ___$ReturnUdt$[ebp]
	call	??0CTime@ATL@@QAE@_J@Z			; ATL::CTime::CTime
	mov	eax, DWORD PTR ___$ReturnUdt$[ebp]

; 375  : }

	pop	edi
	pop	esi
	pop	ebx
	add	esp, 192				; 000000c0H
	cmp	ebp, esp
	call	__RTC_CheckEsp
	mov	esp, ebp
	pop	ebp
	ret	4
?GetTickCount@CTime@ATL@@SG?AV12@XZ ENDP		; ATL::CTime::GetTickCount
_TEXT	ENDS
; Function compile flags: /Odsp /RTCsu /ZI
; File c:\program files (x86)\microsoft visual studio 12.0\vc\atlmfc\include\cstringt.h
;	COMDAT ??HATL@@YA?AV?$CStringT@_WV?$StrTraitMFC_DLL@_WV?$ChTraitsCRT@_W@ATL@@@@@0@ABV10@0@Z
_TEXT	SEGMENT
$T2 = -228						; size = 4
_strResult$ = -24					; size = 4
__$ArrayPad$ = -16					; size = 4
__$EHRec$ = -12						; size = 12
___$ReturnUdt$ = 8					; size = 4
_str1$ = 12						; size = 4
_str2$ = 16						; size = 4
??HATL@@YA?AV?$CStringT@_WV?$StrTraitMFC_DLL@_WV?$ChTraitsCRT@_W@ATL@@@@@0@ABV10@0@Z PROC ; ATL::operator+, COMDAT

; 2343 : 	{

	push	ebp
	mov	ebp, esp
	push	-1
	push	__ehhandler$??HATL@@YA?AV?$CStringT@_WV?$StrTraitMFC_DLL@_WV?$ChTraitsCRT@_W@ATL@@@@@0@ABV10@0@Z
	mov	eax, DWORD PTR fs:0
	push	eax
	sub	esp, 220				; 000000dcH
	push	ebx
	push	esi
	push	edi
	lea	edi, DWORD PTR [ebp-232]
	push	55					; 00000037H
	pop	ecx
	mov	eax, -858993460				; ccccccccH
	rep stosd
	mov	eax, DWORD PTR ___security_cookie
	xor	eax, ebp
	mov	DWORD PTR __$ArrayPad$[ebp], eax
	push	eax
	lea	eax, DWORD PTR __$EHRec$[ebp]
	mov	DWORD PTR fs:0, eax
	and	DWORD PTR $T2[ebp], 0

; 2344 : 		CStringT strResult( str1.GetManager() );

	mov	esi, esp
	mov	ecx, DWORD PTR _str1$[ebp]
	call	DWORD PTR __imp_?GetManager@?$CStringT@_WV?$StrTraitMFC_DLL@_WV?$ChTraitsCRT@_W@ATL@@@@@ATL@@QBEPAUIAtlStringMgr@2@XZ
	cmp	esi, esp
	call	__RTC_CheckEsp
	mov	esi, esp
	push	eax
	lea	ecx, DWORD PTR _strResult$[ebp]
	call	DWORD PTR __imp_??0?$CStringT@_WV?$StrTraitMFC_DLL@_WV?$ChTraitsCRT@_W@ATL@@@@@ATL@@QAE@PAUIAtlStringMgr@1@@Z
	cmp	esi, esp
	call	__RTC_CheckEsp
	and	DWORD PTR __$EHRec$[ebp+8], 0

; 2345 : 
; 2346 : 		Concatenate( strResult, str1, str1.GetLength(), str2, str2.GetLength() );

	mov	esi, esp
	mov	ecx, DWORD PTR _str2$[ebp]
	call	DWORD PTR __imp_?GetLength@?$CSimpleStringT@_W$00@ATL@@QBEHXZ
	cmp	esi, esp
	call	__RTC_CheckEsp
	mov	esi, esp
	push	eax
	mov	edi, esp
	mov	ecx, DWORD PTR _str2$[ebp]
	call	DWORD PTR __imp_??B?$CSimpleStringT@_W$00@ATL@@QBEPB_WXZ
	cmp	edi, esp
	call	__RTC_CheckEsp
	push	eax
	mov	edi, esp
	mov	ecx, DWORD PTR _str1$[ebp]
	call	DWORD PTR __imp_?GetLength@?$CSimpleStringT@_W$00@ATL@@QBEHXZ
	cmp	edi, esp
	call	__RTC_CheckEsp
	push	eax
	mov	edi, esp
	mov	ecx, DWORD PTR _str1$[ebp]
	call	DWORD PTR __imp_??B?$CSimpleStringT@_W$00@ATL@@QBEPB_WXZ
	cmp	edi, esp
	call	__RTC_CheckEsp
	push	eax
	lea	eax, DWORD PTR _strResult$[ebp]
	push	eax
	call	DWORD PTR __imp_?Concatenate@?$CSimpleStringT@_W$00@ATL@@KAXAAV12@PB_WH1H@Z
	add	esp, 20					; 00000014H
	cmp	esi, esp
	call	__RTC_CheckEsp

; 2347 : 
; 2348 : 		return( strResult );

	mov	esi, esp
	lea	eax, DWORD PTR _strResult$[ebp]
	push	eax
	mov	ecx, DWORD PTR ___$ReturnUdt$[ebp]
	call	DWORD PTR __imp_??0?$CStringT@_WV?$StrTraitMFC_DLL@_WV?$ChTraitsCRT@_W@ATL@@@@@ATL@@QAE@ABV01@@Z
	cmp	esi, esp
	call	__RTC_CheckEsp
	mov	eax, DWORD PTR $T2[ebp]
	or	eax, 1
	mov	DWORD PTR $T2[ebp], eax
	or	DWORD PTR __$EHRec$[ebp+8], -1
	mov	esi, esp
	lea	ecx, DWORD PTR _strResult$[ebp]
	call	DWORD PTR __imp_??1?$CStringT@_WV?$StrTraitMFC_DLL@_WV?$ChTraitsCRT@_W@ATL@@@@@ATL@@QAE@XZ
	cmp	esi, esp
	call	__RTC_CheckEsp
	mov	eax, DWORD PTR ___$ReturnUdt$[ebp]

; 2349 : 	}

	push	edx
	mov	ecx, ebp
	push	eax
	lea	edx, DWORD PTR $LN9@operator
	call	@_RTC_CheckStackVars@8
	pop	eax
	pop	edx
	mov	ecx, DWORD PTR __$EHRec$[ebp]
	mov	DWORD PTR fs:0, ecx
	pop	ecx
	pop	edi
	pop	esi
	pop	ebx
	mov	ecx, DWORD PTR __$ArrayPad$[ebp]
	xor	ecx, ebp
	call	@__security_check_cookie@4
	add	esp, 232				; 000000e8H
	cmp	ebp, esp
	call	__RTC_CheckEsp
	mov	esp, ebp
	pop	ebp
	ret	0
$LN9@operator:
	DD	1
	DD	$LN8@operator
$LN8@operator:
	DD	-24					; ffffffe8H
	DD	4
	DD	$LN6@operator
$LN6@operator:
	DB	115					; 00000073H
	DB	116					; 00000074H
	DB	114					; 00000072H
	DB	82					; 00000052H
	DB	101					; 00000065H
	DB	115					; 00000073H
	DB	117					; 00000075H
	DB	108					; 0000006cH
	DB	116					; 00000074H
	DB	0
_TEXT	ENDS
;	COMDAT text$x
text$x	SEGMENT
__unwindfunclet$??HATL@@YA?AV?$CStringT@_WV?$StrTraitMFC_DLL@_WV?$ChTraitsCRT@_W@ATL@@@@@0@ABV10@0@Z$0:
	mov	esi, esp
	lea	ecx, DWORD PTR _strResult$[ebp]
	call	DWORD PTR __imp_??1?$CStringT@_WV?$StrTraitMFC_DLL@_WV?$ChTraitsCRT@_W@ATL@@@@@ATL@@QAE@XZ
	cmp	esi, esp
	jmp	__RTC_CheckEsp
__ehhandler$??HATL@@YA?AV?$CStringT@_WV?$StrTraitMFC_DLL@_WV?$ChTraitsCRT@_W@ATL@@@@@0@ABV10@0@Z:
	mov	edx, DWORD PTR [esp+8]
	lea	eax, DWORD PTR [edx+12]
	mov	ecx, DWORD PTR [edx-236]
	xor	ecx, eax
	call	@__security_check_cookie@4
	mov	ecx, DWORD PTR [edx-4]
	xor	ecx, eax
	call	@__security_check_cookie@4
	mov	eax, OFFSET __ehfuncinfo$??HATL@@YA?AV?$CStringT@_WV?$StrTraitMFC_DLL@_WV?$ChTraitsCRT@_W@ATL@@@@@0@ABV10@0@Z
	jmp	___CxxFrameHandler3
text$x	ENDS
??HATL@@YA?AV?$CStringT@_WV?$StrTraitMFC_DLL@_WV?$ChTraitsCRT@_W@ATL@@@@@0@ABV10@0@Z ENDP ; ATL::operator+
; Function compile flags: /Odsp /RTCsu /ZI
; File c:\program files (x86)\microsoft visual studio 12.0\vc\atlmfc\include\atlexcept.h
;	COMDAT ?AtlThrowImpl@ATL@@YGXJ@Z
_TEXT	SEGMENT
$T1 = -204						; size = 8
_hr$ = 8						; size = 4
?AtlThrowImpl@ATL@@YGXJ@Z PROC				; ATL::AtlThrowImpl, COMDAT

; 65   : {

	push	ebp
	mov	ebp, esp
	sub	esp, 208				; 000000d0H
	push	ebx
	push	esi
	push	edi
	lea	edi, DWORD PTR [ebp-208]
	push	52					; 00000034H
	pop	ecx
	mov	eax, -858993460				; ccccccccH
	rep stosd

; 66   : 	ATLTRACE(atlTraceException, 0, _T("AtlThrow: hr = 0x%x\n"), hr );

	push	DWORD PTR _hr$[ebp]
	push	OFFSET ??_C@_1CK@DFMKPFAK@?$AAA?$AAt?$AAl?$AAT?$AAh?$AAr?$AAo?$AAw?$AA?3?$AA?5?$AAh?$AAr?$AA?5?$AA?$DN?$AA?5?$AA0?$AAx?$AA?$CF?$AAx?$AA?6?$AA?$AA@
	push	0
	mov	ecx, OFFSET ?atlTraceException@ATL@@3V?$CTraceCategoryEx@$0CAAA@$0A@@1@A ; ATL::atlTraceException
	call	??B?$CTraceCategoryEx@$0CAAA@$0A@@ATL@@QAEIXZ ; ATL::CTraceCategoryEx<8192,0>::operator unsigned int
	push	eax
	mov	eax, DWORD PTR ?__LINE__Var@?1??AtlThrowImpl@ATL@@YGXJ@Z@4JA
	inc	eax
	push	eax
	push	OFFSET ??_C@_0FC@OFGMOGKO@c?3?2program?5files?5?$CIx86?$CJ?2microsoft@
	lea	ecx, DWORD PTR $T1[ebp]
	call	??0CTraceFileAndLineInfo@ATL@@QAE@PBDH@Z ; ATL::CTraceFileAndLineInfo::CTraceFileAndLineInfo
	push	eax
	call	??RCTraceFileAndLineInfo@ATL@@QBAXHIPB_WZZ ; ATL::CTraceFileAndLineInfo::operator()
	add	esp, 20					; 00000014H

; 67   : #ifdef _AFX
; 68   : 	if( hr == E_OUTOFMEMORY )

	cmp	DWORD PTR _hr$[ebp], -2147024882	; 8007000eH
	jne	SHORT $LN2@AtlThrowIm

; 69   : 	{
; 70   : 		AfxThrowMemoryException();

	call	?AfxThrowMemoryException@@YGXXZ		; AfxThrowMemoryException

; 71   : 	}
; 72   : 	else

	jmp	SHORT $LN4@AtlThrowIm
$LN2@AtlThrowIm:

; 73   : 	{
; 74   : 		AfxThrowOleException( hr );

	push	DWORD PTR _hr$[ebp]
	call	?AfxThrowOleException@@YGXJ@Z		; AfxThrowOleException
$LN4@AtlThrowIm:

; 75   : 	}
; 76   : #else
; 77   : 	throw CAtlException( hr );
; 78   : #endif
; 79   : };

	pop	edi
	pop	esi
	pop	ebx
	add	esp, 208				; 000000d0H
	cmp	ebp, esp
	call	__RTC_CheckEsp
	mov	esp, ebp
	pop	ebp
	ret	4
?AtlThrowImpl@ATL@@YGXJ@Z ENDP				; ATL::AtlThrowImpl
_TEXT	ENDS
; Function compile flags: /Odsp /RTCsu /ZI
; File c:\program files (x86)\microsoft visual studio 12.0\vc\atlmfc\include\atltrace.h
;	COMDAT ??RCTraceFileAndLineInfo@ATL@@QBAXHIPB_WZZ
_TEXT	SEGMENT
_ptr$ = -8						; size = 4
_this$ = 8						; size = 4
_dwCategory$ = 12					; size = 4
_nLevel$ = 16						; size = 4
_pszFmt$ = 20						; size = 4
??RCTraceFileAndLineInfo@ATL@@QBAXHIPB_WZZ PROC		; ATL::CTraceFileAndLineInfo::operator(), COMDAT

; 347  : 	{

	push	ebp
	mov	ebp, esp
	sub	esp, 204				; 000000ccH
	push	ebx
	push	esi
	push	edi
	lea	edi, DWORD PTR [ebp-204]
	push	51					; 00000033H
	pop	ecx
	mov	eax, -858993460				; ccccccccH
	rep stosd

; 348  : 		va_list ptr; va_start(ptr, pszFmt);

	lea	eax, DWORD PTR _pszFmt$[ebp+4]
	mov	DWORD PTR _ptr$[ebp], eax

; 349  : 		ATL::CTrace::TraceV(m_pszFileName, m_nLineNo, dwCategory, nLevel, pszFmt, ptr);

	push	DWORD PTR _ptr$[ebp]
	push	DWORD PTR _pszFmt$[ebp]
	push	DWORD PTR _nLevel$[ebp]
	push	DWORD PTR _dwCategory$[ebp]
	mov	eax, DWORD PTR _this$[ebp]
	push	DWORD PTR [eax+4]
	mov	eax, DWORD PTR _this$[ebp]
	push	DWORD PTR [eax]
	call	?TraceV@CTrace@ATL@@SAXPBDHIIPB_WPAD@Z	; ATL::CTrace::TraceV
	add	esp, 24					; 00000018H

; 350  : 		va_end(ptr);

	and	DWORD PTR _ptr$[ebp], 0

; 351  : 	}

	pop	edi
	pop	esi
	pop	ebx
	add	esp, 204				; 000000ccH
	cmp	ebp, esp
	call	__RTC_CheckEsp
	mov	esp, ebp
	pop	ebp
	ret	0
??RCTraceFileAndLineInfo@ATL@@QBAXHIPB_WZZ ENDP		; ATL::CTraceFileAndLineInfo::operator()
_TEXT	ENDS
; Function compile flags: /Odsp /RTCsu /ZI
; File c:\program files (x86)\microsoft visual studio 12.0\vc\atlmfc\include\atltrace.h
;	COMDAT ??0CTraceFileAndLineInfo@ATL@@QAE@PBDH@Z
_TEXT	SEGMENT
_this$ = -8						; size = 4
_pszFileName$ = 8					; size = 4
_nLineNo$ = 12						; size = 4
??0CTraceFileAndLineInfo@ATL@@QAE@PBDH@Z PROC		; ATL::CTraceFileAndLineInfo::CTraceFileAndLineInfo, COMDAT
; _this$ = ecx

; 323  : 	{

	push	ebp
	mov	ebp, esp
	sub	esp, 204				; 000000ccH
	push	ebx
	push	esi
	push	edi
	push	ecx
	lea	edi, DWORD PTR [ebp-204]
	push	51					; 00000033H
	pop	ecx
	mov	eax, -858993460				; ccccccccH
	rep stosd
	pop	ecx
	mov	DWORD PTR _this$[ebp], ecx
	mov	eax, DWORD PTR _this$[ebp]
	mov	ecx, DWORD PTR _pszFileName$[ebp]
	mov	DWORD PTR [eax], ecx
	mov	eax, DWORD PTR _this$[ebp]
	mov	ecx, DWORD PTR _nLineNo$[ebp]
	mov	DWORD PTR [eax+4], ecx

; 324  : 	}

	mov	eax, DWORD PTR _this$[ebp]
	pop	edi
	pop	esi
	pop	ebx
	mov	esp, ebp
	pop	ebp
	ret	8
??0CTraceFileAndLineInfo@ATL@@QAE@PBDH@Z ENDP		; ATL::CTraceFileAndLineInfo::CTraceFileAndLineInfo
_TEXT	ENDS
; Function compile flags: /Odsp /RTCsu /ZI
; File c:\program files (x86)\microsoft visual studio 12.0\vc\atlmfc\include\atltrace.h
;	COMDAT ?RegisterCategory@CTrace@ATL@@SAXPB_WI@Z
_TEXT	SEGMENT
_pszCategory$ = 8					; size = 4
_nCategory$ = 12					; size = 4
?RegisterCategory@CTrace@ATL@@SAXPB_WI@Z PROC		; ATL::CTrace::RegisterCategory, COMDAT

; 262  : 	{

	push	ebp
	mov	ebp, esp
	sub	esp, 192				; 000000c0H
	push	ebx
	push	esi
	push	edi
	lea	edi, DWORD PTR [ebp-192]
	push	48					; 00000030H
	pop	ecx
	mov	eax, -858993460				; ccccccccH
	rep stosd

; 263  : 		if (pszCategory == nullptr)

	cmp	DWORD PTR _pszCategory$[ebp], 0
	jne	SHORT $LN2@RegisterCa

; 264  : 		{
; 265  : 			return;

	jmp	$LN3@RegisterCa
$LN2@RegisterCa:

; 266  : 		}
; 267  : 
; 268  : 		if (m_nLastCategory >= MaxCategoryArray) 

	cmp	DWORD PTR ?m_nLastCategory@CTrace@ATL@@1IA, 32 ; ATL::CTrace::m_nLastCategory, 00000020H
	jb	SHORT $LN1@RegisterCa

; 269  : 		{
; 270  : 			ATLASSERT(false && "Too many categories defined");

	xor	eax, eax
	jne	SHORT $LN5@RegisterCa
	mov	esi, esp
	push	OFFSET ??_C@_1EO@EBPPKGOM@?$AAf?$AAa?$AAl?$AAs?$AAe?$AA?5?$AA?$CG?$AA?$CG?$AA?5?$AA?$CC?$AAT?$AAo?$AAo?$AA?5?$AAm?$AAa?$AAn?$AAy?$AA?5?$AAc?$AAa?$AAt?$AAe?$AAg?$AAo?$AAr?$AAi?$AAe?$AAs?$AA?5?$AAd?$AAe@
	push	OFFSET ??_C@_15GANGMFKL@?$AA?$CF?$AAs?$AA?$AA@
	push	0
	push	270					; 0000010eH
	push	OFFSET ??_C@_1KC@GEMPEEJK@?$AAc?$AA?3?$AA?2?$AAp?$AAr?$AAo?$AAg?$AAr?$AAa?$AAm?$AA?5?$AAf?$AAi?$AAl?$AAe?$AAs?$AA?5?$AA?$CI?$AAx?$AA8?$AA6?$AA?$CJ?$AA?2?$AAm?$AAi?$AAc?$AAr?$AAo?$AAs?$AAo?$AAf?$AAt@
	push	2
	call	DWORD PTR __imp___CrtDbgReportW
	add	esp, 24					; 00000018H
	cmp	esi, esp
	call	__RTC_CheckEsp
	cmp	eax, 1
	jne	SHORT $LN5@RegisterCa
	int	3
$LN5@RegisterCa:

; 271  : 			return;

	jmp	SHORT $LN3@RegisterCa
$LN1@RegisterCa:

; 272  : 		}
; 273  : 
; 274  : 		m_nMap[m_nLastCategory].nCategory = nCategory;

	imul	eax, DWORD PTR ?m_nLastCategory@CTrace@ATL@@1IA, 260 ; ATL::CTrace::m_nLastCategory
	mov	ecx, DWORD PTR _nCategory$[ebp]
	mov	DWORD PTR ?m_nMap@CTrace@ATL@@1PAUCategoryMap@12@A[eax], ecx

; 275  : #ifdef _UNICODE
; 276  : 		wcscpy_s(m_nMap[m_nLastCategory].categryName, MaxLengthOfCategoryName - 1, pszCategory);

	mov	esi, esp
	push	DWORD PTR _pszCategory$[ebp]
	push	127					; 0000007fH
	imul	eax, DWORD PTR ?m_nLastCategory@CTrace@ATL@@1IA, 260 ; ATL::CTrace::m_nLastCategory
	add	eax, OFFSET ?m_nMap@CTrace@ATL@@1PAUCategoryMap@12@A+4
	push	eax
	call	DWORD PTR __imp__wcscpy_s
	add	esp, 12					; 0000000cH
	cmp	esi, esp
	call	__RTC_CheckEsp

; 277  : #else
; 278  : 		wchar_t buffer[MaxLengthOfCategoryName] = { 0 };	
; 279  : 		swprintf_s(buffer, MaxLengthOfCategoryName - 1, L"%S", pszCategory);
; 280  : 		wcscpy_s(m_nMap[m_nLastCategory].categryName, MaxLengthOfCategoryName - 1, buffer);
; 281  : #endif
; 282  : 	
; 283  : 		m_nLastCategory++;

	mov	eax, DWORD PTR ?m_nLastCategory@CTrace@ATL@@1IA ; ATL::CTrace::m_nLastCategory
	inc	eax
	mov	DWORD PTR ?m_nLastCategory@CTrace@ATL@@1IA, eax ; ATL::CTrace::m_nLastCategory
$LN3@RegisterCa:

; 284  : 	}

	pop	edi
	pop	esi
	pop	ebx
	add	esp, 192				; 000000c0H
	cmp	ebp, esp
	call	__RTC_CheckEsp
	mov	esp, ebp
	pop	ebp
	ret	0
?RegisterCategory@CTrace@ATL@@SAXPB_WI@Z ENDP		; ATL::CTrace::RegisterCategory
_TEXT	ENDS
; Function compile flags: /Odsp /RTCsu /ZI
; File c:\program files (x86)\microsoft visual studio 12.0\vc\atlmfc\include\atltrace.h
;	COMDAT ?TraceV@CTrace@ATL@@SAXPBDHIIPB_WPAD@Z
_TEXT	SEGMENT
_wszBuf$ = -2056					; size = 2048
__$ArrayPad$ = -4					; size = 4
_pszFileName$ = 8					; size = 4
_nLine$ = 12						; size = 4
_dwCategory$ = 16					; size = 4
_nLevel$ = 20						; size = 4
_pwszFmt$ = 24						; size = 4
_args$ = 28						; size = 4
?TraceV@CTrace@ATL@@SAXPBDHIIPB_WPAD@Z PROC		; ATL::CTrace::TraceV, COMDAT

; 250  : 	{

	push	ebp
	mov	ebp, esp
	sub	esp, 2252				; 000008ccH
	push	ebx
	push	esi
	push	edi
	lea	edi, DWORD PTR [ebp-2252]
	mov	ecx, 563				; 00000233H
	mov	eax, -858993460				; ccccccccH
	rep stosd
	mov	eax, DWORD PTR ___security_cookie
	xor	eax, ebp
	mov	DWORD PTR __$ArrayPad$[ebp], eax

; 251  : 		wchar_t wszBuf[TraceBufferSize] = {'\0'};

	xor	eax, eax
	mov	WORD PTR _wszBuf$[ebp], ax
	push	2046					; 000007feH
	push	0
	lea	eax, DWORD PTR _wszBuf$[ebp+2]
	push	eax
	call	_memset
	add	esp, 12					; 0000000cH

; 252  : 
; 253  : 		if (_vsnwprintf_s(wszBuf, TraceBufferSize, TraceBufferSize - 1, pwszFmt, args) == -1)

	mov	esi, esp
	push	DWORD PTR _args$[ebp]
	push	DWORD PTR _pwszFmt$[ebp]
	push	1023					; 000003ffH
	push	1024					; 00000400H
	lea	eax, DWORD PTR _wszBuf$[ebp]
	push	eax
	call	DWORD PTR __imp___vsnwprintf_s
	add	esp, 20					; 00000014H
	cmp	esi, esp
	call	__RTC_CheckEsp
	cmp	eax, -1
	jne	SHORT $LN1@TraceV

; 254  : 		{
; 255  : 			return;

	jmp	SHORT $LN2@TraceV
$LN1@TraceV:

; 256  : 		}
; 257  : 
; 258  : 		TraceV(pszFileName, nLine, dwCategory, nLevel, wszBuf);

	lea	eax, DWORD PTR _wszBuf$[ebp]
	push	eax
	push	DWORD PTR _nLevel$[ebp]
	push	DWORD PTR _dwCategory$[ebp]
	push	DWORD PTR _nLine$[ebp]
	push	DWORD PTR _pszFileName$[ebp]
	call	?TraceV@CTrace@ATL@@CAXPBDHIIPB_W@Z	; ATL::CTrace::TraceV
	add	esp, 20					; 00000014H
$LN2@TraceV:

; 259  : 	}

	push	edx
	mov	ecx, ebp
	push	eax
	lea	edx, DWORD PTR $LN6@TraceV
	call	@_RTC_CheckStackVars@8
	pop	eax
	pop	edx
	pop	edi
	pop	esi
	pop	ebx
	mov	ecx, DWORD PTR __$ArrayPad$[ebp]
	xor	ecx, ebp
	call	@__security_check_cookie@4
	add	esp, 2252				; 000008ccH
	cmp	ebp, esp
	call	__RTC_CheckEsp
	mov	esp, ebp
	pop	ebp
	ret	0
	npad	3
$LN6@TraceV:
	DD	1
	DD	$LN5@TraceV
$LN5@TraceV:
	DD	-2056					; fffff7f8H
	DD	2048					; 00000800H
	DD	$LN4@TraceV
$LN4@TraceV:
	DB	119					; 00000077H
	DB	115					; 00000073H
	DB	122					; 0000007aH
	DB	66					; 00000042H
	DB	117					; 00000075H
	DB	102					; 00000066H
	DB	0
?TraceV@CTrace@ATL@@SAXPBDHIIPB_WPAD@Z ENDP		; ATL::CTrace::TraceV
_TEXT	ENDS
; Function compile flags: /Odsp /RTCsu /ZI
; File c:\program files (x86)\microsoft visual studio 12.0\vc\atlmfc\include\atltrace.h
;	COMDAT ?TraceV@CTrace@ATL@@CAXPBDHIIPB_W@Z
_TEXT	SEGMENT
_fileName$ = -2608					; size = 520
_pwszCategoryName$ = -2080				; size = 4
_strLen$ = -2068					; size = 4
_wszBuf$ = -2056					; size = 2048
__$ArrayPad$ = -4					; size = 4
_pszFileName$ = 8					; size = 4
_nLine$ = 12						; size = 4
_dwCategory$ = 16					; size = 4
_nLevel$ = 20						; size = 4
_pwszMessage$ = 24					; size = 4
?TraceV@CTrace@ATL@@CAXPBDHIIPB_W@Z PROC		; ATL::CTrace::TraceV, COMDAT

; 149  : 	{

	push	ebp
	mov	ebp, esp
	sub	esp, 2804				; 00000af4H
	push	ebx
	push	esi
	push	edi
	lea	edi, DWORD PTR [ebp-2804]
	mov	ecx, 701				; 000002bdH
	mov	eax, -858993460				; ccccccccH
	rep stosd
	mov	eax, DWORD PTR ___security_cookie
	xor	eax, ebp
	mov	DWORD PTR __$ArrayPad$[ebp], eax

; 150  : 		if (CTrace::m_nLevel == CTrace::DisableTracing || CTrace::m_nLevel < nLevel || (CTrace::m_nCategory & dwCategory) == 0)

	cmp	DWORD PTR ?m_nLevel@CTrace@ATL@@1IA, -1	; ATL::CTrace::m_nLevel
	je	SHORT $LN7@TraceV
	mov	eax, DWORD PTR ?m_nLevel@CTrace@ATL@@1IA ; ATL::CTrace::m_nLevel
	cmp	eax, DWORD PTR _nLevel$[ebp]
	jb	SHORT $LN7@TraceV
	mov	eax, DWORD PTR ?m_nCategory@CTrace@ATL@@1IA ; ATL::CTrace::m_nCategory
	and	eax, DWORD PTR _dwCategory$[ebp]
	jne	SHORT $LN8@TraceV
$LN7@TraceV:

; 151  : 		{
; 152  : 			return;

	jmp	$LN9@TraceV
$LN8@TraceV:

; 153  : 		}
; 154  : 
; 155  : 		wchar_t wszBuf[TraceBufferSize] = {'\0'};

	xor	eax, eax
	mov	WORD PTR _wszBuf$[ebp], ax
	push	2046					; 000007feH
	push	0
	lea	eax, DWORD PTR _wszBuf$[ebp+2]
	push	eax
	call	_memset
	add	esp, 12					; 0000000cH

; 156  : 		int strLen = 0;

	and	DWORD PTR _strLen$[ebp], 0

; 157  : 		const wchar_t *const pwszCategoryName = GetCategoryName(dwCategory);

	push	DWORD PTR _dwCategory$[ebp]
	call	?GetCategoryName@CTrace@ATL@@CAPA_WI@Z	; ATL::CTrace::GetCategoryName
	pop	ecx
	mov	DWORD PTR _pwszCategoryName$[ebp], eax

; 158  : 
; 159  : 		if (pwszCategoryName != nullptr)

	cmp	DWORD PTR _pwszCategoryName$[ebp], 0
	je	SHORT $LN6@TraceV

; 160  : 		{
; 161  : 			if ((strLen = swprintf_s(wszBuf, TraceBufferSize, L"%s - ", pwszCategoryName)) == -1)

	mov	esi, esp
	push	DWORD PTR _pwszCategoryName$[ebp]
	push	OFFSET ??_C@_1M@PLLAHAGD@?$AA?$CF?$AAs?$AA?5?$AA?9?$AA?5?$AA?$AA@
	push	1024					; 00000400H
	lea	eax, DWORD PTR _wszBuf$[ebp]
	push	eax
	call	DWORD PTR __imp__swprintf_s
	add	esp, 16					; 00000010H
	cmp	esi, esp
	call	__RTC_CheckEsp
	mov	DWORD PTR _strLen$[ebp], eax
	cmp	DWORD PTR _strLen$[ebp], -1
	jne	SHORT $LN5@TraceV

; 162  : 			{
; 163  : 				return;

	jmp	$LN9@TraceV
$LN5@TraceV:

; 164  : 			}
; 165  : 		}
; 166  : 		else

	jmp	SHORT $LN4@TraceV
$LN6@TraceV:

; 167  : 		{
; 168  : 			if ((strLen = swprintf_s(wszBuf, TraceBufferSize, L"%u - ", dwCategory)) == -1)

	mov	esi, esp
	push	DWORD PTR _dwCategory$[ebp]
	push	OFFSET ??_C@_1M@PGKOAACE@?$AA?$CF?$AAu?$AA?5?$AA?9?$AA?5?$AA?$AA@
	push	1024					; 00000400H
	lea	eax, DWORD PTR _wszBuf$[ebp]
	push	eax
	call	DWORD PTR __imp__swprintf_s
	add	esp, 16					; 00000010H
	cmp	esi, esp
	call	__RTC_CheckEsp
	mov	DWORD PTR _strLen$[ebp], eax
	cmp	DWORD PTR _strLen$[ebp], -1
	jne	SHORT $LN4@TraceV

; 169  : 			{
; 170  : 				return;

	jmp	$LN9@TraceV
$LN4@TraceV:

; 171  : 			}
; 172  : 		}
; 173  : 
; 174  : 		if ((strLen = swprintf_s(wszBuf + strLen, TraceBufferSize - strLen, L"%s", pwszMessage)) == -1)

	mov	esi, esp
	push	DWORD PTR _pwszMessage$[ebp]
	push	OFFSET ??_C@_15GANGMFKL@?$AA?$CF?$AAs?$AA?$AA@
	mov	eax, 1024				; 00000400H
	sub	eax, DWORD PTR _strLen$[ebp]
	push	eax
	mov	eax, DWORD PTR _strLen$[ebp]
	lea	eax, DWORD PTR _wszBuf$[ebp+eax*2]
	push	eax
	call	DWORD PTR __imp__swprintf_s
	add	esp, 16					; 00000010H
	cmp	esi, esp
	call	__RTC_CheckEsp
	mov	DWORD PTR _strLen$[ebp], eax
	cmp	DWORD PTR _strLen$[ebp], -1
	jne	SHORT $LN2@TraceV

; 175  : 		{
; 176  : 			return;

	jmp	SHORT $LN9@TraceV
$LN2@TraceV:

; 177  : 		}
; 178  : 
; 179  : 		wchar_t fileName[_MAX_PATH] = {'\0'};	

	xor	eax, eax
	mov	WORD PTR _fileName$[ebp], ax
	push	518					; 00000206H
	push	0
	lea	eax, DWORD PTR _fileName$[ebp+2]
	push	eax
	call	_memset
	add	esp, 12					; 0000000cH

; 180  : 		if (swprintf_s(fileName, _MAX_PATH, L"%S", pszFileName) == -1)

	mov	esi, esp
	push	DWORD PTR _pszFileName$[ebp]
	push	OFFSET ??_C@_15MAOEGKJF@?$AA?$CF?$AAS?$AA?$AA@
	push	260					; 00000104H
	lea	eax, DWORD PTR _fileName$[ebp]
	push	eax
	call	DWORD PTR __imp__swprintf_s
	add	esp, 16					; 00000010H
	cmp	esi, esp
	call	__RTC_CheckEsp
	cmp	eax, -1
	jne	SHORT $LN1@TraceV

; 181  : 		{
; 182  : 			return;

	jmp	SHORT $LN9@TraceV
$LN1@TraceV:

; 183  : 		}
; 184  : 
; 185  : 		_CrtDbgReportW(_CRT_WARN, fileName, nLine, nullptr, L"%s", wszBuf);		

	mov	esi, esp
	lea	eax, DWORD PTR _wszBuf$[ebp]
	push	eax
	push	OFFSET ??_C@_15GANGMFKL@?$AA?$CF?$AAs?$AA?$AA@
	push	0
	push	DWORD PTR _nLine$[ebp]
	lea	eax, DWORD PTR _fileName$[ebp]
	push	eax
	push	0
	call	DWORD PTR __imp___CrtDbgReportW
	add	esp, 24					; 00000018H
	cmp	esi, esp
	call	__RTC_CheckEsp
$LN9@TraceV:

; 186  : 	}

	push	edx
	mov	ecx, ebp
	push	eax
	lea	edx, DWORD PTR $LN14@TraceV
	call	@_RTC_CheckStackVars@8
	pop	eax
	pop	edx
	pop	edi
	pop	esi
	pop	ebx
	mov	ecx, DWORD PTR __$ArrayPad$[ebp]
	xor	ecx, ebp
	call	@__security_check_cookie@4
	add	esp, 2804				; 00000af4H
	cmp	ebp, esp
	call	__RTC_CheckEsp
	mov	esp, ebp
	pop	ebp
	ret	0
	npad	3
$LN14@TraceV:
	DD	2
	DD	$LN13@TraceV
$LN13@TraceV:
	DD	-2056					; fffff7f8H
	DD	2048					; 00000800H
	DD	$LN11@TraceV
	DD	-2608					; fffff5d0H
	DD	520					; 00000208H
	DD	$LN12@TraceV
$LN12@TraceV:
	DB	102					; 00000066H
	DB	105					; 00000069H
	DB	108					; 0000006cH
	DB	101					; 00000065H
	DB	78					; 0000004eH
	DB	97					; 00000061H
	DB	109					; 0000006dH
	DB	101					; 00000065H
	DB	0
$LN11@TraceV:
	DB	119					; 00000077H
	DB	115					; 00000073H
	DB	122					; 0000007aH
	DB	66					; 00000042H
	DB	117					; 00000075H
	DB	102					; 00000066H
	DB	0
?TraceV@CTrace@ATL@@CAXPBDHIIPB_W@Z ENDP		; ATL::CTrace::TraceV
_TEXT	ENDS
; Function compile flags: /Odsp /RTCsu /ZI
; File c:\program files (x86)\microsoft visual studio 12.0\vc\atlmfc\include\atltrace.h
;	COMDAT ?GetCategoryName@CTrace@ATL@@CAPA_WI@Z
_TEXT	SEGMENT
_i$1 = -8						; size = 4
_nCategory$ = 8						; size = 4
?GetCategoryName@CTrace@ATL@@CAPA_WI@Z PROC		; ATL::CTrace::GetCategoryName, COMDAT

; 131  : 	{

	push	ebp
	mov	ebp, esp
	sub	esp, 204				; 000000ccH
	push	ebx
	push	esi
	push	edi
	lea	edi, DWORD PTR [ebp-204]
	push	51					; 00000033H
	pop	ecx
	mov	eax, -858993460				; ccccccccH
	rep stosd

; 132  : 		for(unsigned int i = 0; i < m_nLastCategory; i++) 

	and	DWORD PTR _i$1[ebp], 0
	jmp	SHORT $LN4@GetCategor
$LN3@GetCategor:
	mov	eax, DWORD PTR _i$1[ebp]
	inc	eax
	mov	DWORD PTR _i$1[ebp], eax
$LN4@GetCategor:
	mov	eax, DWORD PTR _i$1[ebp]
	cmp	eax, DWORD PTR ?m_nLastCategory@CTrace@ATL@@1IA ; ATL::CTrace::m_nLastCategory
	jae	SHORT $LN2@GetCategor

; 133  : 		{
; 134  : 			if (m_nMap[i].nCategory == nCategory)

	imul	eax, DWORD PTR _i$1[ebp], 260
	mov	eax, DWORD PTR ?m_nMap@CTrace@ATL@@1PAUCategoryMap@12@A[eax]
	cmp	eax, DWORD PTR _nCategory$[ebp]
	jne	SHORT $LN1@GetCategor

; 135  : 			{
; 136  : 				return m_nMap[i].categryName;

	imul	eax, DWORD PTR _i$1[ebp], 260
	add	eax, OFFSET ?m_nMap@CTrace@ATL@@1PAUCategoryMap@12@A+4
	jmp	SHORT $LN5@GetCategor
$LN1@GetCategor:

; 137  : 			}
; 138  : 		}

	jmp	SHORT $LN3@GetCategor
$LN2@GetCategor:

; 139  : 
; 140  : 		return nullptr;

	xor	eax, eax
$LN5@GetCategor:

; 141  : 	}

	pop	edi
	pop	esi
	pop	ebx
	mov	esp, ebp
	pop	ebp
	ret	0
?GetCategoryName@CTrace@ATL@@CAPA_WI@Z ENDP		; ATL::CTrace::GetCategoryName
_TEXT	ENDS
; Function compile flags: /Odsp /RTCsu /ZI
; File c:\program files (x86)\microsoft visual studio 12.0\vc\atlmfc\include\atltrace.h
;	COMDAT ??__EatlTraceString@ATL@@YAXXZ
text$di	SEGMENT
??__EatlTraceString@ATL@@YAXXZ PROC			; ATL::`dynamic initializer for 'atlTraceString'', COMDAT

; 113  : __declspec(selectany) CTraceCategoryEx<CTraceCategoryEx<>::TraceString> atlTraceString(_T("atlTraceString"));

	push	ebp
	mov	ebp, esp
	sub	esp, 192				; 000000c0H
	push	ebx
	push	esi
	push	edi
	lea	edi, DWORD PTR [ebp-192]
	push	48					; 00000030H
	pop	ecx
	mov	eax, -858993460				; ccccccccH
	rep stosd
	push	OFFSET ??_C@_1BO@GMLILNDJ@?$AAa?$AAt?$AAl?$AAT?$AAr?$AAa?$AAc?$AAe?$AAS?$AAt?$AAr?$AAi?$AAn?$AAg?$AA?$AA@
	mov	ecx, OFFSET ?atlTraceString@ATL@@3V?$CTraceCategoryEx@$0CAAAA@$0A@@1@A ; ATL::atlTraceString
	call	??0?$CTraceCategoryEx@$0CAAAA@$0A@@ATL@@QAE@PB_W@Z ; ATL::CTraceCategoryEx<131072,0>::CTraceCategoryEx<131072,0>
	pop	edi
	pop	esi
	pop	ebx
	add	esp, 192				; 000000c0H
	cmp	ebp, esp
	call	__RTC_CheckEsp
	mov	esp, ebp
	pop	ebp
	ret	0
??__EatlTraceString@ATL@@YAXXZ ENDP			; ATL::`dynamic initializer for 'atlTraceString''
text$di	ENDS
; Function compile flags: /Odsp /RTCsu /ZI
; File c:\program files (x86)\microsoft visual studio 12.0\vc\atlmfc\include\atltrace.h
;	COMDAT ??0?$CTraceCategoryEx@$0CAAAA@$0A@@ATL@@QAE@PB_W@Z
_TEXT	SEGMENT
_this$ = -8						; size = 4
_pszCategoryName$ = 8					; size = 4
??0?$CTraceCategoryEx@$0CAAAA@$0A@@ATL@@QAE@PB_W@Z PROC	; ATL::CTraceCategoryEx<131072,0>::CTraceCategoryEx<131072,0>, COMDAT
; _this$ = ecx

; 388  : {

	push	ebp
	mov	ebp, esp
	sub	esp, 204				; 000000ccH
	push	ebx
	push	esi
	push	edi
	push	ecx
	lea	edi, DWORD PTR [ebp-204]
	push	51					; 00000033H
	pop	ecx
	mov	eax, -858993460				; ccccccccH
	rep stosd
	pop	ecx
	mov	DWORD PTR _this$[ebp], ecx

; 389  : 	CTrace::RegisterCategory(pszCategoryName, traceCategory);

	push	131072					; 00020000H
	push	DWORD PTR _pszCategoryName$[ebp]
	call	?RegisterCategory@CTrace@ATL@@SAXPB_WI@Z ; ATL::CTrace::RegisterCategory
	pop	ecx
	pop	ecx

; 390  : }

	mov	eax, DWORD PTR _this$[ebp]
	pop	edi
	pop	esi
	pop	ebx
	add	esp, 204				; 000000ccH
	cmp	ebp, esp
	call	__RTC_CheckEsp
	mov	esp, ebp
	pop	ebp
	ret	4
??0?$CTraceCategoryEx@$0CAAAA@$0A@@ATL@@QAE@PB_W@Z ENDP	; ATL::CTraceCategoryEx<131072,0>::CTraceCategoryEx<131072,0>
_TEXT	ENDS
; Function compile flags: /Odsp /RTCsu /ZI
; File c:\program files (x86)\microsoft visual studio 12.0\vc\atlmfc\include\atltrace.h
;	COMDAT ??__EatlTraceException@ATL@@YAXXZ
text$di	SEGMENT
??__EatlTraceException@ATL@@YAXXZ PROC			; ATL::`dynamic initializer for 'atlTraceException'', COMDAT

; 109  : __declspec(selectany) CTraceCategoryEx<CTraceCategoryEx<>::TraceException> atlTraceException(_T("atlTraceException"));

	push	ebp
	mov	ebp, esp
	sub	esp, 192				; 000000c0H
	push	ebx
	push	esi
	push	edi
	lea	edi, DWORD PTR [ebp-192]
	push	48					; 00000030H
	pop	ecx
	mov	eax, -858993460				; ccccccccH
	rep stosd
	push	OFFSET ??_C@_1CE@IMMADNAP@?$AAa?$AAt?$AAl?$AAT?$AAr?$AAa?$AAc?$AAe?$AAE?$AAx?$AAc?$AAe?$AAp?$AAt?$AAi?$AAo?$AAn?$AA?$AA@
	mov	ecx, OFFSET ?atlTraceException@ATL@@3V?$CTraceCategoryEx@$0CAAA@$0A@@1@A ; ATL::atlTraceException
	call	??0?$CTraceCategoryEx@$0CAAA@$0A@@ATL@@QAE@PB_W@Z ; ATL::CTraceCategoryEx<8192,0>::CTraceCategoryEx<8192,0>
	pop	edi
	pop	esi
	pop	ebx
	add	esp, 192				; 000000c0H
	cmp	ebp, esp
	call	__RTC_CheckEsp
	mov	esp, ebp
	pop	ebp
	ret	0
??__EatlTraceException@ATL@@YAXXZ ENDP			; ATL::`dynamic initializer for 'atlTraceException''
text$di	ENDS
; Function compile flags: /Odsp /RTCsu /ZI
; File c:\program files (x86)\microsoft visual studio 12.0\vc\atlmfc\include\atltrace.h
;	COMDAT ??B?$CTraceCategoryEx@$0CAAA@$0A@@ATL@@QAEIXZ
_TEXT	SEGMENT
_this$ = -8						; size = 4
??B?$CTraceCategoryEx@$0CAAA@$0A@@ATL@@QAEIXZ PROC	; ATL::CTraceCategoryEx<8192,0>::operator unsigned int, COMDAT
; _this$ = ecx

; 78   : 	{

	push	ebp
	mov	ebp, esp
	sub	esp, 204				; 000000ccH
	push	ebx
	push	esi
	push	edi
	push	ecx
	lea	edi, DWORD PTR [ebp-204]
	push	51					; 00000033H
	pop	ecx
	mov	eax, -858993460				; ccccccccH
	rep stosd
	pop	ecx
	mov	DWORD PTR _this$[ebp], ecx

; 79   : #ifdef _DEBUG
; 80   : 		return traceCategory;

	mov	eax, 8192				; 00002000H

; 81   : #else
; 82   : 		return 0;
; 83   : #endif
; 84   : 	}

	pop	edi
	pop	esi
	pop	ebx
	mov	esp, ebp
	pop	ebp
	ret	0
??B?$CTraceCategoryEx@$0CAAA@$0A@@ATL@@QAEIXZ ENDP	; ATL::CTraceCategoryEx<8192,0>::operator unsigned int
_TEXT	ENDS
; Function compile flags: /Odsp /RTCsu /ZI
; File c:\program files (x86)\microsoft visual studio 12.0\vc\atlmfc\include\atltrace.h
;	COMDAT ??0?$CTraceCategoryEx@$0CAAA@$0A@@ATL@@QAE@PB_W@Z
_TEXT	SEGMENT
_this$ = -8						; size = 4
_pszCategoryName$ = 8					; size = 4
??0?$CTraceCategoryEx@$0CAAA@$0A@@ATL@@QAE@PB_W@Z PROC	; ATL::CTraceCategoryEx<8192,0>::CTraceCategoryEx<8192,0>, COMDAT
; _this$ = ecx

; 388  : {

	push	ebp
	mov	ebp, esp
	sub	esp, 204				; 000000ccH
	push	ebx
	push	esi
	push	edi
	push	ecx
	lea	edi, DWORD PTR [ebp-204]
	push	51					; 00000033H
	pop	ecx
	mov	eax, -858993460				; ccccccccH
	rep stosd
	pop	ecx
	mov	DWORD PTR _this$[ebp], ecx

; 389  : 	CTrace::RegisterCategory(pszCategoryName, traceCategory);

	push	8192					; 00002000H
	push	DWORD PTR _pszCategoryName$[ebp]
	call	?RegisterCategory@CTrace@ATL@@SAXPB_WI@Z ; ATL::CTrace::RegisterCategory
	pop	ecx
	pop	ecx

; 390  : }

	mov	eax, DWORD PTR _this$[ebp]
	pop	edi
	pop	esi
	pop	ebx
	add	esp, 204				; 000000ccH
	cmp	ebp, esp
	call	__RTC_CheckEsp
	mov	esp, ebp
	pop	ebp
	ret	4
??0?$CTraceCategoryEx@$0CAAA@$0A@@ATL@@QAE@PB_W@Z ENDP	; ATL::CTraceCategoryEx<8192,0>::CTraceCategoryEx<8192,0>
_TEXT	ENDS
; Function compile flags: /Odsp /RTCsu /ZI
; File c:\program files (x86)\microsoft visual studio 12.0\vc\include\time.inl
;	COMDAT _time
_TEXT	SEGMENT
__Time$ = 8						; size = 4
_time	PROC						; COMDAT

; 132  : {

	push	ebp
	mov	ebp, esp
	sub	esp, 192				; 000000c0H
	push	ebx
	push	esi
	push	edi
	lea	edi, DWORD PTR [ebp-192]
	push	48					; 00000030H
	pop	ecx
	mov	eax, -858993460				; ccccccccH
	rep stosd

; 133  :     return _time64(_Time);

	mov	esi, esp
	push	DWORD PTR __Time$[ebp]
	call	DWORD PTR __imp___time64
	pop	ecx
	cmp	esi, esp
	call	__RTC_CheckEsp

; 134  : }

	pop	edi
	pop	esi
	pop	ebx
	add	esp, 192				; 000000c0H
	cmp	ebp, esp
	call	__RTC_CheckEsp
	mov	esp, ebp
	pop	ebp
	ret	0
_time	ENDP
_TEXT	ENDS
END
