; Listing generated by Microsoft (R) Optimizing Compiler Version 18.00.21005.1 

	TITLE	C:\Projets\SUDOKU\SUDOKU\SUDOKU\stdafx.cpp
	.686P
	.XMM
	include listing.inc
	.model	flat

INCLUDELIB MSVCRTD
INCLUDELIB OLDNAMES

PUBLIC	___@@_PchSym_@00@UkilqvghUhfwlpfUhfwlpfUhfwlpfUwvyftUhgwzucOlyq@DD93BE5B5B8962A0
PUBLIC	?excludeValid@CImage@ATL@@2KB			; ATL::CImage::excludeValid
PUBLIC	__GUID_783321ed_78a3_4366_b574_6af607a64788
PUBLIC	__GUID_6358b7ba_87d2_42d5_bf71_82e919dd5862
PUBLIC	__GUID_bb3e1550_356e_44b0_99da_85ac6017865e
PUBLIC	_IID_IAxWinAmbientDispatchEx
PUBLIC	__GUID_3d5c9008_ec7c_4364_9f8a_9af3c58cbae6
PUBLIC	__GUID_00000146_0000_0000_c000_000000000046
PUBLIC	?c_bIsMFCDLLTraits@?$_MFCDLLTraitsCheck@DV?$StrTraitMFC_DLL@DV?$ChTraitsCRT@D@ATL@@@@@_CSTRING_IMPL_@ATL@@2_NB ; ATL::_CSTRING_IMPL_::_MFCDLLTraitsCheck<char,StrTraitMFC_DLL<char,ATL::ChTraitsCRT<char> > >::c_bIsMFCDLLTraits
PUBLIC	_IID_IInternalConnection
PUBLIC	__GUID_274a7dea_d771_4095_abbd_8df7abd23ce3
PUBLIC	__GUID_7815cbba_ddf7_478c_a46c_7b6c738b7978
PUBLIC	?_Min@?$AtlLimits@H@ATL@@2HB			; ATL::AtlLimits<int>::_Min
PUBLIC	?_Max@?$AtlLimits@H@ATL@@2HB			; ATL::AtlLimits<int>::_Max
PUBLIC	?_Min@?$AtlLimits@I@ATL@@2IB			; ATL::AtlLimits<unsigned int>::_Min
PUBLIC	?_Max@?$AtlLimits@I@ATL@@2IB			; ATL::AtlLimits<unsigned int>::_Max
PUBLIC	?generic@CArchiveException@@2HB			; CArchiveException::generic
PUBLIC	?_Min@?$AtlLimits@J@ATL@@2JB			; ATL::AtlLimits<long>::_Min
PUBLIC	?_Max@?$AtlLimits@J@ATL@@2JB			; ATL::AtlLimits<long>::_Max
PUBLIC	?m_nLevel@CTrace@ATL@@1IA			; ATL::CTrace::m_nLevel
PUBLIC	?m_nCategory@CTrace@ATL@@1IA			; ATL::CTrace::m_nCategory
PUBLIC	?m_nLastCategory@CTrace@ATL@@1IA		; ATL::CTrace::m_nLastCategory
PUBLIC	?m_nMap@CTrace@ATL@@1PAUCategoryMap@12@A	; ATL::CTrace::m_nMap
PUBLIC	?_Min@?$AtlLimits@K@ATL@@2KB			; ATL::AtlLimits<unsigned long>::_Min
PUBLIC	?_Max@?$AtlLimits@K@ATL@@2KB			; ATL::AtlLimits<unsigned long>::_Max
PUBLIC	?_Min@?$AtlLimits@_J@ATL@@2_JB			; ATL::AtlLimits<__int64>::_Min
PUBLIC	?_Max@?$AtlLimits@_J@ATL@@2_JB			; ATL::AtlLimits<__int64>::_Max
PUBLIC	?_Min@?$AtlLimits@_K@ATL@@2_KB			; ATL::AtlLimits<unsigned __int64>::_Min
PUBLIC	_LIBID_ATLLib
PUBLIC	?_Max@?$AtlLimits@_K@ATL@@2_KB			; ATL::AtlLimits<unsigned __int64>::_Max
PUBLIC	?Millisecond@CFileTime@ATL@@2_KB		; ATL::CFileTime::Millisecond
PUBLIC	?generic@CFileException@@2HB			; CFileException::generic
PUBLIC	?Second@CFileTime@ATL@@2_KB			; ATL::CFileTime::Second
PUBLIC	?Minute@CFileTime@ATL@@2_KB			; ATL::CFileTime::Minute
PUBLIC	?Hour@CFileTime@ATL@@2_KB			; ATL::CFileTime::Hour
PUBLIC	?Day@CFileTime@ATL@@2_KB			; ATL::CFileTime::Day
PUBLIC	?Week@CFileTime@ATL@@2_KB			; ATL::CFileTime::Week
PUBLIC	?szInvalidDateTime@ATL@@3QB_WB			; ATL::szInvalidDateTime
PUBLIC	??_C@_1CC@FFBCNGIJ@?$AAI?$AAn?$AAv?$AAa?$AAl?$AAi?$AAd?$AA?5?$AAD?$AAa?$AAt?$AAe?$AAT?$AAi?$AAm?$AAe?$AA?$AA@ ; `string'
PUBLIC	?szInvalidDateTimeSpan@ATL@@3QB_WB		; ATL::szInvalidDateTimeSpan
PUBLIC	??_C@_1CK@NMKILLLB@?$AAI?$AAn?$AAv?$AAa?$AAl?$AAi?$AAd?$AA?5?$AAD?$AAa?$AAt?$AAe?$AAT?$AAi?$AAm?$AAe?$AAS?$AAp?$AAa?$AAn?$AA?$AA@ ; `string'
PUBLIC	?maxDaysInSpan@COleDateTimeSpan@ATL@@0JB	; ATL::COleDateTimeSpan::maxDaysInSpan
PUBLIC	__GUID_b196b284_bab4_101a_b69c_00aa00341d07
PUBLIC	?_pModule@ATL@@3PAVCComModule@1@A		; ATL::_pModule
PUBLIC	?c_bIsMFCDLLTraits@?$_MFCDLLTraitsCheck@DV?$StrTraitATL@DV?$ChTraitsCRT@D@ATL@@@ATL@@@_CSTRING_IMPL_@ATL@@2_NB ; ATL::_CSTRING_IMPL_::_MFCDLLTraitsCheck<char,ATL::StrTraitATL<char,ATL::ChTraitsCRT<char> > >::c_bIsMFCDLLTraits
PUBLIC	__GUID_fc4801a3_2ba9_11cf_a229_00aa003d7352
PUBLIC	?s_pfnPrevHook@CNoUIAssertHook@ATL@@0P6AHHPADPAH@ZA ; ATL::CNoUIAssertHook::s_pfnPrevHook
PUBLIC	?OLE_DATETIME_HALFSECOND@COleDateTimeSpan@ATL@@2NB ; ATL::COleDateTimeSpan::OLE_DATETIME_HALFSECOND
PUBLIC	_CLSID_Registrar
PUBLIC	___pobjMapEntryFirst
PUBLIC	___pobjMapEntryLast
PUBLIC	_IID_IRegistrar
PUBLIC	?_pPerfRegFunc@ATL@@3P6AJPAUHINSTANCE__@@@ZA	; ATL::_pPerfRegFunc
PUBLIC	?_pPerfUnRegFunc@ATL@@3P6AJXZA			; ATL::_pPerfUnRegFunc
PUBLIC	?_AtlRegisterPerUser@ATL@@3_NA			; ATL::_AtlRegisterPerUser
PUBLIC	?CLSID_WinFormsControl@@3U_GUID@@B		; CLSID_WinFormsControl
PUBLIC	??_C@_1CK@OEKPKBNA@?$AAC?$AAo?$AAm?$AAp?$AAo?$AAn?$AAe?$AAn?$AAt?$AA?5?$AAC?$AAa?$AAt?$AAe?$AAg?$AAo?$AAr?$AAi?$AAe?$AAs?$AA?$AA@ ; `string'
PUBLIC	??_C@_1BC@NKMMNMGL@?$AAF?$AAi?$AAl?$AAe?$AAT?$AAy?$AAp?$AAe?$AA?$AA@ ; `string'
PUBLIC	??_C@_1BE@EKPAFMCP@?$AAI?$AAn?$AAt?$AAe?$AAr?$AAf?$AAa?$AAc?$AAe?$AA?$AA@ ; `string'
PUBLIC	??_C@_1BC@MAICEHGI@?$AAH?$AAa?$AAr?$AAd?$AAw?$AAa?$AAr?$AAe?$AA?$AA@ ; `string'
PUBLIC	??_C@_19HLLLM@?$AAM?$AAi?$AAm?$AAe?$AA?$AA@	; `string'
PUBLIC	??_C@_17OMAOINJK@?$AAS?$AAA?$AAM?$AA?$AA@	; `string'
PUBLIC	??_C@_1BC@IBECJAAI@?$AAS?$AAE?$AAC?$AAU?$AAR?$AAI?$AAT?$AAY?$AA?$AA@ ; `string'
PUBLIC	??_C@_1O@GBFINDKL@?$AAS?$AAY?$AAS?$AAT?$AAE?$AAM?$AA?$AA@ ; `string'
PUBLIC	??_C@_1BC@EAHCMADO@?$AAS?$AAo?$AAf?$AAt?$AAw?$AAa?$AAr?$AAe?$AA?$AA@ ; `string'
PUBLIC	??_C@_1BA@JIHHIEDE@?$AAT?$AAy?$AAp?$AAe?$AAL?$AAi?$AAb?$AA?$AA@ ; `string'
PUBLIC	__GUID_11a66efa_382e_451a_9234_1e0e12ef3085
PUBLIC	__GUID_43826d1e_e718_42ee_bc55_a1e261c37bfe
PUBLIC	?VT@?$CVarTypeInfo@D@ATL@@2GB			; ATL::CVarTypeInfo<char>::VT
PUBLIC	?pmField@?$CVarTypeInfo@D@ATL@@2QQtagVARIANT@@DQ3@ ; ATL::CVarTypeInfo<char>::pmField
PUBLIC	?VT@?$CVarTypeInfo@E@ATL@@2GB			; ATL::CVarTypeInfo<unsigned char>::VT
PUBLIC	?pmField@?$CVarTypeInfo@E@ATL@@2QQtagVARIANT@@EQ3@ ; ATL::CVarTypeInfo<unsigned char>::pmField
PUBLIC	_IID_IDocHostUIHandlerDispatch
PUBLIC	__pIncludeInitManaged
PUBLIC	?VT@?$CVarTypeInfo@PAD@ATL@@2GB			; ATL::CVarTypeInfo<char *>::VT
PUBLIC	?pmField@?$CVarTypeInfo@PAD@ATL@@2QQtagVARIANT@@PADQ3@ ; ATL::CVarTypeInfo<char *>::pmField
PUBLIC	?VT@?$CVarTypeInfo@PAE@ATL@@2GB			; ATL::CVarTypeInfo<unsigned char *>::VT
PUBLIC	?pmField@?$CVarTypeInfo@PAE@ATL@@2QQtagVARIANT@@PAEQ3@ ; ATL::CVarTypeInfo<unsigned char *>::pmField
PUBLIC	?VT@?$CVarTypeInfo@F@ATL@@2GB			; ATL::CVarTypeInfo<short>::VT
PUBLIC	?pmField@?$CVarTypeInfo@F@ATL@@2QQtagVARIANT@@FQ3@ ; ATL::CVarTypeInfo<short>::pmField
PUBLIC	__GUID_0002e012_0000_0000_c000_000000000046
PUBLIC	__GUID_00000109_0000_0000_c000_000000000046
PUBLIC	__GUID_7fd52380_4e07_101b_ae2d_08002b2ec713
PUBLIC	?VT@?$CVarTypeInfo@PAF@ATL@@2GB			; ATL::CVarTypeInfo<short *>::VT
PUBLIC	?pmField@?$CVarTypeInfo@PAF@ATL@@2QQtagVARIANT@@PAFQ3@ ; ATL::CVarTypeInfo<short *>::pmField
PUBLIC	?VT@?$CVarTypeInfo@G@ATL@@2GB			; ATL::CVarTypeInfo<unsigned short>::VT
PUBLIC	?pmField@?$CVarTypeInfo@G@ATL@@2QQtagVARIANT@@GQ3@ ; ATL::CVarTypeInfo<unsigned short>::pmField
PUBLIC	?VT@?$CVarTypeInfo@PAG@ATL@@2GB			; ATL::CVarTypeInfo<unsigned short *>::VT
PUBLIC	??_C@_1M@KANJNLFF@?$AAC?$AAL?$AAS?$AAI?$AAD?$AA?$AA@ ; `string'
PUBLIC	?pmField@?$CVarTypeInfo@PAG@ATL@@2QQtagVARIANT@@PAGQ3@ ; ATL::CVarTypeInfo<unsigned short *>::pmField
PUBLIC	?VT@?$CVarTypeInfo@H@ATL@@2GB			; ATL::CVarTypeInfo<int>::VT
PUBLIC	?pmField@?$CVarTypeInfo@H@ATL@@2QQtagVARIANT@@HQ3@ ; ATL::CVarTypeInfo<int>::pmField
PUBLIC	?VT@?$CVarTypeInfo@PAH@ATL@@2GB			; ATL::CVarTypeInfo<int *>::VT
PUBLIC	?_AfxInitManaged@@YAHXZ				; _AfxInitManaged
PUBLIC	?pmField@?$CVarTypeInfo@PAH@ATL@@2QQtagVARIANT@@PAHQ3@ ; ATL::CVarTypeInfo<int *>::pmField
PUBLIC	??_C@_1M@EJNEECMJ@?$AAA?$AAp?$AAp?$AAI?$AAD?$AA?$AA@ ; `string'
PUBLIC	?VT@?$CVarTypeInfo@I@ATL@@2GB			; ATL::CVarTypeInfo<unsigned int>::VT
PUBLIC	?pmField@?$CVarTypeInfo@I@ATL@@2QQtagVARIANT@@IQ3@ ; ATL::CVarTypeInfo<unsigned int>::pmField
PUBLIC	?VT@?$CVarTypeInfo@PAI@ATL@@2GB			; ATL::CVarTypeInfo<unsigned int *>::VT
PUBLIC	?pmField@?$CVarTypeInfo@PAI@ATL@@2QQtagVARIANT@@PAIQ3@ ; ATL::CVarTypeInfo<unsigned int *>::pmField
PUBLIC	?VT@?$CVarTypeInfo@J@ATL@@2GB			; ATL::CVarTypeInfo<long>::VT
PUBLIC	?pmField@?$CVarTypeInfo@J@ATL@@2QQtagVARIANT@@JQ3@ ; ATL::CVarTypeInfo<long>::pmField
PUBLIC	?ATL_CREATE_OBJECT@CComApartment@ATL@@2IA	; ATL::CComApartment::ATL_CREATE_OBJECT
PUBLIC	?VT@?$CVarTypeInfo@PAJ@ATL@@2GB			; ATL::CVarTypeInfo<long *>::VT
PUBLIC	?pmField@?$CVarTypeInfo@PAJ@ATL@@2QQtagVARIANT@@PAJQ3@ ; ATL::CVarTypeInfo<long *>::pmField
PUBLIC	?VT@?$CVarTypeInfo@K@ATL@@2GB			; ATL::CVarTypeInfo<unsigned long>::VT
PUBLIC	?pmField@?$CVarTypeInfo@K@ATL@@2QQtagVARIANT@@KQ3@ ; ATL::CVarTypeInfo<unsigned long>::pmField
PUBLIC	?c_bIsMFCDLLTraits@?$_MFCDLLTraitsCheck@_WV?$StrTraitMFC_DLL@_WV?$ChTraitsCRT@_W@ATL@@@@@_CSTRING_IMPL_@ATL@@2_NB ; ATL::_CSTRING_IMPL_::_MFCDLLTraitsCheck<wchar_t,StrTraitMFC_DLL<wchar_t,ATL::ChTraitsCRT<wchar_t> > >::c_bIsMFCDLLTraits
PUBLIC	?VT@?$CVarTypeInfo@PAK@ATL@@2GB			; ATL::CVarTypeInfo<unsigned long *>::VT
PUBLIC	?pmField@?$CVarTypeInfo@PAK@ATL@@2QQtagVARIANT@@PAKQ3@ ; ATL::CVarTypeInfo<unsigned long *>::pmField
PUBLIC	?chDirSep@ATL@@3_WB				; ATL::chDirSep
PUBLIC	?chRightBracket@ATL@@3_WB			; ATL::chRightBracket
PUBLIC	?chLeftBracket@ATL@@3_WB			; ATL::chLeftBracket
PUBLIC	?chQuote@ATL@@3_WB				; ATL::chQuote
PUBLIC	?chEquals@ATL@@3_WB				; ATL::chEquals
PUBLIC	?szStringVal@ATL@@3QB_WB			; ATL::szStringVal
PUBLIC	?VT@?$CVarTypeInfo@_J@ATL@@2GB			; ATL::CVarTypeInfo<__int64>::VT
PUBLIC	??_C@_13HADIAKP@?$AAS?$AA?$AA@			; `string'
PUBLIC	?multiszStringVal@ATL@@3QB_WB			; ATL::multiszStringVal
PUBLIC	?pmField@?$CVarTypeInfo@_J@ATL@@2QQtagVARIANT@@_JQ3@ ; ATL::CVarTypeInfo<__int64>::pmField
PUBLIC	??_C@_13LHMFKAAD@?$AAM?$AA?$AA@			; `string'
PUBLIC	?szDwordVal@ATL@@3QB_WB				; ATL::szDwordVal
PUBLIC	??_C@_13MKMNOPIJ@?$AAD?$AA?$AA@			; `string'
PUBLIC	?szBinaryVal@ATL@@3QB_WB			; ATL::szBinaryVal
PUBLIC	??_C@_13OPKGLAFF@?$AAB?$AA?$AA@			; `string'
PUBLIC	?szValToken@ATL@@3QB_WB				; ATL::szValToken
PUBLIC	??_C@_17LLMMEOJD@?$AAV?$AAa?$AAl?$AA?$AA@	; `string'
PUBLIC	?szForceRemove@ATL@@3QB_WB			; ATL::szForceRemove
PUBLIC	??_C@_1BI@JFAIJMHL@?$AAF?$AAo?$AAr?$AAc?$AAe?$AAR?$AAe?$AAm?$AAo?$AAv?$AAe?$AA?$AA@ ; `string'
PUBLIC	?szNoRemove@ATL@@3QB_WB				; ATL::szNoRemove
PUBLIC	??_C@_1BC@GCKHIPE@?$AAN?$AAo?$AAR?$AAe?$AAm?$AAo?$AAv?$AAe?$AA?$AA@ ; `string'
PUBLIC	?szDelete@ATL@@3QB_WB				; ATL::szDelete
PUBLIC	?VT@?$CVarTypeInfo@PA_J@ATL@@2GB		; ATL::CVarTypeInfo<__int64 *>::VT
PUBLIC	??_C@_1O@JDLOHAN@?$AAD?$AAe?$AAl?$AAe?$AAt?$AAe?$AA?$AA@ ; `string'
PUBLIC	?pmField@?$CVarTypeInfo@PA_J@ATL@@2QQtagVARIANT@@PA_JQ3@ ; ATL::CVarTypeInfo<__int64 *>::pmField
PUBLIC	_IID_IAxWinHostWindow
PUBLIC	?s_pLog@CFixedStringMgr@ATL@@2PAVIFixedStringLog@2@A ; ATL::CFixedStringMgr::s_pLog
PUBLIC	?VT@?$CVarTypeInfo@_K@ATL@@2GB			; ATL::CVarTypeInfo<unsigned __int64>::VT
PUBLIC	?pmField@?$CVarTypeInfo@_K@ATL@@2QQtagVARIANT@@_KQ3@ ; ATL::CVarTypeInfo<unsigned __int64>::pmField
PUBLIC	?VT@?$CVarTypeInfo@PA_K@ATL@@2GB		; ATL::CVarTypeInfo<unsigned __int64 *>::VT
PUBLIC	?_pAtlAutoThreadModule@ATL@@3PAUIAtlAutoThreadModule@1@A ; ATL::_pAtlAutoThreadModule
PUBLIC	?pmField@?$CVarTypeInfo@PA_K@ATL@@2QQtagVARIANT@@PA_KQ3@ ; ATL::CVarTypeInfo<unsigned __int64 *>::pmField
PUBLIC	?VT@?$CVarTypeInfo@M@ATL@@2GB			; ATL::CVarTypeInfo<float>::VT
PUBLIC	?pmField@?$CVarTypeInfo@M@ATL@@2QQtagVARIANT@@MQ3@ ; ATL::CVarTypeInfo<float>::pmField
PUBLIC	?VT@?$CVarTypeInfo@PAM@ATL@@2GB			; ATL::CVarTypeInfo<float *>::VT
PUBLIC	?pmField@?$CVarTypeInfo@PAM@ATL@@2QQtagVARIANT@@PAMQ3@ ; ATL::CVarTypeInfo<float *>::pmField
PUBLIC	?VT@?$CVarTypeInfo@N@ATL@@2GB			; ATL::CVarTypeInfo<double>::VT
PUBLIC	?pmField@?$CVarTypeInfo@N@ATL@@2QQtagVARIANT@@NQ3@ ; ATL::CVarTypeInfo<double>::pmField
PUBLIC	?VT@?$CVarTypeInfo@PAN@ATL@@2GB			; ATL::CVarTypeInfo<double *>::VT
PUBLIC	?pmField@?$CVarTypeInfo@PAN@ATL@@2QQtagVARIANT@@PANQ3@ ; ATL::CVarTypeInfo<double *>::pmField
PUBLIC	?VT@?$CVarTypeInfo@PAUtagVARIANT@@@ATL@@2GB	; ATL::CVarTypeInfo<tagVARIANT *>::VT
PUBLIC	_IID_IAxWinHostWindowLic
PUBLIC	?VT@?$CVarTypeInfo@PA_W@ATL@@2GB		; ATL::CVarTypeInfo<wchar_t *>::VT
PUBLIC	?pmField@?$CVarTypeInfo@PA_W@ATL@@2QQtagVARIANT@@PA_WQ3@ ; ATL::CVarTypeInfo<wchar_t *>::pmField
PUBLIC	?VT@?$CVarTypeInfo@PAPA_W@ATL@@2GB		; ATL::CVarTypeInfo<wchar_t * *>::VT
PUBLIC	?pmField@?$CVarTypeInfo@PAPA_W@ATL@@2QQtagVARIANT@@PAPA_WQ3@ ; ATL::CVarTypeInfo<wchar_t * *>::pmField
PUBLIC	?VT@?$CVarTypeInfo@PAUIUnknown@@@ATL@@2GB	; ATL::CVarTypeInfo<IUnknown *>::VT
PUBLIC	?pmField@?$CVarTypeInfo@PAUIUnknown@@@ATL@@2QQtagVARIANT@@PAUIUnknown@@Q3@ ; ATL::CVarTypeInfo<IUnknown *>::pmField
PUBLIC	?VT@?$CVarTypeInfo@PAPAUIUnknown@@@ATL@@2GB	; ATL::CVarTypeInfo<IUnknown * *>::VT
PUBLIC	?pmField@?$CVarTypeInfo@PAPAUIUnknown@@@ATL@@2QQtagVARIANT@@PAPAUIUnknown@@Q3@ ; ATL::CVarTypeInfo<IUnknown * *>::pmField
PUBLIC	?sc_redShift@ColorF@D2D1@@0IB			; D2D1::ColorF::sc_redShift
PUBLIC	_IID_IAxWinAmbientDispatch
PUBLIC	?sc_greenShift@ColorF@D2D1@@0IB			; D2D1::ColorF::sc_greenShift
PUBLIC	?sc_blueShift@ColorF@D2D1@@0IB			; D2D1::ColorF::sc_blueShift
PUBLIC	?sc_redMask@ColorF@D2D1@@0IB			; D2D1::ColorF::sc_redMask
PUBLIC	?sc_greenMask@ColorF@D2D1@@0IB			; D2D1::ColorF::sc_greenMask
PUBLIC	?sc_blueMask@ColorF@D2D1@@0IB			; D2D1::ColorF::sc_blueMask
PUBLIC	?VT@?$CVarTypeInfo@PAUIDispatch@@@ATL@@2GB	; ATL::CVarTypeInfo<IDispatch *>::VT
PUBLIC	__GUID_00000000_0000_0000_c000_000000000046
PUBLIC	?pmField@?$CVarTypeInfo@PAUIDispatch@@@ATL@@2QQtagVARIANT@@PAUIDispatch@@Q3@ ; ATL::CVarTypeInfo<IDispatch *>::pmField
PUBLIC	__GUID_00000000_0000_0000_0000_000000000000
PUBLIC	?VT@?$CVarTypeInfo@PAPAUIDispatch@@@ATL@@2GB	; ATL::CVarTypeInfo<IDispatch * *>::VT
PUBLIC	?pmField@?$CVarTypeInfo@PAPAUIDispatch@@@ATL@@2QQtagVARIANT@@PAPAUIDispatch@@Q3@ ; ATL::CVarTypeInfo<IDispatch * *>::pmField
PUBLIC	__GUID_00020400_0000_0000_c000_000000000046
PUBLIC	?VT@?$CVarTypeInfo@TtagCY@@@ATL@@2GB		; ATL::CVarTypeInfo<tagCY>::VT
PUBLIC	?pmField@?$CVarTypeInfo@TtagCY@@@ATL@@2QQtagVARIANT@@TtagCY@@Q3@ ; ATL::CVarTypeInfo<tagCY>::pmField
PUBLIC	?VT@?$CVarTypeInfo@PATtagCY@@@ATL@@2GB		; ATL::CVarTypeInfo<tagCY *>::VT
PUBLIC	?pmField@?$CVarTypeInfo@PATtagCY@@@ATL@@2QQtagVARIANT@@PATtagCY@@Q3@ ; ATL::CVarTypeInfo<tagCY *>::pmField
PUBLIC	?MAX_VALUE@CRegParser@ATL@@1HB			; ATL::CRegParser::MAX_VALUE
PUBLIC	?c_bIsMFCDLLTraits@?$_MFCDLLTraitsCheck@_WV?$StrTraitATL@_WV?$ChTraitsCRT@_W@ATL@@@ATL@@@_CSTRING_IMPL_@ATL@@2_NB ; ATL::_CSTRING_IMPL_::_MFCDLLTraitsCheck<wchar_t,ATL::StrTraitATL<wchar_t,ATL::ChTraitsCRT<wchar_t> > >::c_bIsMFCDLLTraits
PUBLIC	?rgszNeverDelete@CRegParser@ATL@@1QBQB_WB	; ATL::CRegParser::rgszNeverDelete
PUBLIC	?cbNeverDelete@CRegParser@ATL@@1HB		; ATL::CRegParser::cbNeverDelete
PUBLIC	?MAX_TYPE@CRegParser@ATL@@1HB			; ATL::CRegParser::MAX_TYPE
PUBLIC	?m_bInitFailed@CAtlBaseModule@ATL@@2_NA		; ATL::CAtlBaseModule::m_bInitFailed
PUBLIC	?createAlphaChannel@CImage@ATL@@2KB		; ATL::CImage::createAlphaChannel
PUBLIC	?excludeGIF@CImage@ATL@@2KB			; ATL::CImage::excludeGIF
PUBLIC	?excludeBMP@CImage@ATL@@2KB			; ATL::CImage::excludeBMP
PUBLIC	?excludeEMF@CImage@ATL@@2KB			; ATL::CImage::excludeEMF
PUBLIC	?excludeWMF@CImage@ATL@@2KB			; ATL::CImage::excludeWMF
PUBLIC	?excludeJPEG@CImage@ATL@@2KB			; ATL::CImage::excludeJPEG
PUBLIC	?excludePNG@CImage@ATL@@2KB			; ATL::CImage::excludePNG
PUBLIC	?excludeTIFF@CImage@ATL@@2KB			; ATL::CImage::excludeTIFF
PUBLIC	?_pAtlModule@ATL@@3PAVCAtlModule@1@A		; ATL::_pAtlModule
PUBLIC	?excludeIcon@CImage@ATL@@2KB			; ATL::CImage::excludeIcon
PUBLIC	?excludeOther@CImage@ATL@@2KB			; ATL::CImage::excludeOther
PUBLIC	?m_libid@CAtlModule@ATL@@2U_GUID@@A		; ATL::CAtlModule::m_libid
PUBLIC	?excludeDefaultLoad@CImage@ATL@@2KB		; ATL::CImage::excludeDefaultLoad
PUBLIC	?excludeDefaultSave@CImage@ATL@@2KB		; ATL::CImage::excludeDefaultSave
;	COMDAT ___@@_PchSym_@00@UkilqvghUhfwlpfUhfwlpfUhfwlpfUwvyftUhgwzucOlyq@DD93BE5B5B8962A0
_BSS	SEGMENT
___@@_PchSym_@00@UkilqvghUhfwlpfUhfwlpfUhfwlpfUwvyftUhgwzucOlyq@DD93BE5B5B8962A0 DD 01H DUP (?)
_BSS	ENDS
;	COMDAT ?m_nLevel@CTrace@ATL@@1IA
_BSS	SEGMENT
?m_nLevel@CTrace@ATL@@1IA DD 01H DUP (?)		; ATL::CTrace::m_nLevel
_BSS	ENDS
;	COMDAT ?m_nLastCategory@CTrace@ATL@@1IA
_BSS	SEGMENT
?m_nLastCategory@CTrace@ATL@@1IA DD 01H DUP (?)		; ATL::CTrace::m_nLastCategory
_BSS	ENDS
;	COMDAT ?m_nMap@CTrace@ATL@@1PAUCategoryMap@12@A
_BSS	SEGMENT
?m_nMap@CTrace@ATL@@1PAUCategoryMap@12@A DB 02080H DUP (?) ; ATL::CTrace::m_nMap
_BSS	ENDS
;	COMDAT ?_pModule@ATL@@3PAVCComModule@1@A
_BSS	SEGMENT
?_pModule@ATL@@3PAVCComModule@1@A DD 01H DUP (?)	; ATL::_pModule
_BSS	ENDS
;	COMDAT ?s_pfnPrevHook@CNoUIAssertHook@ATL@@0P6AHHPADPAH@ZA
_BSS	SEGMENT
?s_pfnPrevHook@CNoUIAssertHook@ATL@@0P6AHHPADPAH@ZA DD 01H DUP (?) ; ATL::CNoUIAssertHook::s_pfnPrevHook
_BSS	ENDS
;	COMDAT ?_pPerfRegFunc@ATL@@3P6AJPAUHINSTANCE__@@@ZA
_BSS	SEGMENT
?_pPerfRegFunc@ATL@@3P6AJPAUHINSTANCE__@@@ZA DD 01H DUP (?) ; ATL::_pPerfRegFunc
_BSS	ENDS
;	COMDAT ?_pPerfUnRegFunc@ATL@@3P6AJXZA
_BSS	SEGMENT
?_pPerfUnRegFunc@ATL@@3P6AJXZA DD 01H DUP (?)		; ATL::_pPerfUnRegFunc
_BSS	ENDS
;	COMDAT ?_AtlRegisterPerUser@ATL@@3_NA
_BSS	SEGMENT
?_AtlRegisterPerUser@ATL@@3_NA DB 01H DUP (?)		; ATL::_AtlRegisterPerUser
_BSS	ENDS
_BSS	SEGMENT
_GenericTypographicStringFormatBuffer DB 08H DUP (?)
_GenericDefaultStringFormatBuffer DB 08H DUP (?)
_BSS	ENDS
;	COMDAT ?ATL_CREATE_OBJECT@CComApartment@ATL@@2IA
_BSS	SEGMENT
?ATL_CREATE_OBJECT@CComApartment@ATL@@2IA DD 01H DUP (?) ; ATL::CComApartment::ATL_CREATE_OBJECT
_BSS	ENDS
;	COMDAT ?s_pLog@CFixedStringMgr@ATL@@2PAVIFixedStringLog@2@A
_BSS	SEGMENT
?s_pLog@CFixedStringMgr@ATL@@2PAVIFixedStringLog@2@A DD 01H DUP (?) ; ATL::CFixedStringMgr::s_pLog
_BSS	ENDS
;	COMDAT ?_pAtlAutoThreadModule@ATL@@3PAUIAtlAutoThreadModule@1@A
_BSS	SEGMENT
?_pAtlAutoThreadModule@ATL@@3PAUIAtlAutoThreadModule@1@A DD 01H DUP (?) ; ATL::_pAtlAutoThreadModule
_BSS	ENDS
_BSS	SEGMENT
_GenericSansSerifFontFamily DD 01H DUP (?)
_GenericSerifFontFamily DD 01H DUP (?)
_GenericMonospaceFontFamily DD 01H DUP (?)
_GenericSansSerifFontFamilyBuffer DB 08H DUP (?)
_GenericSerifFontFamilyBuffer DB 08H DUP (?)
_GenericMonospaceFontFamilyBuffer DB 08H DUP (?)
_BSS	ENDS
;	COMDAT ?m_bInitFailed@CAtlBaseModule@ATL@@2_NA
_BSS	SEGMENT
?m_bInitFailed@CAtlBaseModule@ATL@@2_NA DB 01H DUP (?)	; ATL::CAtlBaseModule::m_bInitFailed
_BSS	ENDS
;	COMDAT ?_pAtlModule@ATL@@3PAVCAtlModule@1@A
_BSS	SEGMENT
?_pAtlModule@ATL@@3PAVCAtlModule@1@A DD 01H DUP (?)	; ATL::_pAtlModule
_BSS	ENDS
;	COMDAT ?m_libid@CAtlModule@ATL@@2U_GUID@@A
_BSS	SEGMENT
?m_libid@CAtlModule@ATL@@2U_GUID@@A DB 010H DUP (?)	; ATL::CAtlModule::m_libid
_BSS	ENDS
;	COMDAT ?excludeDefaultSave@CImage@ATL@@2KB
CONST	SEGMENT
?excludeDefaultSave@CImage@ATL@@2KB DD 08cH		; ATL::CImage::excludeDefaultSave
CONST	ENDS
;	COMDAT ?excludeDefaultLoad@CImage@ATL@@2KB
CONST	SEGMENT
?excludeDefaultLoad@CImage@ATL@@2KB DD 00H		; ATL::CImage::excludeDefaultLoad
CONST	ENDS
;	COMDAT ?excludeOther@CImage@ATL@@2KB
CONST	SEGMENT
?excludeOther@CImage@ATL@@2KB DD 080000000H		; ATL::CImage::excludeOther
CONST	ENDS
;	COMDAT ?excludeIcon@CImage@ATL@@2KB
CONST	SEGMENT
?excludeIcon@CImage@ATL@@2KB DD 080H			; ATL::CImage::excludeIcon
CONST	ENDS
;	COMDAT ?excludeTIFF@CImage@ATL@@2KB
CONST	SEGMENT
?excludeTIFF@CImage@ATL@@2KB DD 040H			; ATL::CImage::excludeTIFF
CONST	ENDS
;	COMDAT ?excludePNG@CImage@ATL@@2KB
CONST	SEGMENT
?excludePNG@CImage@ATL@@2KB DD 020H			; ATL::CImage::excludePNG
CONST	ENDS
;	COMDAT ?excludeJPEG@CImage@ATL@@2KB
CONST	SEGMENT
?excludeJPEG@CImage@ATL@@2KB DD 010H			; ATL::CImage::excludeJPEG
CONST	ENDS
;	COMDAT ?excludeWMF@CImage@ATL@@2KB
CONST	SEGMENT
?excludeWMF@CImage@ATL@@2KB DD 08H			; ATL::CImage::excludeWMF
CONST	ENDS
;	COMDAT ?excludeEMF@CImage@ATL@@2KB
CONST	SEGMENT
?excludeEMF@CImage@ATL@@2KB DD 04H			; ATL::CImage::excludeEMF
CONST	ENDS
;	COMDAT ?excludeBMP@CImage@ATL@@2KB
CONST	SEGMENT
?excludeBMP@CImage@ATL@@2KB DD 02H			; ATL::CImage::excludeBMP
CONST	ENDS
;	COMDAT ?excludeGIF@CImage@ATL@@2KB
CONST	SEGMENT
?excludeGIF@CImage@ATL@@2KB DD 01H			; ATL::CImage::excludeGIF
CONST	ENDS
;	COMDAT ?createAlphaChannel@CImage@ATL@@2KB
CONST	SEGMENT
?createAlphaChannel@CImage@ATL@@2KB DD 01H		; ATL::CImage::createAlphaChannel
CONST	ENDS
;	COMDAT ?MAX_TYPE@CRegParser@ATL@@1HB
CONST	SEGMENT
?MAX_TYPE@CRegParser@ATL@@1HB DD 01000H			; ATL::CRegParser::MAX_TYPE
CONST	ENDS
;	COMDAT ?cbNeverDelete@CRegParser@ATL@@1HB
CONST	SEGMENT
?cbNeverDelete@CRegParser@ATL@@1HB DD 0cH		; ATL::CRegParser::cbNeverDelete
CONST	ENDS
;	COMDAT ?rgszNeverDelete@CRegParser@ATL@@1QBQB_WB
CONST	SEGMENT
?rgszNeverDelete@CRegParser@ATL@@1QBQB_WB DD FLAT:??_C@_1M@EJNEECMJ@?$AAA?$AAp?$AAp?$AAI?$AAD?$AA?$AA@ ; ATL::CRegParser::rgszNeverDelete
	DD	FLAT:??_C@_1M@KANJNLFF@?$AAC?$AAL?$AAS?$AAI?$AAD?$AA?$AA@
	DD	FLAT:??_C@_1CK@OEKPKBNA@?$AAC?$AAo?$AAm?$AAp?$AAo?$AAn?$AAe?$AAn?$AAt?$AA?5?$AAC?$AAa?$AAt?$AAe?$AAg?$AAo?$AAr?$AAi?$AAe?$AAs?$AA?$AA@
	DD	FLAT:??_C@_1BC@NKMMNMGL@?$AAF?$AAi?$AAl?$AAe?$AAT?$AAy?$AAp?$AAe?$AA?$AA@
	DD	FLAT:??_C@_1BE@EKPAFMCP@?$AAI?$AAn?$AAt?$AAe?$AAr?$AAf?$AAa?$AAc?$AAe?$AA?$AA@
	DD	FLAT:??_C@_1BC@MAICEHGI@?$AAH?$AAa?$AAr?$AAd?$AAw?$AAa?$AAr?$AAe?$AA?$AA@
	DD	FLAT:??_C@_19HLLLM@?$AAM?$AAi?$AAm?$AAe?$AA?$AA@
	DD	FLAT:??_C@_17OMAOINJK@?$AAS?$AAA?$AAM?$AA?$AA@
	DD	FLAT:??_C@_1BC@IBECJAAI@?$AAS?$AAE?$AAC?$AAU?$AAR?$AAI?$AAT?$AAY?$AA?$AA@
	DD	FLAT:??_C@_1O@GBFINDKL@?$AAS?$AAY?$AAS?$AAT?$AAE?$AAM?$AA?$AA@
	DD	FLAT:??_C@_1BC@EAHCMADO@?$AAS?$AAo?$AAf?$AAt?$AAw?$AAa?$AAr?$AAe?$AA?$AA@
	DD	FLAT:??_C@_1BA@JIHHIEDE@?$AAT?$AAy?$AAp?$AAe?$AAL?$AAi?$AAb?$AA?$AA@
CONST	ENDS
;	COMDAT ?c_bIsMFCDLLTraits@?$_MFCDLLTraitsCheck@_WV?$StrTraitATL@_WV?$ChTraitsCRT@_W@ATL@@@ATL@@@_CSTRING_IMPL_@ATL@@2_NB
CONST	SEGMENT
?c_bIsMFCDLLTraits@?$_MFCDLLTraitsCheck@_WV?$StrTraitATL@_WV?$ChTraitsCRT@_W@ATL@@@ATL@@@_CSTRING_IMPL_@ATL@@2_NB DB 00H ; ATL::_CSTRING_IMPL_::_MFCDLLTraitsCheck<wchar_t,ATL::StrTraitATL<wchar_t,ATL::ChTraitsCRT<wchar_t> > >::c_bIsMFCDLLTraits
CONST	ENDS
;	COMDAT ?MAX_VALUE@CRegParser@ATL@@1HB
CONST	SEGMENT
?MAX_VALUE@CRegParser@ATL@@1HB DD 01000H		; ATL::CRegParser::MAX_VALUE
CONST	ENDS
;	COMDAT ?pmField@?$CVarTypeInfo@PATtagCY@@@ATL@@2QQtagVARIANT@@PATtagCY@@Q3@
CONST	SEGMENT
?pmField@?$CVarTypeInfo@PATtagCY@@@ATL@@2QQtagVARIANT@@PATtagCY@@Q3@ DD 08H ; ATL::CVarTypeInfo<tagCY *>::pmField
CONST	ENDS
;	COMDAT ?VT@?$CVarTypeInfo@PATtagCY@@@ATL@@2GB
CONST	SEGMENT
?VT@?$CVarTypeInfo@PATtagCY@@@ATL@@2GB DW 04006H	; ATL::CVarTypeInfo<tagCY *>::VT
CONST	ENDS
;	COMDAT ?pmField@?$CVarTypeInfo@TtagCY@@@ATL@@2QQtagVARIANT@@TtagCY@@Q3@
CONST	SEGMENT
?pmField@?$CVarTypeInfo@TtagCY@@@ATL@@2QQtagVARIANT@@TtagCY@@Q3@ DD 08H ; ATL::CVarTypeInfo<tagCY>::pmField
CONST	ENDS
;	COMDAT ?VT@?$CVarTypeInfo@TtagCY@@@ATL@@2GB
CONST	SEGMENT
?VT@?$CVarTypeInfo@TtagCY@@@ATL@@2GB DW 06H		; ATL::CVarTypeInfo<tagCY>::VT
CONST	ENDS
;	COMDAT __GUID_00020400_0000_0000_c000_000000000046
CONST	SEGMENT
__GUID_00020400_0000_0000_c000_000000000046 DD 020400H
	DW	00H
	DW	00H
	DB	0c0H
	DB	00H
	DB	00H
	DB	00H
	DB	00H
	DB	00H
	DB	00H
	DB	046H
CONST	ENDS
;	COMDAT ?pmField@?$CVarTypeInfo@PAPAUIDispatch@@@ATL@@2QQtagVARIANT@@PAPAUIDispatch@@Q3@
CONST	SEGMENT
?pmField@?$CVarTypeInfo@PAPAUIDispatch@@@ATL@@2QQtagVARIANT@@PAPAUIDispatch@@Q3@ DD 08H ; ATL::CVarTypeInfo<IDispatch * *>::pmField
CONST	ENDS
;	COMDAT ?VT@?$CVarTypeInfo@PAPAUIDispatch@@@ATL@@2GB
CONST	SEGMENT
?VT@?$CVarTypeInfo@PAPAUIDispatch@@@ATL@@2GB DW 04009H	; ATL::CVarTypeInfo<IDispatch * *>::VT
CONST	ENDS
;	COMDAT __GUID_00000000_0000_0000_0000_000000000000
CONST	SEGMENT
__GUID_00000000_0000_0000_0000_000000000000 DD 00H
	DW	00H
	DW	00H
	DB	00H
	DB	00H
	DB	00H
	DB	00H
	DB	00H
	DB	00H
	DB	00H
	DB	00H
CONST	ENDS
;	COMDAT ?pmField@?$CVarTypeInfo@PAUIDispatch@@@ATL@@2QQtagVARIANT@@PAUIDispatch@@Q3@
CONST	SEGMENT
?pmField@?$CVarTypeInfo@PAUIDispatch@@@ATL@@2QQtagVARIANT@@PAUIDispatch@@Q3@ DD 08H ; ATL::CVarTypeInfo<IDispatch *>::pmField
CONST	ENDS
;	COMDAT __GUID_00000000_0000_0000_c000_000000000046
CONST	SEGMENT
__GUID_00000000_0000_0000_c000_000000000046 DD 00H
	DW	00H
	DW	00H
	DB	0c0H
	DB	00H
	DB	00H
	DB	00H
	DB	00H
	DB	00H
	DB	00H
	DB	046H
CONST	ENDS
;	COMDAT ?VT@?$CVarTypeInfo@PAUIDispatch@@@ATL@@2GB
CONST	SEGMENT
?VT@?$CVarTypeInfo@PAUIDispatch@@@ATL@@2GB DW 09H	; ATL::CVarTypeInfo<IDispatch *>::VT
CONST	ENDS
;	COMDAT ?sc_blueMask@ColorF@D2D1@@0IB
CONST	SEGMENT
?sc_blueMask@ColorF@D2D1@@0IB DD 0ffH			; D2D1::ColorF::sc_blueMask
CONST	ENDS
;	COMDAT ?sc_greenMask@ColorF@D2D1@@0IB
CONST	SEGMENT
?sc_greenMask@ColorF@D2D1@@0IB DD 0ff00H		; D2D1::ColorF::sc_greenMask
CONST	ENDS
;	COMDAT ?sc_redMask@ColorF@D2D1@@0IB
CONST	SEGMENT
?sc_redMask@ColorF@D2D1@@0IB DD 0ff0000H		; D2D1::ColorF::sc_redMask
CONST	ENDS
;	COMDAT ?sc_blueShift@ColorF@D2D1@@0IB
CONST	SEGMENT
?sc_blueShift@ColorF@D2D1@@0IB DD 00H			; D2D1::ColorF::sc_blueShift
CONST	ENDS
;	COMDAT ?sc_greenShift@ColorF@D2D1@@0IB
CONST	SEGMENT
?sc_greenShift@ColorF@D2D1@@0IB DD 08H			; D2D1::ColorF::sc_greenShift
CONST	ENDS
;	COMDAT _IID_IAxWinAmbientDispatch
CONST	SEGMENT
_IID_IAxWinAmbientDispatch DD 0b6ea2051H
	DW	048aH
	DW	011d1H
	DB	082H
	DB	0b9H
	DB	00H
	DB	0c0H
	DB	04fH
	DB	0b9H
	DB	094H
	DB	02eH
CONST	ENDS
;	COMDAT ?sc_redShift@ColorF@D2D1@@0IB
CONST	SEGMENT
?sc_redShift@ColorF@D2D1@@0IB DD 010H			; D2D1::ColorF::sc_redShift
CONST	ENDS
;	COMDAT ?pmField@?$CVarTypeInfo@PAPAUIUnknown@@@ATL@@2QQtagVARIANT@@PAPAUIUnknown@@Q3@
CONST	SEGMENT
?pmField@?$CVarTypeInfo@PAPAUIUnknown@@@ATL@@2QQtagVARIANT@@PAPAUIUnknown@@Q3@ DD 08H ; ATL::CVarTypeInfo<IUnknown * *>::pmField
CONST	ENDS
;	COMDAT ?VT@?$CVarTypeInfo@PAPAUIUnknown@@@ATL@@2GB
CONST	SEGMENT
?VT@?$CVarTypeInfo@PAPAUIUnknown@@@ATL@@2GB DW 0400dH	; ATL::CVarTypeInfo<IUnknown * *>::VT
CONST	ENDS
;	COMDAT ?pmField@?$CVarTypeInfo@PAUIUnknown@@@ATL@@2QQtagVARIANT@@PAUIUnknown@@Q3@
CONST	SEGMENT
?pmField@?$CVarTypeInfo@PAUIUnknown@@@ATL@@2QQtagVARIANT@@PAUIUnknown@@Q3@ DD 08H ; ATL::CVarTypeInfo<IUnknown *>::pmField
CONST	ENDS
;	COMDAT ?VT@?$CVarTypeInfo@PAUIUnknown@@@ATL@@2GB
CONST	SEGMENT
?VT@?$CVarTypeInfo@PAUIUnknown@@@ATL@@2GB DW 0dH	; ATL::CVarTypeInfo<IUnknown *>::VT
CONST	ENDS
;	COMDAT ?pmField@?$CVarTypeInfo@PAPA_W@ATL@@2QQtagVARIANT@@PAPA_WQ3@
CONST	SEGMENT
?pmField@?$CVarTypeInfo@PAPA_W@ATL@@2QQtagVARIANT@@PAPA_WQ3@ DD 08H ; ATL::CVarTypeInfo<wchar_t * *>::pmField
CONST	ENDS
;	COMDAT ?VT@?$CVarTypeInfo@PAPA_W@ATL@@2GB
CONST	SEGMENT
?VT@?$CVarTypeInfo@PAPA_W@ATL@@2GB DW 04008H		; ATL::CVarTypeInfo<wchar_t * *>::VT
CONST	ENDS
;	COMDAT ?pmField@?$CVarTypeInfo@PA_W@ATL@@2QQtagVARIANT@@PA_WQ3@
CONST	SEGMENT
?pmField@?$CVarTypeInfo@PA_W@ATL@@2QQtagVARIANT@@PA_WQ3@ DD 08H ; ATL::CVarTypeInfo<wchar_t *>::pmField
CONST	ENDS
;	COMDAT ?VT@?$CVarTypeInfo@PA_W@ATL@@2GB
CONST	SEGMENT
?VT@?$CVarTypeInfo@PA_W@ATL@@2GB DW 08H			; ATL::CVarTypeInfo<wchar_t *>::VT
CONST	ENDS
;	COMDAT _IID_IAxWinHostWindowLic
CONST	SEGMENT
_IID_IAxWinHostWindowLic DD 03935bda8H
	DW	04ed9H
	DW	0495cH
	DB	086H
	DB	050H
	DB	0e0H
	DB	01fH
	DB	0c1H
	DB	0e3H
	DB	08aH
	DB	04bH
CONST	ENDS
;	COMDAT ?VT@?$CVarTypeInfo@PAUtagVARIANT@@@ATL@@2GB
CONST	SEGMENT
?VT@?$CVarTypeInfo@PAUtagVARIANT@@@ATL@@2GB DW 0400cH	; ATL::CVarTypeInfo<tagVARIANT *>::VT
CONST	ENDS
;	COMDAT ?pmField@?$CVarTypeInfo@PAN@ATL@@2QQtagVARIANT@@PANQ3@
CONST	SEGMENT
?pmField@?$CVarTypeInfo@PAN@ATL@@2QQtagVARIANT@@PANQ3@ DD 08H ; ATL::CVarTypeInfo<double *>::pmField
CONST	ENDS
;	COMDAT ?VT@?$CVarTypeInfo@PAN@ATL@@2GB
CONST	SEGMENT
?VT@?$CVarTypeInfo@PAN@ATL@@2GB DW 04005H		; ATL::CVarTypeInfo<double *>::VT
CONST	ENDS
;	COMDAT ?pmField@?$CVarTypeInfo@N@ATL@@2QQtagVARIANT@@NQ3@
CONST	SEGMENT
?pmField@?$CVarTypeInfo@N@ATL@@2QQtagVARIANT@@NQ3@ DD 08H ; ATL::CVarTypeInfo<double>::pmField
CONST	ENDS
;	COMDAT ?VT@?$CVarTypeInfo@N@ATL@@2GB
CONST	SEGMENT
?VT@?$CVarTypeInfo@N@ATL@@2GB DW 05H			; ATL::CVarTypeInfo<double>::VT
CONST	ENDS
;	COMDAT ?pmField@?$CVarTypeInfo@PAM@ATL@@2QQtagVARIANT@@PAMQ3@
CONST	SEGMENT
?pmField@?$CVarTypeInfo@PAM@ATL@@2QQtagVARIANT@@PAMQ3@ DD 08H ; ATL::CVarTypeInfo<float *>::pmField
CONST	ENDS
;	COMDAT ?VT@?$CVarTypeInfo@PAM@ATL@@2GB
CONST	SEGMENT
?VT@?$CVarTypeInfo@PAM@ATL@@2GB DW 04004H		; ATL::CVarTypeInfo<float *>::VT
CONST	ENDS
;	COMDAT ?pmField@?$CVarTypeInfo@M@ATL@@2QQtagVARIANT@@MQ3@
CONST	SEGMENT
?pmField@?$CVarTypeInfo@M@ATL@@2QQtagVARIANT@@MQ3@ DD 08H ; ATL::CVarTypeInfo<float>::pmField
CONST	ENDS
;	COMDAT ?VT@?$CVarTypeInfo@M@ATL@@2GB
CONST	SEGMENT
?VT@?$CVarTypeInfo@M@ATL@@2GB DW 04H			; ATL::CVarTypeInfo<float>::VT
CONST	ENDS
;	COMDAT ?pmField@?$CVarTypeInfo@PA_K@ATL@@2QQtagVARIANT@@PA_KQ3@
CONST	SEGMENT
?pmField@?$CVarTypeInfo@PA_K@ATL@@2QQtagVARIANT@@PA_KQ3@ DD 08H ; ATL::CVarTypeInfo<unsigned __int64 *>::pmField
CONST	ENDS
;	COMDAT ?VT@?$CVarTypeInfo@PA_K@ATL@@2GB
CONST	SEGMENT
?VT@?$CVarTypeInfo@PA_K@ATL@@2GB DW 04015H		; ATL::CVarTypeInfo<unsigned __int64 *>::VT
CONST	ENDS
;	COMDAT ?pmField@?$CVarTypeInfo@_K@ATL@@2QQtagVARIANT@@_KQ3@
CONST	SEGMENT
?pmField@?$CVarTypeInfo@_K@ATL@@2QQtagVARIANT@@_KQ3@ DD 08H ; ATL::CVarTypeInfo<unsigned __int64>::pmField
CONST	ENDS
;	COMDAT ?VT@?$CVarTypeInfo@_K@ATL@@2GB
CONST	SEGMENT
?VT@?$CVarTypeInfo@_K@ATL@@2GB DW 015H			; ATL::CVarTypeInfo<unsigned __int64>::VT
CONST	ENDS
;	COMDAT _IID_IAxWinHostWindow
CONST	SEGMENT
_IID_IAxWinHostWindow DD 0b6ea2050H
	DW	048aH
	DW	011d1H
	DB	082H
	DB	0b9H
	DB	00H
	DB	0c0H
	DB	04fH
	DB	0b9H
	DB	094H
	DB	02eH
CONST	ENDS
;	COMDAT ?pmField@?$CVarTypeInfo@PA_J@ATL@@2QQtagVARIANT@@PA_JQ3@
CONST	SEGMENT
?pmField@?$CVarTypeInfo@PA_J@ATL@@2QQtagVARIANT@@PA_JQ3@ DD 08H ; ATL::CVarTypeInfo<__int64 *>::pmField
CONST	ENDS
;	COMDAT ??_C@_1O@JDLOHAN@?$AAD?$AAe?$AAl?$AAe?$AAt?$AAe?$AA?$AA@
CONST	SEGMENT
??_C@_1O@JDLOHAN@?$AAD?$AAe?$AAl?$AAe?$AAt?$AAe?$AA?$AA@ DB 'D', 00H, 'e', 00H
	DB	'l', 00H, 'e', 00H, 't', 00H, 'e', 00H, 00H, 00H ; `string'
CONST	ENDS
;	COMDAT ?VT@?$CVarTypeInfo@PA_J@ATL@@2GB
CONST	SEGMENT
?VT@?$CVarTypeInfo@PA_J@ATL@@2GB DW 04014H		; ATL::CVarTypeInfo<__int64 *>::VT
CONST	ENDS
;	COMDAT ?szDelete@ATL@@3QB_WB
CONST	SEGMENT
?szDelete@ATL@@3QB_WB DD FLAT:??_C@_1O@JDLOHAN@?$AAD?$AAe?$AAl?$AAe?$AAt?$AAe?$AA?$AA@ ; ATL::szDelete
CONST	ENDS
;	COMDAT ??_C@_1BC@GCKHIPE@?$AAN?$AAo?$AAR?$AAe?$AAm?$AAo?$AAv?$AAe?$AA?$AA@
CONST	SEGMENT
??_C@_1BC@GCKHIPE@?$AAN?$AAo?$AAR?$AAe?$AAm?$AAo?$AAv?$AAe?$AA?$AA@ DB 'N'
	DB	00H, 'o', 00H, 'R', 00H, 'e', 00H, 'm', 00H, 'o', 00H, 'v', 00H
	DB	'e', 00H, 00H, 00H				; `string'
CONST	ENDS
;	COMDAT ?szNoRemove@ATL@@3QB_WB
CONST	SEGMENT
?szNoRemove@ATL@@3QB_WB DD FLAT:??_C@_1BC@GCKHIPE@?$AAN?$AAo?$AAR?$AAe?$AAm?$AAo?$AAv?$AAe?$AA?$AA@ ; ATL::szNoRemove
CONST	ENDS
;	COMDAT ??_C@_1BI@JFAIJMHL@?$AAF?$AAo?$AAr?$AAc?$AAe?$AAR?$AAe?$AAm?$AAo?$AAv?$AAe?$AA?$AA@
CONST	SEGMENT
??_C@_1BI@JFAIJMHL@?$AAF?$AAo?$AAr?$AAc?$AAe?$AAR?$AAe?$AAm?$AAo?$AAv?$AAe?$AA?$AA@ DB 'F'
	DB	00H, 'o', 00H, 'r', 00H, 'c', 00H, 'e', 00H, 'R', 00H, 'e', 00H
	DB	'm', 00H, 'o', 00H, 'v', 00H, 'e', 00H, 00H, 00H ; `string'
CONST	ENDS
;	COMDAT ?szForceRemove@ATL@@3QB_WB
CONST	SEGMENT
?szForceRemove@ATL@@3QB_WB DD FLAT:??_C@_1BI@JFAIJMHL@?$AAF?$AAo?$AAr?$AAc?$AAe?$AAR?$AAe?$AAm?$AAo?$AAv?$AAe?$AA?$AA@ ; ATL::szForceRemove
CONST	ENDS
;	COMDAT ??_C@_17LLMMEOJD@?$AAV?$AAa?$AAl?$AA?$AA@
CONST	SEGMENT
??_C@_17LLMMEOJD@?$AAV?$AAa?$AAl?$AA?$AA@ DB 'V', 00H, 'a', 00H, 'l', 00H
	DB	00H, 00H					; `string'
CONST	ENDS
;	COMDAT ?szValToken@ATL@@3QB_WB
CONST	SEGMENT
?szValToken@ATL@@3QB_WB DD FLAT:??_C@_17LLMMEOJD@?$AAV?$AAa?$AAl?$AA?$AA@ ; ATL::szValToken
CONST	ENDS
;	COMDAT ??_C@_13OPKGLAFF@?$AAB?$AA?$AA@
CONST	SEGMENT
??_C@_13OPKGLAFF@?$AAB?$AA?$AA@ DB 'B', 00H, 00H, 00H	; `string'
CONST	ENDS
;	COMDAT ?szBinaryVal@ATL@@3QB_WB
CONST	SEGMENT
?szBinaryVal@ATL@@3QB_WB DD FLAT:??_C@_13OPKGLAFF@?$AAB?$AA?$AA@ ; ATL::szBinaryVal
CONST	ENDS
;	COMDAT ??_C@_13MKMNOPIJ@?$AAD?$AA?$AA@
CONST	SEGMENT
??_C@_13MKMNOPIJ@?$AAD?$AA?$AA@ DB 'D', 00H, 00H, 00H	; `string'
CONST	ENDS
;	COMDAT ?szDwordVal@ATL@@3QB_WB
CONST	SEGMENT
?szDwordVal@ATL@@3QB_WB DD FLAT:??_C@_13MKMNOPIJ@?$AAD?$AA?$AA@ ; ATL::szDwordVal
CONST	ENDS
;	COMDAT ??_C@_13LHMFKAAD@?$AAM?$AA?$AA@
CONST	SEGMENT
??_C@_13LHMFKAAD@?$AAM?$AA?$AA@ DB 'M', 00H, 00H, 00H	; `string'
CONST	ENDS
;	COMDAT ?pmField@?$CVarTypeInfo@_J@ATL@@2QQtagVARIANT@@_JQ3@
CONST	SEGMENT
?pmField@?$CVarTypeInfo@_J@ATL@@2QQtagVARIANT@@_JQ3@ DD 08H ; ATL::CVarTypeInfo<__int64>::pmField
CONST	ENDS
;	COMDAT ?multiszStringVal@ATL@@3QB_WB
CONST	SEGMENT
?multiszStringVal@ATL@@3QB_WB DD FLAT:??_C@_13LHMFKAAD@?$AAM?$AA?$AA@ ; ATL::multiszStringVal
CONST	ENDS
;	COMDAT ??_C@_13HADIAKP@?$AAS?$AA?$AA@
CONST	SEGMENT
??_C@_13HADIAKP@?$AAS?$AA?$AA@ DB 'S', 00H, 00H, 00H	; `string'
CONST	ENDS
;	COMDAT ?VT@?$CVarTypeInfo@_J@ATL@@2GB
CONST	SEGMENT
?VT@?$CVarTypeInfo@_J@ATL@@2GB DW 014H			; ATL::CVarTypeInfo<__int64>::VT
CONST	ENDS
;	COMDAT ?szStringVal@ATL@@3QB_WB
CONST	SEGMENT
?szStringVal@ATL@@3QB_WB DD FLAT:??_C@_13HADIAKP@?$AAS?$AA?$AA@ ; ATL::szStringVal
CONST	ENDS
;	COMDAT ?chEquals@ATL@@3_WB
CONST	SEGMENT
?chEquals@ATL@@3_WB DW 03dH				; ATL::chEquals
CONST	ENDS
;	COMDAT ?chQuote@ATL@@3_WB
CONST	SEGMENT
?chQuote@ATL@@3_WB DW 027H				; ATL::chQuote
CONST	ENDS
;	COMDAT ?chLeftBracket@ATL@@3_WB
CONST	SEGMENT
?chLeftBracket@ATL@@3_WB DW 07bH			; ATL::chLeftBracket
CONST	ENDS
;	COMDAT ?chRightBracket@ATL@@3_WB
CONST	SEGMENT
?chRightBracket@ATL@@3_WB DW 07dH			; ATL::chRightBracket
CONST	ENDS
;	COMDAT ?chDirSep@ATL@@3_WB
CONST	SEGMENT
?chDirSep@ATL@@3_WB DW 05cH				; ATL::chDirSep
CONST	ENDS
;	COMDAT ?pmField@?$CVarTypeInfo@PAK@ATL@@2QQtagVARIANT@@PAKQ3@
CONST	SEGMENT
?pmField@?$CVarTypeInfo@PAK@ATL@@2QQtagVARIANT@@PAKQ3@ DD 08H ; ATL::CVarTypeInfo<unsigned long *>::pmField
CONST	ENDS
;	COMDAT ?VT@?$CVarTypeInfo@PAK@ATL@@2GB
CONST	SEGMENT
?VT@?$CVarTypeInfo@PAK@ATL@@2GB DW 04013H		; ATL::CVarTypeInfo<unsigned long *>::VT
CONST	ENDS
;	COMDAT ?c_bIsMFCDLLTraits@?$_MFCDLLTraitsCheck@_WV?$StrTraitMFC_DLL@_WV?$ChTraitsCRT@_W@ATL@@@@@_CSTRING_IMPL_@ATL@@2_NB
CONST	SEGMENT
?c_bIsMFCDLLTraits@?$_MFCDLLTraitsCheck@_WV?$StrTraitMFC_DLL@_WV?$ChTraitsCRT@_W@ATL@@@@@_CSTRING_IMPL_@ATL@@2_NB DB 01H ; ATL::_CSTRING_IMPL_::_MFCDLLTraitsCheck<wchar_t,StrTraitMFC_DLL<wchar_t,ATL::ChTraitsCRT<wchar_t> > >::c_bIsMFCDLLTraits
CONST	ENDS
;	COMDAT ?pmField@?$CVarTypeInfo@K@ATL@@2QQtagVARIANT@@KQ3@
CONST	SEGMENT
?pmField@?$CVarTypeInfo@K@ATL@@2QQtagVARIANT@@KQ3@ DD 08H ; ATL::CVarTypeInfo<unsigned long>::pmField
CONST	ENDS
;	COMDAT ?VT@?$CVarTypeInfo@K@ATL@@2GB
CONST	SEGMENT
?VT@?$CVarTypeInfo@K@ATL@@2GB DW 013H			; ATL::CVarTypeInfo<unsigned long>::VT
CONST	ENDS
;	COMDAT ?pmField@?$CVarTypeInfo@PAJ@ATL@@2QQtagVARIANT@@PAJQ3@
CONST	SEGMENT
?pmField@?$CVarTypeInfo@PAJ@ATL@@2QQtagVARIANT@@PAJQ3@ DD 08H ; ATL::CVarTypeInfo<long *>::pmField
CONST	ENDS
;	COMDAT ?VT@?$CVarTypeInfo@PAJ@ATL@@2GB
CONST	SEGMENT
?VT@?$CVarTypeInfo@PAJ@ATL@@2GB DW 04003H		; ATL::CVarTypeInfo<long *>::VT
CONST	ENDS
;	COMDAT ?pmField@?$CVarTypeInfo@J@ATL@@2QQtagVARIANT@@JQ3@
CONST	SEGMENT
?pmField@?$CVarTypeInfo@J@ATL@@2QQtagVARIANT@@JQ3@ DD 08H ; ATL::CVarTypeInfo<long>::pmField
CONST	ENDS
;	COMDAT ?VT@?$CVarTypeInfo@J@ATL@@2GB
CONST	SEGMENT
?VT@?$CVarTypeInfo@J@ATL@@2GB DW 03H			; ATL::CVarTypeInfo<long>::VT
CONST	ENDS
;	COMDAT ?pmField@?$CVarTypeInfo@PAI@ATL@@2QQtagVARIANT@@PAIQ3@
CONST	SEGMENT
?pmField@?$CVarTypeInfo@PAI@ATL@@2QQtagVARIANT@@PAIQ3@ DD 08H ; ATL::CVarTypeInfo<unsigned int *>::pmField
CONST	ENDS
;	COMDAT ?VT@?$CVarTypeInfo@PAI@ATL@@2GB
CONST	SEGMENT
?VT@?$CVarTypeInfo@PAI@ATL@@2GB DW 04013H		; ATL::CVarTypeInfo<unsigned int *>::VT
CONST	ENDS
;	COMDAT ?pmField@?$CVarTypeInfo@I@ATL@@2QQtagVARIANT@@IQ3@
CONST	SEGMENT
?pmField@?$CVarTypeInfo@I@ATL@@2QQtagVARIANT@@IQ3@ DD 08H ; ATL::CVarTypeInfo<unsigned int>::pmField
CONST	ENDS
;	COMDAT ?VT@?$CVarTypeInfo@I@ATL@@2GB
CONST	SEGMENT
?VT@?$CVarTypeInfo@I@ATL@@2GB DW 013H			; ATL::CVarTypeInfo<unsigned int>::VT
CONST	ENDS
;	COMDAT ??_C@_1M@EJNEECMJ@?$AAA?$AAp?$AAp?$AAI?$AAD?$AA?$AA@
CONST	SEGMENT
??_C@_1M@EJNEECMJ@?$AAA?$AAp?$AAp?$AAI?$AAD?$AA?$AA@ DB 'A', 00H, 'p', 00H
	DB	'p', 00H, 'I', 00H, 'D', 00H, 00H, 00H	; `string'
CONST	ENDS
;	COMDAT ?pmField@?$CVarTypeInfo@PAH@ATL@@2QQtagVARIANT@@PAHQ3@
CONST	SEGMENT
?pmField@?$CVarTypeInfo@PAH@ATL@@2QQtagVARIANT@@PAHQ3@ DD 08H ; ATL::CVarTypeInfo<int *>::pmField
CONST	ENDS
;	COMDAT ?VT@?$CVarTypeInfo@PAH@ATL@@2GB
CONST	SEGMENT
?VT@?$CVarTypeInfo@PAH@ATL@@2GB DW 04003H		; ATL::CVarTypeInfo<int *>::VT
CONST	ENDS
;	COMDAT ?pmField@?$CVarTypeInfo@H@ATL@@2QQtagVARIANT@@HQ3@
CONST	SEGMENT
?pmField@?$CVarTypeInfo@H@ATL@@2QQtagVARIANT@@HQ3@ DD 08H ; ATL::CVarTypeInfo<int>::pmField
CONST	ENDS
;	COMDAT ?VT@?$CVarTypeInfo@H@ATL@@2GB
CONST	SEGMENT
?VT@?$CVarTypeInfo@H@ATL@@2GB DW 03H			; ATL::CVarTypeInfo<int>::VT
CONST	ENDS
;	COMDAT ?pmField@?$CVarTypeInfo@PAG@ATL@@2QQtagVARIANT@@PAGQ3@
CONST	SEGMENT
?pmField@?$CVarTypeInfo@PAG@ATL@@2QQtagVARIANT@@PAGQ3@ DD 08H ; ATL::CVarTypeInfo<unsigned short *>::pmField
CONST	ENDS
;	COMDAT ??_C@_1M@KANJNLFF@?$AAC?$AAL?$AAS?$AAI?$AAD?$AA?$AA@
CONST	SEGMENT
??_C@_1M@KANJNLFF@?$AAC?$AAL?$AAS?$AAI?$AAD?$AA?$AA@ DB 'C', 00H, 'L', 00H
	DB	'S', 00H, 'I', 00H, 'D', 00H, 00H, 00H	; `string'
CONST	ENDS
;	COMDAT ?VT@?$CVarTypeInfo@PAG@ATL@@2GB
CONST	SEGMENT
?VT@?$CVarTypeInfo@PAG@ATL@@2GB DW 04012H		; ATL::CVarTypeInfo<unsigned short *>::VT
CONST	ENDS
;	COMDAT ?pmField@?$CVarTypeInfo@G@ATL@@2QQtagVARIANT@@GQ3@
CONST	SEGMENT
?pmField@?$CVarTypeInfo@G@ATL@@2QQtagVARIANT@@GQ3@ DD 08H ; ATL::CVarTypeInfo<unsigned short>::pmField
CONST	ENDS
;	COMDAT ?VT@?$CVarTypeInfo@G@ATL@@2GB
CONST	SEGMENT
?VT@?$CVarTypeInfo@G@ATL@@2GB DW 012H			; ATL::CVarTypeInfo<unsigned short>::VT
CONST	ENDS
;	COMDAT ?pmField@?$CVarTypeInfo@PAF@ATL@@2QQtagVARIANT@@PAFQ3@
CONST	SEGMENT
?pmField@?$CVarTypeInfo@PAF@ATL@@2QQtagVARIANT@@PAFQ3@ DD 08H ; ATL::CVarTypeInfo<short *>::pmField
CONST	ENDS
;	COMDAT ?VT@?$CVarTypeInfo@PAF@ATL@@2GB
CONST	SEGMENT
?VT@?$CVarTypeInfo@PAF@ATL@@2GB DW 04002H		; ATL::CVarTypeInfo<short *>::VT
CONST	ENDS
;	COMDAT __GUID_7fd52380_4e07_101b_ae2d_08002b2ec713
CONST	SEGMENT
__GUID_7fd52380_4e07_101b_ae2d_08002b2ec713 DD 07fd52380H
	DW	04e07H
	DW	0101bH
	DB	0aeH
	DB	02dH
	DB	08H
	DB	00H
	DB	02bH
	DB	02eH
	DB	0c7H
	DB	013H
CONST	ENDS
;	COMDAT __GUID_00000109_0000_0000_c000_000000000046
CONST	SEGMENT
__GUID_00000109_0000_0000_c000_000000000046 DD 0109H
	DW	00H
	DW	00H
	DB	0c0H
	DB	00H
	DB	00H
	DB	00H
	DB	00H
	DB	00H
	DB	00H
	DB	046H
CONST	ENDS
;	COMDAT __GUID_0002e012_0000_0000_c000_000000000046
CONST	SEGMENT
__GUID_0002e012_0000_0000_c000_000000000046 DD 02e012H
	DW	00H
	DW	00H
	DB	0c0H
	DB	00H
	DB	00H
	DB	00H
	DB	00H
	DB	00H
	DB	00H
	DB	046H
CONST	ENDS
;	COMDAT ?pmField@?$CVarTypeInfo@F@ATL@@2QQtagVARIANT@@FQ3@
CONST	SEGMENT
?pmField@?$CVarTypeInfo@F@ATL@@2QQtagVARIANT@@FQ3@ DD 08H ; ATL::CVarTypeInfo<short>::pmField
CONST	ENDS
;	COMDAT ?VT@?$CVarTypeInfo@F@ATL@@2GB
CONST	SEGMENT
?VT@?$CVarTypeInfo@F@ATL@@2GB DW 02H			; ATL::CVarTypeInfo<short>::VT
CONST	ENDS
;	COMDAT ?pmField@?$CVarTypeInfo@PAE@ATL@@2QQtagVARIANT@@PAEQ3@
CONST	SEGMENT
?pmField@?$CVarTypeInfo@PAE@ATL@@2QQtagVARIANT@@PAEQ3@ DD 08H ; ATL::CVarTypeInfo<unsigned char *>::pmField
CONST	ENDS
;	COMDAT ?VT@?$CVarTypeInfo@PAE@ATL@@2GB
CONST	SEGMENT
?VT@?$CVarTypeInfo@PAE@ATL@@2GB DW 04011H		; ATL::CVarTypeInfo<unsigned char *>::VT
CONST	ENDS
;	COMDAT ?pmField@?$CVarTypeInfo@PAD@ATL@@2QQtagVARIANT@@PADQ3@
CONST	SEGMENT
?pmField@?$CVarTypeInfo@PAD@ATL@@2QQtagVARIANT@@PADQ3@ DD 08H ; ATL::CVarTypeInfo<char *>::pmField
CONST	ENDS
;	COMDAT ?VT@?$CVarTypeInfo@PAD@ATL@@2GB
CONST	SEGMENT
?VT@?$CVarTypeInfo@PAD@ATL@@2GB DW 04010H		; ATL::CVarTypeInfo<char *>::VT
CONST	ENDS
;	COMDAT __pIncludeInitManaged
_DATA	SEGMENT
__pIncludeInitManaged DD FLAT:?_AfxInitManaged@@YAHXZ
_DATA	ENDS
;	COMDAT _IID_IDocHostUIHandlerDispatch
CONST	SEGMENT
_IID_IDocHostUIHandlerDispatch DD 0425b5af0H
	DW	065f1H
	DW	011d1H
	DB	096H
	DB	011H
	DB	00H
	DB	00H
	DB	0f8H
	DB	01eH
	DB	0dH
	DB	0dH
CONST	ENDS
;	COMDAT ?pmField@?$CVarTypeInfo@E@ATL@@2QQtagVARIANT@@EQ3@
CONST	SEGMENT
?pmField@?$CVarTypeInfo@E@ATL@@2QQtagVARIANT@@EQ3@ DD 08H ; ATL::CVarTypeInfo<unsigned char>::pmField
CONST	ENDS
;	COMDAT ?VT@?$CVarTypeInfo@E@ATL@@2GB
CONST	SEGMENT
?VT@?$CVarTypeInfo@E@ATL@@2GB DW 011H			; ATL::CVarTypeInfo<unsigned char>::VT
CONST	ENDS
;	COMDAT ?pmField@?$CVarTypeInfo@D@ATL@@2QQtagVARIANT@@DQ3@
CONST	SEGMENT
?pmField@?$CVarTypeInfo@D@ATL@@2QQtagVARIANT@@DQ3@ DD 08H ; ATL::CVarTypeInfo<char>::pmField
CONST	ENDS
;	COMDAT ?VT@?$CVarTypeInfo@D@ATL@@2GB
CONST	SEGMENT
?VT@?$CVarTypeInfo@D@ATL@@2GB DW 010H			; ATL::CVarTypeInfo<char>::VT
CONST	ENDS
;	COMDAT __GUID_43826d1e_e718_42ee_bc55_a1e261c37bfe
CONST	SEGMENT
__GUID_43826d1e_e718_42ee_bc55_a1e261c37bfe DD 043826d1eH
	DW	0e718H
	DW	042eeH
	DB	0bcH
	DB	055H
	DB	0a1H
	DB	0e2H
	DB	061H
	DB	0c3H
	DB	07bH
	DB	0feH
CONST	ENDS
;	COMDAT __GUID_11a66efa_382e_451a_9234_1e0e12ef3085
CONST	SEGMENT
__GUID_11a66efa_382e_451a_9234_1e0e12ef3085 DD 011a66efaH
	DW	0382eH
	DW	0451aH
	DB	092H
	DB	034H
	DB	01eH
	DB	0eH
	DB	012H
	DB	0efH
	DB	030H
	DB	085H
CONST	ENDS
;	COMDAT ??_C@_1BA@JIHHIEDE@?$AAT?$AAy?$AAp?$AAe?$AAL?$AAi?$AAb?$AA?$AA@
CONST	SEGMENT
??_C@_1BA@JIHHIEDE@?$AAT?$AAy?$AAp?$AAe?$AAL?$AAi?$AAb?$AA?$AA@ DB 'T', 00H
	DB	'y', 00H, 'p', 00H, 'e', 00H, 'L', 00H, 'i', 00H, 'b', 00H, 00H
	DB	00H						; `string'
CONST	ENDS
;	COMDAT ??_C@_1BC@EAHCMADO@?$AAS?$AAo?$AAf?$AAt?$AAw?$AAa?$AAr?$AAe?$AA?$AA@
CONST	SEGMENT
??_C@_1BC@EAHCMADO@?$AAS?$AAo?$AAf?$AAt?$AAw?$AAa?$AAr?$AAe?$AA?$AA@ DB 'S'
	DB	00H, 'o', 00H, 'f', 00H, 't', 00H, 'w', 00H, 'a', 00H, 'r', 00H
	DB	'e', 00H, 00H, 00H				; `string'
CONST	ENDS
;	COMDAT ??_C@_1O@GBFINDKL@?$AAS?$AAY?$AAS?$AAT?$AAE?$AAM?$AA?$AA@
CONST	SEGMENT
??_C@_1O@GBFINDKL@?$AAS?$AAY?$AAS?$AAT?$AAE?$AAM?$AA?$AA@ DB 'S', 00H, 'Y'
	DB	00H, 'S', 00H, 'T', 00H, 'E', 00H, 'M', 00H, 00H, 00H ; `string'
CONST	ENDS
;	COMDAT ??_C@_1BC@IBECJAAI@?$AAS?$AAE?$AAC?$AAU?$AAR?$AAI?$AAT?$AAY?$AA?$AA@
CONST	SEGMENT
??_C@_1BC@IBECJAAI@?$AAS?$AAE?$AAC?$AAU?$AAR?$AAI?$AAT?$AAY?$AA?$AA@ DB 'S'
	DB	00H, 'E', 00H, 'C', 00H, 'U', 00H, 'R', 00H, 'I', 00H, 'T', 00H
	DB	'Y', 00H, 00H, 00H				; `string'
CONST	ENDS
;	COMDAT ??_C@_17OMAOINJK@?$AAS?$AAA?$AAM?$AA?$AA@
CONST	SEGMENT
??_C@_17OMAOINJK@?$AAS?$AAA?$AAM?$AA?$AA@ DB 'S', 00H, 'A', 00H, 'M', 00H
	DB	00H, 00H					; `string'
CONST	ENDS
;	COMDAT ??_C@_19HLLLM@?$AAM?$AAi?$AAm?$AAe?$AA?$AA@
CONST	SEGMENT
??_C@_19HLLLM@?$AAM?$AAi?$AAm?$AAe?$AA?$AA@ DB 'M', 00H, 'i', 00H, 'm', 00H
	DB	'e', 00H, 00H, 00H				; `string'
CONST	ENDS
;	COMDAT ??_C@_1BC@MAICEHGI@?$AAH?$AAa?$AAr?$AAd?$AAw?$AAa?$AAr?$AAe?$AA?$AA@
CONST	SEGMENT
??_C@_1BC@MAICEHGI@?$AAH?$AAa?$AAr?$AAd?$AAw?$AAa?$AAr?$AAe?$AA?$AA@ DB 'H'
	DB	00H, 'a', 00H, 'r', 00H, 'd', 00H, 'w', 00H, 'a', 00H, 'r', 00H
	DB	'e', 00H, 00H, 00H				; `string'
CONST	ENDS
;	COMDAT ??_C@_1BE@EKPAFMCP@?$AAI?$AAn?$AAt?$AAe?$AAr?$AAf?$AAa?$AAc?$AAe?$AA?$AA@
CONST	SEGMENT
??_C@_1BE@EKPAFMCP@?$AAI?$AAn?$AAt?$AAe?$AAr?$AAf?$AAa?$AAc?$AAe?$AA?$AA@ DB 'I'
	DB	00H, 'n', 00H, 't', 00H, 'e', 00H, 'r', 00H, 'f', 00H, 'a', 00H
	DB	'c', 00H, 'e', 00H, 00H, 00H			; `string'
CONST	ENDS
;	COMDAT ??_C@_1BC@NKMMNMGL@?$AAF?$AAi?$AAl?$AAe?$AAT?$AAy?$AAp?$AAe?$AA?$AA@
CONST	SEGMENT
??_C@_1BC@NKMMNMGL@?$AAF?$AAi?$AAl?$AAe?$AAT?$AAy?$AAp?$AAe?$AA?$AA@ DB 'F'
	DB	00H, 'i', 00H, 'l', 00H, 'e', 00H, 'T', 00H, 'y', 00H, 'p', 00H
	DB	'e', 00H, 00H, 00H				; `string'
CONST	ENDS
;	COMDAT ??_C@_1CK@OEKPKBNA@?$AAC?$AAo?$AAm?$AAp?$AAo?$AAn?$AAe?$AAn?$AAt?$AA?5?$AAC?$AAa?$AAt?$AAe?$AAg?$AAo?$AAr?$AAi?$AAe?$AAs?$AA?$AA@
CONST	SEGMENT
??_C@_1CK@OEKPKBNA@?$AAC?$AAo?$AAm?$AAp?$AAo?$AAn?$AAe?$AAn?$AAt?$AA?5?$AAC?$AAa?$AAt?$AAe?$AAg?$AAo?$AAr?$AAi?$AAe?$AAs?$AA?$AA@ DB 'C'
	DB	00H, 'o', 00H, 'm', 00H, 'p', 00H, 'o', 00H, 'n', 00H, 'e', 00H
	DB	'n', 00H, 't', 00H, ' ', 00H, 'C', 00H, 'a', 00H, 't', 00H, 'e'
	DB	00H, 'g', 00H, 'o', 00H, 'r', 00H, 'i', 00H, 'e', 00H, 's', 00H
	DB	00H, 00H					; `string'
CONST	ENDS
;	COMDAT ?CLSID_WinFormsControl@@3U_GUID@@B
CONST	SEGMENT
?CLSID_WinFormsControl@@3U_GUID@@B DD 0b7e7a666H	; CLSID_WinFormsControl
	DW	0d623H
	DW	0457fH
	DB	0a3H
	DB	0aH
	DB	06aH
	DB	049H
	DB	0a3H
	DB	0e5H
	DB	0b4H
	DB	070H
CONST	ENDS
;	COMDAT _IID_IRegistrar
CONST	SEGMENT
_IID_IRegistrar DD 044ec053bH
	DW	0400fH
	DW	011d0H
	DB	09dH
	DB	0cdH
	DB	00H
	DB	0a0H
	DB	0c9H
	DB	03H
	DB	091H
	DB	0d3H
CONST	ENDS
;	COMDAT ___pobjMapEntryLast
ATL$__z	SEGMENT
___pobjMapEntryLast DD 00H
ATL$__z	ENDS
;	COMDAT ___pobjMapEntryFirst
ATL$__a	SEGMENT
___pobjMapEntryFirst DD 00H
ATL$__a	ENDS
;	COMDAT _CLSID_Registrar
CONST	SEGMENT
_CLSID_Registrar DD 044ec053aH
	DW	0400fH
	DW	011d0H
	DB	09dH
	DB	0cdH
	DB	00H
	DB	0a0H
	DB	0c9H
	DB	03H
	DB	091H
	DB	0d3H
CONST	ENDS
;	COMDAT ?OLE_DATETIME_HALFSECOND@COleDateTimeSpan@ATL@@2NB
CONST	SEGMENT
?OLE_DATETIME_HALFSECOND@COleDateTimeSpan@ATL@@2NB DQ 03ed845c8a0ce5129r ; 5.78704e-006 ; ATL::COleDateTimeSpan::OLE_DATETIME_HALFSECOND
CONST	ENDS
;	COMDAT __GUID_fc4801a3_2ba9_11cf_a229_00aa003d7352
CONST	SEGMENT
__GUID_fc4801a3_2ba9_11cf_a229_00aa003d7352 DD 0fc4801a3H
	DW	02ba9H
	DW	011cfH
	DB	0a2H
	DB	029H
	DB	00H
	DB	0aaH
	DB	00H
	DB	03dH
	DB	073H
	DB	052H
CONST	ENDS
;	COMDAT ?c_bIsMFCDLLTraits@?$_MFCDLLTraitsCheck@DV?$StrTraitATL@DV?$ChTraitsCRT@D@ATL@@@ATL@@@_CSTRING_IMPL_@ATL@@2_NB
CONST	SEGMENT
?c_bIsMFCDLLTraits@?$_MFCDLLTraitsCheck@DV?$StrTraitATL@DV?$ChTraitsCRT@D@ATL@@@ATL@@@_CSTRING_IMPL_@ATL@@2_NB DB 00H ; ATL::_CSTRING_IMPL_::_MFCDLLTraitsCheck<char,ATL::StrTraitATL<char,ATL::ChTraitsCRT<char> > >::c_bIsMFCDLLTraits
CONST	ENDS
;	COMDAT __GUID_b196b284_bab4_101a_b69c_00aa00341d07
CONST	SEGMENT
__GUID_b196b284_bab4_101a_b69c_00aa00341d07 DD 0b196b284H
	DW	0bab4H
	DW	0101aH
	DB	0b6H
	DB	09cH
	DB	00H
	DB	0aaH
	DB	00H
	DB	034H
	DB	01dH
	DB	07H
CONST	ENDS
;	COMDAT ?maxDaysInSpan@COleDateTimeSpan@ATL@@0JB
CONST	SEGMENT
?maxDaysInSpan@COleDateTimeSpan@ATL@@0JB DD 0372c99H	; ATL::COleDateTimeSpan::maxDaysInSpan
CONST	ENDS
;	COMDAT ??_C@_1CK@NMKILLLB@?$AAI?$AAn?$AAv?$AAa?$AAl?$AAi?$AAd?$AA?5?$AAD?$AAa?$AAt?$AAe?$AAT?$AAi?$AAm?$AAe?$AAS?$AAp?$AAa?$AAn?$AA?$AA@
CONST	SEGMENT
??_C@_1CK@NMKILLLB@?$AAI?$AAn?$AAv?$AAa?$AAl?$AAi?$AAd?$AA?5?$AAD?$AAa?$AAt?$AAe?$AAT?$AAi?$AAm?$AAe?$AAS?$AAp?$AAa?$AAn?$AA?$AA@ DB 'I'
	DB	00H, 'n', 00H, 'v', 00H, 'a', 00H, 'l', 00H, 'i', 00H, 'd', 00H
	DB	' ', 00H, 'D', 00H, 'a', 00H, 't', 00H, 'e', 00H, 'T', 00H, 'i'
	DB	00H, 'm', 00H, 'e', 00H, 'S', 00H, 'p', 00H, 'a', 00H, 'n', 00H
	DB	00H, 00H					; `string'
CONST	ENDS
;	COMDAT ?szInvalidDateTimeSpan@ATL@@3QB_WB
CONST	SEGMENT
?szInvalidDateTimeSpan@ATL@@3QB_WB DD FLAT:??_C@_1CK@NMKILLLB@?$AAI?$AAn?$AAv?$AAa?$AAl?$AAi?$AAd?$AA?5?$AAD?$AAa?$AAt?$AAe?$AAT?$AAi?$AAm?$AAe?$AAS?$AAp?$AAa?$AAn?$AA?$AA@ ; ATL::szInvalidDateTimeSpan
CONST	ENDS
;	COMDAT ??_C@_1CC@FFBCNGIJ@?$AAI?$AAn?$AAv?$AAa?$AAl?$AAi?$AAd?$AA?5?$AAD?$AAa?$AAt?$AAe?$AAT?$AAi?$AAm?$AAe?$AA?$AA@
CONST	SEGMENT
??_C@_1CC@FFBCNGIJ@?$AAI?$AAn?$AAv?$AAa?$AAl?$AAi?$AAd?$AA?5?$AAD?$AAa?$AAt?$AAe?$AAT?$AAi?$AAm?$AAe?$AA?$AA@ DB 'I'
	DB	00H, 'n', 00H, 'v', 00H, 'a', 00H, 'l', 00H, 'i', 00H, 'd', 00H
	DB	' ', 00H, 'D', 00H, 'a', 00H, 't', 00H, 'e', 00H, 'T', 00H, 'i'
	DB	00H, 'm', 00H, 'e', 00H, 00H, 00H		; `string'
CONST	ENDS
;	COMDAT ?szInvalidDateTime@ATL@@3QB_WB
CONST	SEGMENT
?szInvalidDateTime@ATL@@3QB_WB DD FLAT:??_C@_1CC@FFBCNGIJ@?$AAI?$AAn?$AAv?$AAa?$AAl?$AAi?$AAd?$AA?5?$AAD?$AAa?$AAt?$AAe?$AAT?$AAi?$AAm?$AAe?$AA?$AA@ ; ATL::szInvalidDateTime
CONST	ENDS
;	COMDAT ?Week@CFileTime@ATL@@2_KB
CONST	SEGMENT
?Week@CFileTime@ATL@@2_KB DQ 0000058028e44000H		; ATL::CFileTime::Week
CONST	ENDS
;	COMDAT ?Day@CFileTime@ATL@@2_KB
CONST	SEGMENT
?Day@CFileTime@ATL@@2_KB DQ 000000c92a69c000H		; ATL::CFileTime::Day
CONST	ENDS
;	COMDAT ?Hour@CFileTime@ATL@@2_KB
CONST	SEGMENT
?Hour@CFileTime@ATL@@2_KB DQ 0000000861c46800H		; ATL::CFileTime::Hour
CONST	ENDS
;	COMDAT ?Minute@CFileTime@ATL@@2_KB
CONST	SEGMENT
?Minute@CFileTime@ATL@@2_KB DQ 0000000023c34600H	; ATL::CFileTime::Minute
CONST	ENDS
;	COMDAT ?Second@CFileTime@ATL@@2_KB
CONST	SEGMENT
?Second@CFileTime@ATL@@2_KB DQ 0000000000989680H	; ATL::CFileTime::Second
CONST	ENDS
;	COMDAT ?generic@CFileException@@2HB
CONST	SEGMENT
?generic@CFileException@@2HB DD 01H			; CFileException::generic
CONST	ENDS
;	COMDAT ?Millisecond@CFileTime@ATL@@2_KB
CONST	SEGMENT
?Millisecond@CFileTime@ATL@@2_KB DQ 0000000000002710H	; ATL::CFileTime::Millisecond
CONST	ENDS
;	COMDAT ?_Max@?$AtlLimits@_K@ATL@@2_KB
CONST	SEGMENT
?_Max@?$AtlLimits@_K@ATL@@2_KB DQ ffffffffffffffffH	; ATL::AtlLimits<unsigned __int64>::_Max
CONST	ENDS
;	COMDAT _LIBID_ATLLib
CONST	SEGMENT
_LIBID_ATLLib DD 044ec0535H
	DW	0400fH
	DW	011d0H
	DB	09dH
	DB	0cdH
	DB	00H
	DB	0a0H
	DB	0c9H
	DB	03H
	DB	091H
	DB	0d3H
CONST	ENDS
;	COMDAT ?_Min@?$AtlLimits@_K@ATL@@2_KB
CONST	SEGMENT
?_Min@?$AtlLimits@_K@ATL@@2_KB DQ 0000000000000000H	; ATL::AtlLimits<unsigned __int64>::_Min
CONST	ENDS
;	COMDAT ?_Max@?$AtlLimits@_J@ATL@@2_JB
CONST	SEGMENT
?_Max@?$AtlLimits@_J@ATL@@2_JB DQ 7fffffffffffffffH	; ATL::AtlLimits<__int64>::_Max
CONST	ENDS
;	COMDAT ?_Min@?$AtlLimits@_J@ATL@@2_JB
CONST	SEGMENT
?_Min@?$AtlLimits@_J@ATL@@2_JB DQ 8000000000000000H	; ATL::AtlLimits<__int64>::_Min
CONST	ENDS
;	COMDAT ?_Max@?$AtlLimits@K@ATL@@2KB
CONST	SEGMENT
?_Max@?$AtlLimits@K@ATL@@2KB DD 0ffffffffH		; ATL::AtlLimits<unsigned long>::_Max
CONST	ENDS
;	COMDAT ?_Min@?$AtlLimits@K@ATL@@2KB
CONST	SEGMENT
?_Min@?$AtlLimits@K@ATL@@2KB DD 00H			; ATL::AtlLimits<unsigned long>::_Min
CONST	ENDS
;	COMDAT ?m_nCategory@CTrace@ATL@@1IA
_DATA	SEGMENT
?m_nCategory@CTrace@ATL@@1IA DD 0ffffffffH		; ATL::CTrace::m_nCategory
_DATA	ENDS
;	COMDAT ?_Max@?$AtlLimits@J@ATL@@2JB
CONST	SEGMENT
?_Max@?$AtlLimits@J@ATL@@2JB DD 07fffffffH		; ATL::AtlLimits<long>::_Max
CONST	ENDS
;	COMDAT ?_Min@?$AtlLimits@J@ATL@@2JB
CONST	SEGMENT
?_Min@?$AtlLimits@J@ATL@@2JB DD 080000000H		; ATL::AtlLimits<long>::_Min
CONST	ENDS
;	COMDAT ?generic@CArchiveException@@2HB
CONST	SEGMENT
?generic@CArchiveException@@2HB DD 01H			; CArchiveException::generic
CONST	ENDS
;	COMDAT ?_Max@?$AtlLimits@I@ATL@@2IB
CONST	SEGMENT
?_Max@?$AtlLimits@I@ATL@@2IB DD 0ffffffffH		; ATL::AtlLimits<unsigned int>::_Max
CONST	ENDS
;	COMDAT ?_Min@?$AtlLimits@I@ATL@@2IB
CONST	SEGMENT
?_Min@?$AtlLimits@I@ATL@@2IB DD 00H			; ATL::AtlLimits<unsigned int>::_Min
CONST	ENDS
;	COMDAT ?_Max@?$AtlLimits@H@ATL@@2HB
CONST	SEGMENT
?_Max@?$AtlLimits@H@ATL@@2HB DD 07fffffffH		; ATL::AtlLimits<int>::_Max
CONST	ENDS
;	COMDAT ?_Min@?$AtlLimits@H@ATL@@2HB
CONST	SEGMENT
?_Min@?$AtlLimits@H@ATL@@2HB DD 080000000H		; ATL::AtlLimits<int>::_Min
CONST	ENDS
;	COMDAT __GUID_7815cbba_ddf7_478c_a46c_7b6c738b7978
CONST	SEGMENT
__GUID_7815cbba_ddf7_478c_a46c_7b6c738b7978 DD 07815cbbaH
	DW	0ddf7H
	DW	0478cH
	DB	0a4H
	DB	06cH
	DB	07bH
	DB	06cH
	DB	073H
	DB	08bH
	DB	079H
	DB	078H
CONST	ENDS
;	COMDAT __GUID_274a7dea_d771_4095_abbd_8df7abd23ce3
CONST	SEGMENT
__GUID_274a7dea_d771_4095_abbd_8df7abd23ce3 DD 0274a7deaH
	DW	0d771H
	DW	04095H
	DB	0abH
	DB	0bdH
	DB	08dH
	DB	0f7H
	DB	0abH
	DB	0d2H
	DB	03cH
	DB	0e3H
CONST	ENDS
;	COMDAT _IID_IInternalConnection
CONST	SEGMENT
_IID_IInternalConnection DD 072ad0770H
	DW	06a9fH
	DW	011d1H
	DB	0bcH
	DB	0ecH
	DB	00H
	DB	060H
	DB	08H
	DB	08fH
	DB	044H
	DB	04eH
CONST	ENDS
;	COMDAT ?c_bIsMFCDLLTraits@?$_MFCDLLTraitsCheck@DV?$StrTraitMFC_DLL@DV?$ChTraitsCRT@D@ATL@@@@@_CSTRING_IMPL_@ATL@@2_NB
CONST	SEGMENT
?c_bIsMFCDLLTraits@?$_MFCDLLTraitsCheck@DV?$StrTraitMFC_DLL@DV?$ChTraitsCRT@D@ATL@@@@@_CSTRING_IMPL_@ATL@@2_NB DB 01H ; ATL::_CSTRING_IMPL_::_MFCDLLTraitsCheck<char,StrTraitMFC_DLL<char,ATL::ChTraitsCRT<char> > >::c_bIsMFCDLLTraits
CONST	ENDS
;	COMDAT __GUID_00000146_0000_0000_c000_000000000046
CONST	SEGMENT
__GUID_00000146_0000_0000_c000_000000000046 DD 0146H
	DW	00H
	DW	00H
	DB	0c0H
	DB	00H
	DB	00H
	DB	00H
	DB	00H
	DB	00H
	DB	00H
	DB	046H
CONST	ENDS
;	COMDAT __GUID_3d5c9008_ec7c_4364_9f8a_9af3c58cbae6
CONST	SEGMENT
__GUID_3d5c9008_ec7c_4364_9f8a_9af3c58cbae6 DD 03d5c9008H
	DW	0ec7cH
	DW	04364H
	DB	09fH
	DB	08aH
	DB	09aH
	DB	0f3H
	DB	0c5H
	DB	08cH
	DB	0baH
	DB	0e6H
CONST	ENDS
;	COMDAT _IID_IAxWinAmbientDispatchEx
CONST	SEGMENT
_IID_IAxWinAmbientDispatchEx DD 0b2d0778bH
	DW	0ac99H
	DW	04c58H
	DB	0a5H
	DB	0c8H
	DB	0e7H
	DB	072H
	DB	04eH
	DB	053H
	DB	016H
	DB	0b5H
CONST	ENDS
;	COMDAT __GUID_bb3e1550_356e_44b0_99da_85ac6017865e
CONST	SEGMENT
__GUID_bb3e1550_356e_44b0_99da_85ac6017865e DD 0bb3e1550H
	DW	0356eH
	DW	044b0H
	DB	099H
	DB	0daH
	DB	085H
	DB	0acH
	DB	060H
	DB	017H
	DB	086H
	DB	05eH
CONST	ENDS
;	COMDAT __GUID_6358b7ba_87d2_42d5_bf71_82e919dd5862
CONST	SEGMENT
__GUID_6358b7ba_87d2_42d5_bf71_82e919dd5862 DD 06358b7baH
	DW	087d2H
	DW	042d5H
	DB	0bfH
	DB	071H
	DB	082H
	DB	0e9H
	DB	019H
	DB	0ddH
	DB	058H
	DB	062H
CONST	ENDS
;	COMDAT __GUID_783321ed_78a3_4366_b574_6af607a64788
CONST	SEGMENT
__GUID_783321ed_78a3_4366_b574_6af607a64788 DD 0783321edH
	DW	078a3H
	DW	04366H
	DB	0b5H
	DB	074H
	DB	06aH
	DB	0f6H
	DB	07H
	DB	0a6H
	DB	047H
	DB	088H
CONST	ENDS
;	COMDAT ?excludeValid@CImage@ATL@@2KB
CONST	SEGMENT
?excludeValid@CImage@ATL@@2KB DD 0800000ffH		; ATL::CImage::excludeValid
CONST	ENDS
PUBLIC	??_H@YGXPAXIHP6EPAX0@Z@Z			; `vector constructor iterator'
PUBLIC	_HRESULT_FROM_WIN32
PUBLIC	??$AtlMultiply@I@ATL@@YAJPAIII@Z		; ATL::AtlMultiply<unsigned int>
PUBLIC	??$AtlMultiply@K@ATL@@YAJPAKKK@Z		; ATL::AtlMultiply<unsigned long>
PUBLIC	??$AtlAdd@K@ATL@@YAJPAKKK@Z			; ATL::AtlAdd<unsigned long>
PUBLIC	??0?$CTraceCategoryEx@$0IAAAA@$0A@@ATL@@QAE@PB_W@Z ; ATL::CTraceCategoryEx<524288,0>::CTraceCategoryEx<524288,0>
PUBLIC	??0?$CTraceCategoryEx@$00$0A@@ATL@@QAE@PB_W@Z	; ATL::CTraceCategoryEx<1,0>::CTraceCategoryEx<1,0>
PUBLIC	??0?$CTraceCategoryEx@$01$0A@@ATL@@QAE@PB_W@Z	; ATL::CTraceCategoryEx<2,0>::CTraceCategoryEx<2,0>
PUBLIC	??B?$CTraceCategoryEx@$01$0A@@ATL@@QAEIXZ	; ATL::CTraceCategoryEx<2,0>::operator unsigned int
PUBLIC	??0?$CTraceCategoryEx@$03$0A@@ATL@@QAE@PB_W@Z	; ATL::CTraceCategoryEx<4,0>::CTraceCategoryEx<4,0>
PUBLIC	??0?$CTraceCategoryEx@$07$0A@@ATL@@QAE@PB_W@Z	; ATL::CTraceCategoryEx<8,0>::CTraceCategoryEx<8,0>
PUBLIC	??0?$CTraceCategoryEx@$0BA@$0A@@ATL@@QAE@PB_W@Z	; ATL::CTraceCategoryEx<16,0>::CTraceCategoryEx<16,0>
PUBLIC	??0?$CTraceCategoryEx@$0CA@$0A@@ATL@@QAE@PB_W@Z	; ATL::CTraceCategoryEx<32,0>::CTraceCategoryEx<32,0>
PUBLIC	??B?$CTraceCategoryEx@$0CA@$0A@@ATL@@QAEIXZ	; ATL::CTraceCategoryEx<32,0>::operator unsigned int
PUBLIC	??0?$CTraceCategoryEx@$0EA@$0A@@ATL@@QAE@PB_W@Z	; ATL::CTraceCategoryEx<64,0>::CTraceCategoryEx<64,0>
PUBLIC	??0?$CTraceCategoryEx@$0IA@$0A@@ATL@@QAE@PB_W@Z	; ATL::CTraceCategoryEx<128,0>::CTraceCategoryEx<128,0>
PUBLIC	??0?$CTraceCategoryEx@$0BAA@$0A@@ATL@@QAE@PB_W@Z ; ATL::CTraceCategoryEx<256,0>::CTraceCategoryEx<256,0>
PUBLIC	??0?$CTraceCategoryEx@$0CAA@$0A@@ATL@@QAE@PB_W@Z ; ATL::CTraceCategoryEx<512,0>::CTraceCategoryEx<512,0>
PUBLIC	??0?$CTraceCategoryEx@$0EAA@$0A@@ATL@@QAE@PB_W@Z ; ATL::CTraceCategoryEx<1024,0>::CTraceCategoryEx<1024,0>
PUBLIC	??0?$CTraceCategoryEx@$0IAA@$0A@@ATL@@QAE@PB_W@Z ; ATL::CTraceCategoryEx<2048,0>::CTraceCategoryEx<2048,0>
PUBLIC	??0?$CTraceCategoryEx@$0BAAA@$0A@@ATL@@QAE@PB_W@Z ; ATL::CTraceCategoryEx<4096,0>::CTraceCategoryEx<4096,0>
PUBLIC	??0?$CTraceCategoryEx@$0CAAA@$0A@@ATL@@QAE@PB_W@Z ; ATL::CTraceCategoryEx<8192,0>::CTraceCategoryEx<8192,0>
PUBLIC	??0?$CTraceCategoryEx@$0EAAA@$0A@@ATL@@QAE@PB_W@Z ; ATL::CTraceCategoryEx<16384,0>::CTraceCategoryEx<16384,0>
PUBLIC	??0?$CTraceCategoryEx@$0IAAA@$0A@@ATL@@QAE@PB_W@Z ; ATL::CTraceCategoryEx<32768,0>::CTraceCategoryEx<32768,0>
PUBLIC	??0?$CTraceCategoryEx@$0BAAAA@$0A@@ATL@@QAE@PB_W@Z ; ATL::CTraceCategoryEx<65536,0>::CTraceCategoryEx<65536,0>
PUBLIC	??0?$CTraceCategoryEx@$0CAAAA@$0A@@ATL@@QAE@PB_W@Z ; ATL::CTraceCategoryEx<131072,0>::CTraceCategoryEx<131072,0>
PUBLIC	??0?$CTraceCategoryEx@$0EAAAA@$0A@@ATL@@QAE@PB_W@Z ; ATL::CTraceCategoryEx<262144,0>::CTraceCategoryEx<262144,0>
PUBLIC	??0?$CTraceCategoryEx@$0BAAAAA@$0A@@ATL@@QAE@PB_W@Z ; ATL::CTraceCategoryEx<1048576,0>::CTraceCategoryEx<1048576,0>
PUBLIC	??0?$CTraceCategoryEx@$0CAAAAA@$0A@@ATL@@QAE@PB_W@Z ; ATL::CTraceCategoryEx<2097152,0>::CTraceCategoryEx<2097152,0>
PUBLIC	??0?$CTraceCategoryEx@$0EAAAAA@$0A@@ATL@@QAE@PB_W@Z ; ATL::CTraceCategoryEx<4194304,0>::CTraceCategoryEx<4194304,0>
PUBLIC	?GetCategoryName@CTrace@ATL@@CAPA_WI@Z		; ATL::CTrace::GetCategoryName
PUBLIC	?TraceV@CTrace@ATL@@CAXPBDHIIPB_W@Z		; ATL::CTrace::TraceV
PUBLIC	?TraceV@CTrace@ATL@@SAXPBDHIIPB_WPAD@Z		; ATL::CTrace::TraceV
PUBLIC	?RegisterCategory@CTrace@ATL@@SAXPB_WI@Z	; ATL::CTrace::RegisterCategory
PUBLIC	??0CTraceFileAndLineInfo@ATL@@QAE@PBDH@Z	; ATL::CTraceFileAndLineInfo::CTraceFileAndLineInfo
PUBLIC	??RCTraceFileAndLineInfo@ATL@@QBAXHIPB_WZZ	; ATL::CTraceFileAndLineInfo::operator()
PUBLIC	?_AtlRaiseException@ATL@@YAXKK@Z		; ATL::_AtlRaiseException
PUBLIC	?_AtlInitializeCriticalSectionEx@ATL@@YAHPAU_RTL_CRITICAL_SECTION@@KK@Z ; ATL::_AtlInitializeCriticalSectionEx
PUBLIC	??0CComCriticalSection@ATL@@QAE@XZ		; ATL::CComCriticalSection::CComCriticalSection
PUBLIC	??1CComCriticalSection@ATL@@QAE@XZ		; ATL::CComCriticalSection::~CComCriticalSection
PUBLIC	?Init@CComCriticalSection@ATL@@QAEJXZ		; ATL::CComCriticalSection::Init
PUBLIC	?Term@CComCriticalSection@ATL@@QAEJXZ		; ATL::CComCriticalSection::Term
PUBLIC	?GetModuleInstance@CAtlBaseModule@ATL@@QAEPAUHINSTANCE__@@XZ ; ATL::CAtlBaseModule::GetModuleInstance
PUBLIC	??0CWin32Heap@ATL@@QAE@PAX@Z			; ATL::CWin32Heap::CWin32Heap
PUBLIC	??1CWin32Heap@ATL@@UAE@XZ			; ATL::CWin32Heap::~CWin32Heap
PUBLIC	?Allocate@CWin32Heap@ATL@@UAEPAXI@Z		; ATL::CWin32Heap::Allocate
PUBLIC	?Free@CWin32Heap@ATL@@UAEXPAX@Z			; ATL::CWin32Heap::Free
PUBLIC	?Reallocate@CWin32Heap@ATL@@UAEPAXPAXI@Z	; ATL::CWin32Heap::Reallocate
PUBLIC	?GetSize@CWin32Heap@ATL@@UAEIPAX@Z		; ATL::CWin32Heap::GetSize
PUBLIC	?__autoclassinit2@CWin32Heap@ATL@@QAEXI@Z	; ATL::CWin32Heap::__autoclassinit2
PUBLIC	??_GCWin32Heap@ATL@@UAEPAXI@Z			; ATL::CWin32Heap::`scalar deleting destructor'
PUBLIC	??$AtlAdd@I@ATL@@YAJPAIII@Z			; ATL::AtlAdd<unsigned int>
PUBLIC	??$AtlAdd@H@ATL@@YAJPAHHH@Z			; ATL::AtlAdd<int>
PUBLIC	?AddRef@CStringData@ATL@@QAEXXZ			; ATL::CStringData::AddRef
PUBLIC	??0CNilStringData@ATL@@QAE@XZ			; ATL::CNilStringData::CNilStringData
PUBLIC	?SetManager@CNilStringData@ATL@@QAEXPAUIAtlStringMgr@2@@Z ; ATL::CNilStringData::SetManager
PUBLIC	??0_ATL_COM_MODULE70@ATL@@QAE@XZ		; ATL::_ATL_COM_MODULE70::_ATL_COM_MODULE70
PUBLIC	??1_ATL_COM_MODULE70@ATL@@QAE@XZ		; ATL::_ATL_COM_MODULE70::~_ATL_COM_MODULE70
PUBLIC	??0?$CSimpleArray@GV?$CSimpleArrayEqualHelper@G@ATL@@@ATL@@QAE@XZ ; ATL::CSimpleArray<unsigned short,ATL::CSimpleArrayEqualHelper<unsigned short> >::CSimpleArray<unsigned short,ATL::CSimpleArrayEqualHelper<unsigned short> >
PUBLIC	??1?$CSimpleArray@GV?$CSimpleArrayEqualHelper@G@ATL@@@ATL@@QAE@XZ ; ATL::CSimpleArray<unsigned short,ATL::CSimpleArrayEqualHelper<unsigned short> >::~CSimpleArray<unsigned short,ATL::CSimpleArrayEqualHelper<unsigned short> >
PUBLIC	?GetSize@?$CSimpleArray@GV?$CSimpleArrayEqualHelper@G@ATL@@@ATL@@QBEHXZ ; ATL::CSimpleArray<unsigned short,ATL::CSimpleArrayEqualHelper<unsigned short> >::GetSize
PUBLIC	?RemoveAll@?$CSimpleArray@GV?$CSimpleArrayEqualHelper@G@ATL@@@ATL@@QAEXXZ ; ATL::CSimpleArray<unsigned short,ATL::CSimpleArrayEqualHelper<unsigned short> >::RemoveAll
PUBLIC	??A?$CSimpleArray@GV?$CSimpleArrayEqualHelper@G@ATL@@@ATL@@QAEAAGH@Z ; ATL::CSimpleArray<unsigned short,ATL::CSimpleArrayEqualHelper<unsigned short> >::operator[]
PUBLIC	??0_ATL_WIN_MODULE70@ATL@@QAE@XZ		; ATL::_ATL_WIN_MODULE70::_ATL_WIN_MODULE70
PUBLIC	??1_ATL_WIN_MODULE70@ATL@@QAE@XZ		; ATL::_ATL_WIN_MODULE70::~_ATL_WIN_MODULE70
PUBLIC	?AtlWinModuleInit@ATL@@YGJPAU_ATL_WIN_MODULE70@1@@Z ; ATL::AtlWinModuleInit
PUBLIC	?AtlWinModuleTerm@ATL@@YGJPAU_ATL_WIN_MODULE70@1@PAUHINSTANCE__@@@Z ; ATL::AtlWinModuleTerm
PUBLIC	??0CAtlComModule@ATL@@QAE@XZ			; ATL::CAtlComModule::CAtlComModule
PUBLIC	??1CAtlComModule@ATL@@QAE@XZ			; ATL::CAtlComModule::~CAtlComModule
PUBLIC	?Term@CAtlComModule@ATL@@QAEXXZ			; ATL::CAtlComModule::Term
PUBLIC	??0CAtlWinModule@ATL@@QAE@XZ			; ATL::CAtlWinModule::CAtlWinModule
PUBLIC	??1CAtlWinModule@ATL@@QAE@XZ			; ATL::CAtlWinModule::~CAtlWinModule
PUBLIC	?Term@CAtlWinModule@ATL@@QAEXXZ			; ATL::CAtlWinModule::Term
PUBLIC	??0CAtlStringMgr@ATL@@QAE@PAUIAtlMemMgr@1@@Z	; ATL::CAtlStringMgr::CAtlStringMgr
PUBLIC	??1CAtlStringMgr@ATL@@UAE@XZ			; ATL::CAtlStringMgr::~CAtlStringMgr
PUBLIC	?GetInstance@CAtlStringMgr@ATL@@SAPAUIAtlStringMgr@2@XZ ; ATL::CAtlStringMgr::GetInstance
PUBLIC	?Allocate@CAtlStringMgr@ATL@@UAEPAUCStringData@2@HH@Z ; ATL::CAtlStringMgr::Allocate
PUBLIC	?Free@CAtlStringMgr@ATL@@UAEXPAUCStringData@2@@Z ; ATL::CAtlStringMgr::Free
PUBLIC	?Reallocate@CAtlStringMgr@ATL@@UAEPAUCStringData@2@PAU32@HH@Z ; ATL::CAtlStringMgr::Reallocate
PUBLIC	?GetNilString@CAtlStringMgr@ATL@@UAEPAUCStringData@2@XZ ; ATL::CAtlStringMgr::GetNilString
PUBLIC	?Clone@CAtlStringMgr@ATL@@UAEPAUIAtlStringMgr@2@XZ ; ATL::CAtlStringMgr::Clone
PUBLIC	?StaticInitialize@CAtlStringMgr@ATL@@CA_NXZ	; ATL::CAtlStringMgr::StaticInitialize
PUBLIC	?__autoclassinit2@CAtlStringMgr@ATL@@QAEXI@Z	; ATL::CAtlStringMgr::__autoclassinit2
PUBLIC	??_GCAtlStringMgr@ATL@@UAEPAXI@Z		; ATL::CAtlStringMgr::`scalar deleting destructor'
PUBLIC	??__FstrHeap@?1??GetInstance@CAtlStringMgr@ATL@@SAPAUIAtlStringMgr@2@XZ@YAXXZ ; `ATL::CAtlStringMgr::GetInstance'::`2'::`dynamic atexit destructor for 'strHeap''
PUBLIC	??__FstrMgr@?1??GetInstance@CAtlStringMgr@ATL@@SAPAUIAtlStringMgr@2@XZ@YAXXZ ; `ATL::CAtlStringMgr::GetInstance'::`2'::`dynamic atexit destructor for 'strMgr''
PUBLIC	??$AtlAlignUp@H@ATL@@YGHHK@Z			; ATL::AtlAlignUp<int>
PUBLIC	??0CDCCache@CImage@ATL@@QAE@XZ			; ATL::CImage::CDCCache::CDCCache
PUBLIC	??1CDCCache@CImage@ATL@@QAE@XZ			; ATL::CImage::CDCCache::~CDCCache
PUBLIC	??0CInitGDIPlus@CImage@ATL@@QAE@XZ		; ATL::CImage::CInitGDIPlus::CInitGDIPlus
PUBLIC	??1CInitGDIPlus@CImage@ATL@@QAE@XZ		; ATL::CImage::CInitGDIPlus::~CInitGDIPlus
PUBLIC	?ReleaseGDIPlus@CInitGDIPlus@CImage@ATL@@QAEXXZ	; ATL::CImage::CInitGDIPlus::ReleaseGDIPlus
PUBLIC	?GetInitGDIPlusInstance@CImage@ATL@@CAPAVCInitGDIPlus@12@XZ ; ATL::CImage::GetInitGDIPlusInstance
PUBLIC	?GetCDCCacheInstance@CImage@ATL@@CAPAVCDCCache@12@XZ ; ATL::CImage::GetCDCCacheInstance
PUBLIC	?CImageStaticInitialize@CImage@ATL@@CA_NXZ	; ATL::CImage::CImageStaticInitialize
PUBLIC	??__FgdiPlus@?1??GetInitGDIPlusInstance@CImage@ATL@@CAPAVCInitGDIPlus@12@XZ@YAXXZ ; `ATL::CImage::GetInitGDIPlusInstance'::`2'::`dynamic atexit destructor for 'gdiPlus''
PUBLIC	??__Fcache@?1??GetCDCCacheInstance@CImage@ATL@@CAPAVCDCCache@12@XZ@YAXXZ ; `ATL::CImage::GetCDCCacheInstance'::`2'::`dynamic atexit destructor for 'cache''
PUBLIC	??_C@_13COJANIEC@?$AA0?$AA?$AA@			; `string'
PUBLIC	??_C@_15GANGMFKL@?$AA?$CF?$AAs?$AA?$AA@		; `string'
PUBLIC	?atlTraceGeneral@ATL@@3V?$CTraceCategoryEx@$00$0A@@1@A ; ATL::atlTraceGeneral
PUBLIC	??_C@_1CA@ONGMEOAB@?$AAa?$AAt?$AAl?$AAT?$AAr?$AAa?$AAc?$AAe?$AAG?$AAe?$AAn?$AAe?$AAr?$AAa?$AAl?$AA?$AA@ ; `string'
PUBLIC	?atlTraceCOM@ATL@@3V?$CTraceCategoryEx@$01$0A@@1@A ; ATL::atlTraceCOM
PUBLIC	??_C@_1BI@MAFGHOEE@?$AAa?$AAt?$AAl?$AAT?$AAr?$AAa?$AAc?$AAe?$AAC?$AAO?$AAM?$AA?$AA@ ; `string'
PUBLIC	?atlTraceQI@ATL@@3V?$CTraceCategoryEx@$03$0A@@1@A ; ATL::atlTraceQI
PUBLIC	??_C@_1BG@FPLJJEMF@?$AAa?$AAt?$AAl?$AAT?$AAr?$AAa?$AAc?$AAe?$AAQ?$AAI?$AA?$AA@ ; `string'
PUBLIC	?atlTraceRegistrar@ATL@@3V?$CTraceCategoryEx@$07$0A@@1@A ; ATL::atlTraceRegistrar
PUBLIC	??_C@_1CE@NIAEAIDK@?$AAa?$AAt?$AAl?$AAT?$AAr?$AAa?$AAc?$AAe?$AAR?$AAe?$AAg?$AAi?$AAs?$AAt?$AAr?$AAa?$AAr?$AA?$AA@ ; `string'
PUBLIC	?atlTraceRefcount@ATL@@3V?$CTraceCategoryEx@$0BA@$0A@@1@A ; ATL::atlTraceRefcount
PUBLIC	??_C@_1CC@BNHGJFNK@?$AAa?$AAt?$AAl?$AAT?$AAr?$AAa?$AAc?$AAe?$AAR?$AAe?$AAf?$AAc?$AAo?$AAu?$AAn?$AAt?$AA?$AA@ ; `string'
PUBLIC	?atlTraceWindowing@ATL@@3V?$CTraceCategoryEx@$0CA@$0A@@1@A ; ATL::atlTraceWindowing
PUBLIC	??_C@_1CE@NAJDPMNB@?$AAa?$AAt?$AAl?$AAT?$AAr?$AAa?$AAc?$AAe?$AAW?$AAi?$AAn?$AAd?$AAo?$AAw?$AAi?$AAn?$AAg?$AA?$AA@ ; `string'
PUBLIC	?atlTraceControls@ATL@@3V?$CTraceCategoryEx@$0EA@$0A@@1@A ; ATL::atlTraceControls
PUBLIC	??_C@_1CC@IMNJGBED@?$AAa?$AAt?$AAl?$AAT?$AAr?$AAa?$AAc?$AAe?$AAC?$AAo?$AAn?$AAt?$AAr?$AAo?$AAl?$AAs?$AA?$AA@ ; `string'
PUBLIC	?atlTraceHosting@ATL@@3V?$CTraceCategoryEx@$0IA@$0A@@1@A ; ATL::atlTraceHosting
PUBLIC	??_C@_1CA@OMOMONMN@?$AAa?$AAt?$AAl?$AAT?$AAr?$AAa?$AAc?$AAe?$AAH?$AAo?$AAs?$AAt?$AAi?$AAn?$AAg?$AA?$AA@ ; `string'
PUBLIC	?atlTraceDBClient@ATL@@3V?$CTraceCategoryEx@$0BAA@$0A@@1@A ; ATL::atlTraceDBClient
PUBLIC	??_C@_1CC@JNJJDOOH@?$AAa?$AAt?$AAl?$AAT?$AAr?$AAa?$AAc?$AAe?$AAD?$AAB?$AAC?$AAl?$AAi?$AAe?$AAn?$AAt?$AA?$AA@ ; `string'
PUBLIC	?atlTraceDBProvider@ATL@@3V?$CTraceCategoryEx@$0CAA@$0A@@1@A ; ATL::atlTraceDBProvider
PUBLIC	??_C@_1CG@MNMMIOOI@?$AAa?$AAt?$AAl?$AAT?$AAr?$AAa?$AAc?$AAe?$AAD?$AAB?$AAP?$AAr?$AAo?$AAv?$AAi?$AAd?$AAe?$AAr?$AA?$AA@ ; `string'
PUBLIC	?atlTraceSnapin@ATL@@3V?$CTraceCategoryEx@$0EAA@$0A@@1@A ; ATL::atlTraceSnapin
PUBLIC	??_C@_1BO@EFPHNHHN@?$AAa?$AAt?$AAl?$AAT?$AAr?$AAa?$AAc?$AAe?$AAS?$AAn?$AAa?$AAp?$AAi?$AAn?$AA?$AA@ ; `string'
PUBLIC	?atlTraceNotImpl@ATL@@3V?$CTraceCategoryEx@$0IAA@$0A@@1@A ; ATL::atlTraceNotImpl
PUBLIC	??_C@_1CA@DMHPIODO@?$AAa?$AAt?$AAl?$AAT?$AAr?$AAa?$AAc?$AAe?$AAN?$AAo?$AAt?$AAI?$AAm?$AAp?$AAl?$AA?$AA@ ; `string'
PUBLIC	?atlTraceAllocation@ATL@@3V?$CTraceCategoryEx@$0BAAA@$0A@@1@A ; ATL::atlTraceAllocation
PUBLIC	??_C@_1CG@KFEEMCDH@?$AAa?$AAt?$AAl?$AAT?$AAr?$AAa?$AAc?$AAe?$AAA?$AAl?$AAl?$AAo?$AAc?$AAa?$AAt?$AAi?$AAo?$AAn?$AA?$AA@ ; `string'
PUBLIC	?atlTraceException@ATL@@3V?$CTraceCategoryEx@$0CAAA@$0A@@1@A ; ATL::atlTraceException
PUBLIC	??_C@_1CE@IMMADNAP@?$AAa?$AAt?$AAl?$AAT?$AAr?$AAa?$AAc?$AAe?$AAE?$AAx?$AAc?$AAe?$AAp?$AAt?$AAi?$AAo?$AAn?$AA?$AA@ ; `string'
PUBLIC	?atlTraceTime@ATL@@3V?$CTraceCategoryEx@$0EAAA@$0A@@1@A ; ATL::atlTraceTime
PUBLIC	??_C@_1BK@NCJHOFCL@?$AAa?$AAt?$AAl?$AAT?$AAr?$AAa?$AAc?$AAe?$AAT?$AAi?$AAm?$AAe?$AA?$AA@ ; `string'
PUBLIC	?atlTraceCache@ATL@@3V?$CTraceCategoryEx@$0IAAA@$0A@@1@A ; ATL::atlTraceCache
PUBLIC	??_C@_1BM@GIKLHLFD@?$AAa?$AAt?$AAl?$AAT?$AAr?$AAa?$AAc?$AAe?$AAC?$AAa?$AAc?$AAh?$AAe?$AA?$AA@ ; `string'
PUBLIC	?atlTraceStencil@ATL@@3V?$CTraceCategoryEx@$0BAAAA@$0A@@1@A ; ATL::atlTraceStencil
PUBLIC	??_C@_1CA@PBPHANCD@?$AAa?$AAt?$AAl?$AAT?$AAr?$AAa?$AAc?$AAe?$AAS?$AAt?$AAe?$AAn?$AAc?$AAi?$AAl?$AA?$AA@ ; `string'
PUBLIC	?atlTraceString@ATL@@3V?$CTraceCategoryEx@$0CAAAA@$0A@@1@A ; ATL::atlTraceString
PUBLIC	??_C@_1BO@GMLILNDJ@?$AAa?$AAt?$AAl?$AAT?$AAr?$AAa?$AAc?$AAe?$AAS?$AAt?$AAr?$AAi?$AAn?$AAg?$AA?$AA@ ; `string'
PUBLIC	?atlTraceMap@ATL@@3V?$CTraceCategoryEx@$0EAAAA@$0A@@1@A ; ATL::atlTraceMap
PUBLIC	??_C@_1BI@OKDLCIEM@?$AAa?$AAt?$AAl?$AAT?$AAr?$AAa?$AAc?$AAe?$AAM?$AAa?$AAp?$AA?$AA@ ; `string'
PUBLIC	?atlTraceUtil@ATL@@3V?$CTraceCategoryEx@$0IAAAA@$0A@@1@A ; ATL::atlTraceUtil
PUBLIC	??_C@_1BK@DMHCKHHD@?$AAa?$AAt?$AAl?$AAT?$AAr?$AAa?$AAc?$AAe?$AAU?$AAt?$AAi?$AAl?$AA?$AA@ ; `string'
PUBLIC	?atlTraceSecurity@ATL@@3V?$CTraceCategoryEx@$0BAAAAA@$0A@@1@A ; ATL::atlTraceSecurity
PUBLIC	??_C@_1CC@DMMBNCFG@?$AAa?$AAt?$AAl?$AAT?$AAr?$AAa?$AAc?$AAe?$AAS?$AAe?$AAc?$AAu?$AAr?$AAi?$AAt?$AAy?$AA?$AA@ ; `string'
PUBLIC	?atlTraceSync@ATL@@3V?$CTraceCategoryEx@$0CAAAAA@$0A@@1@A ; ATL::atlTraceSync
PUBLIC	??_C@_1BK@OPAPOCAL@?$AAa?$AAt?$AAl?$AAT?$AAr?$AAa?$AAc?$AAe?$AAS?$AAy?$AAn?$AAc?$AA?$AA@ ; `string'
PUBLIC	?atlTraceISAPI@ATL@@3V?$CTraceCategoryEx@$0EAAAAA@$0A@@1@A ; ATL::atlTraceISAPI
PUBLIC	??_C@_1BM@FHAEDBFK@?$AAa?$AAt?$AAl?$AAT?$AAr?$AAa?$AAc?$AAe?$AAI?$AAS?$AAA?$AAP?$AAI?$AA?$AA@ ; `string'
PUBLIC	??_C@_1M@PLLAHAGD@?$AA?$CF?$AAs?$AA?5?$AA?9?$AA?5?$AA?$AA@ ; `string'
PUBLIC	??_C@_1M@PGKOAACE@?$AA?$CF?$AAu?$AA?5?$AA?9?$AA?5?$AA?$AA@ ; `string'
PUBLIC	??_C@_15MAOEGKJF@?$AA?$CF?$AAS?$AA?$AA@		; `string'
PUBLIC	??_C@_1EO@EBPPKGOM@?$AAf?$AAa?$AAl?$AAs?$AAe?$AA?5?$AA?$CG?$AA?$CG?$AA?5?$AA?$CC?$AAT?$AAo?$AAo?$AA?5?$AAm?$AAa?$AAn?$AAy?$AA?5?$AAc?$AAa?$AAt?$AAe?$AAg?$AAo?$AAr?$AAi?$AAe?$AAs?$AA?5?$AAd?$AAe@ ; `string'
PUBLIC	??_C@_1KC@GEMPEEJK@?$AAc?$AA?3?$AA?2?$AAp?$AAr?$AAo?$AAg?$AAr?$AAa?$AAm?$AA?5?$AAf?$AAi?$AAl?$AAe?$AAs?$AA?5?$AA?$CI?$AAx?$AA8?$AA6?$AA?$CJ?$AA?2?$AAm?$AAi?$AAc?$AAr?$AAo?$AAs?$AAo?$AAf?$AAt@ ; `string'
PUBLIC	??_C@_1BM@GBBOFEAE@?$AA_?$AA_?$AAa?$AAt?$AAl?$AA_?$AAc?$AAo?$AAn?$AAd?$AAV?$AAa?$AAl?$AA?$AA@ ; `string'
PUBLIC	??_7CWin32Heap@ATL@@6B@				; ATL::CWin32Heap::`vftable'
PUBLIC	??_C@_1BG@CLPBKBHG@?$AAh?$AAH?$AAe?$AAa?$AAp?$AA?5?$AA?$CB?$AA?$DN?$AA?5?$AA0?$AA?$AA@ ; `string'
PUBLIC	??_C@_1JO@MBMIIMDH@?$AAc?$AA?3?$AA?2?$AAp?$AAr?$AAo?$AAg?$AAr?$AAa?$AAm?$AA?5?$AAf?$AAi?$AAl?$AAe?$AAs?$AA?5?$AA?$CI?$AAx?$AA8?$AA6?$AA?$CJ?$AA?2?$AAm?$AAi?$AAc?$AAr?$AAo?$AAs?$AAo?$AAf?$AAt@ ; `string'
PUBLIC	??_C@_1BC@PMINONJG@?$AAb?$AAS?$AAu?$AAc?$AAc?$AAe?$AAs?$AAs?$AA?$AA@ ; `string'
PUBLIC	??_C@_1BE@BLGCOAPB@?$AAn?$AAR?$AAe?$AAf?$AAs?$AA?5?$AA?$DO?$AA?5?$AA0?$AA?$AA@ ; `string'
PUBLIC	??_C@_1KG@EPEOMBFC@?$AAc?$AA?3?$AA?2?$AAp?$AAr?$AAo?$AAg?$AAr?$AAa?$AAm?$AA?5?$AAf?$AAi?$AAl?$AAe?$AAs?$AA?5?$AA?$CI?$AAx?$AA8?$AA6?$AA?$CJ?$AA?2?$AAm?$AAi?$AAc?$AAr?$AAo?$AAs?$AAo?$AAf?$AAt@ ; `string'
PUBLIC	??_C@_1CA@MEFFJNJ@?$AAp?$AAS?$AAt?$AAr?$AAi?$AAn?$AAg?$AAM?$AAg?$AAr?$AA?5?$AA?$DN?$AA?$DN?$AA?5?$AA0?$AA?$AA@ ; `string'
PUBLIC	??_C@_1KA@ELJIHIAD@?$AAc?$AA?3?$AA?2?$AAp?$AAr?$AAo?$AAg?$AAr?$AAa?$AAm?$AA?5?$AAf?$AAi?$AAl?$AAe?$AAs?$AA?5?$AA?$CI?$AAx?$AA8?$AA6?$AA?$CJ?$AA?2?$AAm?$AAi?$AAc?$AAr?$AAo?$AAs?$AAo?$AAf?$AAt@ ; `string'
PUBLIC	??_C@_0FA@ODGKGNGJ@c?3?2program?5files?5?$CIx86?$CJ?2microsoft@ ; `string'
PUBLIC	??_C@_1IA@KEEOONGN@?$AAE?$AAR?$AAR?$AAO?$AAR?$AA?5?$AA?3?$AA?5?$AAU?$AAn?$AAa?$AAb?$AAl?$AAe?$AA?5?$AAt?$AAo?$AA?5?$AAi?$AAn?$AAi?$AAt?$AAi?$AAa?$AAl?$AAi?$AAz?$AAe?$AA?5?$AAc?$AAr?$AAi@ ; `string'
PUBLIC	?_AtlComModule@ATL@@3VCAtlComModule@1@A		; ATL::_AtlComModule
PUBLIC	?_AtlWinModule@ATL@@3VCAtlWinModule@1@A		; ATL::_AtlWinModule
PUBLIC	?__LINE__Var@?1??AtlWinModuleInit@ATL@@YGJPAU_ATL_WIN_MODULE70@2@@Z@4JA ; `ATL::AtlWinModuleInit'::`2'::__LINE__Var
PUBLIC	??_C@_1IG@OPJAFKJH@?$AAE?$AAR?$AAR?$AAO?$AAR?$AA?5?$AA?3?$AA?5?$AAU?$AAn?$AAa?$AAb?$AAl?$AAe?$AA?5?$AAt?$AAo?$AA?5?$AAi?$AAn?$AAi?$AAt?$AAi?$AAa?$AAl?$AAi?$AAz?$AAe?$AA?5?$AAc?$AAr?$AAi@ ; `string'
PUBLIC	?isInitialized@CAtlStringMgr@ATL@@0_NA		; ATL::CAtlStringMgr::isInitialized
PUBLIC	??_7CAtlStringMgr@ATL@@6B@			; ATL::CAtlStringMgr::`vftable'
PUBLIC	??_C@_1JO@EJBGHLIE@?$AAc?$AA?3?$AA?2?$AAp?$AAr?$AAo?$AAg?$AAr?$AAa?$AAm?$AA?5?$AAf?$AAi?$AAl?$AAe?$AAs?$AA?5?$AA?$CI?$AAx?$AA8?$AA6?$AA?$CJ?$AA?2?$AAm?$AAi?$AAc?$AAr?$AAo?$AAs?$AAo?$AAf?$AAt@ ; `string'
PUBLIC	?strHeap@?1??GetInstance@CAtlStringMgr@ATL@@SAPAUIAtlStringMgr@3@XZ@4VCWin32Heap@3@A ; `ATL::CAtlStringMgr::GetInstance'::`2'::strHeap
PUBLIC	??_B?1??GetInstance@CAtlStringMgr@ATL@@SAPAUIAtlStringMgr@2@XZ@51 ; `ATL::CAtlStringMgr::GetInstance'::`2'::`local static guard'
PUBLIC	?strMgr@?1??GetInstance@CAtlStringMgr@ATL@@SAPAUIAtlStringMgr@3@XZ@4V23@A ; `ATL::CAtlStringMgr::GetInstance'::`2'::strMgr
PUBLIC	??_C@_1BG@IEBIBJEI@?$AAp?$AAD?$AAa?$AAt?$AAa?$AA?5?$AA?$CB?$AA?$DN?$AA?5?$AA0?$AA?$AA@ ; `string'
PUBLIC	??_C@_1DE@KEEBDKDC@?$AAp?$AAD?$AAa?$AAt?$AAa?$AA?9?$AA?$DO?$AAp?$AAS?$AAt?$AAr?$AAi?$AAn?$AAg?$AAM?$AAg?$AAr?$AA?5?$AA?$DN?$AA?$DN?$AA?5?$AAt?$AAh?$AAi?$AAs?$AA?$AA@ ; `string'
PUBLIC	?isCImageStaticInitialized@CImage@ATL@@0_NA	; ATL::CImage::isCImageStaticInitialized
PUBLIC	?gdiPlus@?1??GetInitGDIPlusInstance@CImage@ATL@@CAPAVCInitGDIPlus@23@XZ@4V423@A ; `ATL::CImage::GetInitGDIPlusInstance'::`2'::gdiPlus
PUBLIC	??_B?1??GetInitGDIPlusInstance@CImage@ATL@@CAPAVCInitGDIPlus@12@XZ@51 ; `ATL::CImage::GetInitGDIPlusInstance'::`2'::`local static guard'
PUBLIC	?cache@?1??GetCDCCacheInstance@CImage@ATL@@CAPAVCDCCache@23@XZ@4V423@A ; `ATL::CImage::GetCDCCacheInstance'::`2'::cache
PUBLIC	??_B?1??GetCDCCacheInstance@CImage@ATL@@CAPAVCDCCache@12@XZ@51 ; `ATL::CImage::GetCDCCacheInstance'::`2'::`local static guard'
PUBLIC	??_C@_1EA@JHMKKLFC@?$AAn?$AAI?$AAn?$AAd?$AAe?$AAx?$AA?5?$AA?$DO?$AA?$DN?$AA?5?$AA0?$AA?5?$AA?$CG?$AA?$CG?$AA?5?$AAn?$AAI?$AAn?$AAd?$AAe?$AAx?$AA?5?$AA?$DM?$AA?5?$AAm?$AA_?$AAn?$AAS?$AAi?$AAz?$AAe?$AA?$AA@ ; `string'
PUBLIC	??_C@_1KI@KJKLFHG@?$AAc?$AA?3?$AA?2?$AAp?$AAr?$AAo?$AAg?$AAr?$AAa?$AAm?$AA?5?$AAf?$AAi?$AAl?$AAe?$AAs?$AA?5?$AA?$CI?$AAx?$AA8?$AA6?$AA?$CJ?$AA?2?$AAm?$AAi?$AAc?$AAr?$AAo?$AAs?$AAo?$AAf?$AAt@ ; `string'
PUBLIC	??_R4CWin32Heap@ATL@@6B@			; ATL::CWin32Heap::`RTTI Complete Object Locator'
PUBLIC	??_R0?AVCWin32Heap@ATL@@@8			; ATL::CWin32Heap `RTTI Type Descriptor'
PUBLIC	??_R3CWin32Heap@ATL@@8				; ATL::CWin32Heap::`RTTI Class Hierarchy Descriptor'
PUBLIC	??_R2CWin32Heap@ATL@@8				; ATL::CWin32Heap::`RTTI Base Class Array'
PUBLIC	??_R1A@?0A@EA@CWin32Heap@ATL@@8			; ATL::CWin32Heap::`RTTI Base Class Descriptor at (0,-1,0,64)'
PUBLIC	??_R1A@?0A@EA@IAtlMemMgr@ATL@@8			; ATL::IAtlMemMgr::`RTTI Base Class Descriptor at (0,-1,0,64)'
PUBLIC	??_R0?AUIAtlMemMgr@ATL@@@8			; ATL::IAtlMemMgr `RTTI Type Descriptor'
PUBLIC	??_R3IAtlMemMgr@ATL@@8				; ATL::IAtlMemMgr::`RTTI Class Hierarchy Descriptor'
PUBLIC	??_R2IAtlMemMgr@ATL@@8				; ATL::IAtlMemMgr::`RTTI Base Class Array'
PUBLIC	??_R1A@?0A@EA@IAtlStringMgr@ATL@@8		; ATL::IAtlStringMgr::`RTTI Base Class Descriptor at (0,-1,0,64)'
PUBLIC	??_R0?AUIAtlStringMgr@ATL@@@8			; ATL::IAtlStringMgr `RTTI Type Descriptor'
PUBLIC	??_R3IAtlStringMgr@ATL@@8			; ATL::IAtlStringMgr::`RTTI Class Hierarchy Descriptor'
PUBLIC	??_R2IAtlStringMgr@ATL@@8			; ATL::IAtlStringMgr::`RTTI Base Class Array'
PUBLIC	??_R4CAtlStringMgr@ATL@@6B@			; ATL::CAtlStringMgr::`RTTI Complete Object Locator'
PUBLIC	??_R0?AVCAtlStringMgr@ATL@@@8			; ATL::CAtlStringMgr `RTTI Type Descriptor'
PUBLIC	??_R3CAtlStringMgr@ATL@@8			; ATL::CAtlStringMgr::`RTTI Class Hierarchy Descriptor'
PUBLIC	??_R2CAtlStringMgr@ATL@@8			; ATL::CAtlStringMgr::`RTTI Base Class Array'
PUBLIC	??_R1A@?0A@EA@CAtlStringMgr@ATL@@8		; ATL::CAtlStringMgr::`RTTI Base Class Descriptor at (0,-1,0,64)'
EXTRN	??3@YAXPAX@Z:PROC				; operator delete
EXTRN	_atexit:PROC
EXTRN	_memset:PROC
EXTRN	__imp__wcscpy_s:PROC
EXTRN	__imp__DecodePointer@4:PROC
EXTRN	__imp__RaiseException@16:PROC
EXTRN	__imp__GetLastError@0:PROC
EXTRN	__imp__HeapDestroy@4:PROC
EXTRN	__imp__HeapAlloc@12:PROC
EXTRN	__imp__HeapReAlloc@16:PROC
EXTRN	__imp__HeapFree@12:PROC
EXTRN	__imp__HeapSize@12:PROC
EXTRN	__imp__GetProcessHeap@0:PROC
EXTRN	__imp__EnterCriticalSection@4:PROC
EXTRN	__imp__LeaveCriticalSection@4:PROC
EXTRN	__imp__InitializeCriticalSectionEx@12:PROC
EXTRN	__imp__DeleteCriticalSection@4:PROC
EXTRN	__imp__DeleteDC@4:PROC
EXTRN	__imp__UnregisterClassW@8:PROC
EXTRN	__imp__swprintf_s:PROC
EXTRN	__imp___vsnwprintf_s:PROC
EXTRN	__imp__free:PROC
EXTRN	__imp___CrtDbgReportW:PROC
EXTRN	??_ECWin32Heap@ATL@@UAEPAXI@Z:PROC		; ATL::CWin32Heap::`vector deleting destructor'
EXTRN	??_ECAtlStringMgr@ATL@@UAEPAXI@Z:PROC		; ATL::CAtlStringMgr::`vector deleting destructor'
EXTRN	_GdiplusShutdown@4:PROC
EXTRN	@_RTC_CheckStackVars@8:PROC
EXTRN	@__security_check_cookie@4:PROC
EXTRN	__RTC_CheckEsp:PROC
EXTRN	__RTC_InitBase:PROC
EXTRN	__RTC_Shutdown:PROC
EXTRN	___CxxFrameHandler3:PROC
EXTRN	_memset:PROC
EXTRN	?_AtlBaseModule@ATL@@3VCAtlBaseModule@1@A:BYTE	; ATL::_AtlBaseModule
EXTRN	??_7type_info@@6B@:QWORD			; type_info::`vftable'
EXTRN	___ImageBase:BYTE
EXTRN	___security_cookie:DWORD
;	COMDAT ?atlTraceGeneral@ATL@@3V?$CTraceCategoryEx@$00$0A@@1@A
_BSS	SEGMENT
?atlTraceGeneral@ATL@@3V?$CTraceCategoryEx@$00$0A@@1@A DD 01H DUP (?) ; ATL::atlTraceGeneral
_BSS	ENDS
;	COMDAT ?atlTraceCOM@ATL@@3V?$CTraceCategoryEx@$01$0A@@1@A
_BSS	SEGMENT
?atlTraceCOM@ATL@@3V?$CTraceCategoryEx@$01$0A@@1@A DD 01H DUP (?) ; ATL::atlTraceCOM
_BSS	ENDS
;	COMDAT ?atlTraceQI@ATL@@3V?$CTraceCategoryEx@$03$0A@@1@A
_BSS	SEGMENT
?atlTraceQI@ATL@@3V?$CTraceCategoryEx@$03$0A@@1@A DD 01H DUP (?) ; ATL::atlTraceQI
_BSS	ENDS
;	COMDAT ?atlTraceRegistrar@ATL@@3V?$CTraceCategoryEx@$07$0A@@1@A
_BSS	SEGMENT
?atlTraceRegistrar@ATL@@3V?$CTraceCategoryEx@$07$0A@@1@A DD 01H DUP (?) ; ATL::atlTraceRegistrar
_BSS	ENDS
;	COMDAT ?atlTraceRefcount@ATL@@3V?$CTraceCategoryEx@$0BA@$0A@@1@A
_BSS	SEGMENT
?atlTraceRefcount@ATL@@3V?$CTraceCategoryEx@$0BA@$0A@@1@A DD 01H DUP (?) ; ATL::atlTraceRefcount
_BSS	ENDS
;	COMDAT ?atlTraceWindowing@ATL@@3V?$CTraceCategoryEx@$0CA@$0A@@1@A
_BSS	SEGMENT
?atlTraceWindowing@ATL@@3V?$CTraceCategoryEx@$0CA@$0A@@1@A DD 01H DUP (?) ; ATL::atlTraceWindowing
_BSS	ENDS
;	COMDAT ?atlTraceControls@ATL@@3V?$CTraceCategoryEx@$0EA@$0A@@1@A
_BSS	SEGMENT
?atlTraceControls@ATL@@3V?$CTraceCategoryEx@$0EA@$0A@@1@A DD 01H DUP (?) ; ATL::atlTraceControls
_BSS	ENDS
;	COMDAT ?atlTraceHosting@ATL@@3V?$CTraceCategoryEx@$0IA@$0A@@1@A
_BSS	SEGMENT
?atlTraceHosting@ATL@@3V?$CTraceCategoryEx@$0IA@$0A@@1@A DD 01H DUP (?) ; ATL::atlTraceHosting
_BSS	ENDS
;	COMDAT ?atlTraceDBClient@ATL@@3V?$CTraceCategoryEx@$0BAA@$0A@@1@A
_BSS	SEGMENT
?atlTraceDBClient@ATL@@3V?$CTraceCategoryEx@$0BAA@$0A@@1@A DD 01H DUP (?) ; ATL::atlTraceDBClient
_BSS	ENDS
;	COMDAT ?atlTraceDBProvider@ATL@@3V?$CTraceCategoryEx@$0CAA@$0A@@1@A
_BSS	SEGMENT
?atlTraceDBProvider@ATL@@3V?$CTraceCategoryEx@$0CAA@$0A@@1@A DD 01H DUP (?) ; ATL::atlTraceDBProvider
_BSS	ENDS
;	COMDAT ?atlTraceSnapin@ATL@@3V?$CTraceCategoryEx@$0EAA@$0A@@1@A
_BSS	SEGMENT
?atlTraceSnapin@ATL@@3V?$CTraceCategoryEx@$0EAA@$0A@@1@A DD 01H DUP (?) ; ATL::atlTraceSnapin
_BSS	ENDS
;	COMDAT ?atlTraceNotImpl@ATL@@3V?$CTraceCategoryEx@$0IAA@$0A@@1@A
_BSS	SEGMENT
?atlTraceNotImpl@ATL@@3V?$CTraceCategoryEx@$0IAA@$0A@@1@A DD 01H DUP (?) ; ATL::atlTraceNotImpl
_BSS	ENDS
;	COMDAT ?atlTraceAllocation@ATL@@3V?$CTraceCategoryEx@$0BAAA@$0A@@1@A
_BSS	SEGMENT
?atlTraceAllocation@ATL@@3V?$CTraceCategoryEx@$0BAAA@$0A@@1@A DD 01H DUP (?) ; ATL::atlTraceAllocation
_BSS	ENDS
;	COMDAT ?atlTraceException@ATL@@3V?$CTraceCategoryEx@$0CAAA@$0A@@1@A
_BSS	SEGMENT
?atlTraceException@ATL@@3V?$CTraceCategoryEx@$0CAAA@$0A@@1@A DD 01H DUP (?) ; ATL::atlTraceException
_BSS	ENDS
;	COMDAT ?atlTraceTime@ATL@@3V?$CTraceCategoryEx@$0EAAA@$0A@@1@A
_BSS	SEGMENT
?atlTraceTime@ATL@@3V?$CTraceCategoryEx@$0EAAA@$0A@@1@A DD 01H DUP (?) ; ATL::atlTraceTime
_BSS	ENDS
;	COMDAT ?atlTraceCache@ATL@@3V?$CTraceCategoryEx@$0IAAA@$0A@@1@A
_BSS	SEGMENT
?atlTraceCache@ATL@@3V?$CTraceCategoryEx@$0IAAA@$0A@@1@A DD 01H DUP (?) ; ATL::atlTraceCache
_BSS	ENDS
;	COMDAT ?atlTraceStencil@ATL@@3V?$CTraceCategoryEx@$0BAAAA@$0A@@1@A
_BSS	SEGMENT
?atlTraceStencil@ATL@@3V?$CTraceCategoryEx@$0BAAAA@$0A@@1@A DD 01H DUP (?) ; ATL::atlTraceStencil
_BSS	ENDS
;	COMDAT ?atlTraceString@ATL@@3V?$CTraceCategoryEx@$0CAAAA@$0A@@1@A
_BSS	SEGMENT
?atlTraceString@ATL@@3V?$CTraceCategoryEx@$0CAAAA@$0A@@1@A DD 01H DUP (?) ; ATL::atlTraceString
_BSS	ENDS
;	COMDAT ?atlTraceMap@ATL@@3V?$CTraceCategoryEx@$0EAAAA@$0A@@1@A
_BSS	SEGMENT
?atlTraceMap@ATL@@3V?$CTraceCategoryEx@$0EAAAA@$0A@@1@A DD 01H DUP (?) ; ATL::atlTraceMap
_BSS	ENDS
;	COMDAT ?atlTraceUtil@ATL@@3V?$CTraceCategoryEx@$0IAAAA@$0A@@1@A
_BSS	SEGMENT
?atlTraceUtil@ATL@@3V?$CTraceCategoryEx@$0IAAAA@$0A@@1@A DD 01H DUP (?) ; ATL::atlTraceUtil
_BSS	ENDS
;	COMDAT ?atlTraceSecurity@ATL@@3V?$CTraceCategoryEx@$0BAAAAA@$0A@@1@A
_BSS	SEGMENT
?atlTraceSecurity@ATL@@3V?$CTraceCategoryEx@$0BAAAAA@$0A@@1@A DD 01H DUP (?) ; ATL::atlTraceSecurity
_BSS	ENDS
;	COMDAT ?atlTraceSync@ATL@@3V?$CTraceCategoryEx@$0CAAAAA@$0A@@1@A
_BSS	SEGMENT
?atlTraceSync@ATL@@3V?$CTraceCategoryEx@$0CAAAAA@$0A@@1@A DD 01H DUP (?) ; ATL::atlTraceSync
_BSS	ENDS
;	COMDAT ?atlTraceISAPI@ATL@@3V?$CTraceCategoryEx@$0EAAAAA@$0A@@1@A
_BSS	SEGMENT
?atlTraceISAPI@ATL@@3V?$CTraceCategoryEx@$0EAAAAA@$0A@@1@A DD 01H DUP (?) ; ATL::atlTraceISAPI
_BSS	ENDS
;	COMDAT ?_AtlComModule@ATL@@3VCAtlComModule@1@A
_BSS	SEGMENT
?_AtlComModule@ATL@@3VCAtlComModule@1@A DB 028H DUP (?)	; ATL::_AtlComModule
_BSS	ENDS
;	COMDAT ?_AtlWinModule@ATL@@3VCAtlWinModule@1@A
_BSS	SEGMENT
?_AtlWinModule@ATL@@3VCAtlWinModule@1@A DB 02cH DUP (?)	; ATL::_AtlWinModule
_BSS	ENDS
;	COMDAT ?isInitialized@CAtlStringMgr@ATL@@0_NA
_BSS	SEGMENT
?isInitialized@CAtlStringMgr@ATL@@0_NA DB 01H DUP (?)	; ATL::CAtlStringMgr::isInitialized
_BSS	ENDS
;	COMDAT ?strHeap@?1??GetInstance@CAtlStringMgr@ATL@@SAPAUIAtlStringMgr@3@XZ@4VCWin32Heap@3@A
_BSS	SEGMENT
?strHeap@?1??GetInstance@CAtlStringMgr@ATL@@SAPAUIAtlStringMgr@3@XZ@4VCWin32Heap@3@A DB 0cH DUP (?) ; `ATL::CAtlStringMgr::GetInstance'::`2'::strHeap
_BSS	ENDS
;	COMDAT ??_B?1??GetInstance@CAtlStringMgr@ATL@@SAPAUIAtlStringMgr@2@XZ@51
_BSS	SEGMENT
??_B?1??GetInstance@CAtlStringMgr@ATL@@SAPAUIAtlStringMgr@2@XZ@51 DD 01H DUP (?) ; `ATL::CAtlStringMgr::GetInstance'::`2'::`local static guard'
_BSS	ENDS
;	COMDAT ?strMgr@?1??GetInstance@CAtlStringMgr@ATL@@SAPAUIAtlStringMgr@3@XZ@4V23@A
_BSS	SEGMENT
?strMgr@?1??GetInstance@CAtlStringMgr@ATL@@SAPAUIAtlStringMgr@3@XZ@4V23@A DB 01cH DUP (?) ; `ATL::CAtlStringMgr::GetInstance'::`2'::strMgr
_BSS	ENDS
;	COMDAT ?isCImageStaticInitialized@CImage@ATL@@0_NA
_BSS	SEGMENT
?isCImageStaticInitialized@CImage@ATL@@0_NA DB 01H DUP (?) ; ATL::CImage::isCImageStaticInitialized
_BSS	ENDS
;	COMDAT ?gdiPlus@?1??GetInitGDIPlusInstance@CImage@ATL@@CAPAVCInitGDIPlus@23@XZ@4V423@A
_BSS	SEGMENT
?gdiPlus@?1??GetInitGDIPlusInstance@CImage@ATL@@CAPAVCInitGDIPlus@23@XZ@4V423@A DB 024H DUP (?) ; `ATL::CImage::GetInitGDIPlusInstance'::`2'::gdiPlus
_BSS	ENDS
;	COMDAT ??_B?1??GetInitGDIPlusInstance@CImage@ATL@@CAPAVCInitGDIPlus@12@XZ@51
_BSS	SEGMENT
??_B?1??GetInitGDIPlusInstance@CImage@ATL@@CAPAVCInitGDIPlus@12@XZ@51 DD 01H DUP (?) ; `ATL::CImage::GetInitGDIPlusInstance'::`2'::`local static guard'
_BSS	ENDS
;	COMDAT ?cache@?1??GetCDCCacheInstance@CImage@ATL@@CAPAVCDCCache@23@XZ@4V423@A
_BSS	SEGMENT
?cache@?1??GetCDCCacheInstance@CImage@ATL@@CAPAVCDCCache@23@XZ@4V423@A DB 010H DUP (?) ; `ATL::CImage::GetCDCCacheInstance'::`2'::cache
_BSS	ENDS
;	COMDAT ??_B?1??GetCDCCacheInstance@CImage@ATL@@CAPAVCDCCache@12@XZ@51
_BSS	SEGMENT
??_B?1??GetCDCCacheInstance@CImage@ATL@@CAPAVCDCCache@12@XZ@51 DD 01H DUP (?) ; `ATL::CImage::GetCDCCacheInstance'::`2'::`local static guard'
_BSS	ENDS
;	COMDAT CRT$XCU
CRT$XCU	SEGMENT
_atlTraceGeneral$initializer$ DD FLAT:??__EatlTraceGeneral@ATL@@YAXXZ
CRT$XCU	ENDS
;	COMDAT rtc$TMZ
rtc$TMZ	SEGMENT
__RTC_Shutdown.rtc$TMZ DD FLAT:__RTC_Shutdown
rtc$TMZ	ENDS
;	COMDAT rtc$IMZ
rtc$IMZ	SEGMENT
__RTC_InitBase.rtc$IMZ DD FLAT:__RTC_InitBase
rtc$IMZ	ENDS
;	COMDAT ??_R1A@?0A@EA@CAtlStringMgr@ATL@@8
rdata$r	SEGMENT
??_R1A@?0A@EA@CAtlStringMgr@ATL@@8 DD FLAT:??_R0?AVCAtlStringMgr@ATL@@@8 ; ATL::CAtlStringMgr::`RTTI Base Class Descriptor at (0,-1,0,64)'
	DD	01H
	DD	00H
	DD	0ffffffffH
	DD	00H
	DD	040H
	DD	FLAT:??_R3CAtlStringMgr@ATL@@8
rdata$r	ENDS
;	COMDAT ??_R2CAtlStringMgr@ATL@@8
rdata$r	SEGMENT
??_R2CAtlStringMgr@ATL@@8 DD FLAT:??_R1A@?0A@EA@CAtlStringMgr@ATL@@8 ; ATL::CAtlStringMgr::`RTTI Base Class Array'
	DD	FLAT:??_R1A@?0A@EA@IAtlStringMgr@ATL@@8
rdata$r	ENDS
;	COMDAT ??_R3CAtlStringMgr@ATL@@8
rdata$r	SEGMENT
??_R3CAtlStringMgr@ATL@@8 DD 00H			; ATL::CAtlStringMgr::`RTTI Class Hierarchy Descriptor'
	DD	00H
	DD	02H
	DD	FLAT:??_R2CAtlStringMgr@ATL@@8
rdata$r	ENDS
;	COMDAT ??_R0?AVCAtlStringMgr@ATL@@@8
data$r	SEGMENT
??_R0?AVCAtlStringMgr@ATL@@@8 DD FLAT:??_7type_info@@6B@ ; ATL::CAtlStringMgr `RTTI Type Descriptor'
	DD	00H
	DB	'.?AVCAtlStringMgr@ATL@@', 00H
data$r	ENDS
;	COMDAT ??_R4CAtlStringMgr@ATL@@6B@
rdata$r	SEGMENT
??_R4CAtlStringMgr@ATL@@6B@ DD 00H			; ATL::CAtlStringMgr::`RTTI Complete Object Locator'
	DD	00H
	DD	00H
	DD	FLAT:??_R0?AVCAtlStringMgr@ATL@@@8
	DD	FLAT:??_R3CAtlStringMgr@ATL@@8
rdata$r	ENDS
;	COMDAT ??_R2IAtlStringMgr@ATL@@8
rdata$r	SEGMENT
??_R2IAtlStringMgr@ATL@@8 DD FLAT:??_R1A@?0A@EA@IAtlStringMgr@ATL@@8 ; ATL::IAtlStringMgr::`RTTI Base Class Array'
rdata$r	ENDS
;	COMDAT ??_R3IAtlStringMgr@ATL@@8
rdata$r	SEGMENT
??_R3IAtlStringMgr@ATL@@8 DD 00H			; ATL::IAtlStringMgr::`RTTI Class Hierarchy Descriptor'
	DD	00H
	DD	01H
	DD	FLAT:??_R2IAtlStringMgr@ATL@@8
rdata$r	ENDS
;	COMDAT ??_R0?AUIAtlStringMgr@ATL@@@8
data$r	SEGMENT
??_R0?AUIAtlStringMgr@ATL@@@8 DD FLAT:??_7type_info@@6B@ ; ATL::IAtlStringMgr `RTTI Type Descriptor'
	DD	00H
	DB	'.?AUIAtlStringMgr@ATL@@', 00H
data$r	ENDS
;	COMDAT ??_R1A@?0A@EA@IAtlStringMgr@ATL@@8
rdata$r	SEGMENT
??_R1A@?0A@EA@IAtlStringMgr@ATL@@8 DD FLAT:??_R0?AUIAtlStringMgr@ATL@@@8 ; ATL::IAtlStringMgr::`RTTI Base Class Descriptor at (0,-1,0,64)'
	DD	00H
	DD	00H
	DD	0ffffffffH
	DD	00H
	DD	040H
	DD	FLAT:??_R3IAtlStringMgr@ATL@@8
rdata$r	ENDS
;	COMDAT ??_R2IAtlMemMgr@ATL@@8
rdata$r	SEGMENT
??_R2IAtlMemMgr@ATL@@8 DD FLAT:??_R1A@?0A@EA@IAtlMemMgr@ATL@@8 ; ATL::IAtlMemMgr::`RTTI Base Class Array'
rdata$r	ENDS
;	COMDAT ??_R3IAtlMemMgr@ATL@@8
rdata$r	SEGMENT
??_R3IAtlMemMgr@ATL@@8 DD 00H				; ATL::IAtlMemMgr::`RTTI Class Hierarchy Descriptor'
	DD	00H
	DD	01H
	DD	FLAT:??_R2IAtlMemMgr@ATL@@8
rdata$r	ENDS
;	COMDAT ??_R0?AUIAtlMemMgr@ATL@@@8
data$r	SEGMENT
??_R0?AUIAtlMemMgr@ATL@@@8 DD FLAT:??_7type_info@@6B@	; ATL::IAtlMemMgr `RTTI Type Descriptor'
	DD	00H
	DB	'.?AUIAtlMemMgr@ATL@@', 00H
data$r	ENDS
;	COMDAT ??_R1A@?0A@EA@IAtlMemMgr@ATL@@8
rdata$r	SEGMENT
??_R1A@?0A@EA@IAtlMemMgr@ATL@@8 DD FLAT:??_R0?AUIAtlMemMgr@ATL@@@8 ; ATL::IAtlMemMgr::`RTTI Base Class Descriptor at (0,-1,0,64)'
	DD	00H
	DD	00H
	DD	0ffffffffH
	DD	00H
	DD	040H
	DD	FLAT:??_R3IAtlMemMgr@ATL@@8
rdata$r	ENDS
;	COMDAT ??_R1A@?0A@EA@CWin32Heap@ATL@@8
rdata$r	SEGMENT
??_R1A@?0A@EA@CWin32Heap@ATL@@8 DD FLAT:??_R0?AVCWin32Heap@ATL@@@8 ; ATL::CWin32Heap::`RTTI Base Class Descriptor at (0,-1,0,64)'
	DD	01H
	DD	00H
	DD	0ffffffffH
	DD	00H
	DD	040H
	DD	FLAT:??_R3CWin32Heap@ATL@@8
rdata$r	ENDS
;	COMDAT ??_R2CWin32Heap@ATL@@8
rdata$r	SEGMENT
??_R2CWin32Heap@ATL@@8 DD FLAT:??_R1A@?0A@EA@CWin32Heap@ATL@@8 ; ATL::CWin32Heap::`RTTI Base Class Array'
	DD	FLAT:??_R1A@?0A@EA@IAtlMemMgr@ATL@@8
rdata$r	ENDS
;	COMDAT ??_R3CWin32Heap@ATL@@8
rdata$r	SEGMENT
??_R3CWin32Heap@ATL@@8 DD 00H				; ATL::CWin32Heap::`RTTI Class Hierarchy Descriptor'
	DD	00H
	DD	02H
	DD	FLAT:??_R2CWin32Heap@ATL@@8
rdata$r	ENDS
;	COMDAT ??_R0?AVCWin32Heap@ATL@@@8
data$r	SEGMENT
??_R0?AVCWin32Heap@ATL@@@8 DD FLAT:??_7type_info@@6B@	; ATL::CWin32Heap `RTTI Type Descriptor'
	DD	00H
	DB	'.?AVCWin32Heap@ATL@@', 00H
data$r	ENDS
;	COMDAT ??_R4CWin32Heap@ATL@@6B@
rdata$r	SEGMENT
??_R4CWin32Heap@ATL@@6B@ DD 00H				; ATL::CWin32Heap::`RTTI Complete Object Locator'
	DD	00H
	DD	00H
	DD	FLAT:??_R0?AVCWin32Heap@ATL@@@8
	DD	FLAT:??_R3CWin32Heap@ATL@@8
rdata$r	ENDS
;	COMDAT ??_C@_1KI@KJKLFHG@?$AAc?$AA?3?$AA?2?$AAp?$AAr?$AAo?$AAg?$AAr?$AAa?$AAm?$AA?5?$AAf?$AAi?$AAl?$AAe?$AAs?$AA?5?$AA?$CI?$AAx?$AA8?$AA6?$AA?$CJ?$AA?2?$AAm?$AAi?$AAc?$AAr?$AAo?$AAs?$AAo?$AAf?$AAt@
CONST	SEGMENT
??_C@_1KI@KJKLFHG@?$AAc?$AA?3?$AA?2?$AAp?$AAr?$AAo?$AAg?$AAr?$AAa?$AAm?$AA?5?$AAf?$AAi?$AAl?$AAe?$AAs?$AA?5?$AA?$CI?$AAx?$AA8?$AA6?$AA?$CJ?$AA?2?$AAm?$AAi?$AAc?$AAr?$AAo?$AAs?$AAo?$AAf?$AAt@ DB 'c'
	DB	00H, ':', 00H, '\', 00H, 'p', 00H, 'r', 00H, 'o', 00H, 'g', 00H
	DB	'r', 00H, 'a', 00H, 'm', 00H, ' ', 00H, 'f', 00H, 'i', 00H, 'l'
	DB	00H, 'e', 00H, 's', 00H, ' ', 00H, '(', 00H, 'x', 00H, '8', 00H
	DB	'6', 00H, ')', 00H, '\', 00H, 'm', 00H, 'i', 00H, 'c', 00H, 'r'
	DB	00H, 'o', 00H, 's', 00H, 'o', 00H, 'f', 00H, 't', 00H, ' ', 00H
	DB	'v', 00H, 'i', 00H, 's', 00H, 'u', 00H, 'a', 00H, 'l', 00H, ' '
	DB	00H, 's', 00H, 't', 00H, 'u', 00H, 'd', 00H, 'i', 00H, 'o', 00H
	DB	' ', 00H, '1', 00H, '2', 00H, '.', 00H, '0', 00H, '\', 00H, 'v'
	DB	00H, 'c', 00H, '\', 00H, 'a', 00H, 't', 00H, 'l', 00H, 'm', 00H
	DB	'f', 00H, 'c', 00H, '\', 00H, 'i', 00H, 'n', 00H, 'c', 00H, 'l'
	DB	00H, 'u', 00H, 'd', 00H, 'e', 00H, '\', 00H, 'a', 00H, 't', 00H
	DB	'l', 00H, 's', 00H, 'i', 00H, 'm', 00H, 'p', 00H, 'c', 00H, 'o'
	DB	00H, 'l', 00H, 'l', 00H, '.', 00H, 'h', 00H, 00H, 00H ; `string'
CONST	ENDS
;	COMDAT ??_C@_1EA@JHMKKLFC@?$AAn?$AAI?$AAn?$AAd?$AAe?$AAx?$AA?5?$AA?$DO?$AA?$DN?$AA?5?$AA0?$AA?5?$AA?$CG?$AA?$CG?$AA?5?$AAn?$AAI?$AAn?$AAd?$AAe?$AAx?$AA?5?$AA?$DM?$AA?5?$AAm?$AA_?$AAn?$AAS?$AAi?$AAz?$AAe?$AA?$AA@
CONST	SEGMENT
??_C@_1EA@JHMKKLFC@?$AAn?$AAI?$AAn?$AAd?$AAe?$AAx?$AA?5?$AA?$DO?$AA?$DN?$AA?5?$AA0?$AA?5?$AA?$CG?$AA?$CG?$AA?5?$AAn?$AAI?$AAn?$AAd?$AAe?$AAx?$AA?5?$AA?$DM?$AA?5?$AAm?$AA_?$AAn?$AAS?$AAi?$AAz?$AAe?$AA?$AA@ DB 'n'
	DB	00H, 'I', 00H, 'n', 00H, 'd', 00H, 'e', 00H, 'x', 00H, ' ', 00H
	DB	'>', 00H, '=', 00H, ' ', 00H, '0', 00H, ' ', 00H, '&', 00H, '&'
	DB	00H, ' ', 00H, 'n', 00H, 'I', 00H, 'n', 00H, 'd', 00H, 'e', 00H
	DB	'x', 00H, ' ', 00H, '<', 00H, ' ', 00H, 'm', 00H, '_', 00H, 'n'
	DB	00H, 'S', 00H, 'i', 00H, 'z', 00H, 'e', 00H, 00H, 00H ; `string'
CONST	ENDS
;	COMDAT ??_C@_1DE@KEEBDKDC@?$AAp?$AAD?$AAa?$AAt?$AAa?$AA?9?$AA?$DO?$AAp?$AAS?$AAt?$AAr?$AAi?$AAn?$AAg?$AAM?$AAg?$AAr?$AA?5?$AA?$DN?$AA?$DN?$AA?5?$AAt?$AAh?$AAi?$AAs?$AA?$AA@
CONST	SEGMENT
??_C@_1DE@KEEBDKDC@?$AAp?$AAD?$AAa?$AAt?$AAa?$AA?9?$AA?$DO?$AAp?$AAS?$AAt?$AAr?$AAi?$AAn?$AAg?$AAM?$AAg?$AAr?$AA?5?$AA?$DN?$AA?$DN?$AA?5?$AAt?$AAh?$AAi?$AAs?$AA?$AA@ DB 'p'
	DB	00H, 'D', 00H, 'a', 00H, 't', 00H, 'a', 00H, '-', 00H, '>', 00H
	DB	'p', 00H, 'S', 00H, 't', 00H, 'r', 00H, 'i', 00H, 'n', 00H, 'g'
	DB	00H, 'M', 00H, 'g', 00H, 'r', 00H, ' ', 00H, '=', 00H, '=', 00H
	DB	' ', 00H, 't', 00H, 'h', 00H, 'i', 00H, 's', 00H, 00H, 00H ; `string'
CONST	ENDS
;	COMDAT ??_C@_1BG@IEBIBJEI@?$AAp?$AAD?$AAa?$AAt?$AAa?$AA?5?$AA?$CB?$AA?$DN?$AA?5?$AA0?$AA?$AA@
CONST	SEGMENT
??_C@_1BG@IEBIBJEI@?$AAp?$AAD?$AAa?$AAt?$AAa?$AA?5?$AA?$CB?$AA?$DN?$AA?5?$AA0?$AA?$AA@ DB 'p'
	DB	00H, 'D', 00H, 'a', 00H, 't', 00H, 'a', 00H, ' ', 00H, '!', 00H
	DB	'=', 00H, ' ', 00H, '0', 00H, 00H, 00H	; `string'
CONST	ENDS
;	COMDAT ??_C@_1JO@EJBGHLIE@?$AAc?$AA?3?$AA?2?$AAp?$AAr?$AAo?$AAg?$AAr?$AAa?$AAm?$AA?5?$AAf?$AAi?$AAl?$AAe?$AAs?$AA?5?$AA?$CI?$AAx?$AA8?$AA6?$AA?$CJ?$AA?2?$AAm?$AAi?$AAc?$AAr?$AAo?$AAs?$AAo?$AAf?$AAt@
CONST	SEGMENT
??_C@_1JO@EJBGHLIE@?$AAc?$AA?3?$AA?2?$AAp?$AAr?$AAo?$AAg?$AAr?$AAa?$AAm?$AA?5?$AAf?$AAi?$AAl?$AAe?$AAs?$AA?5?$AA?$CI?$AAx?$AA8?$AA6?$AA?$CJ?$AA?2?$AAm?$AAi?$AAc?$AAr?$AAo?$AAs?$AAo?$AAf?$AAt@ DB 'c'
	DB	00H, ':', 00H, '\', 00H, 'p', 00H, 'r', 00H, 'o', 00H, 'g', 00H
	DB	'r', 00H, 'a', 00H, 'm', 00H, ' ', 00H, 'f', 00H, 'i', 00H, 'l'
	DB	00H, 'e', 00H, 's', 00H, ' ', 00H, '(', 00H, 'x', 00H, '8', 00H
	DB	'6', 00H, ')', 00H, '\', 00H, 'm', 00H, 'i', 00H, 'c', 00H, 'r'
	DB	00H, 'o', 00H, 's', 00H, 'o', 00H, 'f', 00H, 't', 00H, ' ', 00H
	DB	'v', 00H, 'i', 00H, 's', 00H, 'u', 00H, 'a', 00H, 'l', 00H, ' '
	DB	00H, 's', 00H, 't', 00H, 'u', 00H, 'd', 00H, 'i', 00H, 'o', 00H
	DB	' ', 00H, '1', 00H, '2', 00H, '.', 00H, '0', 00H, '\', 00H, 'v'
	DB	00H, 'c', 00H, '\', 00H, 'a', 00H, 't', 00H, 'l', 00H, 'm', 00H
	DB	'f', 00H, 'c', 00H, '\', 00H, 'i', 00H, 'n', 00H, 'c', 00H, 'l'
	DB	00H, 'u', 00H, 'd', 00H, 'e', 00H, '\', 00H, 'a', 00H, 't', 00H
	DB	'l', 00H, 's', 00H, 't', 00H, 'r', 00H, '.', 00H, 'h', 00H, 00H
	DB	00H						; `string'
CONST	ENDS
;	COMDAT ??_7CAtlStringMgr@ATL@@6B@
CONST	SEGMENT
??_7CAtlStringMgr@ATL@@6B@ DD FLAT:??_R4CAtlStringMgr@ATL@@6B@ ; ATL::CAtlStringMgr::`vftable'
	DD	FLAT:?Allocate@CAtlStringMgr@ATL@@UAEPAUCStringData@2@HH@Z
	DD	FLAT:?Free@CAtlStringMgr@ATL@@UAEXPAUCStringData@2@@Z
	DD	FLAT:?Reallocate@CAtlStringMgr@ATL@@UAEPAUCStringData@2@PAU32@HH@Z
	DD	FLAT:?GetNilString@CAtlStringMgr@ATL@@UAEPAUCStringData@2@XZ
	DD	FLAT:?Clone@CAtlStringMgr@ATL@@UAEPAUIAtlStringMgr@2@XZ
	DD	FLAT:??_ECAtlStringMgr@ATL@@UAEPAXI@Z
CONST	ENDS
;	COMDAT ??_C@_1IG@OPJAFKJH@?$AAE?$AAR?$AAR?$AAO?$AAR?$AA?5?$AA?3?$AA?5?$AAU?$AAn?$AAa?$AAb?$AAl?$AAe?$AA?5?$AAt?$AAo?$AA?5?$AAi?$AAn?$AAi?$AAt?$AAi?$AAa?$AAl?$AAi?$AAz?$AAe?$AA?5?$AAc?$AAr?$AAi@
CONST	SEGMENT
??_C@_1IG@OPJAFKJH@?$AAE?$AAR?$AAR?$AAO?$AAR?$AA?5?$AA?3?$AA?5?$AAU?$AAn?$AAa?$AAb?$AAl?$AAe?$AA?5?$AAt?$AAo?$AA?5?$AAi?$AAn?$AAi?$AAt?$AAi?$AAa?$AAl?$AAi?$AAz?$AAe?$AA?5?$AAc?$AAr?$AAi@ DB 'E'
	DB	00H, 'R', 00H, 'R', 00H, 'O', 00H, 'R', 00H, ' ', 00H, ':', 00H
	DB	' ', 00H, 'U', 00H, 'n', 00H, 'a', 00H, 'b', 00H, 'l', 00H, 'e'
	DB	00H, ' ', 00H, 't', 00H, 'o', 00H, ' ', 00H, 'i', 00H, 'n', 00H
	DB	'i', 00H, 't', 00H, 'i', 00H, 'a', 00H, 'l', 00H, 'i', 00H, 'z'
	DB	00H, 'e', 00H, ' ', 00H, 'c', 00H, 'r', 00H, 'i', 00H, 't', 00H
	DB	'i', 00H, 'c', 00H, 'a', 00H, 'l', 00H, ' ', 00H, 's', 00H, 'e'
	DB	00H, 'c', 00H, 't', 00H, 'i', 00H, 'o', 00H, 'n', 00H, ' ', 00H
	DB	'i', 00H, 'n', 00H, ' ', 00H, 'A', 00H, 't', 00H, 'l', 00H, 'W'
	DB	00H, 'i', 00H, 'n', 00H, 'M', 00H, 'o', 00H, 'd', 00H, 'u', 00H
	DB	'l', 00H, 'e', 00H, 'I', 00H, 'n', 00H, 'i', 00H, 't', 00H, 0aH
	DB	00H, 00H, 00H				; `string'
CONST	ENDS
;	COMDAT ?__LINE__Var@?1??AtlWinModuleInit@ATL@@YGJPAU_ATL_WIN_MODULE70@2@@Z@4JA
_DATA	SEGMENT
?__LINE__Var@?1??AtlWinModuleInit@ATL@@YGJPAU_ATL_WIN_MODULE70@2@@Z@4JA DD 020d0H ; `ATL::AtlWinModuleInit'::`2'::__LINE__Var
_DATA	ENDS
;	COMDAT ??_C@_1IA@KEEOONGN@?$AAE?$AAR?$AAR?$AAO?$AAR?$AA?5?$AA?3?$AA?5?$AAU?$AAn?$AAa?$AAb?$AAl?$AAe?$AA?5?$AAt?$AAo?$AA?5?$AAi?$AAn?$AAi?$AAt?$AAi?$AAa?$AAl?$AAi?$AAz?$AAe?$AA?5?$AAc?$AAr?$AAi@
CONST	SEGMENT
??_C@_1IA@KEEOONGN@?$AAE?$AAR?$AAR?$AAO?$AAR?$AA?5?$AA?3?$AA?5?$AAU?$AAn?$AAa?$AAb?$AAl?$AAe?$AA?5?$AAt?$AAo?$AA?5?$AAi?$AAn?$AAi?$AAt?$AAi?$AAa?$AAl?$AAi?$AAz?$AAe?$AA?5?$AAc?$AAr?$AAi@ DB 'E'
	DB	00H, 'R', 00H, 'R', 00H, 'O', 00H, 'R', 00H, ' ', 00H, ':', 00H
	DB	' ', 00H, 'U', 00H, 'n', 00H, 'a', 00H, 'b', 00H, 'l', 00H, 'e'
	DB	00H, ' ', 00H, 't', 00H, 'o', 00H, ' ', 00H, 'i', 00H, 'n', 00H
	DB	'i', 00H, 't', 00H, 'i', 00H, 'a', 00H, 'l', 00H, 'i', 00H, 'z'
	DB	00H, 'e', 00H, ' ', 00H, 'c', 00H, 'r', 00H, 'i', 00H, 't', 00H
	DB	'i', 00H, 'c', 00H, 'a', 00H, 'l', 00H, ' ', 00H, 's', 00H, 'e'
	DB	00H, 'c', 00H, 't', 00H, 'i', 00H, 'o', 00H, 'n', 00H, ' ', 00H
	DB	'i', 00H, 'n', 00H, ' ', 00H, 'C', 00H, 'A', 00H, 't', 00H, 'l'
	DB	00H, 'C', 00H, 'o', 00H, 'm', 00H, 'M', 00H, 'o', 00H, 'd', 00H
	DB	'u', 00H, 'l', 00H, 'e', 00H, 0aH, 00H, 00H, 00H ; `string'
CONST	ENDS
;	COMDAT ??_C@_0FA@ODGKGNGJ@c?3?2program?5files?5?$CIx86?$CJ?2microsoft@
CONST	SEGMENT
??_C@_0FA@ODGKGNGJ@c?3?2program?5files?5?$CIx86?$CJ?2microsoft@ DB 'c:\pr'
	DB	'ogram files (x86)\microsoft visual studio 12.0\vc\atlmfc\incl'
	DB	'ude\atlbase.h', 00H				; `string'
CONST	ENDS
;	COMDAT ??_C@_1KA@ELJIHIAD@?$AAc?$AA?3?$AA?2?$AAp?$AAr?$AAo?$AAg?$AAr?$AAa?$AAm?$AA?5?$AAf?$AAi?$AAl?$AAe?$AAs?$AA?5?$AA?$CI?$AAx?$AA8?$AA6?$AA?$CJ?$AA?2?$AAm?$AAi?$AAc?$AAr?$AAo?$AAs?$AAo?$AAf?$AAt@
CONST	SEGMENT
??_C@_1KA@ELJIHIAD@?$AAc?$AA?3?$AA?2?$AAp?$AAr?$AAo?$AAg?$AAr?$AAa?$AAm?$AA?5?$AAf?$AAi?$AAl?$AAe?$AAs?$AA?5?$AA?$CI?$AAx?$AA8?$AA6?$AA?$CJ?$AA?2?$AAm?$AAi?$AAc?$AAr?$AAo?$AAs?$AAo?$AAf?$AAt@ DB 'c'
	DB	00H, ':', 00H, '\', 00H, 'p', 00H, 'r', 00H, 'o', 00H, 'g', 00H
	DB	'r', 00H, 'a', 00H, 'm', 00H, ' ', 00H, 'f', 00H, 'i', 00H, 'l'
	DB	00H, 'e', 00H, 's', 00H, ' ', 00H, '(', 00H, 'x', 00H, '8', 00H
	DB	'6', 00H, ')', 00H, '\', 00H, 'm', 00H, 'i', 00H, 'c', 00H, 'r'
	DB	00H, 'o', 00H, 's', 00H, 'o', 00H, 'f', 00H, 't', 00H, ' ', 00H
	DB	'v', 00H, 'i', 00H, 's', 00H, 'u', 00H, 'a', 00H, 'l', 00H, ' '
	DB	00H, 's', 00H, 't', 00H, 'u', 00H, 'd', 00H, 'i', 00H, 'o', 00H
	DB	' ', 00H, '1', 00H, '2', 00H, '.', 00H, '0', 00H, '\', 00H, 'v'
	DB	00H, 'c', 00H, '\', 00H, 'a', 00H, 't', 00H, 'l', 00H, 'm', 00H
	DB	'f', 00H, 'c', 00H, '\', 00H, 'i', 00H, 'n', 00H, 'c', 00H, 'l'
	DB	00H, 'u', 00H, 'd', 00H, 'e', 00H, '\', 00H, 'a', 00H, 't', 00H
	DB	'l', 00H, 'b', 00H, 'a', 00H, 's', 00H, 'e', 00H, '.', 00H, 'h'
	DB	00H, 00H, 00H				; `string'
CONST	ENDS
;	COMDAT ??_C@_1CA@MEFFJNJ@?$AAp?$AAS?$AAt?$AAr?$AAi?$AAn?$AAg?$AAM?$AAg?$AAr?$AA?5?$AA?$DN?$AA?$DN?$AA?5?$AA0?$AA?$AA@
CONST	SEGMENT
??_C@_1CA@MEFFJNJ@?$AAp?$AAS?$AAt?$AAr?$AAi?$AAn?$AAg?$AAM?$AAg?$AAr?$AA?5?$AA?$DN?$AA?$DN?$AA?5?$AA0?$AA?$AA@ DB 'p'
	DB	00H, 'S', 00H, 't', 00H, 'r', 00H, 'i', 00H, 'n', 00H, 'g', 00H
	DB	'M', 00H, 'g', 00H, 'r', 00H, ' ', 00H, '=', 00H, '=', 00H, ' '
	DB	00H, '0', 00H, 00H, 00H			; `string'
CONST	ENDS
;	COMDAT ??_C@_1KG@EPEOMBFC@?$AAc?$AA?3?$AA?2?$AAp?$AAr?$AAo?$AAg?$AAr?$AAa?$AAm?$AA?5?$AAf?$AAi?$AAl?$AAe?$AAs?$AA?5?$AA?$CI?$AAx?$AA8?$AA6?$AA?$CJ?$AA?2?$AAm?$AAi?$AAc?$AAr?$AAo?$AAs?$AAo?$AAf?$AAt@
CONST	SEGMENT
??_C@_1KG@EPEOMBFC@?$AAc?$AA?3?$AA?2?$AAp?$AAr?$AAo?$AAg?$AAr?$AAa?$AAm?$AA?5?$AAf?$AAi?$AAl?$AAe?$AAs?$AA?5?$AA?$CI?$AAx?$AA8?$AA6?$AA?$CJ?$AA?2?$AAm?$AAi?$AAc?$AAr?$AAo?$AAs?$AAo?$AAf?$AAt@ DB 'c'
	DB	00H, ':', 00H, '\', 00H, 'p', 00H, 'r', 00H, 'o', 00H, 'g', 00H
	DB	'r', 00H, 'a', 00H, 'm', 00H, ' ', 00H, 'f', 00H, 'i', 00H, 'l'
	DB	00H, 'e', 00H, 's', 00H, ' ', 00H, '(', 00H, 'x', 00H, '8', 00H
	DB	'6', 00H, ')', 00H, '\', 00H, 'm', 00H, 'i', 00H, 'c', 00H, 'r'
	DB	00H, 'o', 00H, 's', 00H, 'o', 00H, 'f', 00H, 't', 00H, ' ', 00H
	DB	'v', 00H, 'i', 00H, 's', 00H, 'u', 00H, 'a', 00H, 'l', 00H, ' '
	DB	00H, 's', 00H, 't', 00H, 'u', 00H, 'd', 00H, 'i', 00H, 'o', 00H
	DB	' ', 00H, '1', 00H, '2', 00H, '.', 00H, '0', 00H, '\', 00H, 'v'
	DB	00H, 'c', 00H, '\', 00H, 'a', 00H, 't', 00H, 'l', 00H, 'm', 00H
	DB	'f', 00H, 'c', 00H, '\', 00H, 'i', 00H, 'n', 00H, 'c', 00H, 'l'
	DB	00H, 'u', 00H, 'd', 00H, 'e', 00H, '\', 00H, 'a', 00H, 't', 00H
	DB	'l', 00H, 's', 00H, 'i', 00H, 'm', 00H, 'p', 00H, 's', 00H, 't'
	DB	00H, 'r', 00H, '.', 00H, 'h', 00H, 00H, 00H	; `string'
CONST	ENDS
;	COMDAT ??_C@_1BE@BLGCOAPB@?$AAn?$AAR?$AAe?$AAf?$AAs?$AA?5?$AA?$DO?$AA?5?$AA0?$AA?$AA@
CONST	SEGMENT
??_C@_1BE@BLGCOAPB@?$AAn?$AAR?$AAe?$AAf?$AAs?$AA?5?$AA?$DO?$AA?5?$AA0?$AA?$AA@ DB 'n'
	DB	00H, 'R', 00H, 'e', 00H, 'f', 00H, 's', 00H, ' ', 00H, '>', 00H
	DB	' ', 00H, '0', 00H, 00H, 00H			; `string'
CONST	ENDS
;	COMDAT ??_C@_1BC@PMINONJG@?$AAb?$AAS?$AAu?$AAc?$AAc?$AAe?$AAs?$AAs?$AA?$AA@
CONST	SEGMENT
??_C@_1BC@PMINONJG@?$AAb?$AAS?$AAu?$AAc?$AAc?$AAe?$AAs?$AAs?$AA?$AA@ DB 'b'
	DB	00H, 'S', 00H, 'u', 00H, 'c', 00H, 'c', 00H, 'e', 00H, 's', 00H
	DB	's', 00H, 00H, 00H				; `string'
CONST	ENDS
;	COMDAT ??_C@_1JO@MBMIIMDH@?$AAc?$AA?3?$AA?2?$AAp?$AAr?$AAo?$AAg?$AAr?$AAa?$AAm?$AA?5?$AAf?$AAi?$AAl?$AAe?$AAs?$AA?5?$AA?$CI?$AAx?$AA8?$AA6?$AA?$CJ?$AA?2?$AAm?$AAi?$AAc?$AAr?$AAo?$AAs?$AAo?$AAf?$AAt@
CONST	SEGMENT
??_C@_1JO@MBMIIMDH@?$AAc?$AA?3?$AA?2?$AAp?$AAr?$AAo?$AAg?$AAr?$AAa?$AAm?$AA?5?$AAf?$AAi?$AAl?$AAe?$AAs?$AA?5?$AA?$CI?$AAx?$AA8?$AA6?$AA?$CJ?$AA?2?$AAm?$AAi?$AAc?$AAr?$AAo?$AAs?$AAo?$AAf?$AAt@ DB 'c'
	DB	00H, ':', 00H, '\', 00H, 'p', 00H, 'r', 00H, 'o', 00H, 'g', 00H
	DB	'r', 00H, 'a', 00H, 'm', 00H, ' ', 00H, 'f', 00H, 'i', 00H, 'l'
	DB	00H, 'e', 00H, 's', 00H, ' ', 00H, '(', 00H, 'x', 00H, '8', 00H
	DB	'6', 00H, ')', 00H, '\', 00H, 'm', 00H, 'i', 00H, 'c', 00H, 'r'
	DB	00H, 'o', 00H, 's', 00H, 'o', 00H, 'f', 00H, 't', 00H, ' ', 00H
	DB	'v', 00H, 'i', 00H, 's', 00H, 'u', 00H, 'a', 00H, 'l', 00H, ' '
	DB	00H, 's', 00H, 't', 00H, 'u', 00H, 'd', 00H, 'i', 00H, 'o', 00H
	DB	' ', 00H, '1', 00H, '2', 00H, '.', 00H, '0', 00H, '\', 00H, 'v'
	DB	00H, 'c', 00H, '\', 00H, 'a', 00H, 't', 00H, 'l', 00H, 'm', 00H
	DB	'f', 00H, 'c', 00H, '\', 00H, 'i', 00H, 'n', 00H, 'c', 00H, 'l'
	DB	00H, 'u', 00H, 'd', 00H, 'e', 00H, '\', 00H, 'a', 00H, 't', 00H
	DB	'l', 00H, 'm', 00H, 'e', 00H, 'm', 00H, '.', 00H, 'h', 00H, 00H
	DB	00H						; `string'
CONST	ENDS
;	COMDAT ??_C@_1BG@CLPBKBHG@?$AAh?$AAH?$AAe?$AAa?$AAp?$AA?5?$AA?$CB?$AA?$DN?$AA?5?$AA0?$AA?$AA@
CONST	SEGMENT
??_C@_1BG@CLPBKBHG@?$AAh?$AAH?$AAe?$AAa?$AAp?$AA?5?$AA?$CB?$AA?$DN?$AA?5?$AA0?$AA?$AA@ DB 'h'
	DB	00H, 'H', 00H, 'e', 00H, 'a', 00H, 'p', 00H, ' ', 00H, '!', 00H
	DB	'=', 00H, ' ', 00H, '0', 00H, 00H, 00H	; `string'
CONST	ENDS
;	COMDAT ??_7CWin32Heap@ATL@@6B@
CONST	SEGMENT
??_7CWin32Heap@ATL@@6B@ DD FLAT:??_R4CWin32Heap@ATL@@6B@ ; ATL::CWin32Heap::`vftable'
	DD	FLAT:?Allocate@CWin32Heap@ATL@@UAEPAXI@Z
	DD	FLAT:?Free@CWin32Heap@ATL@@UAEXPAX@Z
	DD	FLAT:?Reallocate@CWin32Heap@ATL@@UAEPAXPAXI@Z
	DD	FLAT:?GetSize@CWin32Heap@ATL@@UAEIPAX@Z
	DD	FLAT:??_ECWin32Heap@ATL@@UAEPAXI@Z
CONST	ENDS
;	COMDAT ??_C@_1BM@GBBOFEAE@?$AA_?$AA_?$AAa?$AAt?$AAl?$AA_?$AAc?$AAo?$AAn?$AAd?$AAV?$AAa?$AAl?$AA?$AA@
CONST	SEGMENT
??_C@_1BM@GBBOFEAE@?$AA_?$AA_?$AAa?$AAt?$AAl?$AA_?$AAc?$AAo?$AAn?$AAd?$AAV?$AAa?$AAl?$AA?$AA@ DB '_'
	DB	00H, '_', 00H, 'a', 00H, 't', 00H, 'l', 00H, '_', 00H, 'c', 00H
	DB	'o', 00H, 'n', 00H, 'd', 00H, 'V', 00H, 'a', 00H, 'l', 00H, 00H
	DB	00H						; `string'
CONST	ENDS
;	COMDAT ??_C@_1KC@GEMPEEJK@?$AAc?$AA?3?$AA?2?$AAp?$AAr?$AAo?$AAg?$AAr?$AAa?$AAm?$AA?5?$AAf?$AAi?$AAl?$AAe?$AAs?$AA?5?$AA?$CI?$AAx?$AA8?$AA6?$AA?$CJ?$AA?2?$AAm?$AAi?$AAc?$AAr?$AAo?$AAs?$AAo?$AAf?$AAt@
CONST	SEGMENT
??_C@_1KC@GEMPEEJK@?$AAc?$AA?3?$AA?2?$AAp?$AAr?$AAo?$AAg?$AAr?$AAa?$AAm?$AA?5?$AAf?$AAi?$AAl?$AAe?$AAs?$AA?5?$AA?$CI?$AAx?$AA8?$AA6?$AA?$CJ?$AA?2?$AAm?$AAi?$AAc?$AAr?$AAo?$AAs?$AAo?$AAf?$AAt@ DB 'c'
	DB	00H, ':', 00H, '\', 00H, 'p', 00H, 'r', 00H, 'o', 00H, 'g', 00H
	DB	'r', 00H, 'a', 00H, 'm', 00H, ' ', 00H, 'f', 00H, 'i', 00H, 'l'
	DB	00H, 'e', 00H, 's', 00H, ' ', 00H, '(', 00H, 'x', 00H, '8', 00H
	DB	'6', 00H, ')', 00H, '\', 00H, 'm', 00H, 'i', 00H, 'c', 00H, 'r'
	DB	00H, 'o', 00H, 's', 00H, 'o', 00H, 'f', 00H, 't', 00H, ' ', 00H
	DB	'v', 00H, 'i', 00H, 's', 00H, 'u', 00H, 'a', 00H, 'l', 00H, ' '
	DB	00H, 's', 00H, 't', 00H, 'u', 00H, 'd', 00H, 'i', 00H, 'o', 00H
	DB	' ', 00H, '1', 00H, '2', 00H, '.', 00H, '0', 00H, '\', 00H, 'v'
	DB	00H, 'c', 00H, '\', 00H, 'a', 00H, 't', 00H, 'l', 00H, 'm', 00H
	DB	'f', 00H, 'c', 00H, '\', 00H, 'i', 00H, 'n', 00H, 'c', 00H, 'l'
	DB	00H, 'u', 00H, 'd', 00H, 'e', 00H, '\', 00H, 'a', 00H, 't', 00H
	DB	'l', 00H, 't', 00H, 'r', 00H, 'a', 00H, 'c', 00H, 'e', 00H, '.'
	DB	00H, 'h', 00H, 00H, 00H			; `string'
CONST	ENDS
;	COMDAT ??_C@_1EO@EBPPKGOM@?$AAf?$AAa?$AAl?$AAs?$AAe?$AA?5?$AA?$CG?$AA?$CG?$AA?5?$AA?$CC?$AAT?$AAo?$AAo?$AA?5?$AAm?$AAa?$AAn?$AAy?$AA?5?$AAc?$AAa?$AAt?$AAe?$AAg?$AAo?$AAr?$AAi?$AAe?$AAs?$AA?5?$AAd?$AAe@
CONST	SEGMENT
??_C@_1EO@EBPPKGOM@?$AAf?$AAa?$AAl?$AAs?$AAe?$AA?5?$AA?$CG?$AA?$CG?$AA?5?$AA?$CC?$AAT?$AAo?$AAo?$AA?5?$AAm?$AAa?$AAn?$AAy?$AA?5?$AAc?$AAa?$AAt?$AAe?$AAg?$AAo?$AAr?$AAi?$AAe?$AAs?$AA?5?$AAd?$AAe@ DB 'f'
	DB	00H, 'a', 00H, 'l', 00H, 's', 00H, 'e', 00H, ' ', 00H, '&', 00H
	DB	'&', 00H, ' ', 00H, '"', 00H, 'T', 00H, 'o', 00H, 'o', 00H, ' '
	DB	00H, 'm', 00H, 'a', 00H, 'n', 00H, 'y', 00H, ' ', 00H, 'c', 00H
	DB	'a', 00H, 't', 00H, 'e', 00H, 'g', 00H, 'o', 00H, 'r', 00H, 'i'
	DB	00H, 'e', 00H, 's', 00H, ' ', 00H, 'd', 00H, 'e', 00H, 'f', 00H
	DB	'i', 00H, 'n', 00H, 'e', 00H, 'd', 00H, '"', 00H, 00H, 00H ; `string'
CONST	ENDS
;	COMDAT ??_C@_15MAOEGKJF@?$AA?$CF?$AAS?$AA?$AA@
CONST	SEGMENT
??_C@_15MAOEGKJF@?$AA?$CF?$AAS?$AA?$AA@ DB '%', 00H, 'S', 00H, 00H, 00H ; `string'
CONST	ENDS
;	COMDAT ??_C@_1M@PGKOAACE@?$AA?$CF?$AAu?$AA?5?$AA?9?$AA?5?$AA?$AA@
CONST	SEGMENT
??_C@_1M@PGKOAACE@?$AA?$CF?$AAu?$AA?5?$AA?9?$AA?5?$AA?$AA@ DB '%', 00H, 'u'
	DB	00H, ' ', 00H, '-', 00H, ' ', 00H, 00H, 00H	; `string'
CONST	ENDS
;	COMDAT ??_C@_1M@PLLAHAGD@?$AA?$CF?$AAs?$AA?5?$AA?9?$AA?5?$AA?$AA@
CONST	SEGMENT
??_C@_1M@PLLAHAGD@?$AA?$CF?$AAs?$AA?5?$AA?9?$AA?5?$AA?$AA@ DB '%', 00H, 's'
	DB	00H, ' ', 00H, '-', 00H, ' ', 00H, 00H, 00H	; `string'
CONST	ENDS
;	COMDAT ??_C@_1BM@FHAEDBFK@?$AAa?$AAt?$AAl?$AAT?$AAr?$AAa?$AAc?$AAe?$AAI?$AAS?$AAA?$AAP?$AAI?$AA?$AA@
CONST	SEGMENT
??_C@_1BM@FHAEDBFK@?$AAa?$AAt?$AAl?$AAT?$AAr?$AAa?$AAc?$AAe?$AAI?$AAS?$AAA?$AAP?$AAI?$AA?$AA@ DB 'a'
	DB	00H, 't', 00H, 'l', 00H, 'T', 00H, 'r', 00H, 'a', 00H, 'c', 00H
	DB	'e', 00H, 'I', 00H, 'S', 00H, 'A', 00H, 'P', 00H, 'I', 00H, 00H
	DB	00H						; `string'
CONST	ENDS
;	COMDAT ??_C@_1BK@OPAPOCAL@?$AAa?$AAt?$AAl?$AAT?$AAr?$AAa?$AAc?$AAe?$AAS?$AAy?$AAn?$AAc?$AA?$AA@
CONST	SEGMENT
??_C@_1BK@OPAPOCAL@?$AAa?$AAt?$AAl?$AAT?$AAr?$AAa?$AAc?$AAe?$AAS?$AAy?$AAn?$AAc?$AA?$AA@ DB 'a'
	DB	00H, 't', 00H, 'l', 00H, 'T', 00H, 'r', 00H, 'a', 00H, 'c', 00H
	DB	'e', 00H, 'S', 00H, 'y', 00H, 'n', 00H, 'c', 00H, 00H, 00H ; `string'
CONST	ENDS
;	COMDAT ??_C@_1CC@DMMBNCFG@?$AAa?$AAt?$AAl?$AAT?$AAr?$AAa?$AAc?$AAe?$AAS?$AAe?$AAc?$AAu?$AAr?$AAi?$AAt?$AAy?$AA?$AA@
CONST	SEGMENT
??_C@_1CC@DMMBNCFG@?$AAa?$AAt?$AAl?$AAT?$AAr?$AAa?$AAc?$AAe?$AAS?$AAe?$AAc?$AAu?$AAr?$AAi?$AAt?$AAy?$AA?$AA@ DB 'a'
	DB	00H, 't', 00H, 'l', 00H, 'T', 00H, 'r', 00H, 'a', 00H, 'c', 00H
	DB	'e', 00H, 'S', 00H, 'e', 00H, 'c', 00H, 'u', 00H, 'r', 00H, 'i'
	DB	00H, 't', 00H, 'y', 00H, 00H, 00H		; `string'
CONST	ENDS
;	COMDAT ??_C@_1BK@DMHCKHHD@?$AAa?$AAt?$AAl?$AAT?$AAr?$AAa?$AAc?$AAe?$AAU?$AAt?$AAi?$AAl?$AA?$AA@
CONST	SEGMENT
??_C@_1BK@DMHCKHHD@?$AAa?$AAt?$AAl?$AAT?$AAr?$AAa?$AAc?$AAe?$AAU?$AAt?$AAi?$AAl?$AA?$AA@ DB 'a'
	DB	00H, 't', 00H, 'l', 00H, 'T', 00H, 'r', 00H, 'a', 00H, 'c', 00H
	DB	'e', 00H, 'U', 00H, 't', 00H, 'i', 00H, 'l', 00H, 00H, 00H ; `string'
CONST	ENDS
;	COMDAT ??_C@_1BI@OKDLCIEM@?$AAa?$AAt?$AAl?$AAT?$AAr?$AAa?$AAc?$AAe?$AAM?$AAa?$AAp?$AA?$AA@
CONST	SEGMENT
??_C@_1BI@OKDLCIEM@?$AAa?$AAt?$AAl?$AAT?$AAr?$AAa?$AAc?$AAe?$AAM?$AAa?$AAp?$AA?$AA@ DB 'a'
	DB	00H, 't', 00H, 'l', 00H, 'T', 00H, 'r', 00H, 'a', 00H, 'c', 00H
	DB	'e', 00H, 'M', 00H, 'a', 00H, 'p', 00H, 00H, 00H ; `string'
CONST	ENDS
;	COMDAT ??_C@_1BO@GMLILNDJ@?$AAa?$AAt?$AAl?$AAT?$AAr?$AAa?$AAc?$AAe?$AAS?$AAt?$AAr?$AAi?$AAn?$AAg?$AA?$AA@
CONST	SEGMENT
??_C@_1BO@GMLILNDJ@?$AAa?$AAt?$AAl?$AAT?$AAr?$AAa?$AAc?$AAe?$AAS?$AAt?$AAr?$AAi?$AAn?$AAg?$AA?$AA@ DB 'a'
	DB	00H, 't', 00H, 'l', 00H, 'T', 00H, 'r', 00H, 'a', 00H, 'c', 00H
	DB	'e', 00H, 'S', 00H, 't', 00H, 'r', 00H, 'i', 00H, 'n', 00H, 'g'
	DB	00H, 00H, 00H				; `string'
CONST	ENDS
;	COMDAT ??_C@_1CA@PBPHANCD@?$AAa?$AAt?$AAl?$AAT?$AAr?$AAa?$AAc?$AAe?$AAS?$AAt?$AAe?$AAn?$AAc?$AAi?$AAl?$AA?$AA@
CONST	SEGMENT
??_C@_1CA@PBPHANCD@?$AAa?$AAt?$AAl?$AAT?$AAr?$AAa?$AAc?$AAe?$AAS?$AAt?$AAe?$AAn?$AAc?$AAi?$AAl?$AA?$AA@ DB 'a'
	DB	00H, 't', 00H, 'l', 00H, 'T', 00H, 'r', 00H, 'a', 00H, 'c', 00H
	DB	'e', 00H, 'S', 00H, 't', 00H, 'e', 00H, 'n', 00H, 'c', 00H, 'i'
	DB	00H, 'l', 00H, 00H, 00H			; `string'
CONST	ENDS
;	COMDAT ??_C@_1BM@GIKLHLFD@?$AAa?$AAt?$AAl?$AAT?$AAr?$AAa?$AAc?$AAe?$AAC?$AAa?$AAc?$AAh?$AAe?$AA?$AA@
CONST	SEGMENT
??_C@_1BM@GIKLHLFD@?$AAa?$AAt?$AAl?$AAT?$AAr?$AAa?$AAc?$AAe?$AAC?$AAa?$AAc?$AAh?$AAe?$AA?$AA@ DB 'a'
	DB	00H, 't', 00H, 'l', 00H, 'T', 00H, 'r', 00H, 'a', 00H, 'c', 00H
	DB	'e', 00H, 'C', 00H, 'a', 00H, 'c', 00H, 'h', 00H, 'e', 00H, 00H
	DB	00H						; `string'
CONST	ENDS
;	COMDAT ??_C@_1BK@NCJHOFCL@?$AAa?$AAt?$AAl?$AAT?$AAr?$AAa?$AAc?$AAe?$AAT?$AAi?$AAm?$AAe?$AA?$AA@
CONST	SEGMENT
??_C@_1BK@NCJHOFCL@?$AAa?$AAt?$AAl?$AAT?$AAr?$AAa?$AAc?$AAe?$AAT?$AAi?$AAm?$AAe?$AA?$AA@ DB 'a'
	DB	00H, 't', 00H, 'l', 00H, 'T', 00H, 'r', 00H, 'a', 00H, 'c', 00H
	DB	'e', 00H, 'T', 00H, 'i', 00H, 'm', 00H, 'e', 00H, 00H, 00H ; `string'
CONST	ENDS
;	COMDAT ??_C@_1CE@IMMADNAP@?$AAa?$AAt?$AAl?$AAT?$AAr?$AAa?$AAc?$AAe?$AAE?$AAx?$AAc?$AAe?$AAp?$AAt?$AAi?$AAo?$AAn?$AA?$AA@
CONST	SEGMENT
??_C@_1CE@IMMADNAP@?$AAa?$AAt?$AAl?$AAT?$AAr?$AAa?$AAc?$AAe?$AAE?$AAx?$AAc?$AAe?$AAp?$AAt?$AAi?$AAo?$AAn?$AA?$AA@ DB 'a'
	DB	00H, 't', 00H, 'l', 00H, 'T', 00H, 'r', 00H, 'a', 00H, 'c', 00H
	DB	'e', 00H, 'E', 00H, 'x', 00H, 'c', 00H, 'e', 00H, 'p', 00H, 't'
	DB	00H, 'i', 00H, 'o', 00H, 'n', 00H, 00H, 00H	; `string'
CONST	ENDS
;	COMDAT ??_C@_1CG@KFEEMCDH@?$AAa?$AAt?$AAl?$AAT?$AAr?$AAa?$AAc?$AAe?$AAA?$AAl?$AAl?$AAo?$AAc?$AAa?$AAt?$AAi?$AAo?$AAn?$AA?$AA@
CONST	SEGMENT
??_C@_1CG@KFEEMCDH@?$AAa?$AAt?$AAl?$AAT?$AAr?$AAa?$AAc?$AAe?$AAA?$AAl?$AAl?$AAo?$AAc?$AAa?$AAt?$AAi?$AAo?$AAn?$AA?$AA@ DB 'a'
	DB	00H, 't', 00H, 'l', 00H, 'T', 00H, 'r', 00H, 'a', 00H, 'c', 00H
	DB	'e', 00H, 'A', 00H, 'l', 00H, 'l', 00H, 'o', 00H, 'c', 00H, 'a'
	DB	00H, 't', 00H, 'i', 00H, 'o', 00H, 'n', 00H, 00H, 00H ; `string'
CONST	ENDS
;	COMDAT ??_C@_1CA@DMHPIODO@?$AAa?$AAt?$AAl?$AAT?$AAr?$AAa?$AAc?$AAe?$AAN?$AAo?$AAt?$AAI?$AAm?$AAp?$AAl?$AA?$AA@
CONST	SEGMENT
??_C@_1CA@DMHPIODO@?$AAa?$AAt?$AAl?$AAT?$AAr?$AAa?$AAc?$AAe?$AAN?$AAo?$AAt?$AAI?$AAm?$AAp?$AAl?$AA?$AA@ DB 'a'
	DB	00H, 't', 00H, 'l', 00H, 'T', 00H, 'r', 00H, 'a', 00H, 'c', 00H
	DB	'e', 00H, 'N', 00H, 'o', 00H, 't', 00H, 'I', 00H, 'm', 00H, 'p'
	DB	00H, 'l', 00H, 00H, 00H			; `string'
CONST	ENDS
;	COMDAT ??_C@_1BO@EFPHNHHN@?$AAa?$AAt?$AAl?$AAT?$AAr?$AAa?$AAc?$AAe?$AAS?$AAn?$AAa?$AAp?$AAi?$AAn?$AA?$AA@
CONST	SEGMENT
??_C@_1BO@EFPHNHHN@?$AAa?$AAt?$AAl?$AAT?$AAr?$AAa?$AAc?$AAe?$AAS?$AAn?$AAa?$AAp?$AAi?$AAn?$AA?$AA@ DB 'a'
	DB	00H, 't', 00H, 'l', 00H, 'T', 00H, 'r', 00H, 'a', 00H, 'c', 00H
	DB	'e', 00H, 'S', 00H, 'n', 00H, 'a', 00H, 'p', 00H, 'i', 00H, 'n'
	DB	00H, 00H, 00H				; `string'
CONST	ENDS
;	COMDAT ??_C@_1CG@MNMMIOOI@?$AAa?$AAt?$AAl?$AAT?$AAr?$AAa?$AAc?$AAe?$AAD?$AAB?$AAP?$AAr?$AAo?$AAv?$AAi?$AAd?$AAe?$AAr?$AA?$AA@
CONST	SEGMENT
??_C@_1CG@MNMMIOOI@?$AAa?$AAt?$AAl?$AAT?$AAr?$AAa?$AAc?$AAe?$AAD?$AAB?$AAP?$AAr?$AAo?$AAv?$AAi?$AAd?$AAe?$AAr?$AA?$AA@ DB 'a'
	DB	00H, 't', 00H, 'l', 00H, 'T', 00H, 'r', 00H, 'a', 00H, 'c', 00H
	DB	'e', 00H, 'D', 00H, 'B', 00H, 'P', 00H, 'r', 00H, 'o', 00H, 'v'
	DB	00H, 'i', 00H, 'd', 00H, 'e', 00H, 'r', 00H, 00H, 00H ; `string'
CONST	ENDS
;	COMDAT ??_C@_1CC@JNJJDOOH@?$AAa?$AAt?$AAl?$AAT?$AAr?$AAa?$AAc?$AAe?$AAD?$AAB?$AAC?$AAl?$AAi?$AAe?$AAn?$AAt?$AA?$AA@
CONST	SEGMENT
??_C@_1CC@JNJJDOOH@?$AAa?$AAt?$AAl?$AAT?$AAr?$AAa?$AAc?$AAe?$AAD?$AAB?$AAC?$AAl?$AAi?$AAe?$AAn?$AAt?$AA?$AA@ DB 'a'
	DB	00H, 't', 00H, 'l', 00H, 'T', 00H, 'r', 00H, 'a', 00H, 'c', 00H
	DB	'e', 00H, 'D', 00H, 'B', 00H, 'C', 00H, 'l', 00H, 'i', 00H, 'e'
	DB	00H, 'n', 00H, 't', 00H, 00H, 00H		; `string'
CONST	ENDS
;	COMDAT ??_C@_1CA@OMOMONMN@?$AAa?$AAt?$AAl?$AAT?$AAr?$AAa?$AAc?$AAe?$AAH?$AAo?$AAs?$AAt?$AAi?$AAn?$AAg?$AA?$AA@
CONST	SEGMENT
??_C@_1CA@OMOMONMN@?$AAa?$AAt?$AAl?$AAT?$AAr?$AAa?$AAc?$AAe?$AAH?$AAo?$AAs?$AAt?$AAi?$AAn?$AAg?$AA?$AA@ DB 'a'
	DB	00H, 't', 00H, 'l', 00H, 'T', 00H, 'r', 00H, 'a', 00H, 'c', 00H
	DB	'e', 00H, 'H', 00H, 'o', 00H, 's', 00H, 't', 00H, 'i', 00H, 'n'
	DB	00H, 'g', 00H, 00H, 00H			; `string'
CONST	ENDS
;	COMDAT ??_C@_1CC@IMNJGBED@?$AAa?$AAt?$AAl?$AAT?$AAr?$AAa?$AAc?$AAe?$AAC?$AAo?$AAn?$AAt?$AAr?$AAo?$AAl?$AAs?$AA?$AA@
CONST	SEGMENT
??_C@_1CC@IMNJGBED@?$AAa?$AAt?$AAl?$AAT?$AAr?$AAa?$AAc?$AAe?$AAC?$AAo?$AAn?$AAt?$AAr?$AAo?$AAl?$AAs?$AA?$AA@ DB 'a'
	DB	00H, 't', 00H, 'l', 00H, 'T', 00H, 'r', 00H, 'a', 00H, 'c', 00H
	DB	'e', 00H, 'C', 00H, 'o', 00H, 'n', 00H, 't', 00H, 'r', 00H, 'o'
	DB	00H, 'l', 00H, 's', 00H, 00H, 00H		; `string'
CONST	ENDS
;	COMDAT ??_C@_1CE@NAJDPMNB@?$AAa?$AAt?$AAl?$AAT?$AAr?$AAa?$AAc?$AAe?$AAW?$AAi?$AAn?$AAd?$AAo?$AAw?$AAi?$AAn?$AAg?$AA?$AA@
CONST	SEGMENT
??_C@_1CE@NAJDPMNB@?$AAa?$AAt?$AAl?$AAT?$AAr?$AAa?$AAc?$AAe?$AAW?$AAi?$AAn?$AAd?$AAo?$AAw?$AAi?$AAn?$AAg?$AA?$AA@ DB 'a'
	DB	00H, 't', 00H, 'l', 00H, 'T', 00H, 'r', 00H, 'a', 00H, 'c', 00H
	DB	'e', 00H, 'W', 00H, 'i', 00H, 'n', 00H, 'd', 00H, 'o', 00H, 'w'
	DB	00H, 'i', 00H, 'n', 00H, 'g', 00H, 00H, 00H	; `string'
CONST	ENDS
;	COMDAT ??_C@_1CC@BNHGJFNK@?$AAa?$AAt?$AAl?$AAT?$AAr?$AAa?$AAc?$AAe?$AAR?$AAe?$AAf?$AAc?$AAo?$AAu?$AAn?$AAt?$AA?$AA@
CONST	SEGMENT
??_C@_1CC@BNHGJFNK@?$AAa?$AAt?$AAl?$AAT?$AAr?$AAa?$AAc?$AAe?$AAR?$AAe?$AAf?$AAc?$AAo?$AAu?$AAn?$AAt?$AA?$AA@ DB 'a'
	DB	00H, 't', 00H, 'l', 00H, 'T', 00H, 'r', 00H, 'a', 00H, 'c', 00H
	DB	'e', 00H, 'R', 00H, 'e', 00H, 'f', 00H, 'c', 00H, 'o', 00H, 'u'
	DB	00H, 'n', 00H, 't', 00H, 00H, 00H		; `string'
CONST	ENDS
;	COMDAT ??_C@_1CE@NIAEAIDK@?$AAa?$AAt?$AAl?$AAT?$AAr?$AAa?$AAc?$AAe?$AAR?$AAe?$AAg?$AAi?$AAs?$AAt?$AAr?$AAa?$AAr?$AA?$AA@
CONST	SEGMENT
??_C@_1CE@NIAEAIDK@?$AAa?$AAt?$AAl?$AAT?$AAr?$AAa?$AAc?$AAe?$AAR?$AAe?$AAg?$AAi?$AAs?$AAt?$AAr?$AAa?$AAr?$AA?$AA@ DB 'a'
	DB	00H, 't', 00H, 'l', 00H, 'T', 00H, 'r', 00H, 'a', 00H, 'c', 00H
	DB	'e', 00H, 'R', 00H, 'e', 00H, 'g', 00H, 'i', 00H, 's', 00H, 't'
	DB	00H, 'r', 00H, 'a', 00H, 'r', 00H, 00H, 00H	; `string'
CONST	ENDS
;	COMDAT ??_C@_1BG@FPLJJEMF@?$AAa?$AAt?$AAl?$AAT?$AAr?$AAa?$AAc?$AAe?$AAQ?$AAI?$AA?$AA@
CONST	SEGMENT
??_C@_1BG@FPLJJEMF@?$AAa?$AAt?$AAl?$AAT?$AAr?$AAa?$AAc?$AAe?$AAQ?$AAI?$AA?$AA@ DB 'a'
	DB	00H, 't', 00H, 'l', 00H, 'T', 00H, 'r', 00H, 'a', 00H, 'c', 00H
	DB	'e', 00H, 'Q', 00H, 'I', 00H, 00H, 00H	; `string'
CONST	ENDS
;	COMDAT ??_C@_1BI@MAFGHOEE@?$AAa?$AAt?$AAl?$AAT?$AAr?$AAa?$AAc?$AAe?$AAC?$AAO?$AAM?$AA?$AA@
CONST	SEGMENT
??_C@_1BI@MAFGHOEE@?$AAa?$AAt?$AAl?$AAT?$AAr?$AAa?$AAc?$AAe?$AAC?$AAO?$AAM?$AA?$AA@ DB 'a'
	DB	00H, 't', 00H, 'l', 00H, 'T', 00H, 'r', 00H, 'a', 00H, 'c', 00H
	DB	'e', 00H, 'C', 00H, 'O', 00H, 'M', 00H, 00H, 00H ; `string'
CONST	ENDS
;	COMDAT ??_C@_1CA@ONGMEOAB@?$AAa?$AAt?$AAl?$AAT?$AAr?$AAa?$AAc?$AAe?$AAG?$AAe?$AAn?$AAe?$AAr?$AAa?$AAl?$AA?$AA@
CONST	SEGMENT
??_C@_1CA@ONGMEOAB@?$AAa?$AAt?$AAl?$AAT?$AAr?$AAa?$AAc?$AAe?$AAG?$AAe?$AAn?$AAe?$AAr?$AAa?$AAl?$AA?$AA@ DB 'a'
	DB	00H, 't', 00H, 'l', 00H, 'T', 00H, 'r', 00H, 'a', 00H, 'c', 00H
	DB	'e', 00H, 'G', 00H, 'e', 00H, 'n', 00H, 'e', 00H, 'r', 00H, 'a'
	DB	00H, 'l', 00H, 00H, 00H			; `string'
CONST	ENDS
;	COMDAT ??_C@_15GANGMFKL@?$AA?$CF?$AAs?$AA?$AA@
CONST	SEGMENT
??_C@_15GANGMFKL@?$AA?$CF?$AAs?$AA?$AA@ DB '%', 00H, 's', 00H, 00H, 00H ; `string'
CONST	ENDS
;	COMDAT ??_C@_13COJANIEC@?$AA0?$AA?$AA@
CONST	SEGMENT
??_C@_13COJANIEC@?$AA0?$AA?$AA@ DB '0', 00H, 00H, 00H	; `string'
CONST	ENDS
;	COMDAT xdata$x
xdata$x	SEGMENT
__unwindtable$??1CAtlWinModule@ATL@@QAE@XZ DD 0ffffffffH
	DD	FLAT:__unwindfunclet$??1CAtlWinModule@ATL@@QAE@XZ$0
__ehfuncinfo$??1CAtlWinModule@ATL@@QAE@XZ DD 019930522H
	DD	01H
	DD	FLAT:__unwindtable$??1CAtlWinModule@ATL@@QAE@XZ
	DD	2 DUP(00H)
	DD	2 DUP(00H)
	DD	00H
	DD	01H
xdata$x	ENDS
;	COMDAT xdata$x
xdata$x	SEGMENT
__unwindtable$??1CAtlComModule@ATL@@QAE@XZ DD 0ffffffffH
	DD	FLAT:__unwindfunclet$??1CAtlComModule@ATL@@QAE@XZ$0
__ehfuncinfo$??1CAtlComModule@ATL@@QAE@XZ DD 019930522H
	DD	01H
	DD	FLAT:__unwindtable$??1CAtlComModule@ATL@@QAE@XZ
	DD	2 DUP(00H)
	DD	2 DUP(00H)
	DD	00H
	DD	01H
xdata$x	ENDS
;	COMDAT xdata$x
xdata$x	SEGMENT
__unwindtable$??1_ATL_WIN_MODULE70@ATL@@QAE@XZ DD 0ffffffffH
	DD	FLAT:__unwindfunclet$??1_ATL_WIN_MODULE70@ATL@@QAE@XZ$0
__ehfuncinfo$??1_ATL_WIN_MODULE70@ATL@@QAE@XZ DD 019930522H
	DD	01H
	DD	FLAT:__unwindtable$??1_ATL_WIN_MODULE70@ATL@@QAE@XZ
	DD	2 DUP(00H)
	DD	2 DUP(00H)
	DD	00H
	DD	01H
xdata$x	ENDS
;	COMDAT xdata$x
xdata$x	SEGMENT
__unwindtable$??0_ATL_WIN_MODULE70@ATL@@QAE@XZ DD 0ffffffffH
	DD	FLAT:__unwindfunclet$??0_ATL_WIN_MODULE70@ATL@@QAE@XZ$0
__ehfuncinfo$??0_ATL_WIN_MODULE70@ATL@@QAE@XZ DD 019930522H
	DD	01H
	DD	FLAT:__unwindtable$??0_ATL_WIN_MODULE70@ATL@@QAE@XZ
	DD	2 DUP(00H)
	DD	2 DUP(00H)
	DD	00H
	DD	01H
xdata$x	ENDS
;	COMDAT CRT$XCU
CRT$XCU	SEGMENT
_atlTraceCOM$initializer$ DD FLAT:??__EatlTraceCOM@ATL@@YAXXZ
CRT$XCU	ENDS
;	COMDAT CRT$XCU
CRT$XCU	SEGMENT
_atlTraceQI$initializer$ DD FLAT:??__EatlTraceQI@ATL@@YAXXZ
CRT$XCU	ENDS
;	COMDAT CRT$XCU
CRT$XCU	SEGMENT
_atlTraceRegistrar$initializer$ DD FLAT:??__EatlTraceRegistrar@ATL@@YAXXZ
CRT$XCU	ENDS
;	COMDAT CRT$XCU
CRT$XCU	SEGMENT
_atlTraceRefcount$initializer$ DD FLAT:??__EatlTraceRefcount@ATL@@YAXXZ
CRT$XCU	ENDS
;	COMDAT CRT$XCU
CRT$XCU	SEGMENT
_atlTraceWindowing$initializer$ DD FLAT:??__EatlTraceWindowing@ATL@@YAXXZ
CRT$XCU	ENDS
;	COMDAT CRT$XCU
CRT$XCU	SEGMENT
_atlTraceControls$initializer$ DD FLAT:??__EatlTraceControls@ATL@@YAXXZ
CRT$XCU	ENDS
;	COMDAT CRT$XCU
CRT$XCU	SEGMENT
_atlTraceHosting$initializer$ DD FLAT:??__EatlTraceHosting@ATL@@YAXXZ
CRT$XCU	ENDS
;	COMDAT CRT$XCU
CRT$XCU	SEGMENT
_atlTraceDBClient$initializer$ DD FLAT:??__EatlTraceDBClient@ATL@@YAXXZ
CRT$XCU	ENDS
;	COMDAT CRT$XCU
CRT$XCU	SEGMENT
_atlTraceDBProvider$initializer$ DD FLAT:??__EatlTraceDBProvider@ATL@@YAXXZ
CRT$XCU	ENDS
;	COMDAT CRT$XCU
CRT$XCU	SEGMENT
_atlTraceSnapin$initializer$ DD FLAT:??__EatlTraceSnapin@ATL@@YAXXZ
CRT$XCU	ENDS
;	COMDAT CRT$XCU
CRT$XCU	SEGMENT
_atlTraceNotImpl$initializer$ DD FLAT:??__EatlTraceNotImpl@ATL@@YAXXZ
CRT$XCU	ENDS
;	COMDAT CRT$XCU
CRT$XCU	SEGMENT
_atlTraceAllocation$initializer$ DD FLAT:??__EatlTraceAllocation@ATL@@YAXXZ
CRT$XCU	ENDS
;	COMDAT CRT$XCU
CRT$XCU	SEGMENT
_atlTraceException$initializer$ DD FLAT:??__EatlTraceException@ATL@@YAXXZ
CRT$XCU	ENDS
;	COMDAT CRT$XCU
CRT$XCU	SEGMENT
_atlTraceTime$initializer$ DD FLAT:??__EatlTraceTime@ATL@@YAXXZ
CRT$XCU	ENDS
;	COMDAT CRT$XCU
CRT$XCU	SEGMENT
_atlTraceCache$initializer$ DD FLAT:??__EatlTraceCache@ATL@@YAXXZ
CRT$XCU	ENDS
;	COMDAT CRT$XCU
CRT$XCU	SEGMENT
_atlTraceStencil$initializer$ DD FLAT:??__EatlTraceStencil@ATL@@YAXXZ
CRT$XCU	ENDS
;	COMDAT CRT$XCU
CRT$XCU	SEGMENT
_atlTraceString$initializer$ DD FLAT:??__EatlTraceString@ATL@@YAXXZ
CRT$XCU	ENDS
;	COMDAT CRT$XCU
CRT$XCU	SEGMENT
_atlTraceMap$initializer$ DD FLAT:??__EatlTraceMap@ATL@@YAXXZ
CRT$XCU	ENDS
;	COMDAT CRT$XCU
CRT$XCU	SEGMENT
_atlTraceUtil$initializer$ DD FLAT:??__EatlTraceUtil@ATL@@YAXXZ
CRT$XCU	ENDS
;	COMDAT CRT$XCU
CRT$XCU	SEGMENT
_atlTraceSecurity$initializer$ DD FLAT:??__EatlTraceSecurity@ATL@@YAXXZ
CRT$XCU	ENDS
;	COMDAT CRT$XCU
CRT$XCU	SEGMENT
_atlTraceSync$initializer$ DD FLAT:??__EatlTraceSync@ATL@@YAXXZ
CRT$XCU	ENDS
;	COMDAT CRT$XCU
CRT$XCU	SEGMENT
_atlTraceISAPI$initializer$ DD FLAT:??__EatlTraceISAPI@ATL@@YAXXZ
CRT$XCU	ENDS
;	COMDAT CRT$XCU
CRT$XCU	SEGMENT
__AtlComModule$initializer$ DD FLAT:??__E_AtlComModule@ATL@@YAXXZ
CRT$XCU	ENDS
;	COMDAT CRT$XCU
CRT$XCU	SEGMENT
__AtlWinModule$initializer$ DD FLAT:??__E_AtlWinModule@ATL@@YAXXZ
CRT$XCU	ENDS
;	COMDAT CRT$XCU
CRT$XCU	SEGMENT
?isInitialized$initializer$@CAtlStringMgr@ATL@@0P6AXXZA DD FLAT:??__E?isInitialized@CAtlStringMgr@ATL@@0_NA@@YAXXZ ; ATL::CAtlStringMgr::isInitialized$initializer$
CRT$XCU	ENDS
;	COMDAT CRT$XCU
CRT$XCU	SEGMENT
?isCImageStaticInitialized$initializer$@CImage@ATL@@0P6AXXZA DD FLAT:??__E?isCImageStaticInitialized@CImage@ATL@@0_NA@@YAXXZ ; ATL::CImage::isCImageStaticInitialized$initializer$
CRT$XCU	ENDS
; Function compile flags: /Odsp /RTCsu /ZI
; File c:\program files (x86)\microsoft visual studio 12.0\vc\atlmfc\include\atlimage.h
;	COMDAT ??__E?isCImageStaticInitialized@CImage@ATL@@0_NA@@YAXXZ
text$di	SEGMENT
??__E?isCImageStaticInitialized@CImage@ATL@@0_NA@@YAXXZ PROC ; `dynamic initializer for 'ATL::CImage::isCImageStaticInitialized'', COMDAT

; 505  : __declspec(selectany) bool CImage::isCImageStaticInitialized = CImage::CImageStaticInitialize();

	push	ebp
	mov	ebp, esp
	sub	esp, 192				; 000000c0H
	push	ebx
	push	esi
	push	edi
	lea	edi, DWORD PTR [ebp-192]
	push	48					; 00000030H
	pop	ecx
	mov	eax, -858993460				; ccccccccH
	rep stosd
	call	?CImageStaticInitialize@CImage@ATL@@CA_NXZ ; ATL::CImage::CImageStaticInitialize
	mov	BYTE PTR ?isCImageStaticInitialized@CImage@ATL@@0_NA, al ; ATL::CImage::isCImageStaticInitialized
	pop	edi
	pop	esi
	pop	ebx
	add	esp, 192				; 000000c0H
	cmp	ebp, esp
	call	__RTC_CheckEsp
	mov	esp, ebp
	pop	ebp
	ret	0
??__E?isCImageStaticInitialized@CImage@ATL@@0_NA@@YAXXZ ENDP ; `dynamic initializer for 'ATL::CImage::isCImageStaticInitialized''
text$di	ENDS
; Function compile flags: /Odsp /RTCsu /ZI
;	COMDAT ??__Fcache@?1??GetCDCCacheInstance@CImage@ATL@@CAPAVCDCCache@12@XZ@YAXXZ
text$yd	SEGMENT
??__Fcache@?1??GetCDCCacheInstance@CImage@ATL@@CAPAVCDCCache@12@XZ@YAXXZ PROC ; `ATL::CImage::GetCDCCacheInstance'::`2'::`dynamic atexit destructor for 'cache'', COMDAT
	push	ebp
	mov	ebp, esp
	sub	esp, 192				; 000000c0H
	push	ebx
	push	esi
	push	edi
	lea	edi, DWORD PTR [ebp-192]
	push	48					; 00000030H
	pop	ecx
	mov	eax, -858993460				; ccccccccH
	rep stosd
	mov	ecx, OFFSET ?cache@?1??GetCDCCacheInstance@CImage@ATL@@CAPAVCDCCache@23@XZ@4V423@A ; `ATL::CImage::GetCDCCacheInstance'::`2'::cache
	call	??1CDCCache@CImage@ATL@@QAE@XZ		; ATL::CImage::CDCCache::~CDCCache
	pop	edi
	pop	esi
	pop	ebx
	add	esp, 192				; 000000c0H
	cmp	ebp, esp
	call	__RTC_CheckEsp
	mov	esp, ebp
	pop	ebp
	ret	0
??__Fcache@?1??GetCDCCacheInstance@CImage@ATL@@CAPAVCDCCache@12@XZ@YAXXZ ENDP ; `ATL::CImage::GetCDCCacheInstance'::`2'::`dynamic atexit destructor for 'cache''
text$yd	ENDS
; Function compile flags: /Odsp /RTCsu /ZI
;	COMDAT ??__FgdiPlus@?1??GetInitGDIPlusInstance@CImage@ATL@@CAPAVCInitGDIPlus@12@XZ@YAXXZ
text$yd	SEGMENT
??__FgdiPlus@?1??GetInitGDIPlusInstance@CImage@ATL@@CAPAVCInitGDIPlus@12@XZ@YAXXZ PROC ; `ATL::CImage::GetInitGDIPlusInstance'::`2'::`dynamic atexit destructor for 'gdiPlus'', COMDAT
	push	ebp
	mov	ebp, esp
	sub	esp, 192				; 000000c0H
	push	ebx
	push	esi
	push	edi
	lea	edi, DWORD PTR [ebp-192]
	push	48					; 00000030H
	pop	ecx
	mov	eax, -858993460				; ccccccccH
	rep stosd
	mov	ecx, OFFSET ?gdiPlus@?1??GetInitGDIPlusInstance@CImage@ATL@@CAPAVCInitGDIPlus@23@XZ@4V423@A ; `ATL::CImage::GetInitGDIPlusInstance'::`2'::gdiPlus
	call	??1CInitGDIPlus@CImage@ATL@@QAE@XZ	; ATL::CImage::CInitGDIPlus::~CInitGDIPlus
	pop	edi
	pop	esi
	pop	ebx
	add	esp, 192				; 000000c0H
	cmp	ebp, esp
	call	__RTC_CheckEsp
	mov	esp, ebp
	pop	ebp
	ret	0
??__FgdiPlus@?1??GetInitGDIPlusInstance@CImage@ATL@@CAPAVCInitGDIPlus@12@XZ@YAXXZ ENDP ; `ATL::CImage::GetInitGDIPlusInstance'::`2'::`dynamic atexit destructor for 'gdiPlus''
text$yd	ENDS
; Function compile flags: /Odsp /RTCsu /ZI
; File c:\program files (x86)\microsoft visual studio 12.0\vc\atlmfc\include\atlimage.h
;	COMDAT ?CImageStaticInitialize@CImage@ATL@@CA_NXZ
_TEXT	SEGMENT
?CImageStaticInitialize@CImage@ATL@@CA_NXZ PROC		; ATL::CImage::CImageStaticInitialize, COMDAT

; 496  : 	{

	push	ebp
	mov	ebp, esp
	sub	esp, 192				; 000000c0H
	push	ebx
	push	esi
	push	edi
	lea	edi, DWORD PTR [ebp-192]
	push	48					; 00000030H
	pop	ecx
	mov	eax, -858993460				; ccccccccH
	rep stosd

; 497  : 		GetInitGDIPlusInstance();

	call	?GetInitGDIPlusInstance@CImage@ATL@@CAPAVCInitGDIPlus@12@XZ ; ATL::CImage::GetInitGDIPlusInstance

; 498  : 		GetCDCCacheInstance();

	call	?GetCDCCacheInstance@CImage@ATL@@CAPAVCDCCache@12@XZ ; ATL::CImage::GetCDCCacheInstance

; 499  : 		return true;

	mov	al, 1

; 500  : 	}

	pop	edi
	pop	esi
	pop	ebx
	add	esp, 192				; 000000c0H
	cmp	ebp, esp
	call	__RTC_CheckEsp
	mov	esp, ebp
	pop	ebp
	ret	0
?CImageStaticInitialize@CImage@ATL@@CA_NXZ ENDP		; ATL::CImage::CImageStaticInitialize
_TEXT	ENDS
; Function compile flags: /Odsp /RTCsu /ZI
; File c:\program files (x86)\microsoft visual studio 12.0\vc\atlmfc\include\atlimage.h
;	COMDAT ?GetCDCCacheInstance@CImage@ATL@@CAPAVCDCCache@12@XZ
_TEXT	SEGMENT
?GetCDCCacheInstance@CImage@ATL@@CAPAVCDCCache@12@XZ PROC ; ATL::CImage::GetCDCCacheInstance, COMDAT

; 490  : 	{

	push	ebp
	mov	ebp, esp
	sub	esp, 192				; 000000c0H
	push	ebx
	push	esi
	push	edi
	lea	edi, DWORD PTR [ebp-192]
	push	48					; 00000030H
	pop	ecx
	mov	eax, -858993460				; ccccccccH
	rep stosd

; 491  : 		static CDCCache cache;

	mov	eax, DWORD PTR ??_B?1??GetCDCCacheInstance@CImage@ATL@@CAPAVCDCCache@12@XZ@51
	and	eax, 1
	jne	SHORT $LN1@GetCDCCach
	mov	eax, DWORD PTR ??_B?1??GetCDCCacheInstance@CImage@ATL@@CAPAVCDCCache@12@XZ@51
	or	eax, 1
	mov	DWORD PTR ??_B?1??GetCDCCacheInstance@CImage@ATL@@CAPAVCDCCache@12@XZ@51, eax
	mov	ecx, OFFSET ?cache@?1??GetCDCCacheInstance@CImage@ATL@@CAPAVCDCCache@23@XZ@4V423@A ; `ATL::CImage::GetCDCCacheInstance'::`2'::cache
	call	??0CDCCache@CImage@ATL@@QAE@XZ		; ATL::CImage::CDCCache::CDCCache
	push	OFFSET ??__Fcache@?1??GetCDCCacheInstance@CImage@ATL@@CAPAVCDCCache@12@XZ@YAXXZ ; `ATL::CImage::GetCDCCacheInstance'::`2'::`dynamic atexit destructor for 'cache''
	call	_atexit
	pop	ecx
$LN1@GetCDCCach:

; 492  : 		return &cache;

	mov	eax, OFFSET ?cache@?1??GetCDCCacheInstance@CImage@ATL@@CAPAVCDCCache@23@XZ@4V423@A ; `ATL::CImage::GetCDCCacheInstance'::`2'::cache

; 493  : 	}

	pop	edi
	pop	esi
	pop	ebx
	add	esp, 192				; 000000c0H
	cmp	ebp, esp
	call	__RTC_CheckEsp
	mov	esp, ebp
	pop	ebp
	ret	0
?GetCDCCacheInstance@CImage@ATL@@CAPAVCDCCache@12@XZ ENDP ; ATL::CImage::GetCDCCacheInstance
_TEXT	ENDS
; Function compile flags: /Odsp /RTCsu /ZI
; File c:\program files (x86)\microsoft visual studio 12.0\vc\atlmfc\include\atlimage.h
;	COMDAT ?GetInitGDIPlusInstance@CImage@ATL@@CAPAVCInitGDIPlus@12@XZ
_TEXT	SEGMENT
?GetInitGDIPlusInstance@CImage@ATL@@CAPAVCInitGDIPlus@12@XZ PROC ; ATL::CImage::GetInitGDIPlusInstance, COMDAT

; 437  : 	{

	push	ebp
	mov	ebp, esp
	sub	esp, 192				; 000000c0H
	push	ebx
	push	esi
	push	edi
	lea	edi, DWORD PTR [ebp-192]
	push	48					; 00000030H
	pop	ecx
	mov	eax, -858993460				; ccccccccH
	rep stosd

; 438  : 		static CInitGDIPlus gdiPlus;

	mov	eax, DWORD PTR ??_B?1??GetInitGDIPlusInstance@CImage@ATL@@CAPAVCInitGDIPlus@12@XZ@51
	and	eax, 1
	jne	SHORT $LN1@GetInitGDI
	mov	eax, DWORD PTR ??_B?1??GetInitGDIPlusInstance@CImage@ATL@@CAPAVCInitGDIPlus@12@XZ@51
	or	eax, 1
	mov	DWORD PTR ??_B?1??GetInitGDIPlusInstance@CImage@ATL@@CAPAVCInitGDIPlus@12@XZ@51, eax
	mov	ecx, OFFSET ?gdiPlus@?1??GetInitGDIPlusInstance@CImage@ATL@@CAPAVCInitGDIPlus@23@XZ@4V423@A ; `ATL::CImage::GetInitGDIPlusInstance'::`2'::gdiPlus
	call	??0CInitGDIPlus@CImage@ATL@@QAE@XZ	; ATL::CImage::CInitGDIPlus::CInitGDIPlus
	push	OFFSET ??__FgdiPlus@?1??GetInitGDIPlusInstance@CImage@ATL@@CAPAVCInitGDIPlus@12@XZ@YAXXZ ; `ATL::CImage::GetInitGDIPlusInstance'::`2'::`dynamic atexit destructor for 'gdiPlus''
	call	_atexit
	pop	ecx
$LN1@GetInitGDI:

; 439  : 		return &gdiPlus;

	mov	eax, OFFSET ?gdiPlus@?1??GetInitGDIPlusInstance@CImage@ATL@@CAPAVCInitGDIPlus@23@XZ@4V423@A ; `ATL::CImage::GetInitGDIPlusInstance'::`2'::gdiPlus

; 440  : 	}

	pop	edi
	pop	esi
	pop	ebx
	add	esp, 192				; 000000c0H
	cmp	ebp, esp
	call	__RTC_CheckEsp
	mov	esp, ebp
	pop	ebp
	ret	0
?GetInitGDIPlusInstance@CImage@ATL@@CAPAVCInitGDIPlus@12@XZ ENDP ; ATL::CImage::GetInitGDIPlusInstance
_TEXT	ENDS
; Function compile flags: /Odsp /RTCsu /ZI
; File c:\program files (x86)\microsoft visual studio 12.0\vc\atlmfc\include\atlimage.h
;	COMDAT ?ReleaseGDIPlus@CInitGDIPlus@CImage@ATL@@QAEXXZ
_TEXT	SEGMENT
_this$ = -8						; size = 4
?ReleaseGDIPlus@CInitGDIPlus@CImage@ATL@@QAEXXZ PROC	; ATL::CImage::CInitGDIPlus::ReleaseGDIPlus, COMDAT
; _this$ = ecx

; 565  : {

	push	ebp
	mov	ebp, esp
	sub	esp, 204				; 000000ccH
	push	ebx
	push	esi
	push	edi
	push	ecx
	lea	edi, DWORD PTR [ebp-204]
	push	51					; 00000033H
	pop	ecx
	mov	eax, -858993460				; ccccccccH
	rep stosd
	pop	ecx
	mov	DWORD PTR _this$[ebp], ecx

; 566  : 	EnterCriticalSection(&m_sect);

	mov	eax, DWORD PTR _this$[ebp]
	add	eax, 4
	mov	esi, esp
	push	eax
	call	DWORD PTR __imp__EnterCriticalSection@4
	cmp	esi, esp
	call	__RTC_CheckEsp

; 567  : 	if( m_dwToken != 0 )

	mov	eax, DWORD PTR _this$[ebp]
	cmp	DWORD PTR [eax], 0
	je	SHORT $LN1@ReleaseGDI

; 568  : 	{
; 569  : 		Gdiplus::GdiplusShutdown( m_dwToken );

	mov	eax, DWORD PTR _this$[ebp]
	push	DWORD PTR [eax]
	call	_GdiplusShutdown@4
$LN1@ReleaseGDI:

; 570  : 	}
; 571  : 	m_dwToken = 0;

	mov	eax, DWORD PTR _this$[ebp]
	and	DWORD PTR [eax], 0

; 572  : 	LeaveCriticalSection(&m_sect);

	mov	eax, DWORD PTR _this$[ebp]
	add	eax, 4
	mov	esi, esp
	push	eax
	call	DWORD PTR __imp__LeaveCriticalSection@4
	cmp	esi, esp
	call	__RTC_CheckEsp

; 573  : }

	pop	edi
	pop	esi
	pop	ebx
	add	esp, 204				; 000000ccH
	cmp	ebp, esp
	call	__RTC_CheckEsp
	mov	esp, ebp
	pop	ebp
	ret	0
?ReleaseGDIPlus@CInitGDIPlus@CImage@ATL@@QAEXXZ ENDP	; ATL::CImage::CInitGDIPlus::ReleaseGDIPlus
_TEXT	ENDS
; Function compile flags: /Odsp /RTCsu /ZI
; File c:\program files (x86)\microsoft visual studio 12.0\vc\atlmfc\include\atlimage.h
;	COMDAT ??1CInitGDIPlus@CImage@ATL@@QAE@XZ
_TEXT	SEGMENT
_this$ = -8						; size = 4
??1CInitGDIPlus@CImage@ATL@@QAE@XZ PROC			; ATL::CImage::CInitGDIPlus::~CInitGDIPlus, COMDAT
; _this$ = ecx

; 537  : {

	push	ebp
	mov	ebp, esp
	sub	esp, 204				; 000000ccH
	push	ebx
	push	esi
	push	edi
	push	ecx
	lea	edi, DWORD PTR [ebp-204]
	push	51					; 00000033H
	pop	ecx
	mov	eax, -858993460				; ccccccccH
	rep stosd
	pop	ecx
	mov	DWORD PTR _this$[ebp], ecx

; 538  : 	ReleaseGDIPlus();

	mov	ecx, DWORD PTR _this$[ebp]
	call	?ReleaseGDIPlus@CInitGDIPlus@CImage@ATL@@QAEXXZ ; ATL::CImage::CInitGDIPlus::ReleaseGDIPlus

; 539  : 	DeleteCriticalSection(&m_sect);

	mov	eax, DWORD PTR _this$[ebp]
	add	eax, 4
	mov	esi, esp
	push	eax
	call	DWORD PTR __imp__DeleteCriticalSection@4
	cmp	esi, esp
	call	__RTC_CheckEsp

; 540  : }

	pop	edi
	pop	esi
	pop	ebx
	add	esp, 204				; 000000ccH
	cmp	ebp, esp
	call	__RTC_CheckEsp
	mov	esp, ebp
	pop	ebp
	ret	0
??1CInitGDIPlus@CImage@ATL@@QAE@XZ ENDP			; ATL::CImage::CInitGDIPlus::~CInitGDIPlus
_TEXT	ENDS
; Function compile flags: /Odsp /RTCsu /ZI
; File c:\program files (x86)\microsoft visual studio 12.0\vc\atlmfc\include\atlimage.h
;	COMDAT ??0CInitGDIPlus@CImage@ATL@@QAE@XZ
_TEXT	SEGMENT
_this$ = -8						; size = 4
??0CInitGDIPlus@CImage@ATL@@QAE@XZ PROC			; ATL::CImage::CInitGDIPlus::CInitGDIPlus, COMDAT
; _this$ = ecx

; 529  : {

	push	ebp
	mov	ebp, esp
	sub	esp, 204				; 000000ccH
	push	ebx
	push	esi
	push	edi
	push	ecx
	lea	edi, DWORD PTR [ebp-204]
	push	51					; 00000033H
	pop	ecx
	mov	eax, -858993460				; ccccccccH
	rep stosd
	pop	ecx
	mov	DWORD PTR _this$[ebp], ecx
	mov	eax, DWORD PTR _this$[ebp]
	and	DWORD PTR [eax], 0
	mov	eax, DWORD PTR _this$[ebp]
	and	DWORD PTR [eax+28], 0
	mov	eax, DWORD PTR _this$[ebp]
	and	DWORD PTR [eax+32], 0

; 530  : 	if (!_AtlInitializeCriticalSectionEx(&m_sect, 0, 0))

	push	0
	push	0
	mov	eax, DWORD PTR _this$[ebp]
	add	eax, 4
	push	eax
	call	?_AtlInitializeCriticalSectionEx@ATL@@YAHPAU_RTL_CRITICAL_SECTION@@KK@Z ; ATL::_AtlInitializeCriticalSectionEx
	add	esp, 12					; 0000000cH
	test	eax, eax
	jne	SHORT $LN2@CInitGDIPl

; 531  : 	{
; 532  : 		m_dwLastError = HRESULT_FROM_WIN32(GetLastError());

	mov	esi, esp
	call	DWORD PTR __imp__GetLastError@0
	cmp	esi, esp
	call	__RTC_CheckEsp
	push	eax
	call	_HRESULT_FROM_WIN32
	pop	ecx
	mov	ecx, DWORD PTR _this$[ebp]
	mov	DWORD PTR [ecx+32], eax
$LN2@CInitGDIPl:

; 533  : 	}
; 534  : }

	mov	eax, DWORD PTR _this$[ebp]
	pop	edi
	pop	esi
	pop	ebx
	add	esp, 204				; 000000ccH
	cmp	ebp, esp
	call	__RTC_CheckEsp
	mov	esp, ebp
	pop	ebp
	ret	0
??0CInitGDIPlus@CImage@ATL@@QAE@XZ ENDP			; ATL::CImage::CInitGDIPlus::CInitGDIPlus
_TEXT	ENDS
; Function compile flags: /Odsp /RTCsu /ZI
; File c:\program files (x86)\microsoft visual studio 12.0\vc\atlmfc\include\atlimage.h
;	COMDAT ??1CDCCache@CImage@ATL@@QAE@XZ
_TEXT	SEGMENT
_iDC$ = -20						; size = 4
_this$ = -8						; size = 4
??1CDCCache@CImage@ATL@@QAE@XZ PROC			; ATL::CImage::CDCCache::~CDCCache, COMDAT
; _this$ = ecx

; 601  : {

	push	ebp
	mov	ebp, esp
	sub	esp, 216				; 000000d8H
	push	ebx
	push	esi
	push	edi
	push	ecx
	lea	edi, DWORD PTR [ebp-216]
	push	54					; 00000036H
	pop	ecx
	mov	eax, -858993460				; ccccccccH
	rep stosd
	pop	ecx
	mov	DWORD PTR _this$[ebp], ecx

; 602  : 	int iDC;
; 603  : 
; 604  : 	for( iDC = 0; iDC < CIMAGE_DC_CACHE_SIZE; iDC++ )

	and	DWORD PTR _iDC$[ebp], 0
	jmp	SHORT $LN4@CDCCache
$LN3@CDCCache:
	mov	eax, DWORD PTR _iDC$[ebp]
	inc	eax
	mov	DWORD PTR _iDC$[ebp], eax
$LN4@CDCCache:
	cmp	DWORD PTR _iDC$[ebp], 4
	jge	SHORT $LN5@CDCCache

; 605  : 	{
; 606  : 		if( m_ahDCs[iDC] != NULL )

	mov	eax, DWORD PTR _iDC$[ebp]
	mov	ecx, DWORD PTR _this$[ebp]
	cmp	DWORD PTR [ecx+eax*4], 0
	je	SHORT $LN1@CDCCache

; 607  : 		{
; 608  : 			::DeleteDC( m_ahDCs[iDC] );

	mov	esi, esp
	mov	eax, DWORD PTR _iDC$[ebp]
	mov	ecx, DWORD PTR _this$[ebp]
	push	DWORD PTR [ecx+eax*4]
	call	DWORD PTR __imp__DeleteDC@4
	cmp	esi, esp
	call	__RTC_CheckEsp
$LN1@CDCCache:

; 609  : 		}
; 610  : 	}

	jmp	SHORT $LN3@CDCCache
$LN5@CDCCache:

; 611  : }

	pop	edi
	pop	esi
	pop	ebx
	add	esp, 216				; 000000d8H
	cmp	ebp, esp
	call	__RTC_CheckEsp
	mov	esp, ebp
	pop	ebp
	ret	0
??1CDCCache@CImage@ATL@@QAE@XZ ENDP			; ATL::CImage::CDCCache::~CDCCache
_TEXT	ENDS
; Function compile flags: /Odsp /RTCsu /ZI
; File c:\program files (x86)\microsoft visual studio 12.0\vc\atlmfc\include\atlimage.h
;	COMDAT ??0CDCCache@CImage@ATL@@QAE@XZ
_TEXT	SEGMENT
_iDC$ = -20						; size = 4
_this$ = -8						; size = 4
??0CDCCache@CImage@ATL@@QAE@XZ PROC			; ATL::CImage::CDCCache::CDCCache, COMDAT
; _this$ = ecx

; 591  : {

	push	ebp
	mov	ebp, esp
	sub	esp, 216				; 000000d8H
	push	ebx
	push	esi
	push	edi
	push	ecx
	lea	edi, DWORD PTR [ebp-216]
	push	54					; 00000036H
	pop	ecx
	mov	eax, -858993460				; ccccccccH
	rep stosd
	pop	ecx
	mov	DWORD PTR _this$[ebp], ecx

; 592  : 	int iDC;
; 593  : 
; 594  : 	for( iDC = 0; iDC < CIMAGE_DC_CACHE_SIZE; iDC++ )

	and	DWORD PTR _iDC$[ebp], 0
	jmp	SHORT $LN3@CDCCache
$LN2@CDCCache:
	mov	eax, DWORD PTR _iDC$[ebp]
	inc	eax
	mov	DWORD PTR _iDC$[ebp], eax
$LN3@CDCCache:
	cmp	DWORD PTR _iDC$[ebp], 4
	jge	SHORT $LN4@CDCCache

; 595  : 	{
; 596  : 		m_ahDCs[iDC] = NULL;

	mov	eax, DWORD PTR _iDC$[ebp]
	mov	ecx, DWORD PTR _this$[ebp]
	and	DWORD PTR [ecx+eax*4], 0

; 597  : 	}

	jmp	SHORT $LN2@CDCCache
$LN4@CDCCache:

; 598  : }

	mov	eax, DWORD PTR _this$[ebp]
	pop	edi
	pop	esi
	pop	ebx
	mov	esp, ebp
	pop	ebp
	ret	0
??0CDCCache@CImage@ATL@@QAE@XZ ENDP			; ATL::CImage::CDCCache::CDCCache
_TEXT	ENDS
; Function compile flags: /Odsp /RTCsu /ZI
; File c:\program files (x86)\microsoft visual studio 12.0\vc\atlmfc\include\atlstr.h
;	COMDAT ??__E?isInitialized@CAtlStringMgr@ATL@@0_NA@@YAXXZ
text$di	SEGMENT
??__E?isInitialized@CAtlStringMgr@ATL@@0_NA@@YAXXZ PROC	; `dynamic initializer for 'ATL::CAtlStringMgr::isInitialized'', COMDAT

; 165  : __declspec(selectany) bool CAtlStringMgr::isInitialized = CAtlStringMgr::StaticInitialize();

	push	ebp
	mov	ebp, esp
	sub	esp, 192				; 000000c0H
	push	ebx
	push	esi
	push	edi
	lea	edi, DWORD PTR [ebp-192]
	push	48					; 00000030H
	pop	ecx
	mov	eax, -858993460				; ccccccccH
	rep stosd
	call	?StaticInitialize@CAtlStringMgr@ATL@@CA_NXZ ; ATL::CAtlStringMgr::StaticInitialize
	mov	BYTE PTR ?isInitialized@CAtlStringMgr@ATL@@0_NA, al ; ATL::CAtlStringMgr::isInitialized
	pop	edi
	pop	esi
	pop	ebx
	add	esp, 192				; 000000c0H
	cmp	ebp, esp
	call	__RTC_CheckEsp
	mov	esp, ebp
	pop	ebp
	ret	0
??__E?isInitialized@CAtlStringMgr@ATL@@0_NA@@YAXXZ ENDP	; `dynamic initializer for 'ATL::CAtlStringMgr::isInitialized''
text$di	ENDS
; Function compile flags: /Odsp /RTCsu /ZI
; File c:\program files (x86)\microsoft visual studio 12.0\vc\atlmfc\include\atlmem.h
;	COMDAT ??$AtlAlignUp@H@ATL@@YGHHK@Z
_TEXT	SEGMENT
_n$ = 8							; size = 4
_nAlign$ = 12						; size = 4
??$AtlAlignUp@H@ATL@@YGHHK@Z PROC			; ATL::AtlAlignUp<int>, COMDAT

; 28   : {

	push	ebp
	mov	ebp, esp
	sub	esp, 192				; 000000c0H
	push	ebx
	push	esi
	push	edi
	lea	edi, DWORD PTR [ebp-192]
	push	48					; 00000030H
	pop	ecx
	mov	eax, -858993460				; ccccccccH
	rep stosd

; 29   : 	return( N( (n+(nAlign-1))&~(N( nAlign )-1) ) );

	mov	eax, DWORD PTR _nAlign$[ebp]
	mov	ecx, DWORD PTR _n$[ebp]
	lea	eax, DWORD PTR [ecx+eax-1]
	mov	ecx, DWORD PTR _nAlign$[ebp]
	dec	ecx
	not	ecx
	and	eax, ecx

; 30   : }

	pop	edi
	pop	esi
	pop	ebx
	mov	esp, ebp
	pop	ebp
	ret	8
??$AtlAlignUp@H@ATL@@YGHHK@Z ENDP			; ATL::AtlAlignUp<int>
_TEXT	ENDS
; Function compile flags: /Odsp /RTCsu /ZI
;	COMDAT ??__FstrMgr@?1??GetInstance@CAtlStringMgr@ATL@@SAPAUIAtlStringMgr@2@XZ@YAXXZ
text$yd	SEGMENT
??__FstrMgr@?1??GetInstance@CAtlStringMgr@ATL@@SAPAUIAtlStringMgr@2@XZ@YAXXZ PROC ; `ATL::CAtlStringMgr::GetInstance'::`2'::`dynamic atexit destructor for 'strMgr'', COMDAT
	push	ebp
	mov	ebp, esp
	sub	esp, 192				; 000000c0H
	push	ebx
	push	esi
	push	edi
	lea	edi, DWORD PTR [ebp-192]
	push	48					; 00000030H
	pop	ecx
	mov	eax, -858993460				; ccccccccH
	rep stosd
	mov	ecx, OFFSET ?strMgr@?1??GetInstance@CAtlStringMgr@ATL@@SAPAUIAtlStringMgr@3@XZ@4V23@A ; `ATL::CAtlStringMgr::GetInstance'::`2'::strMgr
	call	??1CAtlStringMgr@ATL@@UAE@XZ		; ATL::CAtlStringMgr::~CAtlStringMgr
	pop	edi
	pop	esi
	pop	ebx
	add	esp, 192				; 000000c0H
	cmp	ebp, esp
	call	__RTC_CheckEsp
	mov	esp, ebp
	pop	ebp
	ret	0
??__FstrMgr@?1??GetInstance@CAtlStringMgr@ATL@@SAPAUIAtlStringMgr@2@XZ@YAXXZ ENDP ; `ATL::CAtlStringMgr::GetInstance'::`2'::`dynamic atexit destructor for 'strMgr''
text$yd	ENDS
; Function compile flags: /Odsp /RTCsu /ZI
;	COMDAT ??__FstrHeap@?1??GetInstance@CAtlStringMgr@ATL@@SAPAUIAtlStringMgr@2@XZ@YAXXZ
text$yd	SEGMENT
??__FstrHeap@?1??GetInstance@CAtlStringMgr@ATL@@SAPAUIAtlStringMgr@2@XZ@YAXXZ PROC ; `ATL::CAtlStringMgr::GetInstance'::`2'::`dynamic atexit destructor for 'strHeap'', COMDAT
	push	ebp
	mov	ebp, esp
	sub	esp, 192				; 000000c0H
	push	ebx
	push	esi
	push	edi
	lea	edi, DWORD PTR [ebp-192]
	push	48					; 00000030H
	pop	ecx
	mov	eax, -858993460				; ccccccccH
	rep stosd
	mov	ecx, OFFSET ?strHeap@?1??GetInstance@CAtlStringMgr@ATL@@SAPAUIAtlStringMgr@3@XZ@4VCWin32Heap@3@A ; `ATL::CAtlStringMgr::GetInstance'::`2'::strHeap
	call	??1CWin32Heap@ATL@@UAE@XZ		; ATL::CWin32Heap::~CWin32Heap
	pop	edi
	pop	esi
	pop	ebx
	add	esp, 192				; 000000c0H
	cmp	ebp, esp
	call	__RTC_CheckEsp
	mov	esp, ebp
	pop	ebp
	ret	0
??__FstrHeap@?1??GetInstance@CAtlStringMgr@ATL@@SAPAUIAtlStringMgr@2@XZ@YAXXZ ENDP ; `ATL::CAtlStringMgr::GetInstance'::`2'::`dynamic atexit destructor for 'strHeap''
text$yd	ENDS
; Function compile flags: /Odsp /RTCsu /ZI
;	COMDAT ??_GCAtlStringMgr@ATL@@UAEPAXI@Z
_TEXT	SEGMENT
_this$ = -8						; size = 4
___flags$ = 8						; size = 4
??_GCAtlStringMgr@ATL@@UAEPAXI@Z PROC			; ATL::CAtlStringMgr::`scalar deleting destructor', COMDAT
; _this$ = ecx
	push	ebp
	mov	ebp, esp
	sub	esp, 204				; 000000ccH
	push	ebx
	push	esi
	push	edi
	push	ecx
	lea	edi, DWORD PTR [ebp-204]
	push	51					; 00000033H
	pop	ecx
	mov	eax, -858993460				; ccccccccH
	rep stosd
	pop	ecx
	mov	DWORD PTR _this$[ebp], ecx
	mov	ecx, DWORD PTR _this$[ebp]
	call	??1CAtlStringMgr@ATL@@UAE@XZ		; ATL::CAtlStringMgr::~CAtlStringMgr
	mov	eax, DWORD PTR ___flags$[ebp]
	and	eax, 1
	je	SHORT $LN1@scalar
	push	DWORD PTR _this$[ebp]
	call	??3@YAXPAX@Z				; operator delete
	pop	ecx
$LN1@scalar:
	mov	eax, DWORD PTR _this$[ebp]
	pop	edi
	pop	esi
	pop	ebx
	add	esp, 204				; 000000ccH
	cmp	ebp, esp
	call	__RTC_CheckEsp
	mov	esp, ebp
	pop	ebp
	ret	4
??_GCAtlStringMgr@ATL@@UAEPAXI@Z ENDP			; ATL::CAtlStringMgr::`scalar deleting destructor'
_TEXT	ENDS
; Function compile flags: /Odsp /RTCsu /ZI
;	COMDAT ?__autoclassinit2@CAtlStringMgr@ATL@@QAEXI@Z
_TEXT	SEGMENT
_this$ = -8						; size = 4
_classSize$ = 8						; size = 4
?__autoclassinit2@CAtlStringMgr@ATL@@QAEXI@Z PROC	; ATL::CAtlStringMgr::__autoclassinit2, COMDAT
; _this$ = ecx
	push	ebp
	mov	ebp, esp
	sub	esp, 204				; 000000ccH
	push	ebx
	push	esi
	push	edi
	push	ecx
	lea	edi, DWORD PTR [ebp-204]
	push	51					; 00000033H
	pop	ecx
	mov	eax, -858993460				; ccccccccH
	rep stosd
	pop	ecx
	mov	DWORD PTR _this$[ebp], ecx
	push	DWORD PTR _classSize$[ebp]
	push	0
	push	DWORD PTR _this$[ebp]
	call	_memset
	add	esp, 12					; 0000000cH
	pop	edi
	pop	esi
	pop	ebx
	add	esp, 204				; 000000ccH
	cmp	ebp, esp
	call	__RTC_CheckEsp
	mov	esp, ebp
	pop	ebp
	ret	4
?__autoclassinit2@CAtlStringMgr@ATL@@QAEXI@Z ENDP	; ATL::CAtlStringMgr::__autoclassinit2
_TEXT	ENDS
; Function compile flags: /Odsp /RTCsu /ZI
; File c:\program files (x86)\microsoft visual studio 12.0\vc\atlmfc\include\atlstr.h
;	COMDAT ?StaticInitialize@CAtlStringMgr@ATL@@CA_NXZ
_TEXT	SEGMENT
?StaticInitialize@CAtlStringMgr@ATL@@CA_NXZ PROC	; ATL::CAtlStringMgr::StaticInitialize, COMDAT

; 157  : 	{

	push	ebp
	mov	ebp, esp
	sub	esp, 192				; 000000c0H
	push	ebx
	push	esi
	push	edi
	lea	edi, DWORD PTR [ebp-192]
	push	48					; 00000030H
	pop	ecx
	mov	eax, -858993460				; ccccccccH
	rep stosd

; 158  : 		GetInstance();

	call	?GetInstance@CAtlStringMgr@ATL@@SAPAUIAtlStringMgr@2@XZ ; ATL::CAtlStringMgr::GetInstance

; 159  : 		return true;

	mov	al, 1

; 160  : 	}

	pop	edi
	pop	esi
	pop	ebx
	add	esp, 192				; 000000c0H
	cmp	ebp, esp
	call	__RTC_CheckEsp
	mov	esp, ebp
	pop	ebp
	ret	0
?StaticInitialize@CAtlStringMgr@ATL@@CA_NXZ ENDP	; ATL::CAtlStringMgr::StaticInitialize
_TEXT	ENDS
; Function compile flags: /Odsp /RTCsu /ZI
; File c:\program files (x86)\microsoft visual studio 12.0\vc\atlmfc\include\atlstr.h
;	COMDAT ?Clone@CAtlStringMgr@ATL@@UAEPAUIAtlStringMgr@2@XZ
_TEXT	SEGMENT
_this$ = -8						; size = 4
?Clone@CAtlStringMgr@ATL@@UAEPAUIAtlStringMgr@2@XZ PROC	; ATL::CAtlStringMgr::Clone, COMDAT
; _this$ = ecx

; 148  : 	{

	push	ebp
	mov	ebp, esp
	sub	esp, 204				; 000000ccH
	push	ebx
	push	esi
	push	edi
	push	ecx
	lea	edi, DWORD PTR [ebp-204]
	push	51					; 00000033H
	pop	ecx
	mov	eax, -858993460				; ccccccccH
	rep stosd
	pop	ecx
	mov	DWORD PTR _this$[ebp], ecx

; 149  : 		return this;

	mov	eax, DWORD PTR _this$[ebp]

; 150  : 	}

	pop	edi
	pop	esi
	pop	ebx
	mov	esp, ebp
	pop	ebp
	ret	0
?Clone@CAtlStringMgr@ATL@@UAEPAUIAtlStringMgr@2@XZ ENDP	; ATL::CAtlStringMgr::Clone
_TEXT	ENDS
; Function compile flags: /Odsp /RTCsu /ZI
; File c:\program files (x86)\microsoft visual studio 12.0\vc\atlmfc\include\atlstr.h
;	COMDAT ?GetNilString@CAtlStringMgr@ATL@@UAEPAUCStringData@2@XZ
_TEXT	SEGMENT
_this$ = -8						; size = 4
?GetNilString@CAtlStringMgr@ATL@@UAEPAUCStringData@2@XZ PROC ; ATL::CAtlStringMgr::GetNilString, COMDAT
; _this$ = ecx

; 143  : 	{

	push	ebp
	mov	ebp, esp
	sub	esp, 204				; 000000ccH
	push	ebx
	push	esi
	push	edi
	push	ecx
	lea	edi, DWORD PTR [ebp-204]
	push	51					; 00000033H
	pop	ecx
	mov	eax, -858993460				; ccccccccH
	rep stosd
	pop	ecx
	mov	DWORD PTR _this$[ebp], ecx

; 144  : 		m_nil.AddRef();

	mov	ecx, DWORD PTR _this$[ebp]
	add	ecx, 8
	call	?AddRef@CStringData@ATL@@QAEXXZ		; ATL::CStringData::AddRef

; 145  : 		return &m_nil;

	mov	eax, DWORD PTR _this$[ebp]
	add	eax, 8

; 146  : 	}

	pop	edi
	pop	esi
	pop	ebx
	add	esp, 204				; 000000ccH
	cmp	ebp, esp
	call	__RTC_CheckEsp
	mov	esp, ebp
	pop	ebp
	ret	0
?GetNilString@CAtlStringMgr@ATL@@UAEPAUCStringData@2@XZ ENDP ; ATL::CAtlStringMgr::GetNilString
_TEXT	ENDS
; Function compile flags: /Odsp /RTCsu /ZI
; File c:\program files (x86)\microsoft visual studio 12.0\vc\atlmfc\include\atlstr.h
;	COMDAT ?Reallocate@CAtlStringMgr@ATL@@UAEPAUCStringData@2@PAU32@HH@Z
_TEXT	SEGMENT
tv134 = -284						; size = 4
tv65 = -284						; size = 4
___atl_condVal$1 = -84					; size = 4
_nAlignedChars$ = -72					; size = 4
_nDataBytes$ = -60					; size = 4
_nTotalSize$ = -48					; size = 4
_pNewData$ = -36					; size = 4
___atl_condVal$2 = -24					; size = 4
_this$ = -12						; size = 4
__$ArrayPad$ = -4					; size = 4
_pData$ = 8						; size = 4
_nChars$ = 12						; size = 4
_nCharSize$ = 16					; size = 4
?Reallocate@CAtlStringMgr@ATL@@UAEPAUCStringData@2@PAU32@HH@Z PROC ; ATL::CAtlStringMgr::Reallocate, COMDAT
; _this$ = ecx

; 112  : 	{

	push	ebp
	mov	ebp, esp
	sub	esp, 284				; 0000011cH
	push	ebx
	push	esi
	push	edi
	push	ecx
	lea	edi, DWORD PTR [ebp-284]
	push	71					; 00000047H
	pop	ecx
	mov	eax, -858993460				; ccccccccH
	rep stosd
	pop	ecx
	mov	eax, DWORD PTR ___security_cookie
	xor	eax, ebp
	mov	DWORD PTR __$ArrayPad$[ebp], eax
	mov	DWORD PTR _this$[ebp], ecx
$LN12@Reallocate:

; 113  : 		ATLENSURE_RETURN_VAL( nChars>=0, NULL );

	cmp	DWORD PTR _nChars$[ebp], 0
	jl	SHORT $LN15@Reallocate
	mov	DWORD PTR tv65[ebp], 1
	jmp	SHORT $LN16@Reallocate
$LN15@Reallocate:
	and	DWORD PTR tv65[ebp], 0
$LN16@Reallocate:
	mov	eax, DWORD PTR tv65[ebp]
	mov	DWORD PTR ___atl_condVal$2[ebp], eax
	cmp	DWORD PTR ___atl_condVal$2[ebp], 0
	jne	SHORT $LN17@Reallocate
	mov	esi, esp
	push	OFFSET ??_C@_1BM@GBBOFEAE@?$AA_?$AA_?$AAa?$AAt?$AAl?$AA_?$AAc?$AAo?$AAn?$AAd?$AAV?$AAa?$AAl?$AA?$AA@
	push	OFFSET ??_C@_15GANGMFKL@?$AA?$CF?$AAs?$AA?$AA@
	push	0
	push	113					; 00000071H
	push	OFFSET ??_C@_1JO@EJBGHLIE@?$AAc?$AA?3?$AA?2?$AAp?$AAr?$AAo?$AAg?$AAr?$AAa?$AAm?$AA?5?$AAf?$AAi?$AAl?$AAe?$AAs?$AA?5?$AA?$CI?$AAx?$AA8?$AA6?$AA?$CJ?$AA?2?$AAm?$AAi?$AAc?$AAr?$AAo?$AAs?$AAo?$AAf?$AAt@
	push	2
	call	DWORD PTR __imp___CrtDbgReportW
	add	esp, 24					; 00000018H
	cmp	esi, esp
	call	__RTC_CheckEsp
	cmp	eax, 1
	jne	SHORT $LN17@Reallocate
	int	3
$LN17@Reallocate:
	cmp	DWORD PTR ___atl_condVal$2[ebp], 0
	jne	SHORT $LN11@Reallocate
	xor	eax, eax
	jmp	$LN13@Reallocate
$LN11@Reallocate:
	xor	eax, eax
	jne	SHORT $LN12@Reallocate

; 114  : 		ATLASSERT( pData->pStringMgr == this );

	mov	eax, DWORD PTR _pData$[ebp]
	mov	eax, DWORD PTR [eax]
	cmp	eax, DWORD PTR _this$[ebp]
	je	SHORT $LN18@Reallocate
	mov	esi, esp
	push	OFFSET ??_C@_1DE@KEEBDKDC@?$AAp?$AAD?$AAa?$AAt?$AAa?$AA?9?$AA?$DO?$AAp?$AAS?$AAt?$AAr?$AAi?$AAn?$AAg?$AAM?$AAg?$AAr?$AA?5?$AA?$DN?$AA?$DN?$AA?5?$AAt?$AAh?$AAi?$AAs?$AA?$AA@
	push	OFFSET ??_C@_15GANGMFKL@?$AA?$CF?$AAs?$AA?$AA@
	push	0
	push	114					; 00000072H
	push	OFFSET ??_C@_1JO@EJBGHLIE@?$AAc?$AA?3?$AA?2?$AAp?$AAr?$AAo?$AAg?$AAr?$AAa?$AAm?$AA?5?$AAf?$AAi?$AAl?$AAe?$AAs?$AA?5?$AA?$CI?$AAx?$AA8?$AA6?$AA?$CJ?$AA?2?$AAm?$AAi?$AAc?$AAr?$AAo?$AAs?$AAo?$AAf?$AAt@
	push	2
	call	DWORD PTR __imp___CrtDbgReportW
	add	esp, 24					; 00000018H
	cmp	esi, esp
	call	__RTC_CheckEsp
	cmp	eax, 1
	jne	SHORT $LN18@Reallocate
	int	3
$LN18@Reallocate:

; 115  : 
; 116  : 		CStringData* pNewData;
; 117  : 		ULONG nTotalSize;
; 118  : 		ULONG nDataBytes;
; 119  : 
; 120  : 		if( FAILED(::ATL::AtlAdd(&nChars, nChars, 1)) )

	push	1
	push	DWORD PTR _nChars$[ebp]
	lea	eax, DWORD PTR _nChars$[ebp]
	push	eax
	call	??$AtlAdd@H@ATL@@YAJPAHHH@Z		; ATL::AtlAdd<int>
	add	esp, 12					; 0000000cH
	test	eax, eax
	jge	SHORT $LN8@Reallocate

; 121  : 		{
; 122  : 			return NULL;

	xor	eax, eax
	jmp	$LN13@Reallocate
$LN8@Reallocate:

; 123  : 		}
; 124  : 
; 125  : 		int nAlignedChars = ::ATL::AtlAlignUp( nChars, 8 );  // Prevent excessive reallocation.  The heap will usually round up anyway.

	push	8
	push	DWORD PTR _nChars$[ebp]
	call	??$AtlAlignUp@H@ATL@@YGHHK@Z		; ATL::AtlAlignUp<int>
	mov	DWORD PTR _nAlignedChars$[ebp], eax
$LN7@Reallocate:

; 126  : 		ATLENSURE_RETURN_VAL( nChars<=nAlignedChars, NULL );

	mov	eax, DWORD PTR _nChars$[ebp]
	cmp	eax, DWORD PTR _nAlignedChars$[ebp]
	jg	SHORT $LN19@Reallocate
	mov	DWORD PTR tv134[ebp], 1
	jmp	SHORT $LN20@Reallocate
$LN19@Reallocate:
	and	DWORD PTR tv134[ebp], 0
$LN20@Reallocate:
	mov	eax, DWORD PTR tv134[ebp]
	mov	DWORD PTR ___atl_condVal$1[ebp], eax
	cmp	DWORD PTR ___atl_condVal$1[ebp], 0
	jne	SHORT $LN21@Reallocate
	mov	esi, esp
	push	OFFSET ??_C@_1BM@GBBOFEAE@?$AA_?$AA_?$AAa?$AAt?$AAl?$AA_?$AAc?$AAo?$AAn?$AAd?$AAV?$AAa?$AAl?$AA?$AA@
	push	OFFSET ??_C@_15GANGMFKL@?$AA?$CF?$AAs?$AA?$AA@
	push	0
	push	126					; 0000007eH
	push	OFFSET ??_C@_1JO@EJBGHLIE@?$AAc?$AA?3?$AA?2?$AAp?$AAr?$AAo?$AAg?$AAr?$AAa?$AAm?$AA?5?$AAf?$AAi?$AAl?$AAe?$AAs?$AA?5?$AA?$CI?$AAx?$AA8?$AA6?$AA?$CJ?$AA?2?$AAm?$AAi?$AAc?$AAr?$AAo?$AAs?$AAo?$AAf?$AAt@
	push	2
	call	DWORD PTR __imp___CrtDbgReportW
	add	esp, 24					; 00000018H
	cmp	esi, esp
	call	__RTC_CheckEsp
	cmp	eax, 1
	jne	SHORT $LN21@Reallocate
	int	3
$LN21@Reallocate:
	cmp	DWORD PTR ___atl_condVal$1[ebp], 0
	jne	SHORT $LN6@Reallocate
	xor	eax, eax
	jmp	SHORT $LN13@Reallocate
$LN6@Reallocate:
	xor	eax, eax
	jne	SHORT $LN7@Reallocate

; 127  : 
; 128  : 		if(	FAILED(::ATL::AtlMultiply(&nDataBytes, static_cast<ULONG>(nAlignedChars), static_cast<ULONG>(nCharSize))) ||
; 129  : 			FAILED(::ATL::AtlAdd(&nTotalSize, static_cast<ULONG>(sizeof( CStringData )), nDataBytes)))

	push	DWORD PTR _nCharSize$[ebp]
	push	DWORD PTR _nAlignedChars$[ebp]
	lea	eax, DWORD PTR _nDataBytes$[ebp]
	push	eax
	call	??$AtlMultiply@K@ATL@@YAJPAKKK@Z	; ATL::AtlMultiply<unsigned long>
	add	esp, 12					; 0000000cH
	test	eax, eax
	jl	SHORT $LN2@Reallocate
	push	DWORD PTR _nDataBytes$[ebp]
	push	16					; 00000010H
	lea	eax, DWORD PTR _nTotalSize$[ebp]
	push	eax
	call	??$AtlAdd@K@ATL@@YAJPAKKK@Z		; ATL::AtlAdd<unsigned long>
	add	esp, 12					; 0000000cH
	test	eax, eax
	jge	SHORT $LN3@Reallocate
$LN2@Reallocate:

; 130  : 		{
; 131  : 			return NULL;

	xor	eax, eax
	jmp	SHORT $LN13@Reallocate
$LN3@Reallocate:

; 132  : 		}
; 133  : 		pNewData = static_cast< CStringData* >( m_pMemMgr->Reallocate( pData, nTotalSize ) );

	mov	esi, esp
	push	DWORD PTR _nTotalSize$[ebp]
	push	DWORD PTR _pData$[ebp]
	mov	eax, DWORD PTR _this$[ebp]
	mov	eax, DWORD PTR [eax+4]
	mov	ecx, DWORD PTR _this$[ebp]
	mov	eax, DWORD PTR [eax]
	mov	ecx, DWORD PTR [ecx+4]
	call	DWORD PTR [eax+8]
	cmp	esi, esp
	call	__RTC_CheckEsp
	mov	DWORD PTR _pNewData$[ebp], eax

; 134  : 		if( pNewData == NULL )

	cmp	DWORD PTR _pNewData$[ebp], 0
	jne	SHORT $LN1@Reallocate

; 135  : 		{
; 136  : 			return NULL;

	xor	eax, eax
	jmp	SHORT $LN13@Reallocate
$LN1@Reallocate:

; 137  : 		}
; 138  : 		pNewData->nAllocLength = nAlignedChars - 1;

	mov	eax, DWORD PTR _nAlignedChars$[ebp]
	dec	eax
	mov	ecx, DWORD PTR _pNewData$[ebp]
	mov	DWORD PTR [ecx+8], eax

; 139  : 
; 140  : 		return pNewData;

	mov	eax, DWORD PTR _pNewData$[ebp]
$LN13@Reallocate:

; 141  : 	}

	push	edx
	mov	ecx, ebp
	push	eax
	lea	edx, DWORD PTR $LN25@Reallocate
	call	@_RTC_CheckStackVars@8
	pop	eax
	pop	edx
	pop	edi
	pop	esi
	pop	ebx
	mov	ecx, DWORD PTR __$ArrayPad$[ebp]
	xor	ecx, ebp
	call	@__security_check_cookie@4
	add	esp, 284				; 0000011cH
	cmp	ebp, esp
	call	__RTC_CheckEsp
	mov	esp, ebp
	pop	ebp
	ret	12					; 0000000cH
$LN25@Reallocate:
	DD	2
	DD	$LN24@Reallocate
$LN24@Reallocate:
	DD	-48					; ffffffd0H
	DD	4
	DD	$LN22@Reallocate
	DD	-60					; ffffffc4H
	DD	4
	DD	$LN23@Reallocate
$LN23@Reallocate:
	DB	110					; 0000006eH
	DB	68					; 00000044H
	DB	97					; 00000061H
	DB	116					; 00000074H
	DB	97					; 00000061H
	DB	66					; 00000042H
	DB	121					; 00000079H
	DB	116					; 00000074H
	DB	101					; 00000065H
	DB	115					; 00000073H
	DB	0
$LN22@Reallocate:
	DB	110					; 0000006eH
	DB	84					; 00000054H
	DB	111					; 0000006fH
	DB	116					; 00000074H
	DB	97					; 00000061H
	DB	108					; 0000006cH
	DB	83					; 00000053H
	DB	105					; 00000069H
	DB	122					; 0000007aH
	DB	101					; 00000065H
	DB	0
?Reallocate@CAtlStringMgr@ATL@@UAEPAUCStringData@2@PAU32@HH@Z ENDP ; ATL::CAtlStringMgr::Reallocate
_TEXT	ENDS
; Function compile flags: /Odsp /RTCsu /ZI
; File c:\program files (x86)\microsoft visual studio 12.0\vc\atlmfc\include\atlstr.h
;	COMDAT ?Free@CAtlStringMgr@ATL@@UAEXPAUCStringData@2@@Z
_TEXT	SEGMENT
_this$ = -8						; size = 4
_pData$ = 8						; size = 4
?Free@CAtlStringMgr@ATL@@UAEXPAUCStringData@2@@Z PROC	; ATL::CAtlStringMgr::Free, COMDAT
; _this$ = ecx

; 102  : 	{		

	push	ebp
	mov	ebp, esp
	sub	esp, 204				; 000000ccH
	push	ebx
	push	esi
	push	edi
	push	ecx
	lea	edi, DWORD PTR [ebp-204]
	push	51					; 00000033H
	pop	ecx
	mov	eax, -858993460				; ccccccccH
	rep stosd
	pop	ecx
	mov	DWORD PTR _this$[ebp], ecx
$LN3@Free:

; 103  : 		ATLASSUME(pData != NULL);

	cmp	DWORD PTR _pData$[ebp], 0
	jne	SHORT $LN2@Free
	mov	esi, esp
	push	OFFSET ??_C@_1BG@IEBIBJEI@?$AAp?$AAD?$AAa?$AAt?$AAa?$AA?5?$AA?$CB?$AA?$DN?$AA?5?$AA0?$AA?$AA@
	push	OFFSET ??_C@_15GANGMFKL@?$AA?$CF?$AAs?$AA?$AA@
	push	0
	push	103					; 00000067H
	push	OFFSET ??_C@_1JO@EJBGHLIE@?$AAc?$AA?3?$AA?2?$AAp?$AAr?$AAo?$AAg?$AAr?$AAa?$AAm?$AA?5?$AAf?$AAi?$AAl?$AAe?$AAs?$AA?5?$AA?$CI?$AAx?$AA8?$AA6?$AA?$CJ?$AA?2?$AAm?$AAi?$AAc?$AAr?$AAo?$AAs?$AAo?$AAf?$AAt@
	push	2
	call	DWORD PTR __imp___CrtDbgReportW
	add	esp, 24					; 00000018H
	cmp	esi, esp
	call	__RTC_CheckEsp
	cmp	eax, 1
	jne	SHORT $LN2@Free
	int	3
$LN2@Free:
	xor	eax, eax
	jne	SHORT $LN3@Free

; 104  : 		ATLASSERT(pData->pStringMgr == this);

	mov	eax, DWORD PTR _pData$[ebp]
	mov	eax, DWORD PTR [eax]
	cmp	eax, DWORD PTR _this$[ebp]
	je	SHORT $LN7@Free
	mov	esi, esp
	push	OFFSET ??_C@_1DE@KEEBDKDC@?$AAp?$AAD?$AAa?$AAt?$AAa?$AA?9?$AA?$DO?$AAp?$AAS?$AAt?$AAr?$AAi?$AAn?$AAg?$AAM?$AAg?$AAr?$AA?5?$AA?$DN?$AA?$DN?$AA?5?$AAt?$AAh?$AAi?$AAs?$AA?$AA@
	push	OFFSET ??_C@_15GANGMFKL@?$AA?$CF?$AAs?$AA?$AA@
	push	0
	push	104					; 00000068H
	push	OFFSET ??_C@_1JO@EJBGHLIE@?$AAc?$AA?3?$AA?2?$AAp?$AAr?$AAo?$AAg?$AAr?$AAa?$AAm?$AA?5?$AAf?$AAi?$AAl?$AAe?$AAs?$AA?5?$AA?$CI?$AAx?$AA8?$AA6?$AA?$CJ?$AA?2?$AAm?$AAi?$AAc?$AAr?$AAo?$AAs?$AAo?$AAf?$AAt@
	push	2
	call	DWORD PTR __imp___CrtDbgReportW
	add	esp, 24					; 00000018H
	cmp	esi, esp
	call	__RTC_CheckEsp
	cmp	eax, 1
	jne	SHORT $LN7@Free
	int	3
$LN7@Free:

; 105  : 			
; 106  : 		m_pMemMgr->Free( pData );

	mov	esi, esp
	push	DWORD PTR _pData$[ebp]
	mov	eax, DWORD PTR _this$[ebp]
	mov	eax, DWORD PTR [eax+4]
	mov	ecx, DWORD PTR _this$[ebp]
	mov	eax, DWORD PTR [eax]
	mov	ecx, DWORD PTR [ecx+4]
	call	DWORD PTR [eax+4]
	cmp	esi, esp
	call	__RTC_CheckEsp

; 107  : 	}

	pop	edi
	pop	esi
	pop	ebx
	add	esp, 204				; 000000ccH
	cmp	ebp, esp
	call	__RTC_CheckEsp
	mov	esp, ebp
	pop	ebp
	ret	4
?Free@CAtlStringMgr@ATL@@UAEXPAUCStringData@2@@Z ENDP	; ATL::CAtlStringMgr::Free
_TEXT	ENDS
; Function compile flags: /Odsp /RTCsu /ZI
; File c:\program files (x86)\microsoft visual studio 12.0\vc\atlmfc\include\atlstr.h
;	COMDAT ?Allocate@CAtlStringMgr@ATL@@UAEPAUCStringData@2@HH@Z
_TEXT	SEGMENT
tv87 = -284						; size = 4
tv65 = -284						; size = 4
___atl_condVal$1 = -84					; size = 4
_nAlignedChars$ = -72					; size = 4
_nDataBytes$ = -60					; size = 4
_pData$ = -48						; size = 4
_nTotalSize$ = -36					; size = 4
___atl_condVal$2 = -24					; size = 4
_this$ = -12						; size = 4
__$ArrayPad$ = -4					; size = 4
_nChars$ = 8						; size = 4
_nCharSize$ = 12					; size = 4
?Allocate@CAtlStringMgr@ATL@@UAEPAUCStringData@2@HH@Z PROC ; ATL::CAtlStringMgr::Allocate, COMDAT
; _this$ = ecx

; 69   : 	{

	push	ebp
	mov	ebp, esp
	sub	esp, 284				; 0000011cH
	push	ebx
	push	esi
	push	edi
	push	ecx
	lea	edi, DWORD PTR [ebp-284]
	push	71					; 00000047H
	pop	ecx
	mov	eax, -858993460				; ccccccccH
	rep stosd
	pop	ecx
	mov	eax, DWORD PTR ___security_cookie
	xor	eax, ebp
	mov	DWORD PTR __$ArrayPad$[ebp], eax
	mov	DWORD PTR _this$[ebp], ecx
$LN12@Allocate:

; 70   : 		ATLENSURE_RETURN_VAL( nChars>=0, NULL );

	cmp	DWORD PTR _nChars$[ebp], 0
	jl	SHORT $LN15@Allocate
	mov	DWORD PTR tv65[ebp], 1
	jmp	SHORT $LN16@Allocate
$LN15@Allocate:
	and	DWORD PTR tv65[ebp], 0
$LN16@Allocate:
	mov	eax, DWORD PTR tv65[ebp]
	mov	DWORD PTR ___atl_condVal$2[ebp], eax
	cmp	DWORD PTR ___atl_condVal$2[ebp], 0
	jne	SHORT $LN17@Allocate
	mov	esi, esp
	push	OFFSET ??_C@_1BM@GBBOFEAE@?$AA_?$AA_?$AAa?$AAt?$AAl?$AA_?$AAc?$AAo?$AAn?$AAd?$AAV?$AAa?$AAl?$AA?$AA@
	push	OFFSET ??_C@_15GANGMFKL@?$AA?$CF?$AAs?$AA?$AA@
	push	0
	push	70					; 00000046H
	push	OFFSET ??_C@_1JO@EJBGHLIE@?$AAc?$AA?3?$AA?2?$AAp?$AAr?$AAo?$AAg?$AAr?$AAa?$AAm?$AA?5?$AAf?$AAi?$AAl?$AAe?$AAs?$AA?5?$AA?$CI?$AAx?$AA8?$AA6?$AA?$CJ?$AA?2?$AAm?$AAi?$AAc?$AAr?$AAo?$AAs?$AAo?$AAf?$AAt@
	push	2
	call	DWORD PTR __imp___CrtDbgReportW
	add	esp, 24					; 00000018H
	cmp	esi, esp
	call	__RTC_CheckEsp
	cmp	eax, 1
	jne	SHORT $LN17@Allocate
	int	3
$LN17@Allocate:
	cmp	DWORD PTR ___atl_condVal$2[ebp], 0
	jne	SHORT $LN11@Allocate
	xor	eax, eax
	jmp	$LN13@Allocate
$LN11@Allocate:
	xor	eax, eax
	jne	SHORT $LN12@Allocate

; 71   : 
; 72   : 		size_t nTotalSize;
; 73   : 		CStringData* pData;
; 74   : 		size_t nDataBytes;
; 75   : 
; 76   : 		if( FAILED(::ATL::AtlAdd(&nChars, nChars, 1)) )

	push	1
	push	DWORD PTR _nChars$[ebp]
	lea	eax, DWORD PTR _nChars$[ebp]
	push	eax
	call	??$AtlAdd@H@ATL@@YAJPAHHH@Z		; ATL::AtlAdd<int>
	add	esp, 12					; 0000000cH
	test	eax, eax
	jge	SHORT $LN8@Allocate

; 77   : 		{
; 78   : 			return NULL;

	xor	eax, eax
	jmp	$LN13@Allocate
$LN8@Allocate:

; 79   : 		}
; 80   : 
; 81   : 		int nAlignedChars = ::ATL::AtlAlignUp( nChars, 8 );  // Prevent excessive reallocation.  The heap will usually round up anyway.

	push	8
	push	DWORD PTR _nChars$[ebp]
	call	??$AtlAlignUp@H@ATL@@YGHHK@Z		; ATL::AtlAlignUp<int>
	mov	DWORD PTR _nAlignedChars$[ebp], eax
$LN7@Allocate:

; 82   : 		ATLENSURE_RETURN_VAL( nChars<=nAlignedChars, NULL );

	mov	eax, DWORD PTR _nChars$[ebp]
	cmp	eax, DWORD PTR _nAlignedChars$[ebp]
	jg	SHORT $LN18@Allocate
	mov	DWORD PTR tv87[ebp], 1
	jmp	SHORT $LN19@Allocate
$LN18@Allocate:
	and	DWORD PTR tv87[ebp], 0
$LN19@Allocate:
	mov	eax, DWORD PTR tv87[ebp]
	mov	DWORD PTR ___atl_condVal$1[ebp], eax
	cmp	DWORD PTR ___atl_condVal$1[ebp], 0
	jne	SHORT $LN20@Allocate
	mov	esi, esp
	push	OFFSET ??_C@_1BM@GBBOFEAE@?$AA_?$AA_?$AAa?$AAt?$AAl?$AA_?$AAc?$AAo?$AAn?$AAd?$AAV?$AAa?$AAl?$AA?$AA@
	push	OFFSET ??_C@_15GANGMFKL@?$AA?$CF?$AAs?$AA?$AA@
	push	0
	push	82					; 00000052H
	push	OFFSET ??_C@_1JO@EJBGHLIE@?$AAc?$AA?3?$AA?2?$AAp?$AAr?$AAo?$AAg?$AAr?$AAa?$AAm?$AA?5?$AAf?$AAi?$AAl?$AAe?$AAs?$AA?5?$AA?$CI?$AAx?$AA8?$AA6?$AA?$CJ?$AA?2?$AAm?$AAi?$AAc?$AAr?$AAo?$AAs?$AAo?$AAf?$AAt@
	push	2
	call	DWORD PTR __imp___CrtDbgReportW
	add	esp, 24					; 00000018H
	cmp	esi, esp
	call	__RTC_CheckEsp
	cmp	eax, 1
	jne	SHORT $LN20@Allocate
	int	3
$LN20@Allocate:
	cmp	DWORD PTR ___atl_condVal$1[ebp], 0
	jne	SHORT $LN6@Allocate
	xor	eax, eax
	jmp	$LN13@Allocate
$LN6@Allocate:
	xor	eax, eax
	jne	SHORT $LN7@Allocate

; 83   : 
; 84   : 		if(	FAILED(::ATL::AtlMultiply(&nDataBytes, static_cast<size_t>(nAlignedChars), static_cast<size_t>(nCharSize))) ||
; 85   : 			FAILED(::ATL::AtlAdd(&nTotalSize, static_cast<size_t>(sizeof( CStringData )), nDataBytes)))

	push	DWORD PTR _nCharSize$[ebp]
	push	DWORD PTR _nAlignedChars$[ebp]
	lea	eax, DWORD PTR _nDataBytes$[ebp]
	push	eax
	call	??$AtlMultiply@I@ATL@@YAJPAIII@Z	; ATL::AtlMultiply<unsigned int>
	add	esp, 12					; 0000000cH
	test	eax, eax
	jl	SHORT $LN2@Allocate
	push	DWORD PTR _nDataBytes$[ebp]
	push	16					; 00000010H
	lea	eax, DWORD PTR _nTotalSize$[ebp]
	push	eax
	call	??$AtlAdd@I@ATL@@YAJPAIII@Z		; ATL::AtlAdd<unsigned int>
	add	esp, 12					; 0000000cH
	test	eax, eax
	jge	SHORT $LN3@Allocate
$LN2@Allocate:

; 86   : 		{
; 87   : 			return NULL;

	xor	eax, eax
	jmp	SHORT $LN13@Allocate
$LN3@Allocate:

; 88   : 		}
; 89   : 		pData = static_cast< CStringData* >( m_pMemMgr->Allocate( nTotalSize ) );

	mov	esi, esp
	push	DWORD PTR _nTotalSize$[ebp]
	mov	eax, DWORD PTR _this$[ebp]
	mov	eax, DWORD PTR [eax+4]
	mov	ecx, DWORD PTR _this$[ebp]
	mov	eax, DWORD PTR [eax]
	mov	ecx, DWORD PTR [ecx+4]
	call	DWORD PTR [eax]
	cmp	esi, esp
	call	__RTC_CheckEsp
	mov	DWORD PTR _pData$[ebp], eax

; 90   : 		if( pData == NULL )

	cmp	DWORD PTR _pData$[ebp], 0
	jne	SHORT $LN1@Allocate

; 91   : 		{
; 92   : 			return( NULL );

	xor	eax, eax
	jmp	SHORT $LN13@Allocate
$LN1@Allocate:

; 93   : 		}
; 94   : 		pData->pStringMgr = this;

	mov	eax, DWORD PTR _pData$[ebp]
	mov	ecx, DWORD PTR _this$[ebp]
	mov	DWORD PTR [eax], ecx

; 95   : 		pData->nRefs = 1;

	mov	eax, DWORD PTR _pData$[ebp]
	mov	DWORD PTR [eax+12], 1

; 96   : 		pData->nAllocLength = nAlignedChars - 1;

	mov	eax, DWORD PTR _nAlignedChars$[ebp]
	dec	eax
	mov	ecx, DWORD PTR _pData$[ebp]
	mov	DWORD PTR [ecx+8], eax

; 97   : 		pData->nDataLength = 0;

	mov	eax, DWORD PTR _pData$[ebp]
	and	DWORD PTR [eax+4], 0

; 98   : 
; 99   : 		return( pData );

	mov	eax, DWORD PTR _pData$[ebp]
$LN13@Allocate:

; 100  : 	}

	push	edx
	mov	ecx, ebp
	push	eax
	lea	edx, DWORD PTR $LN24@Allocate
	call	@_RTC_CheckStackVars@8
	pop	eax
	pop	edx
	pop	edi
	pop	esi
	pop	ebx
	mov	ecx, DWORD PTR __$ArrayPad$[ebp]
	xor	ecx, ebp
	call	@__security_check_cookie@4
	add	esp, 284				; 0000011cH
	cmp	ebp, esp
	call	__RTC_CheckEsp
	mov	esp, ebp
	pop	ebp
	ret	8
	npad	3
$LN24@Allocate:
	DD	2
	DD	$LN23@Allocate
$LN23@Allocate:
	DD	-36					; ffffffdcH
	DD	4
	DD	$LN21@Allocate
	DD	-60					; ffffffc4H
	DD	4
	DD	$LN22@Allocate
$LN22@Allocate:
	DB	110					; 0000006eH
	DB	68					; 00000044H
	DB	97					; 00000061H
	DB	116					; 00000074H
	DB	97					; 00000061H
	DB	66					; 00000042H
	DB	121					; 00000079H
	DB	116					; 00000074H
	DB	101					; 00000065H
	DB	115					; 00000073H
	DB	0
$LN21@Allocate:
	DB	110					; 0000006eH
	DB	84					; 00000054H
	DB	111					; 0000006fH
	DB	116					; 00000074H
	DB	97					; 00000061H
	DB	108					; 0000006cH
	DB	83					; 00000053H
	DB	105					; 00000069H
	DB	122					; 0000007aH
	DB	101					; 00000065H
	DB	0
?Allocate@CAtlStringMgr@ATL@@UAEPAUCStringData@2@HH@Z ENDP ; ATL::CAtlStringMgr::Allocate
_TEXT	ENDS
; Function compile flags: /Odsp /RTCsu /ZI
; File c:\program files (x86)\microsoft visual studio 12.0\vc\atlmfc\include\atlstr.h
;	COMDAT ?GetInstance@CAtlStringMgr@ATL@@SAPAUIAtlStringMgr@2@XZ
_TEXT	SEGMENT
?GetInstance@CAtlStringMgr@ATL@@SAPAUIAtlStringMgr@2@XZ PROC ; ATL::CAtlStringMgr::GetInstance, COMDAT

; 55   : 	{

	push	ebp
	mov	ebp, esp
	sub	esp, 192				; 000000c0H
	push	ebx
	push	esi
	push	edi
	lea	edi, DWORD PTR [ebp-192]
	push	48					; 00000030H
	pop	ecx
	mov	eax, -858993460				; ccccccccH
	rep stosd

; 56   : #pragma warning(push)
; 57   : #pragma warning(disable: 4640)
; 58   : 		static CWin32Heap strHeap( ::GetProcessHeap() );

	mov	eax, DWORD PTR ??_B?1??GetInstance@CAtlStringMgr@ATL@@SAPAUIAtlStringMgr@2@XZ@51
	and	eax, 1
	jne	SHORT $LN2@GetInstanc
	mov	eax, DWORD PTR ??_B?1??GetInstance@CAtlStringMgr@ATL@@SAPAUIAtlStringMgr@2@XZ@51
	or	eax, 1
	mov	DWORD PTR ??_B?1??GetInstance@CAtlStringMgr@ATL@@SAPAUIAtlStringMgr@2@XZ@51, eax
	push	12					; 0000000cH
	mov	ecx, OFFSET ?strHeap@?1??GetInstance@CAtlStringMgr@ATL@@SAPAUIAtlStringMgr@3@XZ@4VCWin32Heap@3@A ; `ATL::CAtlStringMgr::GetInstance'::`2'::strHeap
	call	?__autoclassinit2@CWin32Heap@ATL@@QAEXI@Z
	mov	esi, esp
	call	DWORD PTR __imp__GetProcessHeap@0
	cmp	esi, esp
	call	__RTC_CheckEsp
	push	eax
	mov	ecx, OFFSET ?strHeap@?1??GetInstance@CAtlStringMgr@ATL@@SAPAUIAtlStringMgr@3@XZ@4VCWin32Heap@3@A ; `ATL::CAtlStringMgr::GetInstance'::`2'::strHeap
	call	??0CWin32Heap@ATL@@QAE@PAX@Z		; ATL::CWin32Heap::CWin32Heap
	push	OFFSET ??__FstrHeap@?1??GetInstance@CAtlStringMgr@ATL@@SAPAUIAtlStringMgr@2@XZ@YAXXZ ; `ATL::CAtlStringMgr::GetInstance'::`2'::`dynamic atexit destructor for 'strHeap''
	call	_atexit
	pop	ecx
$LN2@GetInstanc:

; 59   : 		static CAtlStringMgr strMgr(&strHeap);

	mov	eax, DWORD PTR ??_B?1??GetInstance@CAtlStringMgr@ATL@@SAPAUIAtlStringMgr@2@XZ@51
	and	eax, 2
	jne	SHORT $LN1@GetInstanc
	mov	eax, DWORD PTR ??_B?1??GetInstance@CAtlStringMgr@ATL@@SAPAUIAtlStringMgr@2@XZ@51
	or	eax, 2
	mov	DWORD PTR ??_B?1??GetInstance@CAtlStringMgr@ATL@@SAPAUIAtlStringMgr@2@XZ@51, eax
	push	28					; 0000001cH
	mov	ecx, OFFSET ?strMgr@?1??GetInstance@CAtlStringMgr@ATL@@SAPAUIAtlStringMgr@3@XZ@4V23@A ; `ATL::CAtlStringMgr::GetInstance'::`2'::strMgr
	call	?__autoclassinit2@CAtlStringMgr@ATL@@QAEXI@Z
	push	OFFSET ?strHeap@?1??GetInstance@CAtlStringMgr@ATL@@SAPAUIAtlStringMgr@3@XZ@4VCWin32Heap@3@A ; `ATL::CAtlStringMgr::GetInstance'::`2'::strHeap
	mov	ecx, OFFSET ?strMgr@?1??GetInstance@CAtlStringMgr@ATL@@SAPAUIAtlStringMgr@3@XZ@4V23@A ; `ATL::CAtlStringMgr::GetInstance'::`2'::strMgr
	call	??0CAtlStringMgr@ATL@@QAE@PAUIAtlMemMgr@1@@Z ; ATL::CAtlStringMgr::CAtlStringMgr
	push	OFFSET ??__FstrMgr@?1??GetInstance@CAtlStringMgr@ATL@@SAPAUIAtlStringMgr@2@XZ@YAXXZ ; `ATL::CAtlStringMgr::GetInstance'::`2'::`dynamic atexit destructor for 'strMgr''
	call	_atexit
	pop	ecx
$LN1@GetInstanc:

; 60   : #pragma warning(pop)
; 61   : 
; 62   : 		return &strMgr;

	mov	eax, OFFSET ?strMgr@?1??GetInstance@CAtlStringMgr@ATL@@SAPAUIAtlStringMgr@3@XZ@4V23@A ; `ATL::CAtlStringMgr::GetInstance'::`2'::strMgr

; 63   : 	}

	pop	edi
	pop	esi
	pop	ebx
	add	esp, 192				; 000000c0H
	cmp	ebp, esp
	call	__RTC_CheckEsp
	mov	esp, ebp
	pop	ebp
	ret	0
?GetInstance@CAtlStringMgr@ATL@@SAPAUIAtlStringMgr@2@XZ ENDP ; ATL::CAtlStringMgr::GetInstance
_TEXT	ENDS
; Function compile flags: /Odsp /RTCsu /ZI
; File c:\program files (x86)\microsoft visual studio 12.0\vc\atlmfc\include\atlstr.h
;	COMDAT ??1CAtlStringMgr@ATL@@UAE@XZ
_TEXT	SEGMENT
_this$ = -8						; size = 4
??1CAtlStringMgr@ATL@@UAE@XZ PROC			; ATL::CAtlStringMgr::~CAtlStringMgr, COMDAT
; _this$ = ecx

; 44   : 	{

	push	ebp
	mov	ebp, esp
	sub	esp, 204				; 000000ccH
	push	ebx
	push	esi
	push	edi
	push	ecx
	lea	edi, DWORD PTR [ebp-204]
	push	51					; 00000033H
	pop	ecx
	mov	eax, -858993460				; ccccccccH
	rep stosd
	pop	ecx
	mov	DWORD PTR _this$[ebp], ecx
	mov	eax, DWORD PTR _this$[ebp]
	mov	DWORD PTR [eax], OFFSET ??_7CAtlStringMgr@ATL@@6B@

; 45   : 		isInitialized = false;

	mov	BYTE PTR ?isInitialized@CAtlStringMgr@ATL@@0_NA, 0 ; ATL::CAtlStringMgr::isInitialized

; 46   : 	}

	pop	edi
	pop	esi
	pop	ebx
	mov	esp, ebp
	pop	ebp
	ret	0
??1CAtlStringMgr@ATL@@UAE@XZ ENDP			; ATL::CAtlStringMgr::~CAtlStringMgr
_TEXT	ENDS
; Function compile flags: /Odsp /RTCsu /ZI
; File c:\program files (x86)\microsoft visual studio 12.0\vc\atlmfc\include\atlstr.h
;	COMDAT ??0CAtlStringMgr@ATL@@QAE@PAUIAtlMemMgr@1@@Z
_TEXT	SEGMENT
_this$ = -8						; size = 4
_pMemMgr$ = 8						; size = 4
??0CAtlStringMgr@ATL@@QAE@PAUIAtlMemMgr@1@@Z PROC	; ATL::CAtlStringMgr::CAtlStringMgr, COMDAT
; _this$ = ecx

; 40   : 	{

	push	ebp
	mov	ebp, esp
	sub	esp, 204				; 000000ccH
	push	ebx
	push	esi
	push	edi
	push	ecx
	lea	edi, DWORD PTR [ebp-204]
	push	51					; 00000033H
	pop	ecx
	mov	eax, -858993460				; ccccccccH
	rep stosd
	pop	ecx
	mov	DWORD PTR _this$[ebp], ecx
	mov	eax, DWORD PTR _this$[ebp]
	mov	DWORD PTR [eax], OFFSET ??_7CAtlStringMgr@ATL@@6B@
	mov	eax, DWORD PTR _this$[ebp]
	mov	ecx, DWORD PTR _pMemMgr$[ebp]
	mov	DWORD PTR [eax+4], ecx
	mov	ecx, DWORD PTR _this$[ebp]
	add	ecx, 8
	call	??0CNilStringData@ATL@@QAE@XZ		; ATL::CNilStringData::CNilStringData

; 41   : 		m_nil.SetManager( this );

	push	DWORD PTR _this$[ebp]
	mov	ecx, DWORD PTR _this$[ebp]
	add	ecx, 8
	call	?SetManager@CNilStringData@ATL@@QAEXPAUIAtlStringMgr@2@@Z ; ATL::CNilStringData::SetManager

; 42   : 	}

	mov	eax, DWORD PTR _this$[ebp]
	pop	edi
	pop	esi
	pop	ebx
	add	esp, 204				; 000000ccH
	cmp	ebp, esp
	call	__RTC_CheckEsp
	mov	esp, ebp
	pop	ebp
	ret	4
??0CAtlStringMgr@ATL@@QAE@PAUIAtlMemMgr@1@@Z ENDP	; ATL::CAtlStringMgr::CAtlStringMgr
_TEXT	ENDS
; Function compile flags: /Odsp /RTCsu /ZI
;	COMDAT ??__F_AtlWinModule@ATL@@YAXXZ
text$yd	SEGMENT
??__F_AtlWinModule@ATL@@YAXXZ PROC			; ATL::`dynamic atexit destructor for '_AtlWinModule'', COMDAT
	push	ebp
	mov	ebp, esp
	sub	esp, 192				; 000000c0H
	push	ebx
	push	esi
	push	edi
	lea	edi, DWORD PTR [ebp-192]
	push	48					; 00000030H
	pop	ecx
	mov	eax, -858993460				; ccccccccH
	rep stosd
	mov	ecx, OFFSET ?_AtlWinModule@ATL@@3VCAtlWinModule@1@A ; ATL::_AtlWinModule
	call	??1CAtlWinModule@ATL@@QAE@XZ		; ATL::CAtlWinModule::~CAtlWinModule
	pop	edi
	pop	esi
	pop	ebx
	add	esp, 192				; 000000c0H
	cmp	ebp, esp
	call	__RTC_CheckEsp
	mov	esp, ebp
	pop	ebp
	ret	0
??__F_AtlWinModule@ATL@@YAXXZ ENDP			; ATL::`dynamic atexit destructor for '_AtlWinModule''
text$yd	ENDS
; Function compile flags: /Odsp /RTCsu /ZI
; File c:\program files (x86)\microsoft visual studio 12.0\vc\atlmfc\include\atlbase.h
;	COMDAT ??__E_AtlWinModule@ATL@@YAXXZ
text$di	SEGMENT
??__E_AtlWinModule@ATL@@YAXXZ PROC			; ATL::`dynamic initializer for '_AtlWinModule'', COMDAT

; 2804 : __declspec(selectany) CAtlWinModule _AtlWinModule;

	push	ebp
	mov	ebp, esp
	sub	esp, 192				; 000000c0H
	push	ebx
	push	esi
	push	edi
	lea	edi, DWORD PTR [ebp-192]
	push	48					; 00000030H
	pop	ecx
	mov	eax, -858993460				; ccccccccH
	rep stosd
	mov	ecx, OFFSET ?_AtlWinModule@ATL@@3VCAtlWinModule@1@A ; ATL::_AtlWinModule
	call	??0CAtlWinModule@ATL@@QAE@XZ		; ATL::CAtlWinModule::CAtlWinModule
	push	OFFSET ??__F_AtlWinModule@ATL@@YAXXZ	; ATL::`dynamic atexit destructor for '_AtlWinModule''
	call	_atexit
	pop	ecx
	pop	edi
	pop	esi
	pop	ebx
	add	esp, 192				; 000000c0H
	cmp	ebp, esp
	call	__RTC_CheckEsp
	mov	esp, ebp
	pop	ebp
	ret	0
??__E_AtlWinModule@ATL@@YAXXZ ENDP			; ATL::`dynamic initializer for '_AtlWinModule''
text$di	ENDS
; Function compile flags: /Odsp /RTCsu /ZI
; File c:\program files (x86)\microsoft visual studio 12.0\vc\atlmfc\include\atlbase.h
;	COMDAT ?Term@CAtlWinModule@ATL@@QAEXXZ
_TEXT	SEGMENT
_this$ = -8						; size = 4
?Term@CAtlWinModule@ATL@@QAEXXZ PROC			; ATL::CAtlWinModule::Term, COMDAT
; _this$ = ecx

; 2788 : 	{

	push	ebp
	mov	ebp, esp
	sub	esp, 204				; 000000ccH
	push	ebx
	push	esi
	push	edi
	push	ecx
	lea	edi, DWORD PTR [ebp-204]
	push	51					; 00000033H
	pop	ecx
	mov	eax, -858993460				; ccccccccH
	rep stosd
	pop	ecx
	mov	DWORD PTR _this$[ebp], ecx

; 2789 : 		AtlWinModuleTerm(this, _AtlBaseModule.GetModuleInstance());

	mov	ecx, OFFSET ?_AtlBaseModule@ATL@@3VCAtlBaseModule@1@A ; ATL::_AtlBaseModule
	call	?GetModuleInstance@CAtlBaseModule@ATL@@QAEPAUHINSTANCE__@@XZ ; ATL::CAtlBaseModule::GetModuleInstance
	push	eax
	push	DWORD PTR _this$[ebp]
	call	?AtlWinModuleTerm@ATL@@YGJPAU_ATL_WIN_MODULE70@1@PAUHINSTANCE__@@@Z ; ATL::AtlWinModuleTerm

; 2790 : 	}

	pop	edi
	pop	esi
	pop	ebx
	add	esp, 204				; 000000ccH
	cmp	ebp, esp
	call	__RTC_CheckEsp
	mov	esp, ebp
	pop	ebp
	ret	0
?Term@CAtlWinModule@ATL@@QAEXXZ ENDP			; ATL::CAtlWinModule::Term
_TEXT	ENDS
; Function compile flags: /Odsp /RTCsu /ZI
; File c:\program files (x86)\microsoft visual studio 12.0\vc\atlmfc\include\atlbase.h
;	COMDAT ??1CAtlWinModule@ATL@@QAE@XZ
_TEXT	SEGMENT
_this$ = -20						; size = 4
__$EHRec$ = -12						; size = 12
??1CAtlWinModule@ATL@@QAE@XZ PROC			; ATL::CAtlWinModule::~CAtlWinModule, COMDAT
; _this$ = ecx

; 2783 : 	{

	push	ebp
	mov	ebp, esp
	push	-1
	push	__ehhandler$??1CAtlWinModule@ATL@@QAE@XZ
	mov	eax, DWORD PTR fs:0
	push	eax
	sub	esp, 204				; 000000ccH
	push	ebx
	push	esi
	push	edi
	push	ecx
	lea	edi, DWORD PTR [ebp-216]
	push	51					; 00000033H
	pop	ecx
	mov	eax, -858993460				; ccccccccH
	rep stosd
	pop	ecx
	mov	eax, DWORD PTR ___security_cookie
	xor	eax, ebp
	push	eax
	lea	eax, DWORD PTR __$EHRec$[ebp]
	mov	DWORD PTR fs:0, eax
	mov	DWORD PTR _this$[ebp], ecx
	and	DWORD PTR __$EHRec$[ebp+8], 0

; 2784 : 		Term();

	mov	ecx, DWORD PTR _this$[ebp]
	call	?Term@CAtlWinModule@ATL@@QAEXXZ		; ATL::CAtlWinModule::Term

; 2785 : 	}

	or	DWORD PTR __$EHRec$[ebp+8], -1
	mov	ecx, DWORD PTR _this$[ebp]
	call	??1_ATL_WIN_MODULE70@ATL@@QAE@XZ
	mov	ecx, DWORD PTR __$EHRec$[ebp]
	mov	DWORD PTR fs:0, ecx
	pop	ecx
	pop	edi
	pop	esi
	pop	ebx
	add	esp, 216				; 000000d8H
	cmp	ebp, esp
	call	__RTC_CheckEsp
	mov	esp, ebp
	pop	ebp
	ret	0
_TEXT	ENDS
;	COMDAT text$x
text$x	SEGMENT
__unwindfunclet$??1CAtlWinModule@ATL@@QAE@XZ$0:
	mov	ecx, DWORD PTR _this$[ebp]
	jmp	??1_ATL_WIN_MODULE70@ATL@@QAE@XZ
__ehhandler$??1CAtlWinModule@ATL@@QAE@XZ:
	mov	edx, DWORD PTR [esp+8]
	lea	eax, DWORD PTR [edx+12]
	mov	ecx, DWORD PTR [edx-220]
	xor	ecx, eax
	call	@__security_check_cookie@4
	mov	eax, OFFSET __ehfuncinfo$??1CAtlWinModule@ATL@@QAE@XZ
	jmp	___CxxFrameHandler3
text$x	ENDS
??1CAtlWinModule@ATL@@QAE@XZ ENDP			; ATL::CAtlWinModule::~CAtlWinModule
; Function compile flags: /Odsp /RTCsu /ZI
; File c:\program files (x86)\microsoft visual studio 12.0\vc\atlmfc\include\atlbase.h
;	COMDAT ??0CAtlWinModule@ATL@@QAE@XZ
_TEXT	SEGMENT
_hr$ = -20						; size = 4
_this$ = -8						; size = 4
??0CAtlWinModule@ATL@@QAE@XZ PROC			; ATL::CAtlWinModule::CAtlWinModule, COMDAT
; _this$ = ecx

; 2769 : 	CAtlWinModule()

	push	ebp
	mov	ebp, esp
	sub	esp, 216				; 000000d8H
	push	ebx
	push	esi
	push	edi
	push	ecx
	lea	edi, DWORD PTR [ebp-216]
	push	54					; 00000036H
	pop	ecx
	mov	eax, -858993460				; ccccccccH
	rep stosd
	pop	ecx
	mov	DWORD PTR _this$[ebp], ecx
	mov	ecx, DWORD PTR _this$[ebp]
	call	??0_ATL_WIN_MODULE70@ATL@@QAE@XZ

; 2770 : 	{
; 2771 : 		cbSize = sizeof(_ATL_WIN_MODULE);

	mov	eax, DWORD PTR _this$[ebp]
	mov	DWORD PTR [eax], 44			; 0000002cH

; 2772 : 		HRESULT hr = AtlWinModuleInit(this);

	push	DWORD PTR _this$[ebp]
	call	?AtlWinModuleInit@ATL@@YGJPAU_ATL_WIN_MODULE70@1@@Z ; ATL::AtlWinModuleInit
	mov	DWORD PTR _hr$[ebp], eax

; 2773 : 		if (FAILED(hr))

	cmp	DWORD PTR _hr$[ebp], 0
	jge	SHORT $LN2@CAtlWinMod

; 2774 : 		{
; 2775 : 			ATLASSERT(0);

	xor	eax, eax
	jne	SHORT $LN4@CAtlWinMod
	mov	esi, esp
	push	OFFSET ??_C@_13COJANIEC@?$AA0?$AA?$AA@
	push	OFFSET ??_C@_15GANGMFKL@?$AA?$CF?$AAs?$AA?$AA@
	push	0
	push	2775					; 00000ad7H
	push	OFFSET ??_C@_1KA@ELJIHIAD@?$AAc?$AA?3?$AA?2?$AAp?$AAr?$AAo?$AAg?$AAr?$AAa?$AAm?$AA?5?$AAf?$AAi?$AAl?$AAe?$AAs?$AA?5?$AA?$CI?$AAx?$AA8?$AA6?$AA?$CJ?$AA?2?$AAm?$AAi?$AAc?$AAr?$AAo?$AAs?$AAo?$AAf?$AAt@
	push	2
	call	DWORD PTR __imp___CrtDbgReportW
	add	esp, 24					; 00000018H
	cmp	esi, esp
	call	__RTC_CheckEsp
	cmp	eax, 1
	jne	SHORT $LN4@CAtlWinMod
	int	3
$LN4@CAtlWinMod:

; 2776 : 			CAtlBaseModule::m_bInitFailed = true;

	mov	BYTE PTR ?m_bInitFailed@CAtlBaseModule@ATL@@2_NA, 1 ; ATL::CAtlBaseModule::m_bInitFailed

; 2777 : 			cbSize = 0;

	mov	eax, DWORD PTR _this$[ebp]
	and	DWORD PTR [eax], 0
$LN2@CAtlWinMod:

; 2778 : 			return;
; 2779 : 		}
; 2780 : 	}

	mov	eax, DWORD PTR _this$[ebp]
	pop	edi
	pop	esi
	pop	ebx
	add	esp, 216				; 000000d8H
	cmp	ebp, esp
	call	__RTC_CheckEsp
	mov	esp, ebp
	pop	ebp
	ret	0
??0CAtlWinModule@ATL@@QAE@XZ ENDP			; ATL::CAtlWinModule::CAtlWinModule
_TEXT	ENDS
; Function compile flags: /Odsp /RTCsu /ZI
;	COMDAT ??__F_AtlComModule@ATL@@YAXXZ
text$yd	SEGMENT
??__F_AtlComModule@ATL@@YAXXZ PROC			; ATL::`dynamic atexit destructor for '_AtlComModule'', COMDAT
	push	ebp
	mov	ebp, esp
	sub	esp, 192				; 000000c0H
	push	ebx
	push	esi
	push	edi
	lea	edi, DWORD PTR [ebp-192]
	push	48					; 00000030H
	pop	ecx
	mov	eax, -858993460				; ccccccccH
	rep stosd
	mov	ecx, OFFSET ?_AtlComModule@ATL@@3VCAtlComModule@1@A ; ATL::_AtlComModule
	call	??1CAtlComModule@ATL@@QAE@XZ		; ATL::CAtlComModule::~CAtlComModule
	pop	edi
	pop	esi
	pop	ebx
	add	esp, 192				; 000000c0H
	cmp	ebp, esp
	call	__RTC_CheckEsp
	mov	esp, ebp
	pop	ebp
	ret	0
??__F_AtlComModule@ATL@@YAXXZ ENDP			; ATL::`dynamic atexit destructor for '_AtlComModule''
text$yd	ENDS
; Function compile flags: /Odsp /RTCsu /ZI
; File c:\program files (x86)\microsoft visual studio 12.0\vc\atlmfc\include\atlbase.h
;	COMDAT ??__E_AtlComModule@ATL@@YAXXZ
text$di	SEGMENT
??__E_AtlComModule@ATL@@YAXXZ PROC			; ATL::`dynamic initializer for '_AtlComModule'', COMDAT

; 2548 : __declspec(selectany) CAtlComModule _AtlComModule;

	push	ebp
	mov	ebp, esp
	sub	esp, 192				; 000000c0H
	push	ebx
	push	esi
	push	edi
	lea	edi, DWORD PTR [ebp-192]
	push	48					; 00000030H
	pop	ecx
	mov	eax, -858993460				; ccccccccH
	rep stosd
	mov	ecx, OFFSET ?_AtlComModule@ATL@@3VCAtlComModule@1@A ; ATL::_AtlComModule
	call	??0CAtlComModule@ATL@@QAE@XZ		; ATL::CAtlComModule::CAtlComModule
	push	OFFSET ??__F_AtlComModule@ATL@@YAXXZ	; ATL::`dynamic atexit destructor for '_AtlComModule''
	call	_atexit
	pop	ecx
	pop	edi
	pop	esi
	pop	ebx
	add	esp, 192				; 000000c0H
	cmp	ebp, esp
	call	__RTC_CheckEsp
	mov	esp, ebp
	pop	ebp
	ret	0
??__E_AtlComModule@ATL@@YAXXZ ENDP			; ATL::`dynamic initializer for '_AtlComModule''
text$di	ENDS
; Function compile flags: /Odsp /RTCsu /ZI
; File c:\program files (x86)\microsoft visual studio 12.0\vc\atlmfc\include\atlbase.h
;	COMDAT ?Term@CAtlComModule@ATL@@QAEXXZ
_TEXT	SEGMENT
_factory$1 = -44					; size = 4
_pCache$2 = -32						; size = 4
_ppEntry$3 = -20					; size = 4
_this$ = -8						; size = 4
?Term@CAtlComModule@ATL@@QAEXXZ PROC			; ATL::CAtlComModule::Term, COMDAT
; _this$ = ecx

; 2445 : 	{

	push	ebp
	mov	ebp, esp
	sub	esp, 240				; 000000f0H
	push	ebx
	push	esi
	push	edi
	push	ecx
	lea	edi, DWORD PTR [ebp-240]
	push	60					; 0000003cH
	pop	ecx
	mov	eax, -858993460				; ccccccccH
	rep stosd
	pop	ecx
	mov	DWORD PTR _this$[ebp], ecx

; 2446 : 		if (cbSize == 0)

	mov	eax, DWORD PTR _this$[ebp]
	cmp	DWORD PTR [eax], 0
	jne	SHORT $LN6@Term

; 2447 : 			return;

	jmp	SHORT $LN7@Term
$LN6@Term:

; 2448 : 
; 2449 : 		for (_ATL_OBJMAP_ENTRY_EX** ppEntry = m_ppAutoObjMapFirst; ppEntry < m_ppAutoObjMapLast; ppEntry++)

	mov	eax, DWORD PTR _this$[ebp]
	mov	eax, DWORD PTR [eax+8]
	mov	DWORD PTR _ppEntry$3[ebp], eax
	jmp	SHORT $LN5@Term
$LN4@Term:
	mov	eax, DWORD PTR _ppEntry$3[ebp]
	add	eax, 4
	mov	DWORD PTR _ppEntry$3[ebp], eax
$LN5@Term:
	mov	eax, DWORD PTR _this$[ebp]
	mov	ecx, DWORD PTR _ppEntry$3[ebp]
	cmp	ecx, DWORD PTR [eax+12]
	jae	SHORT $LN3@Term

; 2450 : 		{
; 2451 : 			if (*ppEntry != NULL)

	mov	eax, DWORD PTR _ppEntry$3[ebp]
	cmp	DWORD PTR [eax], 0
	je	SHORT $LN2@Term

; 2452 : 			{
; 2453 : 				_ATL_OBJMAP_CACHE* pCache = (**ppEntry).pCache;

	mov	eax, DWORD PTR _ppEntry$3[ebp]
	mov	eax, DWORD PTR [eax]
	mov	eax, DWORD PTR [eax+16]
	mov	DWORD PTR _pCache$2[ebp], eax

; 2454 : 				
; 2455 : 				if (pCache->pCF != NULL)

	mov	eax, DWORD PTR _pCache$2[ebp]
	cmp	DWORD PTR [eax], 0
	je	SHORT $LN2@Term

; 2456 : 				{
; 2457 : 					// Decode factory pointer if it's not null
; 2458 : 					IUnknown *factory = reinterpret_cast<IUnknown*>(::DecodePointer(pCache->pCF));

	mov	esi, esp
	mov	eax, DWORD PTR _pCache$2[ebp]
	push	DWORD PTR [eax]
	call	DWORD PTR __imp__DecodePointer@4
	cmp	esi, esp
	call	__RTC_CheckEsp
	mov	DWORD PTR _factory$1[ebp], eax

; 2459 : 					_Analysis_assume_(factory != nullptr);
; 2460 : 					factory->Release();					

	mov	eax, DWORD PTR _factory$1[ebp]
	mov	eax, DWORD PTR [eax]
	mov	esi, esp
	push	DWORD PTR _factory$1[ebp]
	call	DWORD PTR [eax+8]
	cmp	esi, esp
	call	__RTC_CheckEsp

; 2461 : 					pCache->pCF = NULL;

	mov	eax, DWORD PTR _pCache$2[ebp]
	and	DWORD PTR [eax], 0
$LN2@Term:

; 2462 : 				}				
; 2463 : 			}
; 2464 : 		}

	jmp	SHORT $LN4@Term
$LN3@Term:

; 2465 : 		m_csObjMap.Term();

	mov	ecx, DWORD PTR _this$[ebp]
	add	ecx, 16					; 00000010H
	call	?Term@CComCriticalSection@ATL@@QAEJXZ	; ATL::CComCriticalSection::Term

; 2466 : 		// Set to 0 to indicate that this function has been called
; 2467 : 		// At this point no one should be concerned about cbsize
; 2468 : 		// having the correct value
; 2469 : 		cbSize = 0;

	mov	eax, DWORD PTR _this$[ebp]
	and	DWORD PTR [eax], 0
$LN7@Term:

; 2470 : 	}

	pop	edi
	pop	esi
	pop	ebx
	add	esp, 240				; 000000f0H
	cmp	ebp, esp
	call	__RTC_CheckEsp
	mov	esp, ebp
	pop	ebp
	ret	0
?Term@CAtlComModule@ATL@@QAEXXZ ENDP			; ATL::CAtlComModule::Term
_TEXT	ENDS
; Function compile flags: /Odsp /RTCsu /ZI
; File c:\program files (x86)\microsoft visual studio 12.0\vc\atlmfc\include\atlbase.h
;	COMDAT ??1CAtlComModule@ATL@@QAE@XZ
_TEXT	SEGMENT
_this$ = -20						; size = 4
__$EHRec$ = -12						; size = 12
??1CAtlComModule@ATL@@QAE@XZ PROC			; ATL::CAtlComModule::~CAtlComModule, COMDAT
; _this$ = ecx

; 2439 : 	{

	push	ebp
	mov	ebp, esp
	push	-1
	push	__ehhandler$??1CAtlComModule@ATL@@QAE@XZ
	mov	eax, DWORD PTR fs:0
	push	eax
	sub	esp, 204				; 000000ccH
	push	ebx
	push	esi
	push	edi
	push	ecx
	lea	edi, DWORD PTR [ebp-216]
	push	51					; 00000033H
	pop	ecx
	mov	eax, -858993460				; ccccccccH
	rep stosd
	pop	ecx
	mov	eax, DWORD PTR ___security_cookie
	xor	eax, ebp
	push	eax
	lea	eax, DWORD PTR __$EHRec$[ebp]
	mov	DWORD PTR fs:0, eax
	mov	DWORD PTR _this$[ebp], ecx
	and	DWORD PTR __$EHRec$[ebp+8], 0

; 2440 : 		Term();

	mov	ecx, DWORD PTR _this$[ebp]
	call	?Term@CAtlComModule@ATL@@QAEXXZ		; ATL::CAtlComModule::Term

; 2441 : 	}

	or	DWORD PTR __$EHRec$[ebp+8], -1
	mov	ecx, DWORD PTR _this$[ebp]
	call	??1_ATL_COM_MODULE70@ATL@@QAE@XZ
	mov	ecx, DWORD PTR __$EHRec$[ebp]
	mov	DWORD PTR fs:0, ecx
	pop	ecx
	pop	edi
	pop	esi
	pop	ebx
	add	esp, 216				; 000000d8H
	cmp	ebp, esp
	call	__RTC_CheckEsp
	mov	esp, ebp
	pop	ebp
	ret	0
_TEXT	ENDS
;	COMDAT text$x
text$x	SEGMENT
__unwindfunclet$??1CAtlComModule@ATL@@QAE@XZ$0:
	mov	ecx, DWORD PTR _this$[ebp]
	jmp	??1_ATL_COM_MODULE70@ATL@@QAE@XZ
__ehhandler$??1CAtlComModule@ATL@@QAE@XZ:
	mov	edx, DWORD PTR [esp+8]
	lea	eax, DWORD PTR [edx+12]
	mov	ecx, DWORD PTR [edx-220]
	xor	ecx, eax
	call	@__security_check_cookie@4
	mov	eax, OFFSET __ehfuncinfo$??1CAtlComModule@ATL@@QAE@XZ
	jmp	___CxxFrameHandler3
text$x	ENDS
??1CAtlComModule@ATL@@QAE@XZ ENDP			; ATL::CAtlComModule::~CAtlComModule
; Function compile flags: /Odsp /RTCsu /ZI
; File c:\program files (x86)\microsoft visual studio 12.0\vc\atlmfc\include\atlbase.h
;	COMDAT ??0CAtlComModule@ATL@@QAE@XZ
_TEXT	SEGMENT
$T1 = -216						; size = 8
_this$ = -8						; size = 4
??0CAtlComModule@ATL@@QAE@XZ PROC			; ATL::CAtlComModule::CAtlComModule, COMDAT
; _this$ = ecx

; 2418 : 	CAtlComModule() throw()

	push	ebp
	mov	ebp, esp
	sub	esp, 220				; 000000dcH
	push	ebx
	push	esi
	push	edi
	push	ecx
	lea	edi, DWORD PTR [ebp-220]
	push	55					; 00000037H
	pop	ecx
	mov	eax, -858993460				; ccccccccH
	rep stosd
	pop	ecx
	mov	DWORD PTR _this$[ebp], ecx
	mov	ecx, DWORD PTR _this$[ebp]
	call	??0_ATL_COM_MODULE70@ATL@@QAE@XZ

; 2419 : 	{
; 2420 : 		cbSize = 0;

	mov	eax, DWORD PTR _this$[ebp]
	and	DWORD PTR [eax], 0

; 2421 : 
; 2422 : 		m_hInstTypeLib = reinterpret_cast<HINSTANCE>(&__ImageBase);

	mov	eax, DWORD PTR _this$[ebp]
	mov	DWORD PTR [eax+4], OFFSET ___ImageBase

; 2423 : 
; 2424 : 		m_ppAutoObjMapFirst = &__pobjMapEntryFirst + 1;

	mov	eax, DWORD PTR _this$[ebp]
	mov	DWORD PTR [eax+8], OFFSET ___pobjMapEntryFirst+4

; 2425 : 		m_ppAutoObjMapLast = &__pobjMapEntryLast;

	mov	eax, DWORD PTR _this$[ebp]
	mov	DWORD PTR [eax+12], OFFSET ___pobjMapEntryLast

; 2426 : 
; 2427 : 		if (FAILED(m_csObjMap.Init()))

	mov	ecx, DWORD PTR _this$[ebp]
	add	ecx, 16					; 00000010H
	call	?Init@CComCriticalSection@ATL@@QAEJXZ	; ATL::CComCriticalSection::Init
	test	eax, eax
	jge	SHORT $LN1@CAtlComMod

; 2428 : 		{
; 2429 : 			ATLTRACE(atlTraceCOM, 0, _T("ERROR : Unable to initialize critical section in CAtlComModule\n"));

	push	OFFSET ??_C@_1IA@KEEOONGN@?$AAE?$AAR?$AAR?$AAO?$AAR?$AA?5?$AA?3?$AA?5?$AAU?$AAn?$AAa?$AAb?$AAl?$AAe?$AA?5?$AAt?$AAo?$AA?5?$AAi?$AAn?$AAi?$AAt?$AAi?$AAa?$AAl?$AAi?$AAz?$AAe?$AA?5?$AAc?$AAr?$AAi@
	push	0
	mov	ecx, OFFSET ?atlTraceCOM@ATL@@3V?$CTraceCategoryEx@$01$0A@@1@A ; ATL::atlTraceCOM
	call	??B?$CTraceCategoryEx@$01$0A@@ATL@@QAEIXZ ; ATL::CTraceCategoryEx<2,0>::operator unsigned int
	push	eax
	push	2429					; 0000097dH
	push	OFFSET ??_C@_0FA@ODGKGNGJ@c?3?2program?5files?5?$CIx86?$CJ?2microsoft@
	lea	ecx, DWORD PTR $T1[ebp]
	call	??0CTraceFileAndLineInfo@ATL@@QAE@PBDH@Z ; ATL::CTraceFileAndLineInfo::CTraceFileAndLineInfo
	push	eax
	call	??RCTraceFileAndLineInfo@ATL@@QBAXHIPB_WZZ ; ATL::CTraceFileAndLineInfo::operator()
	add	esp, 16					; 00000010H

; 2430 : 			ATLASSERT(0);

	xor	eax, eax
	jne	SHORT $LN4@CAtlComMod
	mov	esi, esp
	push	OFFSET ??_C@_13COJANIEC@?$AA0?$AA?$AA@
	push	OFFSET ??_C@_15GANGMFKL@?$AA?$CF?$AAs?$AA?$AA@
	push	0
	push	2430					; 0000097eH
	push	OFFSET ??_C@_1KA@ELJIHIAD@?$AAc?$AA?3?$AA?2?$AAp?$AAr?$AAo?$AAg?$AAr?$AAa?$AAm?$AA?5?$AAf?$AAi?$AAl?$AAe?$AAs?$AA?5?$AA?$CI?$AAx?$AA8?$AA6?$AA?$CJ?$AA?2?$AAm?$AAi?$AAc?$AAr?$AAo?$AAs?$AAo?$AAf?$AAt@
	push	2
	call	DWORD PTR __imp___CrtDbgReportW
	add	esp, 24					; 00000018H
	cmp	esi, esp
	call	__RTC_CheckEsp
	cmp	eax, 1
	jne	SHORT $LN4@CAtlComMod
	int	3
$LN4@CAtlComMod:

; 2431 : 			CAtlBaseModule::m_bInitFailed = true;

	mov	BYTE PTR ?m_bInitFailed@CAtlBaseModule@ATL@@2_NA, 1 ; ATL::CAtlBaseModule::m_bInitFailed

; 2432 : 			return;

	jmp	SHORT $LN2@CAtlComMod
$LN1@CAtlComMod:

; 2433 : 		}
; 2434 : 		// Set cbSize on success.
; 2435 : 		cbSize = sizeof(_ATL_COM_MODULE);

	mov	eax, DWORD PTR _this$[ebp]
	mov	DWORD PTR [eax], 40			; 00000028H
$LN2@CAtlComMod:

; 2436 : 	}

	mov	eax, DWORD PTR _this$[ebp]
	pop	edi
	pop	esi
	pop	ebx
	add	esp, 220				; 000000dcH
	cmp	ebp, esp
	call	__RTC_CheckEsp
	mov	esp, ebp
	pop	ebp
	ret	0
??0CAtlComModule@ATL@@QAE@XZ ENDP			; ATL::CAtlComModule::CAtlComModule
_TEXT	ENDS
; Function compile flags: /Odsp /RTCsu /ZI
; File c:\program files (x86)\microsoft visual studio 12.0\vc\atlmfc\include\atlbase.h
;	COMDAT ?AtlWinModuleTerm@ATL@@YGJPAU_ATL_WIN_MODULE70@1@PAUHINSTANCE__@@@Z
_TEXT	SEGMENT
_i$1 = -8						; size = 4
_pWinModule$ = 8					; size = 4
_hInst$ = 12						; size = 4
?AtlWinModuleTerm@ATL@@YGJPAU_ATL_WIN_MODULE70@1@PAUHINSTANCE__@@@Z PROC ; ATL::AtlWinModuleTerm, COMDAT

; 7656 : {

	push	ebp
	mov	ebp, esp
	sub	esp, 204				; 000000ccH
	push	ebx
	push	esi
	push	edi
	lea	edi, DWORD PTR [ebp-204]
	push	51					; 00000033H
	pop	ecx
	mov	eax, -858993460				; ccccccccH
	rep stosd

; 7657 : 	if (pWinModule == NULL)

	cmp	DWORD PTR _pWinModule$[ebp], 0
	jne	SHORT $LN6@AtlWinModu

; 7658 : 		return E_INVALIDARG;

	mov	eax, -2147024809			; 80070057H
	jmp	SHORT $LN7@AtlWinModu
$LN6@AtlWinModu:

; 7659 : 	if (pWinModule->cbSize == 0)

	mov	eax, DWORD PTR _pWinModule$[ebp]
	cmp	DWORD PTR [eax], 0
	jne	SHORT $LN5@AtlWinModu

; 7660 : 		return S_OK;

	xor	eax, eax
	jmp	SHORT $LN7@AtlWinModu
$LN5@AtlWinModu:

; 7661 : 	if (pWinModule->cbSize != sizeof(_ATL_WIN_MODULE))

	mov	eax, DWORD PTR _pWinModule$[ebp]
	cmp	DWORD PTR [eax], 44			; 0000002cH
	je	SHORT $LN4@AtlWinModu

; 7662 : 		return E_INVALIDARG;

	mov	eax, -2147024809			; 80070057H
	jmp	SHORT $LN7@AtlWinModu
$LN4@AtlWinModu:

; 7663 : 
; 7664 : 	for (int i = 0; i < pWinModule->m_rgWindowClassAtoms.GetSize(); i++)

	and	DWORD PTR _i$1[ebp], 0
	jmp	SHORT $LN3@AtlWinModu
$LN2@AtlWinModu:
	mov	eax, DWORD PTR _i$1[ebp]
	inc	eax
	mov	DWORD PTR _i$1[ebp], eax
$LN3@AtlWinModu:
	mov	ecx, DWORD PTR _pWinModule$[ebp]
	add	ecx, 32					; 00000020H
	call	?GetSize@?$CSimpleArray@GV?$CSimpleArrayEqualHelper@G@ATL@@@ATL@@QBEHXZ ; ATL::CSimpleArray<unsigned short,ATL::CSimpleArrayEqualHelper<unsigned short> >::GetSize
	cmp	DWORD PTR _i$1[ebp], eax
	jge	SHORT $LN1@AtlWinModu

; 7665 : 		UnregisterClass((LPCTSTR)pWinModule->m_rgWindowClassAtoms[i], hInst);

	mov	esi, esp
	push	DWORD PTR _hInst$[ebp]
	push	DWORD PTR _i$1[ebp]
	mov	ecx, DWORD PTR _pWinModule$[ebp]
	add	ecx, 32					; 00000020H
	call	??A?$CSimpleArray@GV?$CSimpleArrayEqualHelper@G@ATL@@@ATL@@QAEAAGH@Z ; ATL::CSimpleArray<unsigned short,ATL::CSimpleArrayEqualHelper<unsigned short> >::operator[]
	movzx	eax, WORD PTR [eax]
	push	eax
	call	DWORD PTR __imp__UnregisterClassW@8
	cmp	esi, esp
	call	__RTC_CheckEsp
	jmp	SHORT $LN2@AtlWinModu
$LN1@AtlWinModu:

; 7666 : 	pWinModule->m_rgWindowClassAtoms.RemoveAll();

	mov	ecx, DWORD PTR _pWinModule$[ebp]
	add	ecx, 32					; 00000020H
	call	?RemoveAll@?$CSimpleArray@GV?$CSimpleArrayEqualHelper@G@ATL@@@ATL@@QAEXXZ ; ATL::CSimpleArray<unsigned short,ATL::CSimpleArrayEqualHelper<unsigned short> >::RemoveAll

; 7667 : 	pWinModule->m_csWindowCreate.Term();

	mov	ecx, DWORD PTR _pWinModule$[ebp]
	add	ecx, 4
	call	?Term@CComCriticalSection@ATL@@QAEJXZ	; ATL::CComCriticalSection::Term

; 7668 : 	pWinModule->cbSize = 0;

	mov	eax, DWORD PTR _pWinModule$[ebp]
	and	DWORD PTR [eax], 0

; 7669 : 	return S_OK;

	xor	eax, eax
$LN7@AtlWinModu:

; 7670 : }

	pop	edi
	pop	esi
	pop	ebx
	add	esp, 204				; 000000ccH
	cmp	ebp, esp
	call	__RTC_CheckEsp
	mov	esp, ebp
	pop	ebp
	ret	8
?AtlWinModuleTerm@ATL@@YGJPAU_ATL_WIN_MODULE70@1@PAUHINSTANCE__@@@Z ENDP ; ATL::AtlWinModuleTerm
_TEXT	ENDS
; Function compile flags: /Odsp /RTCsu /ZI
; File c:\program files (x86)\microsoft visual studio 12.0\vc\atlmfc\include\atlbase.h
;	COMDAT ?AtlWinModuleInit@ATL@@YGJPAU_ATL_WIN_MODULE70@1@@Z
_TEXT	SEGMENT
$T1 = -216						; size = 8
_hr$ = -8						; size = 4
_pWinModule$ = 8					; size = 4
?AtlWinModuleInit@ATL@@YGJPAU_ATL_WIN_MODULE70@1@@Z PROC ; ATL::AtlWinModuleInit, COMDAT

; 8400 : {

	push	ebp
	mov	ebp, esp
	sub	esp, 220				; 000000dcH
	push	ebx
	push	esi
	push	edi
	lea	edi, DWORD PTR [ebp-220]
	push	55					; 00000037H
	pop	ecx
	mov	eax, -858993460				; ccccccccH
	rep stosd

; 8401 : 	if (pWinModule == NULL)

	cmp	DWORD PTR _pWinModule$[ebp], 0
	jne	SHORT $LN3@AtlWinModu

; 8402 : 		return E_INVALIDARG;

	mov	eax, -2147024809			; 80070057H
	jmp	$LN4@AtlWinModu
$LN3@AtlWinModu:

; 8403 : 
; 8404 : 	// check only in the DLL
; 8405 : 	if (pWinModule->cbSize != sizeof(_ATL_WIN_MODULE))

	mov	eax, DWORD PTR _pWinModule$[ebp]
	cmp	DWORD PTR [eax], 44			; 0000002cH
	je	SHORT $LN2@AtlWinModu

; 8406 : 		return E_INVALIDARG;

	mov	eax, -2147024809			; 80070057H
	jmp	$LN4@AtlWinModu
$LN2@AtlWinModu:

; 8407 : 
; 8408 : 	pWinModule->m_pCreateWndList = NULL;

	mov	eax, DWORD PTR _pWinModule$[ebp]
	and	DWORD PTR [eax+28], 0

; 8409 : 
; 8410 : 	HRESULT hr = pWinModule->m_csWindowCreate.Init();

	mov	ecx, DWORD PTR _pWinModule$[ebp]
	add	ecx, 4
	call	?Init@CComCriticalSection@ATL@@QAEJXZ	; ATL::CComCriticalSection::Init
	mov	DWORD PTR _hr$[ebp], eax

; 8411 : 	if (FAILED(hr))

	cmp	DWORD PTR _hr$[ebp], 0
	jge	SHORT $LN1@AtlWinModu

; 8412 : 	{
; 8413 : 		ATLTRACE(atlTraceWindowing, 0, _T("ERROR : Unable to initialize critical section in AtlWinModuleInit\n"));

	push	OFFSET ??_C@_1IG@OPJAFKJH@?$AAE?$AAR?$AAR?$AAO?$AAR?$AA?5?$AA?3?$AA?5?$AAU?$AAn?$AAa?$AAb?$AAl?$AAe?$AA?5?$AAt?$AAo?$AA?5?$AAi?$AAn?$AAi?$AAt?$AAi?$AAa?$AAl?$AAi?$AAz?$AAe?$AA?5?$AAc?$AAr?$AAi@
	push	0
	mov	ecx, OFFSET ?atlTraceWindowing@ATL@@3V?$CTraceCategoryEx@$0CA@$0A@@1@A ; ATL::atlTraceWindowing
	call	??B?$CTraceCategoryEx@$0CA@$0A@@ATL@@QAEIXZ ; ATL::CTraceCategoryEx<32,0>::operator unsigned int
	push	eax
	mov	eax, DWORD PTR ?__LINE__Var@?1??AtlWinModuleInit@ATL@@YGJPAU_ATL_WIN_MODULE70@2@@Z@4JA
	add	eax, 13					; 0000000dH
	push	eax
	push	OFFSET ??_C@_0FA@ODGKGNGJ@c?3?2program?5files?5?$CIx86?$CJ?2microsoft@
	lea	ecx, DWORD PTR $T1[ebp]
	call	??0CTraceFileAndLineInfo@ATL@@QAE@PBDH@Z ; ATL::CTraceFileAndLineInfo::CTraceFileAndLineInfo
	push	eax
	call	??RCTraceFileAndLineInfo@ATL@@QBAXHIPB_WZZ ; ATL::CTraceFileAndLineInfo::operator()
	add	esp, 16					; 00000010H

; 8414 : 		ATLASSERT(0);

	xor	eax, eax
	jne	SHORT $LN1@AtlWinModu
	mov	esi, esp
	push	OFFSET ??_C@_13COJANIEC@?$AA0?$AA?$AA@
	push	OFFSET ??_C@_15GANGMFKL@?$AA?$CF?$AAs?$AA?$AA@
	push	0
	mov	eax, DWORD PTR ?__LINE__Var@?1??AtlWinModuleInit@ATL@@YGJPAU_ATL_WIN_MODULE70@2@@Z@4JA
	add	eax, 14					; 0000000eH
	push	eax
	push	OFFSET ??_C@_1KA@ELJIHIAD@?$AAc?$AA?3?$AA?2?$AAp?$AAr?$AAo?$AAg?$AAr?$AAa?$AAm?$AA?5?$AAf?$AAi?$AAl?$AAe?$AAs?$AA?5?$AA?$CI?$AAx?$AA8?$AA6?$AA?$CJ?$AA?2?$AAm?$AAi?$AAc?$AAr?$AAo?$AAs?$AAo?$AAf?$AAt@
	push	2
	call	DWORD PTR __imp___CrtDbgReportW
	add	esp, 24					; 00000018H
	cmp	esi, esp
	call	__RTC_CheckEsp
	cmp	eax, 1
	jne	SHORT $LN1@AtlWinModu
	int	3
$LN1@AtlWinModu:

; 8415 : 	}
; 8416 : 	return hr;

	mov	eax, DWORD PTR _hr$[ebp]
$LN4@AtlWinModu:

; 8417 : }

	pop	edi
	pop	esi
	pop	ebx
	add	esp, 220				; 000000dcH
	cmp	ebp, esp
	call	__RTC_CheckEsp
	mov	esp, ebp
	pop	ebp
	ret	4
?AtlWinModuleInit@ATL@@YGJPAU_ATL_WIN_MODULE70@1@@Z ENDP ; ATL::AtlWinModuleInit
_TEXT	ENDS
; Function compile flags: /Odsp /RTCsu /ZI
;	COMDAT ??1_ATL_WIN_MODULE70@ATL@@QAE@XZ
_TEXT	SEGMENT
_this$ = -20						; size = 4
__$EHRec$ = -12						; size = 12
??1_ATL_WIN_MODULE70@ATL@@QAE@XZ PROC			; ATL::_ATL_WIN_MODULE70::~_ATL_WIN_MODULE70, COMDAT
; _this$ = ecx
	push	ebp
	mov	ebp, esp
	push	-1
	push	__ehhandler$??1_ATL_WIN_MODULE70@ATL@@QAE@XZ
	mov	eax, DWORD PTR fs:0
	push	eax
	sub	esp, 204				; 000000ccH
	push	ebx
	push	esi
	push	edi
	push	ecx
	lea	edi, DWORD PTR [ebp-216]
	push	51					; 00000033H
	pop	ecx
	mov	eax, -858993460				; ccccccccH
	rep stosd
	pop	ecx
	mov	eax, DWORD PTR ___security_cookie
	xor	eax, ebp
	push	eax
	lea	eax, DWORD PTR __$EHRec$[ebp]
	mov	DWORD PTR fs:0, eax
	mov	DWORD PTR _this$[ebp], ecx
	and	DWORD PTR __$EHRec$[ebp+8], 0
	mov	ecx, DWORD PTR _this$[ebp]
	add	ecx, 32					; 00000020H
	call	??1?$CSimpleArray@GV?$CSimpleArrayEqualHelper@G@ATL@@@ATL@@QAE@XZ ; ATL::CSimpleArray<unsigned short,ATL::CSimpleArrayEqualHelper<unsigned short> >::~CSimpleArray<unsigned short,ATL::CSimpleArrayEqualHelper<unsigned short> >
	or	DWORD PTR __$EHRec$[ebp+8], -1
	mov	ecx, DWORD PTR _this$[ebp]
	add	ecx, 4
	call	??1CComCriticalSection@ATL@@QAE@XZ	; ATL::CComCriticalSection::~CComCriticalSection
	mov	ecx, DWORD PTR __$EHRec$[ebp]
	mov	DWORD PTR fs:0, ecx
	pop	ecx
	pop	edi
	pop	esi
	pop	ebx
	add	esp, 216				; 000000d8H
	cmp	ebp, esp
	call	__RTC_CheckEsp
	mov	esp, ebp
	pop	ebp
	ret	0
_TEXT	ENDS
;	COMDAT text$x
text$x	SEGMENT
__unwindfunclet$??1_ATL_WIN_MODULE70@ATL@@QAE@XZ$0:
	mov	ecx, DWORD PTR _this$[ebp]
	add	ecx, 4
	jmp	??1CComCriticalSection@ATL@@QAE@XZ	; ATL::CComCriticalSection::~CComCriticalSection
__ehhandler$??1_ATL_WIN_MODULE70@ATL@@QAE@XZ:
	mov	edx, DWORD PTR [esp+8]
	lea	eax, DWORD PTR [edx+12]
	mov	ecx, DWORD PTR [edx-220]
	xor	ecx, eax
	call	@__security_check_cookie@4
	mov	eax, OFFSET __ehfuncinfo$??1_ATL_WIN_MODULE70@ATL@@QAE@XZ
	jmp	___CxxFrameHandler3
text$x	ENDS
??1_ATL_WIN_MODULE70@ATL@@QAE@XZ ENDP			; ATL::_ATL_WIN_MODULE70::~_ATL_WIN_MODULE70
; Function compile flags: /Odsp /RTCsu /ZI
;	COMDAT ??0_ATL_WIN_MODULE70@ATL@@QAE@XZ
_TEXT	SEGMENT
_this$ = -20						; size = 4
__$EHRec$ = -12						; size = 12
??0_ATL_WIN_MODULE70@ATL@@QAE@XZ PROC			; ATL::_ATL_WIN_MODULE70::_ATL_WIN_MODULE70, COMDAT
; _this$ = ecx
	push	ebp
	mov	ebp, esp
	push	-1
	push	__ehhandler$??0_ATL_WIN_MODULE70@ATL@@QAE@XZ
	mov	eax, DWORD PTR fs:0
	push	eax
	sub	esp, 204				; 000000ccH
	push	ebx
	push	esi
	push	edi
	push	ecx
	lea	edi, DWORD PTR [ebp-216]
	push	51					; 00000033H
	pop	ecx
	mov	eax, -858993460				; ccccccccH
	rep stosd
	pop	ecx
	mov	eax, DWORD PTR ___security_cookie
	xor	eax, ebp
	push	eax
	lea	eax, DWORD PTR __$EHRec$[ebp]
	mov	DWORD PTR fs:0, eax
	mov	DWORD PTR _this$[ebp], ecx
	mov	ecx, DWORD PTR _this$[ebp]
	add	ecx, 4
	call	??0CComCriticalSection@ATL@@QAE@XZ	; ATL::CComCriticalSection::CComCriticalSection
	and	DWORD PTR __$EHRec$[ebp+8], 0
	mov	ecx, DWORD PTR _this$[ebp]
	add	ecx, 32					; 00000020H
	call	??0?$CSimpleArray@GV?$CSimpleArrayEqualHelper@G@ATL@@@ATL@@QAE@XZ ; ATL::CSimpleArray<unsigned short,ATL::CSimpleArrayEqualHelper<unsigned short> >::CSimpleArray<unsigned short,ATL::CSimpleArrayEqualHelper<unsigned short> >
	or	DWORD PTR __$EHRec$[ebp+8], -1
	mov	eax, DWORD PTR _this$[ebp]
	mov	ecx, DWORD PTR __$EHRec$[ebp]
	mov	DWORD PTR fs:0, ecx
	pop	ecx
	pop	edi
	pop	esi
	pop	ebx
	add	esp, 216				; 000000d8H
	cmp	ebp, esp
	call	__RTC_CheckEsp
	mov	esp, ebp
	pop	ebp
	ret	0
_TEXT	ENDS
;	COMDAT text$x
text$x	SEGMENT
__unwindfunclet$??0_ATL_WIN_MODULE70@ATL@@QAE@XZ$0:
	mov	ecx, DWORD PTR _this$[ebp]
	add	ecx, 4
	jmp	??1CComCriticalSection@ATL@@QAE@XZ	; ATL::CComCriticalSection::~CComCriticalSection
__ehhandler$??0_ATL_WIN_MODULE70@ATL@@QAE@XZ:
	mov	edx, DWORD PTR [esp+8]
	lea	eax, DWORD PTR [edx+12]
	mov	ecx, DWORD PTR [edx-220]
	xor	ecx, eax
	call	@__security_check_cookie@4
	mov	eax, OFFSET __ehfuncinfo$??0_ATL_WIN_MODULE70@ATL@@QAE@XZ
	jmp	___CxxFrameHandler3
text$x	ENDS
??0_ATL_WIN_MODULE70@ATL@@QAE@XZ ENDP			; ATL::_ATL_WIN_MODULE70::_ATL_WIN_MODULE70
; Function compile flags: /Odsp /RTCsu /ZI
; File c:\program files (x86)\microsoft visual studio 12.0\vc\atlmfc\include\atlsimpcoll.h
;	COMDAT ??A?$CSimpleArray@GV?$CSimpleArrayEqualHelper@G@ATL@@@ATL@@QAEAAGH@Z
_TEXT	SEGMENT
_this$ = -8						; size = 4
_nIndex$ = 8						; size = 4
??A?$CSimpleArray@GV?$CSimpleArrayEqualHelper@G@ATL@@@ATL@@QAEAAGH@Z PROC ; ATL::CSimpleArray<unsigned short,ATL::CSimpleArrayEqualHelper<unsigned short> >::operator[], COMDAT
; _this$ = ecx

; 230  : 	{

	push	ebp
	mov	ebp, esp
	sub	esp, 204				; 000000ccH
	push	ebx
	push	esi
	push	edi
	push	ecx
	lea	edi, DWORD PTR [ebp-204]
	push	51					; 00000033H
	pop	ecx
	mov	eax, -858993460				; ccccccccH
	rep stosd
	pop	ecx
	mov	DWORD PTR _this$[ebp], ecx

; 231  : 		ATLASSERT(nIndex >= 0 && nIndex < m_nSize);

	cmp	DWORD PTR _nIndex$[ebp], 0
	jl	SHORT $LN5@operator
	mov	eax, DWORD PTR _this$[ebp]
	mov	ecx, DWORD PTR _nIndex$[ebp]
	cmp	ecx, DWORD PTR [eax+4]
	jl	SHORT $LN6@operator
$LN5@operator:
	mov	esi, esp
	push	OFFSET ??_C@_1EA@JHMKKLFC@?$AAn?$AAI?$AAn?$AAd?$AAe?$AAx?$AA?5?$AA?$DO?$AA?$DN?$AA?5?$AA0?$AA?5?$AA?$CG?$AA?$CG?$AA?5?$AAn?$AAI?$AAn?$AAd?$AAe?$AAx?$AA?5?$AA?$DM?$AA?5?$AAm?$AA_?$AAn?$AAS?$AAi?$AAz?$AAe?$AA?$AA@
	push	OFFSET ??_C@_15GANGMFKL@?$AA?$CF?$AAs?$AA?$AA@
	push	0
	push	231					; 000000e7H
	push	OFFSET ??_C@_1KI@KJKLFHG@?$AAc?$AA?3?$AA?2?$AAp?$AAr?$AAo?$AAg?$AAr?$AAa?$AAm?$AA?5?$AAf?$AAi?$AAl?$AAe?$AAs?$AA?5?$AA?$CI?$AAx?$AA8?$AA6?$AA?$CJ?$AA?2?$AAm?$AAi?$AAc?$AAr?$AAo?$AAs?$AAo?$AAf?$AAt@
	push	2
	call	DWORD PTR __imp___CrtDbgReportW
	add	esp, 24					; 00000018H
	cmp	esi, esp
	call	__RTC_CheckEsp
	cmp	eax, 1
	jne	SHORT $LN6@operator
	int	3
$LN6@operator:

; 232  : 		if(nIndex < 0 || nIndex >= m_nSize)

	cmp	DWORD PTR _nIndex$[ebp], 0
	jl	SHORT $LN1@operator
	mov	eax, DWORD PTR _this$[ebp]
	mov	ecx, DWORD PTR _nIndex$[ebp]
	cmp	ecx, DWORD PTR [eax+4]
	jl	SHORT $LN2@operator
$LN1@operator:

; 233  : 		{
; 234  : 			_AtlRaiseException((DWORD)EXCEPTION_ARRAY_BOUNDS_EXCEEDED);

	push	1
	push	-1073741684				; c000008cH
	call	?_AtlRaiseException@ATL@@YAXKK@Z	; ATL::_AtlRaiseException
$LN2@operator:

; 235  : 		}
; 236  : 		return m_aT[nIndex];

	mov	eax, DWORD PTR _this$[ebp]
	mov	eax, DWORD PTR [eax]
	mov	ecx, DWORD PTR _nIndex$[ebp]
	lea	eax, DWORD PTR [eax+ecx*2]
$LN4@operator:

; 237  : 	}

	pop	edi
	pop	esi
	pop	ebx
	add	esp, 204				; 000000ccH
	cmp	ebp, esp
	call	__RTC_CheckEsp
	mov	esp, ebp
	pop	ebp
	ret	4
??A?$CSimpleArray@GV?$CSimpleArrayEqualHelper@G@ATL@@@ATL@@QAEAAGH@Z ENDP ; ATL::CSimpleArray<unsigned short,ATL::CSimpleArrayEqualHelper<unsigned short> >::operator[]
_TEXT	ENDS
; Function compile flags: /Odsp /RTCsu /ZI
; File c:\program files (x86)\microsoft visual studio 12.0\vc\atlmfc\include\atlsimpcoll.h
;	COMDAT ?RemoveAll@?$CSimpleArray@GV?$CSimpleArrayEqualHelper@G@ATL@@@ATL@@QAEXXZ
_TEXT	SEGMENT
_i$1 = -20						; size = 4
_this$ = -8						; size = 4
?RemoveAll@?$CSimpleArray@GV?$CSimpleArrayEqualHelper@G@ATL@@@ATL@@QAEXXZ PROC ; ATL::CSimpleArray<unsigned short,ATL::CSimpleArrayEqualHelper<unsigned short> >::RemoveAll, COMDAT
; _this$ = ecx

; 209  : 	{

	push	ebp
	mov	ebp, esp
	sub	esp, 216				; 000000d8H
	push	ebx
	push	esi
	push	edi
	push	ecx
	lea	edi, DWORD PTR [ebp-216]
	push	54					; 00000036H
	pop	ecx
	mov	eax, -858993460				; ccccccccH
	rep stosd
	pop	ecx
	mov	DWORD PTR _this$[ebp], ecx

; 210  : 		if(m_aT != NULL)

	mov	eax, DWORD PTR _this$[ebp]
	cmp	DWORD PTR [eax], 0
	je	SHORT $LN4@RemoveAll

; 211  : 		{
; 212  : 			for(int i = 0; i < m_nSize; i++)

	and	DWORD PTR _i$1[ebp], 0
	jmp	SHORT $LN3@RemoveAll
$LN2@RemoveAll:
	mov	eax, DWORD PTR _i$1[ebp]
	inc	eax
	mov	DWORD PTR _i$1[ebp], eax
$LN3@RemoveAll:
	mov	eax, DWORD PTR _this$[ebp]
	mov	ecx, DWORD PTR _i$1[ebp]
	cmp	ecx, DWORD PTR [eax+4]
	jge	SHORT $LN1@RemoveAll

; 213  : 				m_aT[i].~T();

	jmp	SHORT $LN2@RemoveAll
$LN1@RemoveAll:

; 214  : 			free(m_aT);

	mov	esi, esp
	mov	eax, DWORD PTR _this$[ebp]
	push	DWORD PTR [eax]
	call	DWORD PTR __imp__free
	pop	ecx
	cmp	esi, esp
	call	__RTC_CheckEsp

; 215  : 			m_aT = NULL;

	mov	eax, DWORD PTR _this$[ebp]
	and	DWORD PTR [eax], 0
$LN4@RemoveAll:

; 216  : 		}
; 217  : 		m_nSize = 0;

	mov	eax, DWORD PTR _this$[ebp]
	and	DWORD PTR [eax+4], 0

; 218  : 		m_nAllocSize = 0;

	mov	eax, DWORD PTR _this$[ebp]
	and	DWORD PTR [eax+8], 0

; 219  :     }

	pop	edi
	pop	esi
	pop	ebx
	add	esp, 216				; 000000d8H
	cmp	ebp, esp
	call	__RTC_CheckEsp
	mov	esp, ebp
	pop	ebp
	ret	0
?RemoveAll@?$CSimpleArray@GV?$CSimpleArrayEqualHelper@G@ATL@@@ATL@@QAEXXZ ENDP ; ATL::CSimpleArray<unsigned short,ATL::CSimpleArrayEqualHelper<unsigned short> >::RemoveAll
_TEXT	ENDS
; Function compile flags: /Odsp /RTCsu /ZI
; File c:\program files (x86)\microsoft visual studio 12.0\vc\atlmfc\include\atlsimpcoll.h
;	COMDAT ?GetSize@?$CSimpleArray@GV?$CSimpleArrayEqualHelper@G@ATL@@@ATL@@QBEHXZ
_TEXT	SEGMENT
_this$ = -8						; size = 4
?GetSize@?$CSimpleArray@GV?$CSimpleArrayEqualHelper@G@ATL@@@ATL@@QBEHXZ PROC ; ATL::CSimpleArray<unsigned short,ATL::CSimpleArrayEqualHelper<unsigned short> >::GetSize, COMDAT
; _this$ = ecx

; 160  : 	{

	push	ebp
	mov	ebp, esp
	sub	esp, 204				; 000000ccH
	push	ebx
	push	esi
	push	edi
	push	ecx
	lea	edi, DWORD PTR [ebp-204]
	push	51					; 00000033H
	pop	ecx
	mov	eax, -858993460				; ccccccccH
	rep stosd
	pop	ecx
	mov	DWORD PTR _this$[ebp], ecx

; 161  : 		return m_nSize;

	mov	eax, DWORD PTR _this$[ebp]
	mov	eax, DWORD PTR [eax+4]

; 162  : 	}

	pop	edi
	pop	esi
	pop	ebx
	mov	esp, ebp
	pop	ebp
	ret	0
?GetSize@?$CSimpleArray@GV?$CSimpleArrayEqualHelper@G@ATL@@@ATL@@QBEHXZ ENDP ; ATL::CSimpleArray<unsigned short,ATL::CSimpleArrayEqualHelper<unsigned short> >::GetSize
_TEXT	ENDS
; Function compile flags: /Odsp /RTCsu /ZI
; File c:\program files (x86)\microsoft visual studio 12.0\vc\atlmfc\include\atlsimpcoll.h
;	COMDAT ??1?$CSimpleArray@GV?$CSimpleArrayEqualHelper@G@ATL@@@ATL@@QAE@XZ
_TEXT	SEGMENT
_this$ = -8						; size = 4
??1?$CSimpleArray@GV?$CSimpleArrayEqualHelper@G@ATL@@@ATL@@QAE@XZ PROC ; ATL::CSimpleArray<unsigned short,ATL::CSimpleArrayEqualHelper<unsigned short> >::~CSimpleArray<unsigned short,ATL::CSimpleArrayEqualHelper<unsigned short> >, COMDAT
; _this$ = ecx

; 303  : {

	push	ebp
	mov	ebp, esp
	sub	esp, 204				; 000000ccH
	push	ebx
	push	esi
	push	edi
	push	ecx
	lea	edi, DWORD PTR [ebp-204]
	push	51					; 00000033H
	pop	ecx
	mov	eax, -858993460				; ccccccccH
	rep stosd
	pop	ecx
	mov	DWORD PTR _this$[ebp], ecx

; 304  : 	RemoveAll();

	mov	ecx, DWORD PTR _this$[ebp]
	call	?RemoveAll@?$CSimpleArray@GV?$CSimpleArrayEqualHelper@G@ATL@@@ATL@@QAEXXZ ; ATL::CSimpleArray<unsigned short,ATL::CSimpleArrayEqualHelper<unsigned short> >::RemoveAll

; 305  : }

	pop	edi
	pop	esi
	pop	ebx
	add	esp, 204				; 000000ccH
	cmp	ebp, esp
	call	__RTC_CheckEsp
	mov	esp, ebp
	pop	ebp
	ret	0
??1?$CSimpleArray@GV?$CSimpleArrayEqualHelper@G@ATL@@@ATL@@QAE@XZ ENDP ; ATL::CSimpleArray<unsigned short,ATL::CSimpleArrayEqualHelper<unsigned short> >::~CSimpleArray<unsigned short,ATL::CSimpleArrayEqualHelper<unsigned short> >
_TEXT	ENDS
; Function compile flags: /Odsp /RTCsu /ZI
; File c:\program files (x86)\microsoft visual studio 12.0\vc\atlmfc\include\atlsimpcoll.h
;	COMDAT ??0?$CSimpleArray@GV?$CSimpleArrayEqualHelper@G@ATL@@@ATL@@QAE@XZ
_TEXT	SEGMENT
_this$ = -8						; size = 4
??0?$CSimpleArray@GV?$CSimpleArrayEqualHelper@G@ATL@@@ATL@@QAE@XZ PROC ; ATL::CSimpleArray<unsigned short,ATL::CSimpleArrayEqualHelper<unsigned short> >::CSimpleArray<unsigned short,ATL::CSimpleArrayEqualHelper<unsigned short> >, COMDAT
; _this$ = ecx

; 120  : 	{

	push	ebp
	mov	ebp, esp
	sub	esp, 204				; 000000ccH
	push	ebx
	push	esi
	push	edi
	push	ecx
	lea	edi, DWORD PTR [ebp-204]
	push	51					; 00000033H
	pop	ecx
	mov	eax, -858993460				; ccccccccH
	rep stosd
	pop	ecx
	mov	DWORD PTR _this$[ebp], ecx
	mov	eax, DWORD PTR _this$[ebp]
	and	DWORD PTR [eax], 0
	mov	eax, DWORD PTR _this$[ebp]
	and	DWORD PTR [eax+4], 0
	mov	eax, DWORD PTR _this$[ebp]
	and	DWORD PTR [eax+8], 0

; 121  : 	}

	mov	eax, DWORD PTR _this$[ebp]
	pop	edi
	pop	esi
	pop	ebx
	mov	esp, ebp
	pop	ebp
	ret	0
??0?$CSimpleArray@GV?$CSimpleArrayEqualHelper@G@ATL@@@ATL@@QAE@XZ ENDP ; ATL::CSimpleArray<unsigned short,ATL::CSimpleArrayEqualHelper<unsigned short> >::CSimpleArray<unsigned short,ATL::CSimpleArrayEqualHelper<unsigned short> >
_TEXT	ENDS
; Function compile flags: /Odsp /RTCsu /ZI
;	COMDAT ??1_ATL_COM_MODULE70@ATL@@QAE@XZ
_TEXT	SEGMENT
_this$ = -8						; size = 4
??1_ATL_COM_MODULE70@ATL@@QAE@XZ PROC			; ATL::_ATL_COM_MODULE70::~_ATL_COM_MODULE70, COMDAT
; _this$ = ecx
	push	ebp
	mov	ebp, esp
	sub	esp, 204				; 000000ccH
	push	ebx
	push	esi
	push	edi
	push	ecx
	lea	edi, DWORD PTR [ebp-204]
	push	51					; 00000033H
	pop	ecx
	mov	eax, -858993460				; ccccccccH
	rep stosd
	pop	ecx
	mov	DWORD PTR _this$[ebp], ecx
	mov	ecx, DWORD PTR _this$[ebp]
	add	ecx, 16					; 00000010H
	call	??1CComCriticalSection@ATL@@QAE@XZ	; ATL::CComCriticalSection::~CComCriticalSection
	pop	edi
	pop	esi
	pop	ebx
	add	esp, 204				; 000000ccH
	cmp	ebp, esp
	call	__RTC_CheckEsp
	mov	esp, ebp
	pop	ebp
	ret	0
??1_ATL_COM_MODULE70@ATL@@QAE@XZ ENDP			; ATL::_ATL_COM_MODULE70::~_ATL_COM_MODULE70
_TEXT	ENDS
; Function compile flags: /Odsp /RTCsu /ZI
;	COMDAT ??0_ATL_COM_MODULE70@ATL@@QAE@XZ
_TEXT	SEGMENT
_this$ = -8						; size = 4
??0_ATL_COM_MODULE70@ATL@@QAE@XZ PROC			; ATL::_ATL_COM_MODULE70::_ATL_COM_MODULE70, COMDAT
; _this$ = ecx
	push	ebp
	mov	ebp, esp
	sub	esp, 204				; 000000ccH
	push	ebx
	push	esi
	push	edi
	push	ecx
	lea	edi, DWORD PTR [ebp-204]
	push	51					; 00000033H
	pop	ecx
	mov	eax, -858993460				; ccccccccH
	rep stosd
	pop	ecx
	mov	DWORD PTR _this$[ebp], ecx
	mov	ecx, DWORD PTR _this$[ebp]
	add	ecx, 16					; 00000010H
	call	??0CComCriticalSection@ATL@@QAE@XZ	; ATL::CComCriticalSection::CComCriticalSection
	mov	eax, DWORD PTR _this$[ebp]
	pop	edi
	pop	esi
	pop	ebx
	add	esp, 204				; 000000ccH
	cmp	ebp, esp
	call	__RTC_CheckEsp
	mov	esp, ebp
	pop	ebp
	ret	0
??0_ATL_COM_MODULE70@ATL@@QAE@XZ ENDP			; ATL::_ATL_COM_MODULE70::_ATL_COM_MODULE70
_TEXT	ENDS
; Function compile flags: /Odsp /RTCsu /ZI
; File c:\program files (x86)\microsoft visual studio 12.0\vc\atlmfc\include\afx.inl
;	COMDAT ?_AfxInitManaged@@YAHXZ
_TEXT	SEGMENT
?_AfxInitManaged@@YAHXZ PROC				; _AfxInitManaged, COMDAT

; 76   : {

	push	ebp
	mov	ebp, esp
	sub	esp, 192				; 000000c0H
	push	ebx
	push	esi
	push	edi
	lea	edi, DWORD PTR [ebp-192]
	push	48					; 00000030H
	pop	ecx
	mov	eax, -858993460				; ccccccccH
	rep stosd

; 77   : 	return 0;

	xor	eax, eax

; 78   : }

	pop	edi
	pop	esi
	pop	ebx
	mov	esp, ebp
	pop	ebp
	ret	0
?_AfxInitManaged@@YAHXZ ENDP				; _AfxInitManaged
_TEXT	ENDS
; Function compile flags: /Odsp /RTCsu /ZI
; File c:\program files (x86)\microsoft visual studio 12.0\vc\atlmfc\include\atlsimpstr.h
;	COMDAT ?SetManager@CNilStringData@ATL@@QAEXPAUIAtlStringMgr@2@@Z
_TEXT	SEGMENT
_this$ = -8						; size = 4
_pMgr$ = 8						; size = 4
?SetManager@CNilStringData@ATL@@QAEXPAUIAtlStringMgr@2@@Z PROC ; ATL::CNilStringData::SetManager, COMDAT
; _this$ = ecx

; 123  : 	{

	push	ebp
	mov	ebp, esp
	sub	esp, 204				; 000000ccH
	push	ebx
	push	esi
	push	edi
	push	ecx
	lea	edi, DWORD PTR [ebp-204]
	push	51					; 00000033H
	pop	ecx
	mov	eax, -858993460				; ccccccccH
	rep stosd
	pop	ecx
	mov	DWORD PTR _this$[ebp], ecx

; 124  : 		ATLASSERT( pStringMgr == NULL );

	mov	eax, DWORD PTR _this$[ebp]
	cmp	DWORD PTR [eax], 0
	je	SHORT $LN3@SetManager
	mov	esi, esp
	push	OFFSET ??_C@_1CA@MEFFJNJ@?$AAp?$AAS?$AAt?$AAr?$AAi?$AAn?$AAg?$AAM?$AAg?$AAr?$AA?5?$AA?$DN?$AA?$DN?$AA?5?$AA0?$AA?$AA@
	push	OFFSET ??_C@_15GANGMFKL@?$AA?$CF?$AAs?$AA?$AA@
	push	0
	push	124					; 0000007cH
	push	OFFSET ??_C@_1KG@EPEOMBFC@?$AAc?$AA?3?$AA?2?$AAp?$AAr?$AAo?$AAg?$AAr?$AAa?$AAm?$AA?5?$AAf?$AAi?$AAl?$AAe?$AAs?$AA?5?$AA?$CI?$AAx?$AA8?$AA6?$AA?$CJ?$AA?2?$AAm?$AAi?$AAc?$AAr?$AAo?$AAs?$AAo?$AAf?$AAt@
	push	2
	call	DWORD PTR __imp___CrtDbgReportW
	add	esp, 24					; 00000018H
	cmp	esi, esp
	call	__RTC_CheckEsp
	cmp	eax, 1
	jne	SHORT $LN3@SetManager
	int	3
$LN3@SetManager:

; 125  : 		pStringMgr = pMgr;

	mov	eax, DWORD PTR _this$[ebp]
	mov	ecx, DWORD PTR _pMgr$[ebp]
	mov	DWORD PTR [eax], ecx

; 126  : 	}

	pop	edi
	pop	esi
	pop	ebx
	add	esp, 204				; 000000ccH
	cmp	ebp, esp
	call	__RTC_CheckEsp
	mov	esp, ebp
	pop	ebp
	ret	4
?SetManager@CNilStringData@ATL@@QAEXPAUIAtlStringMgr@2@@Z ENDP ; ATL::CNilStringData::SetManager
_TEXT	ENDS
; Function compile flags: /Odsp /RTCsu /ZI
; File c:\program files (x86)\microsoft visual studio 12.0\vc\atlmfc\include\atlsimpstr.h
;	COMDAT ??0CNilStringData@ATL@@QAE@XZ
_TEXT	SEGMENT
_this$ = -8						; size = 4
??0CNilStringData@ATL@@QAE@XZ PROC			; ATL::CNilStringData::CNilStringData, COMDAT
; _this$ = ecx

; 112  : 	CNilStringData() throw()

	push	ebp
	mov	ebp, esp
	sub	esp, 204				; 000000ccH
	push	ebx
	push	esi
	push	edi
	push	ecx
	lea	edi, DWORD PTR [ebp-204]
	push	51					; 00000033H
	pop	ecx
	mov	eax, -858993460				; ccccccccH
	rep stosd
	pop	ecx
	mov	DWORD PTR _this$[ebp], ecx

; 113  : 	{
; 114  : 		pStringMgr = NULL;

	mov	eax, DWORD PTR _this$[ebp]
	and	DWORD PTR [eax], 0

; 115  : 		nRefs = 2;  // Never gets freed by IAtlStringMgr

	mov	eax, DWORD PTR _this$[ebp]
	mov	DWORD PTR [eax+12], 2

; 116  : 		nDataLength = 0;

	mov	eax, DWORD PTR _this$[ebp]
	and	DWORD PTR [eax+4], 0

; 117  : 		nAllocLength = 0;

	mov	eax, DWORD PTR _this$[ebp]
	and	DWORD PTR [eax+8], 0

; 118  : 		achNil[0] = 0;

	push	2
	pop	eax
	imul	eax, eax, 0
	xor	ecx, ecx
	mov	edx, DWORD PTR _this$[ebp]
	mov	WORD PTR [edx+eax+16], cx

; 119  : 		achNil[1] = 0;

	push	2
	pop	eax
	shl	eax, 0
	xor	ecx, ecx
	mov	edx, DWORD PTR _this$[ebp]
	mov	WORD PTR [edx+eax+16], cx

; 120  : 	}

	mov	eax, DWORD PTR _this$[ebp]
	pop	edi
	pop	esi
	pop	ebx
	mov	esp, ebp
	pop	ebp
	ret	0
??0CNilStringData@ATL@@QAE@XZ ENDP			; ATL::CNilStringData::CNilStringData
_TEXT	ENDS
; Function compile flags: /Odsp /RTCsu /ZI
; File c:\program files (x86)\microsoft visual studio 12.0\vc\atlmfc\include\atlsimpstr.h
;	COMDAT ?AddRef@CStringData@ATL@@QAEXXZ
_TEXT	SEGMENT
_this$ = -8						; size = 4
?AddRef@CStringData@ATL@@QAEXXZ PROC			; ATL::CStringData::AddRef, COMDAT
; _this$ = ecx

; 63   : 	{

	push	ebp
	mov	ebp, esp
	sub	esp, 204				; 000000ccH
	push	ebx
	push	esi
	push	edi
	push	ecx
	lea	edi, DWORD PTR [ebp-204]
	push	51					; 00000033H
	pop	ecx
	mov	eax, -858993460				; ccccccccH
	rep stosd
	pop	ecx
	mov	DWORD PTR _this$[ebp], ecx

; 64   : 		ATLASSERT(nRefs > 0);

	mov	eax, DWORD PTR _this$[ebp]
	cmp	DWORD PTR [eax+12], 0
	jg	SHORT $LN3@AddRef
	mov	esi, esp
	push	OFFSET ??_C@_1BE@BLGCOAPB@?$AAn?$AAR?$AAe?$AAf?$AAs?$AA?5?$AA?$DO?$AA?5?$AA0?$AA?$AA@
	push	OFFSET ??_C@_15GANGMFKL@?$AA?$CF?$AAs?$AA?$AA@
	push	0
	push	64					; 00000040H
	push	OFFSET ??_C@_1KG@EPEOMBFC@?$AAc?$AA?3?$AA?2?$AAp?$AAr?$AAo?$AAg?$AAr?$AAa?$AAm?$AA?5?$AAf?$AAi?$AAl?$AAe?$AAs?$AA?5?$AA?$CI?$AAx?$AA8?$AA6?$AA?$CJ?$AA?2?$AAm?$AAi?$AAc?$AAr?$AAo?$AAs?$AAo?$AAf?$AAt@
	push	2
	call	DWORD PTR __imp___CrtDbgReportW
	add	esp, 24					; 00000018H
	cmp	esi, esp
	call	__RTC_CheckEsp
	cmp	eax, 1
	jne	SHORT $LN3@AddRef
	int	3
$LN3@AddRef:

; 65   : 		_InterlockedIncrement(&nRefs);

	mov	eax, DWORD PTR _this$[ebp]
	add	eax, 12					; 0000000cH
	xor	ecx, ecx
	inc	ecx
	lock	 xadd	 DWORD PTR [eax], ecx

; 66   : 	}

	pop	edi
	pop	esi
	pop	ebx
	add	esp, 204				; 000000ccH
	cmp	ebp, esp
	call	__RTC_CheckEsp
	mov	esp, ebp
	pop	ebp
	ret	0
?AddRef@CStringData@ATL@@QAEXXZ ENDP			; ATL::CStringData::AddRef
_TEXT	ENDS
; Function compile flags: /Odsp /RTCsu /ZI
; File c:\program files (x86)\microsoft visual studio 12.0\vc\atlmfc\include\atlalloc.h
;	COMDAT ??$AtlAdd@H@ATL@@YAJPAHHH@Z
_TEXT	SEGMENT
_ptResult$ = 8						; size = 4
_tLeft$ = 12						; size = 4
_tRight$ = 16						; size = 4
??$AtlAdd@H@ATL@@YAJPAHHH@Z PROC			; ATL::AtlAdd<int>, COMDAT

; 99   : {

	push	ebp
	mov	ebp, esp
	sub	esp, 192				; 000000c0H
	push	ebx
	push	esi
	push	edi
	lea	edi, DWORD PTR [ebp-192]
	push	48					; 00000030H
	pop	ecx
	mov	eax, -858993460				; ccccccccH
	rep stosd

; 100  : 	if(::ATL::AtlLimits<T>::_Max-tLeft < tRight)

	mov	eax, 2147483647				; 7fffffffH
	sub	eax, DWORD PTR _tLeft$[ebp]
	cmp	eax, DWORD PTR _tRight$[ebp]
	jge	SHORT $LN1@AtlAdd

; 101  : 	{
; 102  : 		return HRESULT_FROM_WIN32(ERROR_ARITHMETIC_OVERFLOW);

	push	534					; 00000216H
	call	_HRESULT_FROM_WIN32
	pop	ecx
	jmp	SHORT $LN2@AtlAdd
$LN1@AtlAdd:

; 103  : 	}
; 104  : 	*ptResult= tLeft + tRight;

	mov	eax, DWORD PTR _tLeft$[ebp]
	add	eax, DWORD PTR _tRight$[ebp]
	mov	ecx, DWORD PTR _ptResult$[ebp]
	mov	DWORD PTR [ecx], eax

; 105  : 	return S_OK;

	xor	eax, eax
$LN2@AtlAdd:

; 106  : }

	pop	edi
	pop	esi
	pop	ebx
	add	esp, 192				; 000000c0H
	cmp	ebp, esp
	call	__RTC_CheckEsp
	mov	esp, ebp
	pop	ebp
	ret	0
??$AtlAdd@H@ATL@@YAJPAHHH@Z ENDP			; ATL::AtlAdd<int>
_TEXT	ENDS
; Function compile flags: /Odsp /RTCsu /ZI
; File c:\program files (x86)\microsoft visual studio 12.0\vc\atlmfc\include\atlalloc.h
;	COMDAT ??$AtlAdd@I@ATL@@YAJPAIII@Z
_TEXT	SEGMENT
_ptResult$ = 8						; size = 4
_tLeft$ = 12						; size = 4
_tRight$ = 16						; size = 4
??$AtlAdd@I@ATL@@YAJPAIII@Z PROC			; ATL::AtlAdd<unsigned int>, COMDAT

; 99   : {

	push	ebp
	mov	ebp, esp
	sub	esp, 192				; 000000c0H
	push	ebx
	push	esi
	push	edi
	lea	edi, DWORD PTR [ebp-192]
	push	48					; 00000030H
	pop	ecx
	mov	eax, -858993460				; ccccccccH
	rep stosd

; 100  : 	if(::ATL::AtlLimits<T>::_Max-tLeft < tRight)

	or	eax, -1
	sub	eax, DWORD PTR _tLeft$[ebp]
	cmp	eax, DWORD PTR _tRight$[ebp]
	jae	SHORT $LN1@AtlAdd

; 101  : 	{
; 102  : 		return HRESULT_FROM_WIN32(ERROR_ARITHMETIC_OVERFLOW);

	push	534					; 00000216H
	call	_HRESULT_FROM_WIN32
	pop	ecx
	jmp	SHORT $LN2@AtlAdd
$LN1@AtlAdd:

; 103  : 	}
; 104  : 	*ptResult= tLeft + tRight;

	mov	eax, DWORD PTR _tLeft$[ebp]
	add	eax, DWORD PTR _tRight$[ebp]
	mov	ecx, DWORD PTR _ptResult$[ebp]
	mov	DWORD PTR [ecx], eax

; 105  : 	return S_OK;

	xor	eax, eax
$LN2@AtlAdd:

; 106  : }

	pop	edi
	pop	esi
	pop	ebx
	add	esp, 192				; 000000c0H
	cmp	ebp, esp
	call	__RTC_CheckEsp
	mov	esp, ebp
	pop	ebp
	ret	0
??$AtlAdd@I@ATL@@YAJPAIII@Z ENDP			; ATL::AtlAdd<unsigned int>
_TEXT	ENDS
; Function compile flags: /Odsp /RTCsu /ZI
;	COMDAT ??_GCWin32Heap@ATL@@UAEPAXI@Z
_TEXT	SEGMENT
_this$ = -8						; size = 4
___flags$ = 8						; size = 4
??_GCWin32Heap@ATL@@UAEPAXI@Z PROC			; ATL::CWin32Heap::`scalar deleting destructor', COMDAT
; _this$ = ecx
	push	ebp
	mov	ebp, esp
	sub	esp, 204				; 000000ccH
	push	ebx
	push	esi
	push	edi
	push	ecx
	lea	edi, DWORD PTR [ebp-204]
	push	51					; 00000033H
	pop	ecx
	mov	eax, -858993460				; ccccccccH
	rep stosd
	pop	ecx
	mov	DWORD PTR _this$[ebp], ecx
	mov	ecx, DWORD PTR _this$[ebp]
	call	??1CWin32Heap@ATL@@UAE@XZ		; ATL::CWin32Heap::~CWin32Heap
	mov	eax, DWORD PTR ___flags$[ebp]
	and	eax, 1
	je	SHORT $LN1@scalar
	push	DWORD PTR _this$[ebp]
	call	??3@YAXPAX@Z				; operator delete
	pop	ecx
$LN1@scalar:
	mov	eax, DWORD PTR _this$[ebp]
	pop	edi
	pop	esi
	pop	ebx
	add	esp, 204				; 000000ccH
	cmp	ebp, esp
	call	__RTC_CheckEsp
	mov	esp, ebp
	pop	ebp
	ret	4
??_GCWin32Heap@ATL@@UAEPAXI@Z ENDP			; ATL::CWin32Heap::`scalar deleting destructor'
_TEXT	ENDS
; Function compile flags: /Odsp /RTCsu /ZI
;	COMDAT ?__autoclassinit2@CWin32Heap@ATL@@QAEXI@Z
_TEXT	SEGMENT
_this$ = -8						; size = 4
_classSize$ = 8						; size = 4
?__autoclassinit2@CWin32Heap@ATL@@QAEXI@Z PROC		; ATL::CWin32Heap::__autoclassinit2, COMDAT
; _this$ = ecx
	push	ebp
	mov	ebp, esp
	sub	esp, 204				; 000000ccH
	push	ebx
	push	esi
	push	edi
	push	ecx
	lea	edi, DWORD PTR [ebp-204]
	push	51					; 00000033H
	pop	ecx
	mov	eax, -858993460				; ccccccccH
	rep stosd
	pop	ecx
	mov	DWORD PTR _this$[ebp], ecx
	push	DWORD PTR _classSize$[ebp]
	push	0
	push	DWORD PTR _this$[ebp]
	call	_memset
	add	esp, 12					; 0000000cH
	pop	edi
	pop	esi
	pop	ebx
	add	esp, 204				; 000000ccH
	cmp	ebp, esp
	call	__RTC_CheckEsp
	mov	esp, ebp
	pop	ebp
	ret	4
?__autoclassinit2@CWin32Heap@ATL@@QAEXI@Z ENDP		; ATL::CWin32Heap::__autoclassinit2
_TEXT	ENDS
; Function compile flags: /Odsp /RTCsu /ZI
; File c:\program files (x86)\microsoft visual studio 12.0\vc\atlmfc\include\atlmem.h
;	COMDAT ?GetSize@CWin32Heap@ATL@@UAEIPAX@Z
_TEXT	SEGMENT
_this$ = -8						; size = 4
_p$ = 8							; size = 4
?GetSize@CWin32Heap@ATL@@UAEIPAX@Z PROC			; ATL::CWin32Heap::GetSize, COMDAT
; _this$ = ecx

; 175  : 	{

	push	ebp
	mov	ebp, esp
	sub	esp, 204				; 000000ccH
	push	ebx
	push	esi
	push	edi
	push	ecx
	lea	edi, DWORD PTR [ebp-204]
	push	51					; 00000033H
	pop	ecx
	mov	eax, -858993460				; ccccccccH
	rep stosd
	pop	ecx
	mov	DWORD PTR _this$[ebp], ecx

; 176  : 		return( ::HeapSize( m_hHeap, 0, p ) );

	mov	esi, esp
	push	DWORD PTR _p$[ebp]
	push	0
	mov	eax, DWORD PTR _this$[ebp]
	push	DWORD PTR [eax+4]
	call	DWORD PTR __imp__HeapSize@12
	cmp	esi, esp
	call	__RTC_CheckEsp

; 177  : 	}

	pop	edi
	pop	esi
	pop	ebx
	add	esp, 204				; 000000ccH
	cmp	ebp, esp
	call	__RTC_CheckEsp
	mov	esp, ebp
	pop	ebp
	ret	4
?GetSize@CWin32Heap@ATL@@UAEIPAX@Z ENDP			; ATL::CWin32Heap::GetSize
_TEXT	ENDS
; Function compile flags: /Odsp /RTCsu /ZI
; File c:\program files (x86)\microsoft visual studio 12.0\vc\atlmfc\include\atlmem.h
;	COMDAT ?Reallocate@CWin32Heap@ATL@@UAEPAXPAXI@Z
_TEXT	SEGMENT
_this$ = -8						; size = 4
_p$ = 8							; size = 4
_nBytes$ = 12						; size = 4
?Reallocate@CWin32Heap@ATL@@UAEPAXPAXI@Z PROC		; ATL::CWin32Heap::Reallocate, COMDAT
; _this$ = ecx

; 160  : 	{

	push	ebp
	mov	ebp, esp
	sub	esp, 204				; 000000ccH
	push	ebx
	push	esi
	push	edi
	push	ecx
	lea	edi, DWORD PTR [ebp-204]
	push	51					; 00000033H
	pop	ecx
	mov	eax, -858993460				; ccccccccH
	rep stosd
	pop	ecx
	mov	DWORD PTR _this$[ebp], ecx

; 161  : 		if( p == NULL )

	cmp	DWORD PTR _p$[ebp], 0
	jne	SHORT $LN2@Reallocate

; 162  : 		{
; 163  : 			return( Allocate( nBytes ) );

	mov	esi, esp
	push	DWORD PTR _nBytes$[ebp]
	mov	eax, DWORD PTR _this$[ebp]
	mov	eax, DWORD PTR [eax]
	mov	ecx, DWORD PTR _this$[ebp]
	call	DWORD PTR [eax]
	cmp	esi, esp
	call	__RTC_CheckEsp
	jmp	SHORT $LN3@Reallocate
$LN2@Reallocate:

; 164  : 		}
; 165  : 
; 166  : 		if (nBytes==0)

	cmp	DWORD PTR _nBytes$[ebp], 0
	jne	SHORT $LN1@Reallocate

; 167  : 		{
; 168  : 			  Free(p);

	mov	esi, esp
	push	DWORD PTR _p$[ebp]
	mov	eax, DWORD PTR _this$[ebp]
	mov	eax, DWORD PTR [eax]
	mov	ecx, DWORD PTR _this$[ebp]
	call	DWORD PTR [eax+4]
	cmp	esi, esp
	call	__RTC_CheckEsp

; 169  : 			  return NULL;

	xor	eax, eax
	jmp	SHORT $LN3@Reallocate
$LN1@Reallocate:

; 170  : 		}
; 171  : 
; 172  : 		return( ::HeapReAlloc( m_hHeap, 0, p, nBytes ) );

	mov	esi, esp
	push	DWORD PTR _nBytes$[ebp]
	push	DWORD PTR _p$[ebp]
	push	0
	mov	eax, DWORD PTR _this$[ebp]
	push	DWORD PTR [eax+4]
	call	DWORD PTR __imp__HeapReAlloc@16
	cmp	esi, esp
	call	__RTC_CheckEsp
$LN3@Reallocate:

; 173  : 	}

	pop	edi
	pop	esi
	pop	ebx
	add	esp, 204				; 000000ccH
	cmp	ebp, esp
	call	__RTC_CheckEsp
	mov	esp, ebp
	pop	ebp
	ret	8
?Reallocate@CWin32Heap@ATL@@UAEPAXPAXI@Z ENDP		; ATL::CWin32Heap::Reallocate
_TEXT	ENDS
; Function compile flags: /Odsp /RTCsu /ZI
; File c:\program files (x86)\microsoft visual studio 12.0\vc\atlmfc\include\atlmem.h
;	COMDAT ?Free@CWin32Heap@ATL@@UAEXPAX@Z
_TEXT	SEGMENT
_bSuccess$1 = -20					; size = 4
_this$ = -8						; size = 4
_p$ = 8							; size = 4
?Free@CWin32Heap@ATL@@UAEXPAX@Z PROC			; ATL::CWin32Heap::Free, COMDAT
; _this$ = ecx

; 148  : 	{

	push	ebp
	mov	ebp, esp
	sub	esp, 216				; 000000d8H
	push	ebx
	push	esi
	push	edi
	push	ecx
	lea	edi, DWORD PTR [ebp-216]
	push	54					; 00000036H
	pop	ecx
	mov	eax, -858993460				; ccccccccH
	rep stosd
	pop	ecx
	mov	DWORD PTR _this$[ebp], ecx

; 149  : 		if( p != NULL )

	cmp	DWORD PTR _p$[ebp], 0
	je	SHORT $LN2@Free

; 150  : 		{
; 151  : 			BOOL bSuccess;
; 152  : 
; 153  : 			bSuccess = ::HeapFree( m_hHeap, 0, p );

	mov	esi, esp
	push	DWORD PTR _p$[ebp]
	push	0
	mov	eax, DWORD PTR _this$[ebp]
	push	DWORD PTR [eax+4]
	call	DWORD PTR __imp__HeapFree@12
	cmp	esi, esp
	call	__RTC_CheckEsp
	mov	DWORD PTR _bSuccess$1[ebp], eax

; 154  : 			ATLASSERT( bSuccess );

	cmp	DWORD PTR _bSuccess$1[ebp], 0
	jne	SHORT $LN2@Free
	mov	esi, esp
	push	OFFSET ??_C@_1BC@PMINONJG@?$AAb?$AAS?$AAu?$AAc?$AAc?$AAe?$AAs?$AAs?$AA?$AA@
	push	OFFSET ??_C@_15GANGMFKL@?$AA?$CF?$AAs?$AA?$AA@
	push	0
	push	154					; 0000009aH
	push	OFFSET ??_C@_1JO@MBMIIMDH@?$AAc?$AA?3?$AA?2?$AAp?$AAr?$AAo?$AAg?$AAr?$AAa?$AAm?$AA?5?$AAf?$AAi?$AAl?$AAe?$AAs?$AA?5?$AA?$CI?$AAx?$AA8?$AA6?$AA?$CJ?$AA?2?$AAm?$AAi?$AAc?$AAr?$AAo?$AAs?$AAo?$AAf?$AAt@
	push	2
	call	DWORD PTR __imp___CrtDbgReportW
	add	esp, 24					; 00000018H
	cmp	esi, esp
	call	__RTC_CheckEsp
	cmp	eax, 1
	jne	SHORT $LN2@Free
	int	3
$LN2@Free:

; 155  : 		}
; 156  : 	}

	pop	edi
	pop	esi
	pop	ebx
	add	esp, 216				; 000000d8H
	cmp	ebp, esp
	call	__RTC_CheckEsp
	mov	esp, ebp
	pop	ebp
	ret	4
?Free@CWin32Heap@ATL@@UAEXPAX@Z ENDP			; ATL::CWin32Heap::Free
_TEXT	ENDS
; Function compile flags: /Odsp /RTCsu /ZI
; File c:\program files (x86)\microsoft visual studio 12.0\vc\atlmfc\include\atlmem.h
;	COMDAT ?Allocate@CWin32Heap@ATL@@UAEPAXI@Z
_TEXT	SEGMENT
_this$ = -8						; size = 4
_nBytes$ = 8						; size = 4
?Allocate@CWin32Heap@ATL@@UAEPAXI@Z PROC		; ATL::CWin32Heap::Allocate, COMDAT
; _this$ = ecx

; 144  : 	{

	push	ebp
	mov	ebp, esp
	sub	esp, 204				; 000000ccH
	push	ebx
	push	esi
	push	edi
	push	ecx
	lea	edi, DWORD PTR [ebp-204]
	push	51					; 00000033H
	pop	ecx
	mov	eax, -858993460				; ccccccccH
	rep stosd
	pop	ecx
	mov	DWORD PTR _this$[ebp], ecx

; 145  : 		return( ::HeapAlloc( m_hHeap, 0, nBytes ) );

	mov	esi, esp
	push	DWORD PTR _nBytes$[ebp]
	push	0
	mov	eax, DWORD PTR _this$[ebp]
	push	DWORD PTR [eax+4]
	call	DWORD PTR __imp__HeapAlloc@12
	cmp	esi, esp
	call	__RTC_CheckEsp

; 146  : 	}

	pop	edi
	pop	esi
	pop	ebx
	add	esp, 204				; 000000ccH
	cmp	ebp, esp
	call	__RTC_CheckEsp
	mov	esp, ebp
	pop	ebp
	ret	4
?Allocate@CWin32Heap@ATL@@UAEPAXI@Z ENDP		; ATL::CWin32Heap::Allocate
_TEXT	ENDS
; Function compile flags: /Odsp /RTCsu /ZI
; File c:\program files (x86)\microsoft visual studio 12.0\vc\atlmfc\include\atlmem.h
;	COMDAT ??1CWin32Heap@ATL@@UAE@XZ
_TEXT	SEGMENT
_bSuccess$1 = -20					; size = 4
_this$ = -8						; size = 4
??1CWin32Heap@ATL@@UAE@XZ PROC				; ATL::CWin32Heap::~CWin32Heap, COMDAT
; _this$ = ecx

; 109  : 	{

	push	ebp
	mov	ebp, esp
	sub	esp, 216				; 000000d8H
	push	ebx
	push	esi
	push	edi
	push	ecx
	lea	edi, DWORD PTR [ebp-216]
	push	54					; 00000036H
	pop	ecx
	mov	eax, -858993460				; ccccccccH
	rep stosd
	pop	ecx
	mov	DWORD PTR _this$[ebp], ecx
	mov	eax, DWORD PTR _this$[ebp]
	mov	DWORD PTR [eax], OFFSET ??_7CWin32Heap@ATL@@6B@

; 110  : #ifdef _ATL_USE_WINAPI_FAMILY_DESKTOP_APP
; 111  : 		if( m_bOwnHeap && (m_hHeap != NULL) )

	mov	eax, DWORD PTR _this$[ebp]
	movzx	eax, BYTE PTR [eax+8]
	test	eax, eax
	je	SHORT $LN2@CWin32Heap
	mov	eax, DWORD PTR _this$[ebp]
	cmp	DWORD PTR [eax+4], 0
	je	SHORT $LN2@CWin32Heap

; 112  : 		{
; 113  : 			BOOL bSuccess;
; 114  : 
; 115  : 			bSuccess = ::HeapDestroy( m_hHeap );

	mov	esi, esp
	mov	eax, DWORD PTR _this$[ebp]
	push	DWORD PTR [eax+4]
	call	DWORD PTR __imp__HeapDestroy@4
	cmp	esi, esp
	call	__RTC_CheckEsp
	mov	DWORD PTR _bSuccess$1[ebp], eax

; 116  : 			ATLASSERT( bSuccess );

	cmp	DWORD PTR _bSuccess$1[ebp], 0
	jne	SHORT $LN2@CWin32Heap
	mov	esi, esp
	push	OFFSET ??_C@_1BC@PMINONJG@?$AAb?$AAS?$AAu?$AAc?$AAc?$AAe?$AAs?$AAs?$AA?$AA@
	push	OFFSET ??_C@_15GANGMFKL@?$AA?$CF?$AAs?$AA?$AA@
	push	0
	push	116					; 00000074H
	push	OFFSET ??_C@_1JO@MBMIIMDH@?$AAc?$AA?3?$AA?2?$AAp?$AAr?$AAo?$AAg?$AAr?$AAa?$AAm?$AA?5?$AAf?$AAi?$AAl?$AAe?$AAs?$AA?5?$AA?$CI?$AAx?$AA8?$AA6?$AA?$CJ?$AA?2?$AAm?$AAi?$AAc?$AAr?$AAo?$AAs?$AAo?$AAf?$AAt@
	push	2
	call	DWORD PTR __imp___CrtDbgReportW
	add	esp, 24					; 00000018H
	cmp	esi, esp
	call	__RTC_CheckEsp
	cmp	eax, 1
	jne	SHORT $LN2@CWin32Heap
	int	3
$LN2@CWin32Heap:

; 117  : 		}
; 118  : #endif
; 119  : 	}

	pop	edi
	pop	esi
	pop	ebx
	add	esp, 216				; 000000d8H
	cmp	ebp, esp
	call	__RTC_CheckEsp
	mov	esp, ebp
	pop	ebp
	ret	0
??1CWin32Heap@ATL@@UAE@XZ ENDP				; ATL::CWin32Heap::~CWin32Heap
_TEXT	ENDS
; Function compile flags: /Odsp /RTCsu /ZI
; File c:\program files (x86)\microsoft visual studio 12.0\vc\atlmfc\include\atlmem.h
;	COMDAT ??0CWin32Heap@ATL@@QAE@PAX@Z
_TEXT	SEGMENT
_this$ = -8						; size = 4
_hHeap$ = 8						; size = 4
??0CWin32Heap@ATL@@QAE@PAX@Z PROC			; ATL::CWin32Heap::CWin32Heap, COMDAT
; _this$ = ecx

; 89   : 	{

	push	ebp
	mov	ebp, esp
	sub	esp, 204				; 000000ccH
	push	ebx
	push	esi
	push	edi
	push	ecx
	lea	edi, DWORD PTR [ebp-204]
	push	51					; 00000033H
	pop	ecx
	mov	eax, -858993460				; ccccccccH
	rep stosd
	pop	ecx
	mov	DWORD PTR _this$[ebp], ecx
	mov	eax, DWORD PTR _this$[ebp]
	mov	DWORD PTR [eax], OFFSET ??_7CWin32Heap@ATL@@6B@
	mov	eax, DWORD PTR _this$[ebp]
	mov	ecx, DWORD PTR _hHeap$[ebp]
	mov	DWORD PTR [eax+4], ecx
	mov	eax, DWORD PTR _this$[ebp]
	mov	BYTE PTR [eax+8], 0

; 90   : 		ATLASSERT( hHeap != NULL );

	cmp	DWORD PTR _hHeap$[ebp], 0
	jne	SHORT $LN1@CWin32Heap
	mov	esi, esp
	push	OFFSET ??_C@_1BG@CLPBKBHG@?$AAh?$AAH?$AAe?$AAa?$AAp?$AA?5?$AA?$CB?$AA?$DN?$AA?5?$AA0?$AA?$AA@
	push	OFFSET ??_C@_15GANGMFKL@?$AA?$CF?$AAs?$AA?$AA@
	push	0
	push	90					; 0000005aH
	push	OFFSET ??_C@_1JO@MBMIIMDH@?$AAc?$AA?3?$AA?2?$AAp?$AAr?$AAo?$AAg?$AAr?$AAa?$AAm?$AA?5?$AAf?$AAi?$AAl?$AAe?$AAs?$AA?5?$AA?$CI?$AAx?$AA8?$AA6?$AA?$CJ?$AA?2?$AAm?$AAi?$AAc?$AAr?$AAo?$AAs?$AAo?$AAf?$AAt@
	push	2
	call	DWORD PTR __imp___CrtDbgReportW
	add	esp, 24					; 00000018H
	cmp	esi, esp
	call	__RTC_CheckEsp
	cmp	eax, 1
	jne	SHORT $LN1@CWin32Heap
	int	3
$LN1@CWin32Heap:

; 91   : 	}

	mov	eax, DWORD PTR _this$[ebp]
	pop	edi
	pop	esi
	pop	ebx
	add	esp, 204				; 000000ccH
	cmp	ebp, esp
	call	__RTC_CheckEsp
	mov	esp, ebp
	pop	ebp
	ret	4
??0CWin32Heap@ATL@@QAE@PAX@Z ENDP			; ATL::CWin32Heap::CWin32Heap
_TEXT	ENDS
; Function compile flags: /Odsp /RTCsu /ZI
; File c:\program files (x86)\microsoft visual studio 12.0\vc\atlmfc\include\atlcore.h
;	COMDAT ?GetModuleInstance@CAtlBaseModule@ATL@@QAEPAUHINSTANCE__@@XZ
_TEXT	SEGMENT
_this$ = -8						; size = 4
?GetModuleInstance@CAtlBaseModule@ATL@@QAEPAUHINSTANCE__@@XZ PROC ; ATL::CAtlBaseModule::GetModuleInstance, COMDAT
; _this$ = ecx

; 271  : 	{

	push	ebp
	mov	ebp, esp
	sub	esp, 204				; 000000ccH
	push	ebx
	push	esi
	push	edi
	push	ecx
	lea	edi, DWORD PTR [ebp-204]
	push	51					; 00000033H
	pop	ecx
	mov	eax, -858993460				; ccccccccH
	rep stosd
	pop	ecx
	mov	DWORD PTR _this$[ebp], ecx

; 272  : 		return m_hInst;

	mov	eax, DWORD PTR _this$[ebp]
	mov	eax, DWORD PTR [eax+4]

; 273  : 	}

	pop	edi
	pop	esi
	pop	ebx
	mov	esp, ebp
	pop	ebp
	ret	0
?GetModuleInstance@CAtlBaseModule@ATL@@QAEPAUHINSTANCE__@@XZ ENDP ; ATL::CAtlBaseModule::GetModuleInstance
_TEXT	ENDS
; Function compile flags: /Odsp /RTCsu /ZI
; File c:\program files (x86)\microsoft visual studio 12.0\vc\atlmfc\include\atlcore.h
;	COMDAT ?Term@CComCriticalSection@ATL@@QAEJXZ
_TEXT	SEGMENT
_this$ = -8						; size = 4
?Term@CComCriticalSection@ATL@@QAEJXZ PROC		; ATL::CComCriticalSection::Term, COMDAT
; _this$ = ecx

; 136  : 	{

	push	ebp
	mov	ebp, esp
	sub	esp, 204				; 000000ccH
	push	ebx
	push	esi
	push	edi
	push	ecx
	lea	edi, DWORD PTR [ebp-204]
	push	51					; 00000033H
	pop	ecx
	mov	eax, -858993460				; ccccccccH
	rep stosd
	pop	ecx
	mov	DWORD PTR _this$[ebp], ecx

; 137  : 		DeleteCriticalSection(&m_sec);

	mov	esi, esp
	push	DWORD PTR _this$[ebp]
	call	DWORD PTR __imp__DeleteCriticalSection@4
	cmp	esi, esp
	call	__RTC_CheckEsp

; 138  : 		return S_OK;

	xor	eax, eax

; 139  : 	}

	pop	edi
	pop	esi
	pop	ebx
	add	esp, 204				; 000000ccH
	cmp	ebp, esp
	call	__RTC_CheckEsp
	mov	esp, ebp
	pop	ebp
	ret	0
?Term@CComCriticalSection@ATL@@QAEJXZ ENDP		; ATL::CComCriticalSection::Term
_TEXT	ENDS
; Function compile flags: /Odsp /RTCsu /ZI
; File c:\program files (x86)\microsoft visual studio 12.0\vc\atlmfc\include\atlcore.h
;	COMDAT ?Init@CComCriticalSection@ATL@@QAEJXZ
_TEXT	SEGMENT
_hRes$ = -20						; size = 4
_this$ = -8						; size = 4
?Init@CComCriticalSection@ATL@@QAEJXZ PROC		; ATL::CComCriticalSection::Init, COMDAT
; _this$ = ecx

; 125  : 	{

	push	ebp
	mov	ebp, esp
	sub	esp, 216				; 000000d8H
	push	ebx
	push	esi
	push	edi
	push	ecx
	lea	edi, DWORD PTR [ebp-216]
	push	54					; 00000036H
	pop	ecx
	mov	eax, -858993460				; ccccccccH
	rep stosd
	pop	ecx
	mov	DWORD PTR _this$[ebp], ecx

; 126  : 		HRESULT hRes = S_OK;

	and	DWORD PTR _hRes$[ebp], 0

; 127  : 		if (!_AtlInitializeCriticalSectionEx(&m_sec, 0, 0))

	push	0
	push	0
	push	DWORD PTR _this$[ebp]
	call	?_AtlInitializeCriticalSectionEx@ATL@@YAHPAU_RTL_CRITICAL_SECTION@@KK@Z ; ATL::_AtlInitializeCriticalSectionEx
	add	esp, 12					; 0000000cH
	test	eax, eax
	jne	SHORT $LN1@Init

; 128  : 		{
; 129  : 			hRes = HRESULT_FROM_WIN32(GetLastError());

	mov	esi, esp
	call	DWORD PTR __imp__GetLastError@0
	cmp	esi, esp
	call	__RTC_CheckEsp
	push	eax
	call	_HRESULT_FROM_WIN32
	pop	ecx
	mov	DWORD PTR _hRes$[ebp], eax
$LN1@Init:

; 130  : 		}
; 131  : 
; 132  : 		return hRes;

	mov	eax, DWORD PTR _hRes$[ebp]

; 133  : 	}

	pop	edi
	pop	esi
	pop	ebx
	add	esp, 216				; 000000d8H
	cmp	ebp, esp
	call	__RTC_CheckEsp
	mov	esp, ebp
	pop	ebp
	ret	0
?Init@CComCriticalSection@ATL@@QAEJXZ ENDP		; ATL::CComCriticalSection::Init
_TEXT	ENDS
; Function compile flags: /Odsp /RTCsu /ZI
; File c:\program files (x86)\microsoft visual studio 12.0\vc\atlmfc\include\atlcore.h
;	COMDAT ??1CComCriticalSection@ATL@@QAE@XZ
_TEXT	SEGMENT
_this$ = -8						; size = 4
??1CComCriticalSection@ATL@@QAE@XZ PROC			; ATL::CComCriticalSection::~CComCriticalSection, COMDAT
; _this$ = ecx

; 111  : 	{

	push	ebp
	mov	ebp, esp
	sub	esp, 204				; 000000ccH
	push	ebx
	push	esi
	push	edi
	push	ecx
	lea	edi, DWORD PTR [ebp-204]
	push	51					; 00000033H
	pop	ecx
	mov	eax, -858993460				; ccccccccH
	rep stosd
	pop	ecx
	mov	DWORD PTR _this$[ebp], ecx

; 112  : 	}

	pop	edi
	pop	esi
	pop	ebx
	mov	esp, ebp
	pop	ebp
	ret	0
??1CComCriticalSection@ATL@@QAE@XZ ENDP			; ATL::CComCriticalSection::~CComCriticalSection
_TEXT	ENDS
; Function compile flags: /Odsp /RTCsu /ZI
; File c:\program files (x86)\microsoft visual studio 12.0\vc\atlmfc\include\atlcore.h
;	COMDAT ??0CComCriticalSection@ATL@@QAE@XZ
_TEXT	SEGMENT
_this$ = -8						; size = 4
??0CComCriticalSection@ATL@@QAE@XZ PROC			; ATL::CComCriticalSection::CComCriticalSection, COMDAT
; _this$ = ecx

; 105  : 	CComCriticalSection() throw()

	push	ebp
	mov	ebp, esp
	sub	esp, 204				; 000000ccH
	push	ebx
	push	esi
	push	edi
	push	ecx
	lea	edi, DWORD PTR [ebp-204]
	push	51					; 00000033H
	pop	ecx
	mov	eax, -858993460				; ccccccccH
	rep stosd
	pop	ecx
	mov	DWORD PTR _this$[ebp], ecx

; 106  : 	{
; 107  : 		memset(&m_sec, 0, sizeof(CRITICAL_SECTION));

	push	24					; 00000018H
	push	0
	push	DWORD PTR _this$[ebp]
	call	_memset
	add	esp, 12					; 0000000cH

; 108  : 	}

	mov	eax, DWORD PTR _this$[ebp]
	pop	edi
	pop	esi
	pop	ebx
	add	esp, 204				; 000000ccH
	cmp	ebp, esp
	call	__RTC_CheckEsp
	mov	esp, ebp
	pop	ebp
	ret	0
??0CComCriticalSection@ATL@@QAE@XZ ENDP			; ATL::CComCriticalSection::CComCriticalSection
_TEXT	ENDS
; Function compile flags: /Odsp /RTCsu /ZI
; File c:\program files (x86)\microsoft visual studio 12.0\vc\atlmfc\include\atlwinverapi.h
;	COMDAT ?_AtlInitializeCriticalSectionEx@ATL@@YAHPAU_RTL_CRITICAL_SECTION@@KK@Z
_TEXT	SEGMENT
_lpCriticalSection$ = 8					; size = 4
_dwSpinCount$ = 12					; size = 4
_Flags$ = 16						; size = 4
?_AtlInitializeCriticalSectionEx@ATL@@YAHPAU_RTL_CRITICAL_SECTION@@KK@Z PROC ; ATL::_AtlInitializeCriticalSectionEx, COMDAT

; 69   : 	{

	push	ebp
	mov	ebp, esp
	sub	esp, 192				; 000000c0H
	push	ebx
	push	esi
	push	edi
	lea	edi, DWORD PTR [ebp-192]
	push	48					; 00000030H
	pop	ecx
	mov	eax, -858993460				; ccccccccH
	rep stosd

; 70   : 	#if (NTDDI_VERSION >= NTDDI_VISTA) && !defined(_USING_V110_SDK71_) && !defined(_ATL_XP_TARGETING)
; 71   : 		// InitializeCriticalSectionEx is available in Vista or later, desktop or store apps
; 72   : 		return ::InitializeCriticalSectionEx(lpCriticalSection, dwSpinCount, Flags);

	mov	esi, esp
	push	DWORD PTR _Flags$[ebp]
	push	DWORD PTR _dwSpinCount$[ebp]
	push	DWORD PTR _lpCriticalSection$[ebp]
	call	DWORD PTR __imp__InitializeCriticalSectionEx@12
	cmp	esi, esp
	call	__RTC_CheckEsp

; 73   : 	#else
; 74   : 		UNREFERENCED_PARAMETER(Flags);
; 75   : 
; 76   : 		// ...otherwise fall back to using InitializeCriticalSectionAndSpinCount.
; 77   : 		return ::InitializeCriticalSectionAndSpinCount(lpCriticalSection, dwSpinCount);
; 78   : 	#endif
; 79   : 	}

	pop	edi
	pop	esi
	pop	ebx
	add	esp, 192				; 000000c0H
	cmp	ebp, esp
	call	__RTC_CheckEsp
	mov	esp, ebp
	pop	ebp
	ret	0
?_AtlInitializeCriticalSectionEx@ATL@@YAHPAU_RTL_CRITICAL_SECTION@@KK@Z ENDP ; ATL::_AtlInitializeCriticalSectionEx
_TEXT	ENDS
; Function compile flags: /Odsp /RTCsu /ZI
; File c:\program files (x86)\microsoft visual studio 12.0\vc\atlmfc\include\atlexcept.h
;	COMDAT ?_AtlRaiseException@ATL@@YAXKK@Z
_TEXT	SEGMENT
_dwExceptionCode$ = 8					; size = 4
_dwExceptionFlags$ = 12					; size = 4
?_AtlRaiseException@ATL@@YAXKK@Z PROC			; ATL::_AtlRaiseException, COMDAT

; 30   : {

	push	ebp
	mov	ebp, esp
	sub	esp, 192				; 000000c0H
	push	ebx
	push	esi
	push	edi
	lea	edi, DWORD PTR [ebp-192]
	push	48					; 00000030H
	pop	ecx
	mov	eax, -858993460				; ccccccccH
	rep stosd

; 31   : 	RaiseException( dwExceptionCode, dwExceptionFlags, 0, NULL );

	mov	esi, esp
	push	0
	push	0
	push	DWORD PTR _dwExceptionFlags$[ebp]
	push	DWORD PTR _dwExceptionCode$[ebp]
	call	DWORD PTR __imp__RaiseException@16
	cmp	esi, esp
	call	__RTC_CheckEsp

; 32   : }

	pop	edi
	pop	esi
	pop	ebx
	add	esp, 192				; 000000c0H
	cmp	ebp, esp
	call	__RTC_CheckEsp
	mov	esp, ebp
	pop	ebp
	ret	0
?_AtlRaiseException@ATL@@YAXKK@Z ENDP			; ATL::_AtlRaiseException
_TEXT	ENDS
; Function compile flags: /Odsp /RTCsu /ZI
; File c:\program files (x86)\microsoft visual studio 12.0\vc\atlmfc\include\atltrace.h
;	COMDAT ??RCTraceFileAndLineInfo@ATL@@QBAXHIPB_WZZ
_TEXT	SEGMENT
_ptr$ = -8						; size = 4
_this$ = 8						; size = 4
_dwCategory$ = 12					; size = 4
_nLevel$ = 16						; size = 4
_pszFmt$ = 20						; size = 4
??RCTraceFileAndLineInfo@ATL@@QBAXHIPB_WZZ PROC		; ATL::CTraceFileAndLineInfo::operator(), COMDAT

; 347  : 	{

	push	ebp
	mov	ebp, esp
	sub	esp, 204				; 000000ccH
	push	ebx
	push	esi
	push	edi
	lea	edi, DWORD PTR [ebp-204]
	push	51					; 00000033H
	pop	ecx
	mov	eax, -858993460				; ccccccccH
	rep stosd

; 348  : 		va_list ptr; va_start(ptr, pszFmt);

	lea	eax, DWORD PTR _pszFmt$[ebp+4]
	mov	DWORD PTR _ptr$[ebp], eax

; 349  : 		ATL::CTrace::TraceV(m_pszFileName, m_nLineNo, dwCategory, nLevel, pszFmt, ptr);

	push	DWORD PTR _ptr$[ebp]
	push	DWORD PTR _pszFmt$[ebp]
	push	DWORD PTR _nLevel$[ebp]
	push	DWORD PTR _dwCategory$[ebp]
	mov	eax, DWORD PTR _this$[ebp]
	push	DWORD PTR [eax+4]
	mov	eax, DWORD PTR _this$[ebp]
	push	DWORD PTR [eax]
	call	?TraceV@CTrace@ATL@@SAXPBDHIIPB_WPAD@Z	; ATL::CTrace::TraceV
	add	esp, 24					; 00000018H

; 350  : 		va_end(ptr);

	and	DWORD PTR _ptr$[ebp], 0

; 351  : 	}

	pop	edi
	pop	esi
	pop	ebx
	add	esp, 204				; 000000ccH
	cmp	ebp, esp
	call	__RTC_CheckEsp
	mov	esp, ebp
	pop	ebp
	ret	0
??RCTraceFileAndLineInfo@ATL@@QBAXHIPB_WZZ ENDP		; ATL::CTraceFileAndLineInfo::operator()
_TEXT	ENDS
; Function compile flags: /Odsp /RTCsu /ZI
; File c:\program files (x86)\microsoft visual studio 12.0\vc\atlmfc\include\atltrace.h
;	COMDAT ??0CTraceFileAndLineInfo@ATL@@QAE@PBDH@Z
_TEXT	SEGMENT
_this$ = -8						; size = 4
_pszFileName$ = 8					; size = 4
_nLineNo$ = 12						; size = 4
??0CTraceFileAndLineInfo@ATL@@QAE@PBDH@Z PROC		; ATL::CTraceFileAndLineInfo::CTraceFileAndLineInfo, COMDAT
; _this$ = ecx

; 323  : 	{

	push	ebp
	mov	ebp, esp
	sub	esp, 204				; 000000ccH
	push	ebx
	push	esi
	push	edi
	push	ecx
	lea	edi, DWORD PTR [ebp-204]
	push	51					; 00000033H
	pop	ecx
	mov	eax, -858993460				; ccccccccH
	rep stosd
	pop	ecx
	mov	DWORD PTR _this$[ebp], ecx
	mov	eax, DWORD PTR _this$[ebp]
	mov	ecx, DWORD PTR _pszFileName$[ebp]
	mov	DWORD PTR [eax], ecx
	mov	eax, DWORD PTR _this$[ebp]
	mov	ecx, DWORD PTR _nLineNo$[ebp]
	mov	DWORD PTR [eax+4], ecx

; 324  : 	}

	mov	eax, DWORD PTR _this$[ebp]
	pop	edi
	pop	esi
	pop	ebx
	mov	esp, ebp
	pop	ebp
	ret	8
??0CTraceFileAndLineInfo@ATL@@QAE@PBDH@Z ENDP		; ATL::CTraceFileAndLineInfo::CTraceFileAndLineInfo
_TEXT	ENDS
; Function compile flags: /Odsp /RTCsu /ZI
; File c:\program files (x86)\microsoft visual studio 12.0\vc\atlmfc\include\atltrace.h
;	COMDAT ?RegisterCategory@CTrace@ATL@@SAXPB_WI@Z
_TEXT	SEGMENT
_pszCategory$ = 8					; size = 4
_nCategory$ = 12					; size = 4
?RegisterCategory@CTrace@ATL@@SAXPB_WI@Z PROC		; ATL::CTrace::RegisterCategory, COMDAT

; 262  : 	{

	push	ebp
	mov	ebp, esp
	sub	esp, 192				; 000000c0H
	push	ebx
	push	esi
	push	edi
	lea	edi, DWORD PTR [ebp-192]
	push	48					; 00000030H
	pop	ecx
	mov	eax, -858993460				; ccccccccH
	rep stosd

; 263  : 		if (pszCategory == nullptr)

	cmp	DWORD PTR _pszCategory$[ebp], 0
	jne	SHORT $LN2@RegisterCa

; 264  : 		{
; 265  : 			return;

	jmp	$LN3@RegisterCa
$LN2@RegisterCa:

; 266  : 		}
; 267  : 
; 268  : 		if (m_nLastCategory >= MaxCategoryArray) 

	cmp	DWORD PTR ?m_nLastCategory@CTrace@ATL@@1IA, 32 ; ATL::CTrace::m_nLastCategory, 00000020H
	jb	SHORT $LN1@RegisterCa

; 269  : 		{
; 270  : 			ATLASSERT(false && "Too many categories defined");

	xor	eax, eax
	jne	SHORT $LN5@RegisterCa
	mov	esi, esp
	push	OFFSET ??_C@_1EO@EBPPKGOM@?$AAf?$AAa?$AAl?$AAs?$AAe?$AA?5?$AA?$CG?$AA?$CG?$AA?5?$AA?$CC?$AAT?$AAo?$AAo?$AA?5?$AAm?$AAa?$AAn?$AAy?$AA?5?$AAc?$AAa?$AAt?$AAe?$AAg?$AAo?$AAr?$AAi?$AAe?$AAs?$AA?5?$AAd?$AAe@
	push	OFFSET ??_C@_15GANGMFKL@?$AA?$CF?$AAs?$AA?$AA@
	push	0
	push	270					; 0000010eH
	push	OFFSET ??_C@_1KC@GEMPEEJK@?$AAc?$AA?3?$AA?2?$AAp?$AAr?$AAo?$AAg?$AAr?$AAa?$AAm?$AA?5?$AAf?$AAi?$AAl?$AAe?$AAs?$AA?5?$AA?$CI?$AAx?$AA8?$AA6?$AA?$CJ?$AA?2?$AAm?$AAi?$AAc?$AAr?$AAo?$AAs?$AAo?$AAf?$AAt@
	push	2
	call	DWORD PTR __imp___CrtDbgReportW
	add	esp, 24					; 00000018H
	cmp	esi, esp
	call	__RTC_CheckEsp
	cmp	eax, 1
	jne	SHORT $LN5@RegisterCa
	int	3
$LN5@RegisterCa:

; 271  : 			return;

	jmp	SHORT $LN3@RegisterCa
$LN1@RegisterCa:

; 272  : 		}
; 273  : 
; 274  : 		m_nMap[m_nLastCategory].nCategory = nCategory;

	imul	eax, DWORD PTR ?m_nLastCategory@CTrace@ATL@@1IA, 260 ; ATL::CTrace::m_nLastCategory
	mov	ecx, DWORD PTR _nCategory$[ebp]
	mov	DWORD PTR ?m_nMap@CTrace@ATL@@1PAUCategoryMap@12@A[eax], ecx

; 275  : #ifdef _UNICODE
; 276  : 		wcscpy_s(m_nMap[m_nLastCategory].categryName, MaxLengthOfCategoryName - 1, pszCategory);

	mov	esi, esp
	push	DWORD PTR _pszCategory$[ebp]
	push	127					; 0000007fH
	imul	eax, DWORD PTR ?m_nLastCategory@CTrace@ATL@@1IA, 260 ; ATL::CTrace::m_nLastCategory
	add	eax, OFFSET ?m_nMap@CTrace@ATL@@1PAUCategoryMap@12@A+4
	push	eax
	call	DWORD PTR __imp__wcscpy_s
	add	esp, 12					; 0000000cH
	cmp	esi, esp
	call	__RTC_CheckEsp

; 277  : #else
; 278  : 		wchar_t buffer[MaxLengthOfCategoryName] = { 0 };	
; 279  : 		swprintf_s(buffer, MaxLengthOfCategoryName - 1, L"%S", pszCategory);
; 280  : 		wcscpy_s(m_nMap[m_nLastCategory].categryName, MaxLengthOfCategoryName - 1, buffer);
; 281  : #endif
; 282  : 	
; 283  : 		m_nLastCategory++;

	mov	eax, DWORD PTR ?m_nLastCategory@CTrace@ATL@@1IA ; ATL::CTrace::m_nLastCategory
	inc	eax
	mov	DWORD PTR ?m_nLastCategory@CTrace@ATL@@1IA, eax ; ATL::CTrace::m_nLastCategory
$LN3@RegisterCa:

; 284  : 	}

	pop	edi
	pop	esi
	pop	ebx
	add	esp, 192				; 000000c0H
	cmp	ebp, esp
	call	__RTC_CheckEsp
	mov	esp, ebp
	pop	ebp
	ret	0
?RegisterCategory@CTrace@ATL@@SAXPB_WI@Z ENDP		; ATL::CTrace::RegisterCategory
_TEXT	ENDS
; Function compile flags: /Odsp /RTCsu /ZI
; File c:\program files (x86)\microsoft visual studio 12.0\vc\atlmfc\include\atltrace.h
;	COMDAT ?TraceV@CTrace@ATL@@SAXPBDHIIPB_WPAD@Z
_TEXT	SEGMENT
_wszBuf$ = -2056					; size = 2048
__$ArrayPad$ = -4					; size = 4
_pszFileName$ = 8					; size = 4
_nLine$ = 12						; size = 4
_dwCategory$ = 16					; size = 4
_nLevel$ = 20						; size = 4
_pwszFmt$ = 24						; size = 4
_args$ = 28						; size = 4
?TraceV@CTrace@ATL@@SAXPBDHIIPB_WPAD@Z PROC		; ATL::CTrace::TraceV, COMDAT

; 250  : 	{

	push	ebp
	mov	ebp, esp
	sub	esp, 2252				; 000008ccH
	push	ebx
	push	esi
	push	edi
	lea	edi, DWORD PTR [ebp-2252]
	mov	ecx, 563				; 00000233H
	mov	eax, -858993460				; ccccccccH
	rep stosd
	mov	eax, DWORD PTR ___security_cookie
	xor	eax, ebp
	mov	DWORD PTR __$ArrayPad$[ebp], eax

; 251  : 		wchar_t wszBuf[TraceBufferSize] = {'\0'};

	xor	eax, eax
	mov	WORD PTR _wszBuf$[ebp], ax
	push	2046					; 000007feH
	push	0
	lea	eax, DWORD PTR _wszBuf$[ebp+2]
	push	eax
	call	_memset
	add	esp, 12					; 0000000cH

; 252  : 
; 253  : 		if (_vsnwprintf_s(wszBuf, TraceBufferSize, TraceBufferSize - 1, pwszFmt, args) == -1)

	mov	esi, esp
	push	DWORD PTR _args$[ebp]
	push	DWORD PTR _pwszFmt$[ebp]
	push	1023					; 000003ffH
	push	1024					; 00000400H
	lea	eax, DWORD PTR _wszBuf$[ebp]
	push	eax
	call	DWORD PTR __imp___vsnwprintf_s
	add	esp, 20					; 00000014H
	cmp	esi, esp
	call	__RTC_CheckEsp
	cmp	eax, -1
	jne	SHORT $LN1@TraceV

; 254  : 		{
; 255  : 			return;

	jmp	SHORT $LN2@TraceV
$LN1@TraceV:

; 256  : 		}
; 257  : 
; 258  : 		TraceV(pszFileName, nLine, dwCategory, nLevel, wszBuf);

	lea	eax, DWORD PTR _wszBuf$[ebp]
	push	eax
	push	DWORD PTR _nLevel$[ebp]
	push	DWORD PTR _dwCategory$[ebp]
	push	DWORD PTR _nLine$[ebp]
	push	DWORD PTR _pszFileName$[ebp]
	call	?TraceV@CTrace@ATL@@CAXPBDHIIPB_W@Z	; ATL::CTrace::TraceV
	add	esp, 20					; 00000014H
$LN2@TraceV:

; 259  : 	}

	push	edx
	mov	ecx, ebp
	push	eax
	lea	edx, DWORD PTR $LN6@TraceV
	call	@_RTC_CheckStackVars@8
	pop	eax
	pop	edx
	pop	edi
	pop	esi
	pop	ebx
	mov	ecx, DWORD PTR __$ArrayPad$[ebp]
	xor	ecx, ebp
	call	@__security_check_cookie@4
	add	esp, 2252				; 000008ccH
	cmp	ebp, esp
	call	__RTC_CheckEsp
	mov	esp, ebp
	pop	ebp
	ret	0
	npad	3
$LN6@TraceV:
	DD	1
	DD	$LN5@TraceV
$LN5@TraceV:
	DD	-2056					; fffff7f8H
	DD	2048					; 00000800H
	DD	$LN4@TraceV
$LN4@TraceV:
	DB	119					; 00000077H
	DB	115					; 00000073H
	DB	122					; 0000007aH
	DB	66					; 00000042H
	DB	117					; 00000075H
	DB	102					; 00000066H
	DB	0
?TraceV@CTrace@ATL@@SAXPBDHIIPB_WPAD@Z ENDP		; ATL::CTrace::TraceV
_TEXT	ENDS
; Function compile flags: /Odsp /RTCsu /ZI
; File c:\program files (x86)\microsoft visual studio 12.0\vc\atlmfc\include\atltrace.h
;	COMDAT ?TraceV@CTrace@ATL@@CAXPBDHIIPB_W@Z
_TEXT	SEGMENT
_fileName$ = -2608					; size = 520
_pwszCategoryName$ = -2080				; size = 4
_strLen$ = -2068					; size = 4
_wszBuf$ = -2056					; size = 2048
__$ArrayPad$ = -4					; size = 4
_pszFileName$ = 8					; size = 4
_nLine$ = 12						; size = 4
_dwCategory$ = 16					; size = 4
_nLevel$ = 20						; size = 4
_pwszMessage$ = 24					; size = 4
?TraceV@CTrace@ATL@@CAXPBDHIIPB_W@Z PROC		; ATL::CTrace::TraceV, COMDAT

; 149  : 	{

	push	ebp
	mov	ebp, esp
	sub	esp, 2804				; 00000af4H
	push	ebx
	push	esi
	push	edi
	lea	edi, DWORD PTR [ebp-2804]
	mov	ecx, 701				; 000002bdH
	mov	eax, -858993460				; ccccccccH
	rep stosd
	mov	eax, DWORD PTR ___security_cookie
	xor	eax, ebp
	mov	DWORD PTR __$ArrayPad$[ebp], eax

; 150  : 		if (CTrace::m_nLevel == CTrace::DisableTracing || CTrace::m_nLevel < nLevel || (CTrace::m_nCategory & dwCategory) == 0)

	cmp	DWORD PTR ?m_nLevel@CTrace@ATL@@1IA, -1	; ATL::CTrace::m_nLevel
	je	SHORT $LN7@TraceV
	mov	eax, DWORD PTR ?m_nLevel@CTrace@ATL@@1IA ; ATL::CTrace::m_nLevel
	cmp	eax, DWORD PTR _nLevel$[ebp]
	jb	SHORT $LN7@TraceV
	mov	eax, DWORD PTR ?m_nCategory@CTrace@ATL@@1IA ; ATL::CTrace::m_nCategory
	and	eax, DWORD PTR _dwCategory$[ebp]
	jne	SHORT $LN8@TraceV
$LN7@TraceV:

; 151  : 		{
; 152  : 			return;

	jmp	$LN9@TraceV
$LN8@TraceV:

; 153  : 		}
; 154  : 
; 155  : 		wchar_t wszBuf[TraceBufferSize] = {'\0'};

	xor	eax, eax
	mov	WORD PTR _wszBuf$[ebp], ax
	push	2046					; 000007feH
	push	0
	lea	eax, DWORD PTR _wszBuf$[ebp+2]
	push	eax
	call	_memset
	add	esp, 12					; 0000000cH

; 156  : 		int strLen = 0;

	and	DWORD PTR _strLen$[ebp], 0

; 157  : 		const wchar_t *const pwszCategoryName = GetCategoryName(dwCategory);

	push	DWORD PTR _dwCategory$[ebp]
	call	?GetCategoryName@CTrace@ATL@@CAPA_WI@Z	; ATL::CTrace::GetCategoryName
	pop	ecx
	mov	DWORD PTR _pwszCategoryName$[ebp], eax

; 158  : 
; 159  : 		if (pwszCategoryName != nullptr)

	cmp	DWORD PTR _pwszCategoryName$[ebp], 0
	je	SHORT $LN6@TraceV

; 160  : 		{
; 161  : 			if ((strLen = swprintf_s(wszBuf, TraceBufferSize, L"%s - ", pwszCategoryName)) == -1)

	mov	esi, esp
	push	DWORD PTR _pwszCategoryName$[ebp]
	push	OFFSET ??_C@_1M@PLLAHAGD@?$AA?$CF?$AAs?$AA?5?$AA?9?$AA?5?$AA?$AA@
	push	1024					; 00000400H
	lea	eax, DWORD PTR _wszBuf$[ebp]
	push	eax
	call	DWORD PTR __imp__swprintf_s
	add	esp, 16					; 00000010H
	cmp	esi, esp
	call	__RTC_CheckEsp
	mov	DWORD PTR _strLen$[ebp], eax
	cmp	DWORD PTR _strLen$[ebp], -1
	jne	SHORT $LN5@TraceV

; 162  : 			{
; 163  : 				return;

	jmp	$LN9@TraceV
$LN5@TraceV:

; 164  : 			}
; 165  : 		}
; 166  : 		else

	jmp	SHORT $LN4@TraceV
$LN6@TraceV:

; 167  : 		{
; 168  : 			if ((strLen = swprintf_s(wszBuf, TraceBufferSize, L"%u - ", dwCategory)) == -1)

	mov	esi, esp
	push	DWORD PTR _dwCategory$[ebp]
	push	OFFSET ??_C@_1M@PGKOAACE@?$AA?$CF?$AAu?$AA?5?$AA?9?$AA?5?$AA?$AA@
	push	1024					; 00000400H
	lea	eax, DWORD PTR _wszBuf$[ebp]
	push	eax
	call	DWORD PTR __imp__swprintf_s
	add	esp, 16					; 00000010H
	cmp	esi, esp
	call	__RTC_CheckEsp
	mov	DWORD PTR _strLen$[ebp], eax
	cmp	DWORD PTR _strLen$[ebp], -1
	jne	SHORT $LN4@TraceV

; 169  : 			{
; 170  : 				return;

	jmp	$LN9@TraceV
$LN4@TraceV:

; 171  : 			}
; 172  : 		}
; 173  : 
; 174  : 		if ((strLen = swprintf_s(wszBuf + strLen, TraceBufferSize - strLen, L"%s", pwszMessage)) == -1)

	mov	esi, esp
	push	DWORD PTR _pwszMessage$[ebp]
	push	OFFSET ??_C@_15GANGMFKL@?$AA?$CF?$AAs?$AA?$AA@
	mov	eax, 1024				; 00000400H
	sub	eax, DWORD PTR _strLen$[ebp]
	push	eax
	mov	eax, DWORD PTR _strLen$[ebp]
	lea	eax, DWORD PTR _wszBuf$[ebp+eax*2]
	push	eax
	call	DWORD PTR __imp__swprintf_s
	add	esp, 16					; 00000010H
	cmp	esi, esp
	call	__RTC_CheckEsp
	mov	DWORD PTR _strLen$[ebp], eax
	cmp	DWORD PTR _strLen$[ebp], -1
	jne	SHORT $LN2@TraceV

; 175  : 		{
; 176  : 			return;

	jmp	SHORT $LN9@TraceV
$LN2@TraceV:

; 177  : 		}
; 178  : 
; 179  : 		wchar_t fileName[_MAX_PATH] = {'\0'};	

	xor	eax, eax
	mov	WORD PTR _fileName$[ebp], ax
	push	518					; 00000206H
	push	0
	lea	eax, DWORD PTR _fileName$[ebp+2]
	push	eax
	call	_memset
	add	esp, 12					; 0000000cH

; 180  : 		if (swprintf_s(fileName, _MAX_PATH, L"%S", pszFileName) == -1)

	mov	esi, esp
	push	DWORD PTR _pszFileName$[ebp]
	push	OFFSET ??_C@_15MAOEGKJF@?$AA?$CF?$AAS?$AA?$AA@
	push	260					; 00000104H
	lea	eax, DWORD PTR _fileName$[ebp]
	push	eax
	call	DWORD PTR __imp__swprintf_s
	add	esp, 16					; 00000010H
	cmp	esi, esp
	call	__RTC_CheckEsp
	cmp	eax, -1
	jne	SHORT $LN1@TraceV

; 181  : 		{
; 182  : 			return;

	jmp	SHORT $LN9@TraceV
$LN1@TraceV:

; 183  : 		}
; 184  : 
; 185  : 		_CrtDbgReportW(_CRT_WARN, fileName, nLine, nullptr, L"%s", wszBuf);		

	mov	esi, esp
	lea	eax, DWORD PTR _wszBuf$[ebp]
	push	eax
	push	OFFSET ??_C@_15GANGMFKL@?$AA?$CF?$AAs?$AA?$AA@
	push	0
	push	DWORD PTR _nLine$[ebp]
	lea	eax, DWORD PTR _fileName$[ebp]
	push	eax
	push	0
	call	DWORD PTR __imp___CrtDbgReportW
	add	esp, 24					; 00000018H
	cmp	esi, esp
	call	__RTC_CheckEsp
$LN9@TraceV:

; 186  : 	}

	push	edx
	mov	ecx, ebp
	push	eax
	lea	edx, DWORD PTR $LN14@TraceV
	call	@_RTC_CheckStackVars@8
	pop	eax
	pop	edx
	pop	edi
	pop	esi
	pop	ebx
	mov	ecx, DWORD PTR __$ArrayPad$[ebp]
	xor	ecx, ebp
	call	@__security_check_cookie@4
	add	esp, 2804				; 00000af4H
	cmp	ebp, esp
	call	__RTC_CheckEsp
	mov	esp, ebp
	pop	ebp
	ret	0
	npad	3
$LN14@TraceV:
	DD	2
	DD	$LN13@TraceV
$LN13@TraceV:
	DD	-2056					; fffff7f8H
	DD	2048					; 00000800H
	DD	$LN11@TraceV
	DD	-2608					; fffff5d0H
	DD	520					; 00000208H
	DD	$LN12@TraceV
$LN12@TraceV:
	DB	102					; 00000066H
	DB	105					; 00000069H
	DB	108					; 0000006cH
	DB	101					; 00000065H
	DB	78					; 0000004eH
	DB	97					; 00000061H
	DB	109					; 0000006dH
	DB	101					; 00000065H
	DB	0
$LN11@TraceV:
	DB	119					; 00000077H
	DB	115					; 00000073H
	DB	122					; 0000007aH
	DB	66					; 00000042H
	DB	117					; 00000075H
	DB	102					; 00000066H
	DB	0
?TraceV@CTrace@ATL@@CAXPBDHIIPB_W@Z ENDP		; ATL::CTrace::TraceV
_TEXT	ENDS
; Function compile flags: /Odsp /RTCsu /ZI
; File c:\program files (x86)\microsoft visual studio 12.0\vc\atlmfc\include\atltrace.h
;	COMDAT ?GetCategoryName@CTrace@ATL@@CAPA_WI@Z
_TEXT	SEGMENT
_i$1 = -8						; size = 4
_nCategory$ = 8						; size = 4
?GetCategoryName@CTrace@ATL@@CAPA_WI@Z PROC		; ATL::CTrace::GetCategoryName, COMDAT

; 131  : 	{

	push	ebp
	mov	ebp, esp
	sub	esp, 204				; 000000ccH
	push	ebx
	push	esi
	push	edi
	lea	edi, DWORD PTR [ebp-204]
	push	51					; 00000033H
	pop	ecx
	mov	eax, -858993460				; ccccccccH
	rep stosd

; 132  : 		for(unsigned int i = 0; i < m_nLastCategory; i++) 

	and	DWORD PTR _i$1[ebp], 0
	jmp	SHORT $LN4@GetCategor
$LN3@GetCategor:
	mov	eax, DWORD PTR _i$1[ebp]
	inc	eax
	mov	DWORD PTR _i$1[ebp], eax
$LN4@GetCategor:
	mov	eax, DWORD PTR _i$1[ebp]
	cmp	eax, DWORD PTR ?m_nLastCategory@CTrace@ATL@@1IA ; ATL::CTrace::m_nLastCategory
	jae	SHORT $LN2@GetCategor

; 133  : 		{
; 134  : 			if (m_nMap[i].nCategory == nCategory)

	imul	eax, DWORD PTR _i$1[ebp], 260
	mov	eax, DWORD PTR ?m_nMap@CTrace@ATL@@1PAUCategoryMap@12@A[eax]
	cmp	eax, DWORD PTR _nCategory$[ebp]
	jne	SHORT $LN1@GetCategor

; 135  : 			{
; 136  : 				return m_nMap[i].categryName;

	imul	eax, DWORD PTR _i$1[ebp], 260
	add	eax, OFFSET ?m_nMap@CTrace@ATL@@1PAUCategoryMap@12@A+4
	jmp	SHORT $LN5@GetCategor
$LN1@GetCategor:

; 137  : 			}
; 138  : 		}

	jmp	SHORT $LN3@GetCategor
$LN2@GetCategor:

; 139  : 
; 140  : 		return nullptr;

	xor	eax, eax
$LN5@GetCategor:

; 141  : 	}

	pop	edi
	pop	esi
	pop	ebx
	mov	esp, ebp
	pop	ebp
	ret	0
?GetCategoryName@CTrace@ATL@@CAPA_WI@Z ENDP		; ATL::CTrace::GetCategoryName
_TEXT	ENDS
; Function compile flags: /Odsp /RTCsu /ZI
; File c:\program files (x86)\microsoft visual studio 12.0\vc\atlmfc\include\atltrace.h
;	COMDAT ??__EatlTraceISAPI@ATL@@YAXXZ
text$di	SEGMENT
??__EatlTraceISAPI@ATL@@YAXXZ PROC			; ATL::`dynamic initializer for 'atlTraceISAPI'', COMDAT

; 118  : __declspec(selectany) CTraceCategoryEx<CTraceCategoryEx<>::TraceISAPI> atlTraceISAPI(_T("atlTraceISAPI"));

	push	ebp
	mov	ebp, esp
	sub	esp, 192				; 000000c0H
	push	ebx
	push	esi
	push	edi
	lea	edi, DWORD PTR [ebp-192]
	push	48					; 00000030H
	pop	ecx
	mov	eax, -858993460				; ccccccccH
	rep stosd
	push	OFFSET ??_C@_1BM@FHAEDBFK@?$AAa?$AAt?$AAl?$AAT?$AAr?$AAa?$AAc?$AAe?$AAI?$AAS?$AAA?$AAP?$AAI?$AA?$AA@
	mov	ecx, OFFSET ?atlTraceISAPI@ATL@@3V?$CTraceCategoryEx@$0EAAAAA@$0A@@1@A ; ATL::atlTraceISAPI
	call	??0?$CTraceCategoryEx@$0EAAAAA@$0A@@ATL@@QAE@PB_W@Z ; ATL::CTraceCategoryEx<4194304,0>::CTraceCategoryEx<4194304,0>
	pop	edi
	pop	esi
	pop	ebx
	add	esp, 192				; 000000c0H
	cmp	ebp, esp
	call	__RTC_CheckEsp
	mov	esp, ebp
	pop	ebp
	ret	0
??__EatlTraceISAPI@ATL@@YAXXZ ENDP			; ATL::`dynamic initializer for 'atlTraceISAPI''
text$di	ENDS
; Function compile flags: /Odsp /RTCsu /ZI
; File c:\program files (x86)\microsoft visual studio 12.0\vc\atlmfc\include\atltrace.h
;	COMDAT ??0?$CTraceCategoryEx@$0EAAAAA@$0A@@ATL@@QAE@PB_W@Z
_TEXT	SEGMENT
_this$ = -8						; size = 4
_pszCategoryName$ = 8					; size = 4
??0?$CTraceCategoryEx@$0EAAAAA@$0A@@ATL@@QAE@PB_W@Z PROC ; ATL::CTraceCategoryEx<4194304,0>::CTraceCategoryEx<4194304,0>, COMDAT
; _this$ = ecx

; 388  : {

	push	ebp
	mov	ebp, esp
	sub	esp, 204				; 000000ccH
	push	ebx
	push	esi
	push	edi
	push	ecx
	lea	edi, DWORD PTR [ebp-204]
	push	51					; 00000033H
	pop	ecx
	mov	eax, -858993460				; ccccccccH
	rep stosd
	pop	ecx
	mov	DWORD PTR _this$[ebp], ecx

; 389  : 	CTrace::RegisterCategory(pszCategoryName, traceCategory);

	push	4194304					; 00400000H
	push	DWORD PTR _pszCategoryName$[ebp]
	call	?RegisterCategory@CTrace@ATL@@SAXPB_WI@Z ; ATL::CTrace::RegisterCategory
	pop	ecx
	pop	ecx

; 390  : }

	mov	eax, DWORD PTR _this$[ebp]
	pop	edi
	pop	esi
	pop	ebx
	add	esp, 204				; 000000ccH
	cmp	ebp, esp
	call	__RTC_CheckEsp
	mov	esp, ebp
	pop	ebp
	ret	4
??0?$CTraceCategoryEx@$0EAAAAA@$0A@@ATL@@QAE@PB_W@Z ENDP ; ATL::CTraceCategoryEx<4194304,0>::CTraceCategoryEx<4194304,0>
_TEXT	ENDS
; Function compile flags: /Odsp /RTCsu /ZI
; File c:\program files (x86)\microsoft visual studio 12.0\vc\atlmfc\include\atltrace.h
;	COMDAT ??__EatlTraceSync@ATL@@YAXXZ
text$di	SEGMENT
??__EatlTraceSync@ATL@@YAXXZ PROC			; ATL::`dynamic initializer for 'atlTraceSync'', COMDAT

; 117  : __declspec(selectany) CTraceCategoryEx<CTraceCategoryEx<>::TraceSync> atlTraceSync(_T("atlTraceSync"));

	push	ebp
	mov	ebp, esp
	sub	esp, 192				; 000000c0H
	push	ebx
	push	esi
	push	edi
	lea	edi, DWORD PTR [ebp-192]
	push	48					; 00000030H
	pop	ecx
	mov	eax, -858993460				; ccccccccH
	rep stosd
	push	OFFSET ??_C@_1BK@OPAPOCAL@?$AAa?$AAt?$AAl?$AAT?$AAr?$AAa?$AAc?$AAe?$AAS?$AAy?$AAn?$AAc?$AA?$AA@
	mov	ecx, OFFSET ?atlTraceSync@ATL@@3V?$CTraceCategoryEx@$0CAAAAA@$0A@@1@A ; ATL::atlTraceSync
	call	??0?$CTraceCategoryEx@$0CAAAAA@$0A@@ATL@@QAE@PB_W@Z ; ATL::CTraceCategoryEx<2097152,0>::CTraceCategoryEx<2097152,0>
	pop	edi
	pop	esi
	pop	ebx
	add	esp, 192				; 000000c0H
	cmp	ebp, esp
	call	__RTC_CheckEsp
	mov	esp, ebp
	pop	ebp
	ret	0
??__EatlTraceSync@ATL@@YAXXZ ENDP			; ATL::`dynamic initializer for 'atlTraceSync''
text$di	ENDS
; Function compile flags: /Odsp /RTCsu /ZI
; File c:\program files (x86)\microsoft visual studio 12.0\vc\atlmfc\include\atltrace.h
;	COMDAT ??0?$CTraceCategoryEx@$0CAAAAA@$0A@@ATL@@QAE@PB_W@Z
_TEXT	SEGMENT
_this$ = -8						; size = 4
_pszCategoryName$ = 8					; size = 4
??0?$CTraceCategoryEx@$0CAAAAA@$0A@@ATL@@QAE@PB_W@Z PROC ; ATL::CTraceCategoryEx<2097152,0>::CTraceCategoryEx<2097152,0>, COMDAT
; _this$ = ecx

; 388  : {

	push	ebp
	mov	ebp, esp
	sub	esp, 204				; 000000ccH
	push	ebx
	push	esi
	push	edi
	push	ecx
	lea	edi, DWORD PTR [ebp-204]
	push	51					; 00000033H
	pop	ecx
	mov	eax, -858993460				; ccccccccH
	rep stosd
	pop	ecx
	mov	DWORD PTR _this$[ebp], ecx

; 389  : 	CTrace::RegisterCategory(pszCategoryName, traceCategory);

	push	2097152					; 00200000H
	push	DWORD PTR _pszCategoryName$[ebp]
	call	?RegisterCategory@CTrace@ATL@@SAXPB_WI@Z ; ATL::CTrace::RegisterCategory
	pop	ecx
	pop	ecx

; 390  : }

	mov	eax, DWORD PTR _this$[ebp]
	pop	edi
	pop	esi
	pop	ebx
	add	esp, 204				; 000000ccH
	cmp	ebp, esp
	call	__RTC_CheckEsp
	mov	esp, ebp
	pop	ebp
	ret	4
??0?$CTraceCategoryEx@$0CAAAAA@$0A@@ATL@@QAE@PB_W@Z ENDP ; ATL::CTraceCategoryEx<2097152,0>::CTraceCategoryEx<2097152,0>
_TEXT	ENDS
; Function compile flags: /Odsp /RTCsu /ZI
; File c:\program files (x86)\microsoft visual studio 12.0\vc\atlmfc\include\atltrace.h
;	COMDAT ??__EatlTraceSecurity@ATL@@YAXXZ
text$di	SEGMENT
??__EatlTraceSecurity@ATL@@YAXXZ PROC			; ATL::`dynamic initializer for 'atlTraceSecurity'', COMDAT

; 116  : __declspec(selectany) CTraceCategoryEx<CTraceCategoryEx<>::TraceSecurity> atlTraceSecurity(_T("atlTraceSecurity"));

	push	ebp
	mov	ebp, esp
	sub	esp, 192				; 000000c0H
	push	ebx
	push	esi
	push	edi
	lea	edi, DWORD PTR [ebp-192]
	push	48					; 00000030H
	pop	ecx
	mov	eax, -858993460				; ccccccccH
	rep stosd
	push	OFFSET ??_C@_1CC@DMMBNCFG@?$AAa?$AAt?$AAl?$AAT?$AAr?$AAa?$AAc?$AAe?$AAS?$AAe?$AAc?$AAu?$AAr?$AAi?$AAt?$AAy?$AA?$AA@
	mov	ecx, OFFSET ?atlTraceSecurity@ATL@@3V?$CTraceCategoryEx@$0BAAAAA@$0A@@1@A ; ATL::atlTraceSecurity
	call	??0?$CTraceCategoryEx@$0BAAAAA@$0A@@ATL@@QAE@PB_W@Z ; ATL::CTraceCategoryEx<1048576,0>::CTraceCategoryEx<1048576,0>
	pop	edi
	pop	esi
	pop	ebx
	add	esp, 192				; 000000c0H
	cmp	ebp, esp
	call	__RTC_CheckEsp
	mov	esp, ebp
	pop	ebp
	ret	0
??__EatlTraceSecurity@ATL@@YAXXZ ENDP			; ATL::`dynamic initializer for 'atlTraceSecurity''
text$di	ENDS
; Function compile flags: /Odsp /RTCsu /ZI
; File c:\program files (x86)\microsoft visual studio 12.0\vc\atlmfc\include\atltrace.h
;	COMDAT ??0?$CTraceCategoryEx@$0BAAAAA@$0A@@ATL@@QAE@PB_W@Z
_TEXT	SEGMENT
_this$ = -8						; size = 4
_pszCategoryName$ = 8					; size = 4
??0?$CTraceCategoryEx@$0BAAAAA@$0A@@ATL@@QAE@PB_W@Z PROC ; ATL::CTraceCategoryEx<1048576,0>::CTraceCategoryEx<1048576,0>, COMDAT
; _this$ = ecx

; 388  : {

	push	ebp
	mov	ebp, esp
	sub	esp, 204				; 000000ccH
	push	ebx
	push	esi
	push	edi
	push	ecx
	lea	edi, DWORD PTR [ebp-204]
	push	51					; 00000033H
	pop	ecx
	mov	eax, -858993460				; ccccccccH
	rep stosd
	pop	ecx
	mov	DWORD PTR _this$[ebp], ecx

; 389  : 	CTrace::RegisterCategory(pszCategoryName, traceCategory);

	push	1048576					; 00100000H
	push	DWORD PTR _pszCategoryName$[ebp]
	call	?RegisterCategory@CTrace@ATL@@SAXPB_WI@Z ; ATL::CTrace::RegisterCategory
	pop	ecx
	pop	ecx

; 390  : }

	mov	eax, DWORD PTR _this$[ebp]
	pop	edi
	pop	esi
	pop	ebx
	add	esp, 204				; 000000ccH
	cmp	ebp, esp
	call	__RTC_CheckEsp
	mov	esp, ebp
	pop	ebp
	ret	4
??0?$CTraceCategoryEx@$0BAAAAA@$0A@@ATL@@QAE@PB_W@Z ENDP ; ATL::CTraceCategoryEx<1048576,0>::CTraceCategoryEx<1048576,0>
_TEXT	ENDS
; Function compile flags: /Odsp /RTCsu /ZI
; File c:\program files (x86)\microsoft visual studio 12.0\vc\atlmfc\include\atltrace.h
;	COMDAT ??__EatlTraceUtil@ATL@@YAXXZ
text$di	SEGMENT
??__EatlTraceUtil@ATL@@YAXXZ PROC			; ATL::`dynamic initializer for 'atlTraceUtil'', COMDAT

; 115  : __declspec(selectany) CTraceCategoryEx<CTraceCategoryEx<>::TraceUtil> atlTraceUtil(_T("atlTraceUtil"));

	push	ebp
	mov	ebp, esp
	sub	esp, 192				; 000000c0H
	push	ebx
	push	esi
	push	edi
	lea	edi, DWORD PTR [ebp-192]
	push	48					; 00000030H
	pop	ecx
	mov	eax, -858993460				; ccccccccH
	rep stosd
	push	OFFSET ??_C@_1BK@DMHCKHHD@?$AAa?$AAt?$AAl?$AAT?$AAr?$AAa?$AAc?$AAe?$AAU?$AAt?$AAi?$AAl?$AA?$AA@
	mov	ecx, OFFSET ?atlTraceUtil@ATL@@3V?$CTraceCategoryEx@$0IAAAA@$0A@@1@A ; ATL::atlTraceUtil
	call	??0?$CTraceCategoryEx@$0IAAAA@$0A@@ATL@@QAE@PB_W@Z ; ATL::CTraceCategoryEx<524288,0>::CTraceCategoryEx<524288,0>
	pop	edi
	pop	esi
	pop	ebx
	add	esp, 192				; 000000c0H
	cmp	ebp, esp
	call	__RTC_CheckEsp
	mov	esp, ebp
	pop	ebp
	ret	0
??__EatlTraceUtil@ATL@@YAXXZ ENDP			; ATL::`dynamic initializer for 'atlTraceUtil''
text$di	ENDS
; Function compile flags: /Odsp /RTCsu /ZI
; File c:\program files (x86)\microsoft visual studio 12.0\vc\atlmfc\include\atltrace.h
;	COMDAT ??__EatlTraceMap@ATL@@YAXXZ
text$di	SEGMENT
??__EatlTraceMap@ATL@@YAXXZ PROC			; ATL::`dynamic initializer for 'atlTraceMap'', COMDAT

; 114  : __declspec(selectany) CTraceCategoryEx<CTraceCategoryEx<>::TraceMap> atlTraceMap(_T("atlTraceMap"));

	push	ebp
	mov	ebp, esp
	sub	esp, 192				; 000000c0H
	push	ebx
	push	esi
	push	edi
	lea	edi, DWORD PTR [ebp-192]
	push	48					; 00000030H
	pop	ecx
	mov	eax, -858993460				; ccccccccH
	rep stosd
	push	OFFSET ??_C@_1BI@OKDLCIEM@?$AAa?$AAt?$AAl?$AAT?$AAr?$AAa?$AAc?$AAe?$AAM?$AAa?$AAp?$AA?$AA@
	mov	ecx, OFFSET ?atlTraceMap@ATL@@3V?$CTraceCategoryEx@$0EAAAA@$0A@@1@A ; ATL::atlTraceMap
	call	??0?$CTraceCategoryEx@$0EAAAA@$0A@@ATL@@QAE@PB_W@Z ; ATL::CTraceCategoryEx<262144,0>::CTraceCategoryEx<262144,0>
	pop	edi
	pop	esi
	pop	ebx
	add	esp, 192				; 000000c0H
	cmp	ebp, esp
	call	__RTC_CheckEsp
	mov	esp, ebp
	pop	ebp
	ret	0
??__EatlTraceMap@ATL@@YAXXZ ENDP			; ATL::`dynamic initializer for 'atlTraceMap''
text$di	ENDS
; Function compile flags: /Odsp /RTCsu /ZI
; File c:\program files (x86)\microsoft visual studio 12.0\vc\atlmfc\include\atltrace.h
;	COMDAT ??0?$CTraceCategoryEx@$0EAAAA@$0A@@ATL@@QAE@PB_W@Z
_TEXT	SEGMENT
_this$ = -8						; size = 4
_pszCategoryName$ = 8					; size = 4
??0?$CTraceCategoryEx@$0EAAAA@$0A@@ATL@@QAE@PB_W@Z PROC	; ATL::CTraceCategoryEx<262144,0>::CTraceCategoryEx<262144,0>, COMDAT
; _this$ = ecx

; 388  : {

	push	ebp
	mov	ebp, esp
	sub	esp, 204				; 000000ccH
	push	ebx
	push	esi
	push	edi
	push	ecx
	lea	edi, DWORD PTR [ebp-204]
	push	51					; 00000033H
	pop	ecx
	mov	eax, -858993460				; ccccccccH
	rep stosd
	pop	ecx
	mov	DWORD PTR _this$[ebp], ecx

; 389  : 	CTrace::RegisterCategory(pszCategoryName, traceCategory);

	push	262144					; 00040000H
	push	DWORD PTR _pszCategoryName$[ebp]
	call	?RegisterCategory@CTrace@ATL@@SAXPB_WI@Z ; ATL::CTrace::RegisterCategory
	pop	ecx
	pop	ecx

; 390  : }

	mov	eax, DWORD PTR _this$[ebp]
	pop	edi
	pop	esi
	pop	ebx
	add	esp, 204				; 000000ccH
	cmp	ebp, esp
	call	__RTC_CheckEsp
	mov	esp, ebp
	pop	ebp
	ret	4
??0?$CTraceCategoryEx@$0EAAAA@$0A@@ATL@@QAE@PB_W@Z ENDP	; ATL::CTraceCategoryEx<262144,0>::CTraceCategoryEx<262144,0>
_TEXT	ENDS
; Function compile flags: /Odsp /RTCsu /ZI
; File c:\program files (x86)\microsoft visual studio 12.0\vc\atlmfc\include\atltrace.h
;	COMDAT ??__EatlTraceString@ATL@@YAXXZ
text$di	SEGMENT
??__EatlTraceString@ATL@@YAXXZ PROC			; ATL::`dynamic initializer for 'atlTraceString'', COMDAT

; 113  : __declspec(selectany) CTraceCategoryEx<CTraceCategoryEx<>::TraceString> atlTraceString(_T("atlTraceString"));

	push	ebp
	mov	ebp, esp
	sub	esp, 192				; 000000c0H
	push	ebx
	push	esi
	push	edi
	lea	edi, DWORD PTR [ebp-192]
	push	48					; 00000030H
	pop	ecx
	mov	eax, -858993460				; ccccccccH
	rep stosd
	push	OFFSET ??_C@_1BO@GMLILNDJ@?$AAa?$AAt?$AAl?$AAT?$AAr?$AAa?$AAc?$AAe?$AAS?$AAt?$AAr?$AAi?$AAn?$AAg?$AA?$AA@
	mov	ecx, OFFSET ?atlTraceString@ATL@@3V?$CTraceCategoryEx@$0CAAAA@$0A@@1@A ; ATL::atlTraceString
	call	??0?$CTraceCategoryEx@$0CAAAA@$0A@@ATL@@QAE@PB_W@Z ; ATL::CTraceCategoryEx<131072,0>::CTraceCategoryEx<131072,0>
	pop	edi
	pop	esi
	pop	ebx
	add	esp, 192				; 000000c0H
	cmp	ebp, esp
	call	__RTC_CheckEsp
	mov	esp, ebp
	pop	ebp
	ret	0
??__EatlTraceString@ATL@@YAXXZ ENDP			; ATL::`dynamic initializer for 'atlTraceString''
text$di	ENDS
; Function compile flags: /Odsp /RTCsu /ZI
; File c:\program files (x86)\microsoft visual studio 12.0\vc\atlmfc\include\atltrace.h
;	COMDAT ??0?$CTraceCategoryEx@$0CAAAA@$0A@@ATL@@QAE@PB_W@Z
_TEXT	SEGMENT
_this$ = -8						; size = 4
_pszCategoryName$ = 8					; size = 4
??0?$CTraceCategoryEx@$0CAAAA@$0A@@ATL@@QAE@PB_W@Z PROC	; ATL::CTraceCategoryEx<131072,0>::CTraceCategoryEx<131072,0>, COMDAT
; _this$ = ecx

; 388  : {

	push	ebp
	mov	ebp, esp
	sub	esp, 204				; 000000ccH
	push	ebx
	push	esi
	push	edi
	push	ecx
	lea	edi, DWORD PTR [ebp-204]
	push	51					; 00000033H
	pop	ecx
	mov	eax, -858993460				; ccccccccH
	rep stosd
	pop	ecx
	mov	DWORD PTR _this$[ebp], ecx

; 389  : 	CTrace::RegisterCategory(pszCategoryName, traceCategory);

	push	131072					; 00020000H
	push	DWORD PTR _pszCategoryName$[ebp]
	call	?RegisterCategory@CTrace@ATL@@SAXPB_WI@Z ; ATL::CTrace::RegisterCategory
	pop	ecx
	pop	ecx

; 390  : }

	mov	eax, DWORD PTR _this$[ebp]
	pop	edi
	pop	esi
	pop	ebx
	add	esp, 204				; 000000ccH
	cmp	ebp, esp
	call	__RTC_CheckEsp
	mov	esp, ebp
	pop	ebp
	ret	4
??0?$CTraceCategoryEx@$0CAAAA@$0A@@ATL@@QAE@PB_W@Z ENDP	; ATL::CTraceCategoryEx<131072,0>::CTraceCategoryEx<131072,0>
_TEXT	ENDS
; Function compile flags: /Odsp /RTCsu /ZI
; File c:\program files (x86)\microsoft visual studio 12.0\vc\atlmfc\include\atltrace.h
;	COMDAT ??__EatlTraceStencil@ATL@@YAXXZ
text$di	SEGMENT
??__EatlTraceStencil@ATL@@YAXXZ PROC			; ATL::`dynamic initializer for 'atlTraceStencil'', COMDAT

; 112  : __declspec(selectany) CTraceCategoryEx<CTraceCategoryEx<>::TraceStencil> atlTraceStencil(_T("atlTraceStencil"));

	push	ebp
	mov	ebp, esp
	sub	esp, 192				; 000000c0H
	push	ebx
	push	esi
	push	edi
	lea	edi, DWORD PTR [ebp-192]
	push	48					; 00000030H
	pop	ecx
	mov	eax, -858993460				; ccccccccH
	rep stosd
	push	OFFSET ??_C@_1CA@PBPHANCD@?$AAa?$AAt?$AAl?$AAT?$AAr?$AAa?$AAc?$AAe?$AAS?$AAt?$AAe?$AAn?$AAc?$AAi?$AAl?$AA?$AA@
	mov	ecx, OFFSET ?atlTraceStencil@ATL@@3V?$CTraceCategoryEx@$0BAAAA@$0A@@1@A ; ATL::atlTraceStencil
	call	??0?$CTraceCategoryEx@$0BAAAA@$0A@@ATL@@QAE@PB_W@Z ; ATL::CTraceCategoryEx<65536,0>::CTraceCategoryEx<65536,0>
	pop	edi
	pop	esi
	pop	ebx
	add	esp, 192				; 000000c0H
	cmp	ebp, esp
	call	__RTC_CheckEsp
	mov	esp, ebp
	pop	ebp
	ret	0
??__EatlTraceStencil@ATL@@YAXXZ ENDP			; ATL::`dynamic initializer for 'atlTraceStencil''
text$di	ENDS
; Function compile flags: /Odsp /RTCsu /ZI
; File c:\program files (x86)\microsoft visual studio 12.0\vc\atlmfc\include\atltrace.h
;	COMDAT ??0?$CTraceCategoryEx@$0BAAAA@$0A@@ATL@@QAE@PB_W@Z
_TEXT	SEGMENT
_this$ = -8						; size = 4
_pszCategoryName$ = 8					; size = 4
??0?$CTraceCategoryEx@$0BAAAA@$0A@@ATL@@QAE@PB_W@Z PROC	; ATL::CTraceCategoryEx<65536,0>::CTraceCategoryEx<65536,0>, COMDAT
; _this$ = ecx

; 388  : {

	push	ebp
	mov	ebp, esp
	sub	esp, 204				; 000000ccH
	push	ebx
	push	esi
	push	edi
	push	ecx
	lea	edi, DWORD PTR [ebp-204]
	push	51					; 00000033H
	pop	ecx
	mov	eax, -858993460				; ccccccccH
	rep stosd
	pop	ecx
	mov	DWORD PTR _this$[ebp], ecx

; 389  : 	CTrace::RegisterCategory(pszCategoryName, traceCategory);

	push	65536					; 00010000H
	push	DWORD PTR _pszCategoryName$[ebp]
	call	?RegisterCategory@CTrace@ATL@@SAXPB_WI@Z ; ATL::CTrace::RegisterCategory
	pop	ecx
	pop	ecx

; 390  : }

	mov	eax, DWORD PTR _this$[ebp]
	pop	edi
	pop	esi
	pop	ebx
	add	esp, 204				; 000000ccH
	cmp	ebp, esp
	call	__RTC_CheckEsp
	mov	esp, ebp
	pop	ebp
	ret	4
??0?$CTraceCategoryEx@$0BAAAA@$0A@@ATL@@QAE@PB_W@Z ENDP	; ATL::CTraceCategoryEx<65536,0>::CTraceCategoryEx<65536,0>
_TEXT	ENDS
; Function compile flags: /Odsp /RTCsu /ZI
; File c:\program files (x86)\microsoft visual studio 12.0\vc\atlmfc\include\atltrace.h
;	COMDAT ??__EatlTraceCache@ATL@@YAXXZ
text$di	SEGMENT
??__EatlTraceCache@ATL@@YAXXZ PROC			; ATL::`dynamic initializer for 'atlTraceCache'', COMDAT

; 111  : __declspec(selectany) CTraceCategoryEx<CTraceCategoryEx<>::TraceCache> atlTraceCache(_T("atlTraceCache"));

	push	ebp
	mov	ebp, esp
	sub	esp, 192				; 000000c0H
	push	ebx
	push	esi
	push	edi
	lea	edi, DWORD PTR [ebp-192]
	push	48					; 00000030H
	pop	ecx
	mov	eax, -858993460				; ccccccccH
	rep stosd
	push	OFFSET ??_C@_1BM@GIKLHLFD@?$AAa?$AAt?$AAl?$AAT?$AAr?$AAa?$AAc?$AAe?$AAC?$AAa?$AAc?$AAh?$AAe?$AA?$AA@
	mov	ecx, OFFSET ?atlTraceCache@ATL@@3V?$CTraceCategoryEx@$0IAAA@$0A@@1@A ; ATL::atlTraceCache
	call	??0?$CTraceCategoryEx@$0IAAA@$0A@@ATL@@QAE@PB_W@Z ; ATL::CTraceCategoryEx<32768,0>::CTraceCategoryEx<32768,0>
	pop	edi
	pop	esi
	pop	ebx
	add	esp, 192				; 000000c0H
	cmp	ebp, esp
	call	__RTC_CheckEsp
	mov	esp, ebp
	pop	ebp
	ret	0
??__EatlTraceCache@ATL@@YAXXZ ENDP			; ATL::`dynamic initializer for 'atlTraceCache''
text$di	ENDS
; Function compile flags: /Odsp /RTCsu /ZI
; File c:\program files (x86)\microsoft visual studio 12.0\vc\atlmfc\include\atltrace.h
;	COMDAT ??0?$CTraceCategoryEx@$0IAAA@$0A@@ATL@@QAE@PB_W@Z
_TEXT	SEGMENT
_this$ = -8						; size = 4
_pszCategoryName$ = 8					; size = 4
??0?$CTraceCategoryEx@$0IAAA@$0A@@ATL@@QAE@PB_W@Z PROC	; ATL::CTraceCategoryEx<32768,0>::CTraceCategoryEx<32768,0>, COMDAT
; _this$ = ecx

; 388  : {

	push	ebp
	mov	ebp, esp
	sub	esp, 204				; 000000ccH
	push	ebx
	push	esi
	push	edi
	push	ecx
	lea	edi, DWORD PTR [ebp-204]
	push	51					; 00000033H
	pop	ecx
	mov	eax, -858993460				; ccccccccH
	rep stosd
	pop	ecx
	mov	DWORD PTR _this$[ebp], ecx

; 389  : 	CTrace::RegisterCategory(pszCategoryName, traceCategory);

	push	32768					; 00008000H
	push	DWORD PTR _pszCategoryName$[ebp]
	call	?RegisterCategory@CTrace@ATL@@SAXPB_WI@Z ; ATL::CTrace::RegisterCategory
	pop	ecx
	pop	ecx

; 390  : }

	mov	eax, DWORD PTR _this$[ebp]
	pop	edi
	pop	esi
	pop	ebx
	add	esp, 204				; 000000ccH
	cmp	ebp, esp
	call	__RTC_CheckEsp
	mov	esp, ebp
	pop	ebp
	ret	4
??0?$CTraceCategoryEx@$0IAAA@$0A@@ATL@@QAE@PB_W@Z ENDP	; ATL::CTraceCategoryEx<32768,0>::CTraceCategoryEx<32768,0>
_TEXT	ENDS
; Function compile flags: /Odsp /RTCsu /ZI
; File c:\program files (x86)\microsoft visual studio 12.0\vc\atlmfc\include\atltrace.h
;	COMDAT ??__EatlTraceTime@ATL@@YAXXZ
text$di	SEGMENT
??__EatlTraceTime@ATL@@YAXXZ PROC			; ATL::`dynamic initializer for 'atlTraceTime'', COMDAT

; 110  : __declspec(selectany) CTraceCategoryEx<CTraceCategoryEx<>::TraceTime> atlTraceTime(_T("atlTraceTime"));

	push	ebp
	mov	ebp, esp
	sub	esp, 192				; 000000c0H
	push	ebx
	push	esi
	push	edi
	lea	edi, DWORD PTR [ebp-192]
	push	48					; 00000030H
	pop	ecx
	mov	eax, -858993460				; ccccccccH
	rep stosd
	push	OFFSET ??_C@_1BK@NCJHOFCL@?$AAa?$AAt?$AAl?$AAT?$AAr?$AAa?$AAc?$AAe?$AAT?$AAi?$AAm?$AAe?$AA?$AA@
	mov	ecx, OFFSET ?atlTraceTime@ATL@@3V?$CTraceCategoryEx@$0EAAA@$0A@@1@A ; ATL::atlTraceTime
	call	??0?$CTraceCategoryEx@$0EAAA@$0A@@ATL@@QAE@PB_W@Z ; ATL::CTraceCategoryEx<16384,0>::CTraceCategoryEx<16384,0>
	pop	edi
	pop	esi
	pop	ebx
	add	esp, 192				; 000000c0H
	cmp	ebp, esp
	call	__RTC_CheckEsp
	mov	esp, ebp
	pop	ebp
	ret	0
??__EatlTraceTime@ATL@@YAXXZ ENDP			; ATL::`dynamic initializer for 'atlTraceTime''
text$di	ENDS
; Function compile flags: /Odsp /RTCsu /ZI
; File c:\program files (x86)\microsoft visual studio 12.0\vc\atlmfc\include\atltrace.h
;	COMDAT ??0?$CTraceCategoryEx@$0EAAA@$0A@@ATL@@QAE@PB_W@Z
_TEXT	SEGMENT
_this$ = -8						; size = 4
_pszCategoryName$ = 8					; size = 4
??0?$CTraceCategoryEx@$0EAAA@$0A@@ATL@@QAE@PB_W@Z PROC	; ATL::CTraceCategoryEx<16384,0>::CTraceCategoryEx<16384,0>, COMDAT
; _this$ = ecx

; 388  : {

	push	ebp
	mov	ebp, esp
	sub	esp, 204				; 000000ccH
	push	ebx
	push	esi
	push	edi
	push	ecx
	lea	edi, DWORD PTR [ebp-204]
	push	51					; 00000033H
	pop	ecx
	mov	eax, -858993460				; ccccccccH
	rep stosd
	pop	ecx
	mov	DWORD PTR _this$[ebp], ecx

; 389  : 	CTrace::RegisterCategory(pszCategoryName, traceCategory);

	push	16384					; 00004000H
	push	DWORD PTR _pszCategoryName$[ebp]
	call	?RegisterCategory@CTrace@ATL@@SAXPB_WI@Z ; ATL::CTrace::RegisterCategory
	pop	ecx
	pop	ecx

; 390  : }

	mov	eax, DWORD PTR _this$[ebp]
	pop	edi
	pop	esi
	pop	ebx
	add	esp, 204				; 000000ccH
	cmp	ebp, esp
	call	__RTC_CheckEsp
	mov	esp, ebp
	pop	ebp
	ret	4
??0?$CTraceCategoryEx@$0EAAA@$0A@@ATL@@QAE@PB_W@Z ENDP	; ATL::CTraceCategoryEx<16384,0>::CTraceCategoryEx<16384,0>
_TEXT	ENDS
; Function compile flags: /Odsp /RTCsu /ZI
; File c:\program files (x86)\microsoft visual studio 12.0\vc\atlmfc\include\atltrace.h
;	COMDAT ??__EatlTraceException@ATL@@YAXXZ
text$di	SEGMENT
??__EatlTraceException@ATL@@YAXXZ PROC			; ATL::`dynamic initializer for 'atlTraceException'', COMDAT

; 109  : __declspec(selectany) CTraceCategoryEx<CTraceCategoryEx<>::TraceException> atlTraceException(_T("atlTraceException"));

	push	ebp
	mov	ebp, esp
	sub	esp, 192				; 000000c0H
	push	ebx
	push	esi
	push	edi
	lea	edi, DWORD PTR [ebp-192]
	push	48					; 00000030H
	pop	ecx
	mov	eax, -858993460				; ccccccccH
	rep stosd
	push	OFFSET ??_C@_1CE@IMMADNAP@?$AAa?$AAt?$AAl?$AAT?$AAr?$AAa?$AAc?$AAe?$AAE?$AAx?$AAc?$AAe?$AAp?$AAt?$AAi?$AAo?$AAn?$AA?$AA@
	mov	ecx, OFFSET ?atlTraceException@ATL@@3V?$CTraceCategoryEx@$0CAAA@$0A@@1@A ; ATL::atlTraceException
	call	??0?$CTraceCategoryEx@$0CAAA@$0A@@ATL@@QAE@PB_W@Z ; ATL::CTraceCategoryEx<8192,0>::CTraceCategoryEx<8192,0>
	pop	edi
	pop	esi
	pop	ebx
	add	esp, 192				; 000000c0H
	cmp	ebp, esp
	call	__RTC_CheckEsp
	mov	esp, ebp
	pop	ebp
	ret	0
??__EatlTraceException@ATL@@YAXXZ ENDP			; ATL::`dynamic initializer for 'atlTraceException''
text$di	ENDS
; Function compile flags: /Odsp /RTCsu /ZI
; File c:\program files (x86)\microsoft visual studio 12.0\vc\atlmfc\include\atltrace.h
;	COMDAT ??0?$CTraceCategoryEx@$0CAAA@$0A@@ATL@@QAE@PB_W@Z
_TEXT	SEGMENT
_this$ = -8						; size = 4
_pszCategoryName$ = 8					; size = 4
??0?$CTraceCategoryEx@$0CAAA@$0A@@ATL@@QAE@PB_W@Z PROC	; ATL::CTraceCategoryEx<8192,0>::CTraceCategoryEx<8192,0>, COMDAT
; _this$ = ecx

; 388  : {

	push	ebp
	mov	ebp, esp
	sub	esp, 204				; 000000ccH
	push	ebx
	push	esi
	push	edi
	push	ecx
	lea	edi, DWORD PTR [ebp-204]
	push	51					; 00000033H
	pop	ecx
	mov	eax, -858993460				; ccccccccH
	rep stosd
	pop	ecx
	mov	DWORD PTR _this$[ebp], ecx

; 389  : 	CTrace::RegisterCategory(pszCategoryName, traceCategory);

	push	8192					; 00002000H
	push	DWORD PTR _pszCategoryName$[ebp]
	call	?RegisterCategory@CTrace@ATL@@SAXPB_WI@Z ; ATL::CTrace::RegisterCategory
	pop	ecx
	pop	ecx

; 390  : }

	mov	eax, DWORD PTR _this$[ebp]
	pop	edi
	pop	esi
	pop	ebx
	add	esp, 204				; 000000ccH
	cmp	ebp, esp
	call	__RTC_CheckEsp
	mov	esp, ebp
	pop	ebp
	ret	4
??0?$CTraceCategoryEx@$0CAAA@$0A@@ATL@@QAE@PB_W@Z ENDP	; ATL::CTraceCategoryEx<8192,0>::CTraceCategoryEx<8192,0>
_TEXT	ENDS
; Function compile flags: /Odsp /RTCsu /ZI
; File c:\program files (x86)\microsoft visual studio 12.0\vc\atlmfc\include\atltrace.h
;	COMDAT ??__EatlTraceAllocation@ATL@@YAXXZ
text$di	SEGMENT
??__EatlTraceAllocation@ATL@@YAXXZ PROC			; ATL::`dynamic initializer for 'atlTraceAllocation'', COMDAT

; 108  : __declspec(selectany) CTraceCategoryEx<CTraceCategoryEx<>::TraceAllocation> atlTraceAllocation(_T("atlTraceAllocation"));

	push	ebp
	mov	ebp, esp
	sub	esp, 192				; 000000c0H
	push	ebx
	push	esi
	push	edi
	lea	edi, DWORD PTR [ebp-192]
	push	48					; 00000030H
	pop	ecx
	mov	eax, -858993460				; ccccccccH
	rep stosd
	push	OFFSET ??_C@_1CG@KFEEMCDH@?$AAa?$AAt?$AAl?$AAT?$AAr?$AAa?$AAc?$AAe?$AAA?$AAl?$AAl?$AAo?$AAc?$AAa?$AAt?$AAi?$AAo?$AAn?$AA?$AA@
	mov	ecx, OFFSET ?atlTraceAllocation@ATL@@3V?$CTraceCategoryEx@$0BAAA@$0A@@1@A ; ATL::atlTraceAllocation
	call	??0?$CTraceCategoryEx@$0BAAA@$0A@@ATL@@QAE@PB_W@Z ; ATL::CTraceCategoryEx<4096,0>::CTraceCategoryEx<4096,0>
	pop	edi
	pop	esi
	pop	ebx
	add	esp, 192				; 000000c0H
	cmp	ebp, esp
	call	__RTC_CheckEsp
	mov	esp, ebp
	pop	ebp
	ret	0
??__EatlTraceAllocation@ATL@@YAXXZ ENDP			; ATL::`dynamic initializer for 'atlTraceAllocation''
text$di	ENDS
; Function compile flags: /Odsp /RTCsu /ZI
; File c:\program files (x86)\microsoft visual studio 12.0\vc\atlmfc\include\atltrace.h
;	COMDAT ??0?$CTraceCategoryEx@$0BAAA@$0A@@ATL@@QAE@PB_W@Z
_TEXT	SEGMENT
_this$ = -8						; size = 4
_pszCategoryName$ = 8					; size = 4
??0?$CTraceCategoryEx@$0BAAA@$0A@@ATL@@QAE@PB_W@Z PROC	; ATL::CTraceCategoryEx<4096,0>::CTraceCategoryEx<4096,0>, COMDAT
; _this$ = ecx

; 388  : {

	push	ebp
	mov	ebp, esp
	sub	esp, 204				; 000000ccH
	push	ebx
	push	esi
	push	edi
	push	ecx
	lea	edi, DWORD PTR [ebp-204]
	push	51					; 00000033H
	pop	ecx
	mov	eax, -858993460				; ccccccccH
	rep stosd
	pop	ecx
	mov	DWORD PTR _this$[ebp], ecx

; 389  : 	CTrace::RegisterCategory(pszCategoryName, traceCategory);

	push	4096					; 00001000H
	push	DWORD PTR _pszCategoryName$[ebp]
	call	?RegisterCategory@CTrace@ATL@@SAXPB_WI@Z ; ATL::CTrace::RegisterCategory
	pop	ecx
	pop	ecx

; 390  : }

	mov	eax, DWORD PTR _this$[ebp]
	pop	edi
	pop	esi
	pop	ebx
	add	esp, 204				; 000000ccH
	cmp	ebp, esp
	call	__RTC_CheckEsp
	mov	esp, ebp
	pop	ebp
	ret	4
??0?$CTraceCategoryEx@$0BAAA@$0A@@ATL@@QAE@PB_W@Z ENDP	; ATL::CTraceCategoryEx<4096,0>::CTraceCategoryEx<4096,0>
_TEXT	ENDS
; Function compile flags: /Odsp /RTCsu /ZI
; File c:\program files (x86)\microsoft visual studio 12.0\vc\atlmfc\include\atltrace.h
;	COMDAT ??__EatlTraceNotImpl@ATL@@YAXXZ
text$di	SEGMENT
??__EatlTraceNotImpl@ATL@@YAXXZ PROC			; ATL::`dynamic initializer for 'atlTraceNotImpl'', COMDAT

; 107  : __declspec(selectany) CTraceCategoryEx<CTraceCategoryEx<>::TraceNotImpl> atlTraceNotImpl(_T("atlTraceNotImpl"));

	push	ebp
	mov	ebp, esp
	sub	esp, 192				; 000000c0H
	push	ebx
	push	esi
	push	edi
	lea	edi, DWORD PTR [ebp-192]
	push	48					; 00000030H
	pop	ecx
	mov	eax, -858993460				; ccccccccH
	rep stosd
	push	OFFSET ??_C@_1CA@DMHPIODO@?$AAa?$AAt?$AAl?$AAT?$AAr?$AAa?$AAc?$AAe?$AAN?$AAo?$AAt?$AAI?$AAm?$AAp?$AAl?$AA?$AA@
	mov	ecx, OFFSET ?atlTraceNotImpl@ATL@@3V?$CTraceCategoryEx@$0IAA@$0A@@1@A ; ATL::atlTraceNotImpl
	call	??0?$CTraceCategoryEx@$0IAA@$0A@@ATL@@QAE@PB_W@Z ; ATL::CTraceCategoryEx<2048,0>::CTraceCategoryEx<2048,0>
	pop	edi
	pop	esi
	pop	ebx
	add	esp, 192				; 000000c0H
	cmp	ebp, esp
	call	__RTC_CheckEsp
	mov	esp, ebp
	pop	ebp
	ret	0
??__EatlTraceNotImpl@ATL@@YAXXZ ENDP			; ATL::`dynamic initializer for 'atlTraceNotImpl''
text$di	ENDS
; Function compile flags: /Odsp /RTCsu /ZI
; File c:\program files (x86)\microsoft visual studio 12.0\vc\atlmfc\include\atltrace.h
;	COMDAT ??0?$CTraceCategoryEx@$0IAA@$0A@@ATL@@QAE@PB_W@Z
_TEXT	SEGMENT
_this$ = -8						; size = 4
_pszCategoryName$ = 8					; size = 4
??0?$CTraceCategoryEx@$0IAA@$0A@@ATL@@QAE@PB_W@Z PROC	; ATL::CTraceCategoryEx<2048,0>::CTraceCategoryEx<2048,0>, COMDAT
; _this$ = ecx

; 388  : {

	push	ebp
	mov	ebp, esp
	sub	esp, 204				; 000000ccH
	push	ebx
	push	esi
	push	edi
	push	ecx
	lea	edi, DWORD PTR [ebp-204]
	push	51					; 00000033H
	pop	ecx
	mov	eax, -858993460				; ccccccccH
	rep stosd
	pop	ecx
	mov	DWORD PTR _this$[ebp], ecx

; 389  : 	CTrace::RegisterCategory(pszCategoryName, traceCategory);

	push	2048					; 00000800H
	push	DWORD PTR _pszCategoryName$[ebp]
	call	?RegisterCategory@CTrace@ATL@@SAXPB_WI@Z ; ATL::CTrace::RegisterCategory
	pop	ecx
	pop	ecx

; 390  : }

	mov	eax, DWORD PTR _this$[ebp]
	pop	edi
	pop	esi
	pop	ebx
	add	esp, 204				; 000000ccH
	cmp	ebp, esp
	call	__RTC_CheckEsp
	mov	esp, ebp
	pop	ebp
	ret	4
??0?$CTraceCategoryEx@$0IAA@$0A@@ATL@@QAE@PB_W@Z ENDP	; ATL::CTraceCategoryEx<2048,0>::CTraceCategoryEx<2048,0>
_TEXT	ENDS
; Function compile flags: /Odsp /RTCsu /ZI
; File c:\program files (x86)\microsoft visual studio 12.0\vc\atlmfc\include\atltrace.h
;	COMDAT ??__EatlTraceSnapin@ATL@@YAXXZ
text$di	SEGMENT
??__EatlTraceSnapin@ATL@@YAXXZ PROC			; ATL::`dynamic initializer for 'atlTraceSnapin'', COMDAT

; 106  : __declspec(selectany) CTraceCategoryEx<CTraceCategoryEx<>::TraceSnapin> atlTraceSnapin(_T("atlTraceSnapin"));

	push	ebp
	mov	ebp, esp
	sub	esp, 192				; 000000c0H
	push	ebx
	push	esi
	push	edi
	lea	edi, DWORD PTR [ebp-192]
	push	48					; 00000030H
	pop	ecx
	mov	eax, -858993460				; ccccccccH
	rep stosd
	push	OFFSET ??_C@_1BO@EFPHNHHN@?$AAa?$AAt?$AAl?$AAT?$AAr?$AAa?$AAc?$AAe?$AAS?$AAn?$AAa?$AAp?$AAi?$AAn?$AA?$AA@
	mov	ecx, OFFSET ?atlTraceSnapin@ATL@@3V?$CTraceCategoryEx@$0EAA@$0A@@1@A ; ATL::atlTraceSnapin
	call	??0?$CTraceCategoryEx@$0EAA@$0A@@ATL@@QAE@PB_W@Z ; ATL::CTraceCategoryEx<1024,0>::CTraceCategoryEx<1024,0>
	pop	edi
	pop	esi
	pop	ebx
	add	esp, 192				; 000000c0H
	cmp	ebp, esp
	call	__RTC_CheckEsp
	mov	esp, ebp
	pop	ebp
	ret	0
??__EatlTraceSnapin@ATL@@YAXXZ ENDP			; ATL::`dynamic initializer for 'atlTraceSnapin''
text$di	ENDS
; Function compile flags: /Odsp /RTCsu /ZI
; File c:\program files (x86)\microsoft visual studio 12.0\vc\atlmfc\include\atltrace.h
;	COMDAT ??0?$CTraceCategoryEx@$0EAA@$0A@@ATL@@QAE@PB_W@Z
_TEXT	SEGMENT
_this$ = -8						; size = 4
_pszCategoryName$ = 8					; size = 4
??0?$CTraceCategoryEx@$0EAA@$0A@@ATL@@QAE@PB_W@Z PROC	; ATL::CTraceCategoryEx<1024,0>::CTraceCategoryEx<1024,0>, COMDAT
; _this$ = ecx

; 388  : {

	push	ebp
	mov	ebp, esp
	sub	esp, 204				; 000000ccH
	push	ebx
	push	esi
	push	edi
	push	ecx
	lea	edi, DWORD PTR [ebp-204]
	push	51					; 00000033H
	pop	ecx
	mov	eax, -858993460				; ccccccccH
	rep stosd
	pop	ecx
	mov	DWORD PTR _this$[ebp], ecx

; 389  : 	CTrace::RegisterCategory(pszCategoryName, traceCategory);

	push	1024					; 00000400H
	push	DWORD PTR _pszCategoryName$[ebp]
	call	?RegisterCategory@CTrace@ATL@@SAXPB_WI@Z ; ATL::CTrace::RegisterCategory
	pop	ecx
	pop	ecx

; 390  : }

	mov	eax, DWORD PTR _this$[ebp]
	pop	edi
	pop	esi
	pop	ebx
	add	esp, 204				; 000000ccH
	cmp	ebp, esp
	call	__RTC_CheckEsp
	mov	esp, ebp
	pop	ebp
	ret	4
??0?$CTraceCategoryEx@$0EAA@$0A@@ATL@@QAE@PB_W@Z ENDP	; ATL::CTraceCategoryEx<1024,0>::CTraceCategoryEx<1024,0>
_TEXT	ENDS
; Function compile flags: /Odsp /RTCsu /ZI
; File c:\program files (x86)\microsoft visual studio 12.0\vc\atlmfc\include\atltrace.h
;	COMDAT ??__EatlTraceDBProvider@ATL@@YAXXZ
text$di	SEGMENT
??__EatlTraceDBProvider@ATL@@YAXXZ PROC			; ATL::`dynamic initializer for 'atlTraceDBProvider'', COMDAT

; 105  : __declspec(selectany) CTraceCategoryEx<CTraceCategoryEx<>::TraceDBProvider> atlTraceDBProvider(_T("atlTraceDBProvider"));

	push	ebp
	mov	ebp, esp
	sub	esp, 192				; 000000c0H
	push	ebx
	push	esi
	push	edi
	lea	edi, DWORD PTR [ebp-192]
	push	48					; 00000030H
	pop	ecx
	mov	eax, -858993460				; ccccccccH
	rep stosd
	push	OFFSET ??_C@_1CG@MNMMIOOI@?$AAa?$AAt?$AAl?$AAT?$AAr?$AAa?$AAc?$AAe?$AAD?$AAB?$AAP?$AAr?$AAo?$AAv?$AAi?$AAd?$AAe?$AAr?$AA?$AA@
	mov	ecx, OFFSET ?atlTraceDBProvider@ATL@@3V?$CTraceCategoryEx@$0CAA@$0A@@1@A ; ATL::atlTraceDBProvider
	call	??0?$CTraceCategoryEx@$0CAA@$0A@@ATL@@QAE@PB_W@Z ; ATL::CTraceCategoryEx<512,0>::CTraceCategoryEx<512,0>
	pop	edi
	pop	esi
	pop	ebx
	add	esp, 192				; 000000c0H
	cmp	ebp, esp
	call	__RTC_CheckEsp
	mov	esp, ebp
	pop	ebp
	ret	0
??__EatlTraceDBProvider@ATL@@YAXXZ ENDP			; ATL::`dynamic initializer for 'atlTraceDBProvider''
text$di	ENDS
; Function compile flags: /Odsp /RTCsu /ZI
; File c:\program files (x86)\microsoft visual studio 12.0\vc\atlmfc\include\atltrace.h
;	COMDAT ??0?$CTraceCategoryEx@$0CAA@$0A@@ATL@@QAE@PB_W@Z
_TEXT	SEGMENT
_this$ = -8						; size = 4
_pszCategoryName$ = 8					; size = 4
??0?$CTraceCategoryEx@$0CAA@$0A@@ATL@@QAE@PB_W@Z PROC	; ATL::CTraceCategoryEx<512,0>::CTraceCategoryEx<512,0>, COMDAT
; _this$ = ecx

; 388  : {

	push	ebp
	mov	ebp, esp
	sub	esp, 204				; 000000ccH
	push	ebx
	push	esi
	push	edi
	push	ecx
	lea	edi, DWORD PTR [ebp-204]
	push	51					; 00000033H
	pop	ecx
	mov	eax, -858993460				; ccccccccH
	rep stosd
	pop	ecx
	mov	DWORD PTR _this$[ebp], ecx

; 389  : 	CTrace::RegisterCategory(pszCategoryName, traceCategory);

	push	512					; 00000200H
	push	DWORD PTR _pszCategoryName$[ebp]
	call	?RegisterCategory@CTrace@ATL@@SAXPB_WI@Z ; ATL::CTrace::RegisterCategory
	pop	ecx
	pop	ecx

; 390  : }

	mov	eax, DWORD PTR _this$[ebp]
	pop	edi
	pop	esi
	pop	ebx
	add	esp, 204				; 000000ccH
	cmp	ebp, esp
	call	__RTC_CheckEsp
	mov	esp, ebp
	pop	ebp
	ret	4
??0?$CTraceCategoryEx@$0CAA@$0A@@ATL@@QAE@PB_W@Z ENDP	; ATL::CTraceCategoryEx<512,0>::CTraceCategoryEx<512,0>
_TEXT	ENDS
; Function compile flags: /Odsp /RTCsu /ZI
; File c:\program files (x86)\microsoft visual studio 12.0\vc\atlmfc\include\atltrace.h
;	COMDAT ??__EatlTraceDBClient@ATL@@YAXXZ
text$di	SEGMENT
??__EatlTraceDBClient@ATL@@YAXXZ PROC			; ATL::`dynamic initializer for 'atlTraceDBClient'', COMDAT

; 104  : __declspec(selectany) CTraceCategoryEx<CTraceCategoryEx<>::TraceDBClient> atlTraceDBClient(_T("atlTraceDBClient"));

	push	ebp
	mov	ebp, esp
	sub	esp, 192				; 000000c0H
	push	ebx
	push	esi
	push	edi
	lea	edi, DWORD PTR [ebp-192]
	push	48					; 00000030H
	pop	ecx
	mov	eax, -858993460				; ccccccccH
	rep stosd
	push	OFFSET ??_C@_1CC@JNJJDOOH@?$AAa?$AAt?$AAl?$AAT?$AAr?$AAa?$AAc?$AAe?$AAD?$AAB?$AAC?$AAl?$AAi?$AAe?$AAn?$AAt?$AA?$AA@
	mov	ecx, OFFSET ?atlTraceDBClient@ATL@@3V?$CTraceCategoryEx@$0BAA@$0A@@1@A ; ATL::atlTraceDBClient
	call	??0?$CTraceCategoryEx@$0BAA@$0A@@ATL@@QAE@PB_W@Z ; ATL::CTraceCategoryEx<256,0>::CTraceCategoryEx<256,0>
	pop	edi
	pop	esi
	pop	ebx
	add	esp, 192				; 000000c0H
	cmp	ebp, esp
	call	__RTC_CheckEsp
	mov	esp, ebp
	pop	ebp
	ret	0
??__EatlTraceDBClient@ATL@@YAXXZ ENDP			; ATL::`dynamic initializer for 'atlTraceDBClient''
text$di	ENDS
; Function compile flags: /Odsp /RTCsu /ZI
; File c:\program files (x86)\microsoft visual studio 12.0\vc\atlmfc\include\atltrace.h
;	COMDAT ??0?$CTraceCategoryEx@$0BAA@$0A@@ATL@@QAE@PB_W@Z
_TEXT	SEGMENT
_this$ = -8						; size = 4
_pszCategoryName$ = 8					; size = 4
??0?$CTraceCategoryEx@$0BAA@$0A@@ATL@@QAE@PB_W@Z PROC	; ATL::CTraceCategoryEx<256,0>::CTraceCategoryEx<256,0>, COMDAT
; _this$ = ecx

; 388  : {

	push	ebp
	mov	ebp, esp
	sub	esp, 204				; 000000ccH
	push	ebx
	push	esi
	push	edi
	push	ecx
	lea	edi, DWORD PTR [ebp-204]
	push	51					; 00000033H
	pop	ecx
	mov	eax, -858993460				; ccccccccH
	rep stosd
	pop	ecx
	mov	DWORD PTR _this$[ebp], ecx

; 389  : 	CTrace::RegisterCategory(pszCategoryName, traceCategory);

	push	256					; 00000100H
	push	DWORD PTR _pszCategoryName$[ebp]
	call	?RegisterCategory@CTrace@ATL@@SAXPB_WI@Z ; ATL::CTrace::RegisterCategory
	pop	ecx
	pop	ecx

; 390  : }

	mov	eax, DWORD PTR _this$[ebp]
	pop	edi
	pop	esi
	pop	ebx
	add	esp, 204				; 000000ccH
	cmp	ebp, esp
	call	__RTC_CheckEsp
	mov	esp, ebp
	pop	ebp
	ret	4
??0?$CTraceCategoryEx@$0BAA@$0A@@ATL@@QAE@PB_W@Z ENDP	; ATL::CTraceCategoryEx<256,0>::CTraceCategoryEx<256,0>
_TEXT	ENDS
; Function compile flags: /Odsp /RTCsu /ZI
; File c:\program files (x86)\microsoft visual studio 12.0\vc\atlmfc\include\atltrace.h
;	COMDAT ??__EatlTraceHosting@ATL@@YAXXZ
text$di	SEGMENT
??__EatlTraceHosting@ATL@@YAXXZ PROC			; ATL::`dynamic initializer for 'atlTraceHosting'', COMDAT

; 103  : __declspec(selectany) CTraceCategoryEx<CTraceCategoryEx<>::TraceHosting> atlTraceHosting(_T("atlTraceHosting"));

	push	ebp
	mov	ebp, esp
	sub	esp, 192				; 000000c0H
	push	ebx
	push	esi
	push	edi
	lea	edi, DWORD PTR [ebp-192]
	push	48					; 00000030H
	pop	ecx
	mov	eax, -858993460				; ccccccccH
	rep stosd
	push	OFFSET ??_C@_1CA@OMOMONMN@?$AAa?$AAt?$AAl?$AAT?$AAr?$AAa?$AAc?$AAe?$AAH?$AAo?$AAs?$AAt?$AAi?$AAn?$AAg?$AA?$AA@
	mov	ecx, OFFSET ?atlTraceHosting@ATL@@3V?$CTraceCategoryEx@$0IA@$0A@@1@A ; ATL::atlTraceHosting
	call	??0?$CTraceCategoryEx@$0IA@$0A@@ATL@@QAE@PB_W@Z ; ATL::CTraceCategoryEx<128,0>::CTraceCategoryEx<128,0>
	pop	edi
	pop	esi
	pop	ebx
	add	esp, 192				; 000000c0H
	cmp	ebp, esp
	call	__RTC_CheckEsp
	mov	esp, ebp
	pop	ebp
	ret	0
??__EatlTraceHosting@ATL@@YAXXZ ENDP			; ATL::`dynamic initializer for 'atlTraceHosting''
text$di	ENDS
; Function compile flags: /Odsp /RTCsu /ZI
; File c:\program files (x86)\microsoft visual studio 12.0\vc\atlmfc\include\atltrace.h
;	COMDAT ??0?$CTraceCategoryEx@$0IA@$0A@@ATL@@QAE@PB_W@Z
_TEXT	SEGMENT
_this$ = -8						; size = 4
_pszCategoryName$ = 8					; size = 4
??0?$CTraceCategoryEx@$0IA@$0A@@ATL@@QAE@PB_W@Z PROC	; ATL::CTraceCategoryEx<128,0>::CTraceCategoryEx<128,0>, COMDAT
; _this$ = ecx

; 388  : {

	push	ebp
	mov	ebp, esp
	sub	esp, 204				; 000000ccH
	push	ebx
	push	esi
	push	edi
	push	ecx
	lea	edi, DWORD PTR [ebp-204]
	push	51					; 00000033H
	pop	ecx
	mov	eax, -858993460				; ccccccccH
	rep stosd
	pop	ecx
	mov	DWORD PTR _this$[ebp], ecx

; 389  : 	CTrace::RegisterCategory(pszCategoryName, traceCategory);

	push	128					; 00000080H
	push	DWORD PTR _pszCategoryName$[ebp]
	call	?RegisterCategory@CTrace@ATL@@SAXPB_WI@Z ; ATL::CTrace::RegisterCategory
	pop	ecx
	pop	ecx

; 390  : }

	mov	eax, DWORD PTR _this$[ebp]
	pop	edi
	pop	esi
	pop	ebx
	add	esp, 204				; 000000ccH
	cmp	ebp, esp
	call	__RTC_CheckEsp
	mov	esp, ebp
	pop	ebp
	ret	4
??0?$CTraceCategoryEx@$0IA@$0A@@ATL@@QAE@PB_W@Z ENDP	; ATL::CTraceCategoryEx<128,0>::CTraceCategoryEx<128,0>
_TEXT	ENDS
; Function compile flags: /Odsp /RTCsu /ZI
; File c:\program files (x86)\microsoft visual studio 12.0\vc\atlmfc\include\atltrace.h
;	COMDAT ??__EatlTraceControls@ATL@@YAXXZ
text$di	SEGMENT
??__EatlTraceControls@ATL@@YAXXZ PROC			; ATL::`dynamic initializer for 'atlTraceControls'', COMDAT

; 102  : __declspec(selectany) CTraceCategoryEx<CTraceCategoryEx<>::TraceControls> atlTraceControls(_T("atlTraceControls"));

	push	ebp
	mov	ebp, esp
	sub	esp, 192				; 000000c0H
	push	ebx
	push	esi
	push	edi
	lea	edi, DWORD PTR [ebp-192]
	push	48					; 00000030H
	pop	ecx
	mov	eax, -858993460				; ccccccccH
	rep stosd
	push	OFFSET ??_C@_1CC@IMNJGBED@?$AAa?$AAt?$AAl?$AAT?$AAr?$AAa?$AAc?$AAe?$AAC?$AAo?$AAn?$AAt?$AAr?$AAo?$AAl?$AAs?$AA?$AA@
	mov	ecx, OFFSET ?atlTraceControls@ATL@@3V?$CTraceCategoryEx@$0EA@$0A@@1@A ; ATL::atlTraceControls
	call	??0?$CTraceCategoryEx@$0EA@$0A@@ATL@@QAE@PB_W@Z ; ATL::CTraceCategoryEx<64,0>::CTraceCategoryEx<64,0>
	pop	edi
	pop	esi
	pop	ebx
	add	esp, 192				; 000000c0H
	cmp	ebp, esp
	call	__RTC_CheckEsp
	mov	esp, ebp
	pop	ebp
	ret	0
??__EatlTraceControls@ATL@@YAXXZ ENDP			; ATL::`dynamic initializer for 'atlTraceControls''
text$di	ENDS
; Function compile flags: /Odsp /RTCsu /ZI
; File c:\program files (x86)\microsoft visual studio 12.0\vc\atlmfc\include\atltrace.h
;	COMDAT ??0?$CTraceCategoryEx@$0EA@$0A@@ATL@@QAE@PB_W@Z
_TEXT	SEGMENT
_this$ = -8						; size = 4
_pszCategoryName$ = 8					; size = 4
??0?$CTraceCategoryEx@$0EA@$0A@@ATL@@QAE@PB_W@Z PROC	; ATL::CTraceCategoryEx<64,0>::CTraceCategoryEx<64,0>, COMDAT
; _this$ = ecx

; 388  : {

	push	ebp
	mov	ebp, esp
	sub	esp, 204				; 000000ccH
	push	ebx
	push	esi
	push	edi
	push	ecx
	lea	edi, DWORD PTR [ebp-204]
	push	51					; 00000033H
	pop	ecx
	mov	eax, -858993460				; ccccccccH
	rep stosd
	pop	ecx
	mov	DWORD PTR _this$[ebp], ecx

; 389  : 	CTrace::RegisterCategory(pszCategoryName, traceCategory);

	push	64					; 00000040H
	push	DWORD PTR _pszCategoryName$[ebp]
	call	?RegisterCategory@CTrace@ATL@@SAXPB_WI@Z ; ATL::CTrace::RegisterCategory
	pop	ecx
	pop	ecx

; 390  : }

	mov	eax, DWORD PTR _this$[ebp]
	pop	edi
	pop	esi
	pop	ebx
	add	esp, 204				; 000000ccH
	cmp	ebp, esp
	call	__RTC_CheckEsp
	mov	esp, ebp
	pop	ebp
	ret	4
??0?$CTraceCategoryEx@$0EA@$0A@@ATL@@QAE@PB_W@Z ENDP	; ATL::CTraceCategoryEx<64,0>::CTraceCategoryEx<64,0>
_TEXT	ENDS
; Function compile flags: /Odsp /RTCsu /ZI
; File c:\program files (x86)\microsoft visual studio 12.0\vc\atlmfc\include\atltrace.h
;	COMDAT ??__EatlTraceWindowing@ATL@@YAXXZ
text$di	SEGMENT
??__EatlTraceWindowing@ATL@@YAXXZ PROC			; ATL::`dynamic initializer for 'atlTraceWindowing'', COMDAT

; 101  : __declspec(selectany) CTraceCategoryEx<CTraceCategoryEx<>::TraceWindowing> atlTraceWindowing(_T("atlTraceWindowing"));

	push	ebp
	mov	ebp, esp
	sub	esp, 192				; 000000c0H
	push	ebx
	push	esi
	push	edi
	lea	edi, DWORD PTR [ebp-192]
	push	48					; 00000030H
	pop	ecx
	mov	eax, -858993460				; ccccccccH
	rep stosd
	push	OFFSET ??_C@_1CE@NAJDPMNB@?$AAa?$AAt?$AAl?$AAT?$AAr?$AAa?$AAc?$AAe?$AAW?$AAi?$AAn?$AAd?$AAo?$AAw?$AAi?$AAn?$AAg?$AA?$AA@
	mov	ecx, OFFSET ?atlTraceWindowing@ATL@@3V?$CTraceCategoryEx@$0CA@$0A@@1@A ; ATL::atlTraceWindowing
	call	??0?$CTraceCategoryEx@$0CA@$0A@@ATL@@QAE@PB_W@Z ; ATL::CTraceCategoryEx<32,0>::CTraceCategoryEx<32,0>
	pop	edi
	pop	esi
	pop	ebx
	add	esp, 192				; 000000c0H
	cmp	ebp, esp
	call	__RTC_CheckEsp
	mov	esp, ebp
	pop	ebp
	ret	0
??__EatlTraceWindowing@ATL@@YAXXZ ENDP			; ATL::`dynamic initializer for 'atlTraceWindowing''
text$di	ENDS
; Function compile flags: /Odsp /RTCsu /ZI
; File c:\program files (x86)\microsoft visual studio 12.0\vc\atlmfc\include\atltrace.h
;	COMDAT ??B?$CTraceCategoryEx@$0CA@$0A@@ATL@@QAEIXZ
_TEXT	SEGMENT
_this$ = -8						; size = 4
??B?$CTraceCategoryEx@$0CA@$0A@@ATL@@QAEIXZ PROC	; ATL::CTraceCategoryEx<32,0>::operator unsigned int, COMDAT
; _this$ = ecx

; 78   : 	{

	push	ebp
	mov	ebp, esp
	sub	esp, 204				; 000000ccH
	push	ebx
	push	esi
	push	edi
	push	ecx
	lea	edi, DWORD PTR [ebp-204]
	push	51					; 00000033H
	pop	ecx
	mov	eax, -858993460				; ccccccccH
	rep stosd
	pop	ecx
	mov	DWORD PTR _this$[ebp], ecx

; 79   : #ifdef _DEBUG
; 80   : 		return traceCategory;

	push	32					; 00000020H
	pop	eax

; 81   : #else
; 82   : 		return 0;
; 83   : #endif
; 84   : 	}

	pop	edi
	pop	esi
	pop	ebx
	mov	esp, ebp
	pop	ebp
	ret	0
??B?$CTraceCategoryEx@$0CA@$0A@@ATL@@QAEIXZ ENDP	; ATL::CTraceCategoryEx<32,0>::operator unsigned int
_TEXT	ENDS
; Function compile flags: /Odsp /RTCsu /ZI
; File c:\program files (x86)\microsoft visual studio 12.0\vc\atlmfc\include\atltrace.h
;	COMDAT ??0?$CTraceCategoryEx@$0CA@$0A@@ATL@@QAE@PB_W@Z
_TEXT	SEGMENT
_this$ = -8						; size = 4
_pszCategoryName$ = 8					; size = 4
??0?$CTraceCategoryEx@$0CA@$0A@@ATL@@QAE@PB_W@Z PROC	; ATL::CTraceCategoryEx<32,0>::CTraceCategoryEx<32,0>, COMDAT
; _this$ = ecx

; 388  : {

	push	ebp
	mov	ebp, esp
	sub	esp, 204				; 000000ccH
	push	ebx
	push	esi
	push	edi
	push	ecx
	lea	edi, DWORD PTR [ebp-204]
	push	51					; 00000033H
	pop	ecx
	mov	eax, -858993460				; ccccccccH
	rep stosd
	pop	ecx
	mov	DWORD PTR _this$[ebp], ecx

; 389  : 	CTrace::RegisterCategory(pszCategoryName, traceCategory);

	push	32					; 00000020H
	push	DWORD PTR _pszCategoryName$[ebp]
	call	?RegisterCategory@CTrace@ATL@@SAXPB_WI@Z ; ATL::CTrace::RegisterCategory
	pop	ecx
	pop	ecx

; 390  : }

	mov	eax, DWORD PTR _this$[ebp]
	pop	edi
	pop	esi
	pop	ebx
	add	esp, 204				; 000000ccH
	cmp	ebp, esp
	call	__RTC_CheckEsp
	mov	esp, ebp
	pop	ebp
	ret	4
??0?$CTraceCategoryEx@$0CA@$0A@@ATL@@QAE@PB_W@Z ENDP	; ATL::CTraceCategoryEx<32,0>::CTraceCategoryEx<32,0>
_TEXT	ENDS
; Function compile flags: /Odsp /RTCsu /ZI
; File c:\program files (x86)\microsoft visual studio 12.0\vc\atlmfc\include\atltrace.h
;	COMDAT ??__EatlTraceRefcount@ATL@@YAXXZ
text$di	SEGMENT
??__EatlTraceRefcount@ATL@@YAXXZ PROC			; ATL::`dynamic initializer for 'atlTraceRefcount'', COMDAT

; 100  : __declspec(selectany) CTraceCategoryEx<CTraceCategoryEx<>::TraceRefcount> atlTraceRefcount(_T("atlTraceRefcount"));

	push	ebp
	mov	ebp, esp
	sub	esp, 192				; 000000c0H
	push	ebx
	push	esi
	push	edi
	lea	edi, DWORD PTR [ebp-192]
	push	48					; 00000030H
	pop	ecx
	mov	eax, -858993460				; ccccccccH
	rep stosd
	push	OFFSET ??_C@_1CC@BNHGJFNK@?$AAa?$AAt?$AAl?$AAT?$AAr?$AAa?$AAc?$AAe?$AAR?$AAe?$AAf?$AAc?$AAo?$AAu?$AAn?$AAt?$AA?$AA@
	mov	ecx, OFFSET ?atlTraceRefcount@ATL@@3V?$CTraceCategoryEx@$0BA@$0A@@1@A ; ATL::atlTraceRefcount
	call	??0?$CTraceCategoryEx@$0BA@$0A@@ATL@@QAE@PB_W@Z ; ATL::CTraceCategoryEx<16,0>::CTraceCategoryEx<16,0>
	pop	edi
	pop	esi
	pop	ebx
	add	esp, 192				; 000000c0H
	cmp	ebp, esp
	call	__RTC_CheckEsp
	mov	esp, ebp
	pop	ebp
	ret	0
??__EatlTraceRefcount@ATL@@YAXXZ ENDP			; ATL::`dynamic initializer for 'atlTraceRefcount''
text$di	ENDS
; Function compile flags: /Odsp /RTCsu /ZI
; File c:\program files (x86)\microsoft visual studio 12.0\vc\atlmfc\include\atltrace.h
;	COMDAT ??0?$CTraceCategoryEx@$0BA@$0A@@ATL@@QAE@PB_W@Z
_TEXT	SEGMENT
_this$ = -8						; size = 4
_pszCategoryName$ = 8					; size = 4
??0?$CTraceCategoryEx@$0BA@$0A@@ATL@@QAE@PB_W@Z PROC	; ATL::CTraceCategoryEx<16,0>::CTraceCategoryEx<16,0>, COMDAT
; _this$ = ecx

; 388  : {

	push	ebp
	mov	ebp, esp
	sub	esp, 204				; 000000ccH
	push	ebx
	push	esi
	push	edi
	push	ecx
	lea	edi, DWORD PTR [ebp-204]
	push	51					; 00000033H
	pop	ecx
	mov	eax, -858993460				; ccccccccH
	rep stosd
	pop	ecx
	mov	DWORD PTR _this$[ebp], ecx

; 389  : 	CTrace::RegisterCategory(pszCategoryName, traceCategory);

	push	16					; 00000010H
	push	DWORD PTR _pszCategoryName$[ebp]
	call	?RegisterCategory@CTrace@ATL@@SAXPB_WI@Z ; ATL::CTrace::RegisterCategory
	pop	ecx
	pop	ecx

; 390  : }

	mov	eax, DWORD PTR _this$[ebp]
	pop	edi
	pop	esi
	pop	ebx
	add	esp, 204				; 000000ccH
	cmp	ebp, esp
	call	__RTC_CheckEsp
	mov	esp, ebp
	pop	ebp
	ret	4
??0?$CTraceCategoryEx@$0BA@$0A@@ATL@@QAE@PB_W@Z ENDP	; ATL::CTraceCategoryEx<16,0>::CTraceCategoryEx<16,0>
_TEXT	ENDS
; Function compile flags: /Odsp /RTCsu /ZI
; File c:\program files (x86)\microsoft visual studio 12.0\vc\atlmfc\include\atltrace.h
;	COMDAT ??__EatlTraceRegistrar@ATL@@YAXXZ
text$di	SEGMENT
??__EatlTraceRegistrar@ATL@@YAXXZ PROC			; ATL::`dynamic initializer for 'atlTraceRegistrar'', COMDAT

; 99   : __declspec(selectany) CTraceCategoryEx<CTraceCategoryEx<>::TraceRegistrar> atlTraceRegistrar(_T("atlTraceRegistrar"));

	push	ebp
	mov	ebp, esp
	sub	esp, 192				; 000000c0H
	push	ebx
	push	esi
	push	edi
	lea	edi, DWORD PTR [ebp-192]
	push	48					; 00000030H
	pop	ecx
	mov	eax, -858993460				; ccccccccH
	rep stosd
	push	OFFSET ??_C@_1CE@NIAEAIDK@?$AAa?$AAt?$AAl?$AAT?$AAr?$AAa?$AAc?$AAe?$AAR?$AAe?$AAg?$AAi?$AAs?$AAt?$AAr?$AAa?$AAr?$AA?$AA@
	mov	ecx, OFFSET ?atlTraceRegistrar@ATL@@3V?$CTraceCategoryEx@$07$0A@@1@A ; ATL::atlTraceRegistrar
	call	??0?$CTraceCategoryEx@$07$0A@@ATL@@QAE@PB_W@Z ; ATL::CTraceCategoryEx<8,0>::CTraceCategoryEx<8,0>
	pop	edi
	pop	esi
	pop	ebx
	add	esp, 192				; 000000c0H
	cmp	ebp, esp
	call	__RTC_CheckEsp
	mov	esp, ebp
	pop	ebp
	ret	0
??__EatlTraceRegistrar@ATL@@YAXXZ ENDP			; ATL::`dynamic initializer for 'atlTraceRegistrar''
text$di	ENDS
; Function compile flags: /Odsp /RTCsu /ZI
; File c:\program files (x86)\microsoft visual studio 12.0\vc\atlmfc\include\atltrace.h
;	COMDAT ??0?$CTraceCategoryEx@$07$0A@@ATL@@QAE@PB_W@Z
_TEXT	SEGMENT
_this$ = -8						; size = 4
_pszCategoryName$ = 8					; size = 4
??0?$CTraceCategoryEx@$07$0A@@ATL@@QAE@PB_W@Z PROC	; ATL::CTraceCategoryEx<8,0>::CTraceCategoryEx<8,0>, COMDAT
; _this$ = ecx

; 388  : {

	push	ebp
	mov	ebp, esp
	sub	esp, 204				; 000000ccH
	push	ebx
	push	esi
	push	edi
	push	ecx
	lea	edi, DWORD PTR [ebp-204]
	push	51					; 00000033H
	pop	ecx
	mov	eax, -858993460				; ccccccccH
	rep stosd
	pop	ecx
	mov	DWORD PTR _this$[ebp], ecx

; 389  : 	CTrace::RegisterCategory(pszCategoryName, traceCategory);

	push	8
	push	DWORD PTR _pszCategoryName$[ebp]
	call	?RegisterCategory@CTrace@ATL@@SAXPB_WI@Z ; ATL::CTrace::RegisterCategory
	pop	ecx
	pop	ecx

; 390  : }

	mov	eax, DWORD PTR _this$[ebp]
	pop	edi
	pop	esi
	pop	ebx
	add	esp, 204				; 000000ccH
	cmp	ebp, esp
	call	__RTC_CheckEsp
	mov	esp, ebp
	pop	ebp
	ret	4
??0?$CTraceCategoryEx@$07$0A@@ATL@@QAE@PB_W@Z ENDP	; ATL::CTraceCategoryEx<8,0>::CTraceCategoryEx<8,0>
_TEXT	ENDS
; Function compile flags: /Odsp /RTCsu /ZI
; File c:\program files (x86)\microsoft visual studio 12.0\vc\atlmfc\include\atltrace.h
;	COMDAT ??__EatlTraceQI@ATL@@YAXXZ
text$di	SEGMENT
??__EatlTraceQI@ATL@@YAXXZ PROC				; ATL::`dynamic initializer for 'atlTraceQI'', COMDAT

; 98   : __declspec(selectany) CTraceCategoryEx<CTraceCategoryEx<>::TraceQI> atlTraceQI(_T("atlTraceQI"));

	push	ebp
	mov	ebp, esp
	sub	esp, 192				; 000000c0H
	push	ebx
	push	esi
	push	edi
	lea	edi, DWORD PTR [ebp-192]
	push	48					; 00000030H
	pop	ecx
	mov	eax, -858993460				; ccccccccH
	rep stosd
	push	OFFSET ??_C@_1BG@FPLJJEMF@?$AAa?$AAt?$AAl?$AAT?$AAr?$AAa?$AAc?$AAe?$AAQ?$AAI?$AA?$AA@
	mov	ecx, OFFSET ?atlTraceQI@ATL@@3V?$CTraceCategoryEx@$03$0A@@1@A ; ATL::atlTraceQI
	call	??0?$CTraceCategoryEx@$03$0A@@ATL@@QAE@PB_W@Z ; ATL::CTraceCategoryEx<4,0>::CTraceCategoryEx<4,0>
	pop	edi
	pop	esi
	pop	ebx
	add	esp, 192				; 000000c0H
	cmp	ebp, esp
	call	__RTC_CheckEsp
	mov	esp, ebp
	pop	ebp
	ret	0
??__EatlTraceQI@ATL@@YAXXZ ENDP				; ATL::`dynamic initializer for 'atlTraceQI''
text$di	ENDS
; Function compile flags: /Odsp /RTCsu /ZI
; File c:\program files (x86)\microsoft visual studio 12.0\vc\atlmfc\include\atltrace.h
;	COMDAT ??0?$CTraceCategoryEx@$03$0A@@ATL@@QAE@PB_W@Z
_TEXT	SEGMENT
_this$ = -8						; size = 4
_pszCategoryName$ = 8					; size = 4
??0?$CTraceCategoryEx@$03$0A@@ATL@@QAE@PB_W@Z PROC	; ATL::CTraceCategoryEx<4,0>::CTraceCategoryEx<4,0>, COMDAT
; _this$ = ecx

; 388  : {

	push	ebp
	mov	ebp, esp
	sub	esp, 204				; 000000ccH
	push	ebx
	push	esi
	push	edi
	push	ecx
	lea	edi, DWORD PTR [ebp-204]
	push	51					; 00000033H
	pop	ecx
	mov	eax, -858993460				; ccccccccH
	rep stosd
	pop	ecx
	mov	DWORD PTR _this$[ebp], ecx

; 389  : 	CTrace::RegisterCategory(pszCategoryName, traceCategory);

	push	4
	push	DWORD PTR _pszCategoryName$[ebp]
	call	?RegisterCategory@CTrace@ATL@@SAXPB_WI@Z ; ATL::CTrace::RegisterCategory
	pop	ecx
	pop	ecx

; 390  : }

	mov	eax, DWORD PTR _this$[ebp]
	pop	edi
	pop	esi
	pop	ebx
	add	esp, 204				; 000000ccH
	cmp	ebp, esp
	call	__RTC_CheckEsp
	mov	esp, ebp
	pop	ebp
	ret	4
??0?$CTraceCategoryEx@$03$0A@@ATL@@QAE@PB_W@Z ENDP	; ATL::CTraceCategoryEx<4,0>::CTraceCategoryEx<4,0>
_TEXT	ENDS
; Function compile flags: /Odsp /RTCsu /ZI
; File c:\program files (x86)\microsoft visual studio 12.0\vc\atlmfc\include\atltrace.h
;	COMDAT ??__EatlTraceCOM@ATL@@YAXXZ
text$di	SEGMENT
??__EatlTraceCOM@ATL@@YAXXZ PROC			; ATL::`dynamic initializer for 'atlTraceCOM'', COMDAT

; 97   : __declspec(selectany) CTraceCategoryEx<CTraceCategoryEx<>::TraceCom> atlTraceCOM(_T("atlTraceCOM"));

	push	ebp
	mov	ebp, esp
	sub	esp, 192				; 000000c0H
	push	ebx
	push	esi
	push	edi
	lea	edi, DWORD PTR [ebp-192]
	push	48					; 00000030H
	pop	ecx
	mov	eax, -858993460				; ccccccccH
	rep stosd
	push	OFFSET ??_C@_1BI@MAFGHOEE@?$AAa?$AAt?$AAl?$AAT?$AAr?$AAa?$AAc?$AAe?$AAC?$AAO?$AAM?$AA?$AA@
	mov	ecx, OFFSET ?atlTraceCOM@ATL@@3V?$CTraceCategoryEx@$01$0A@@1@A ; ATL::atlTraceCOM
	call	??0?$CTraceCategoryEx@$01$0A@@ATL@@QAE@PB_W@Z ; ATL::CTraceCategoryEx<2,0>::CTraceCategoryEx<2,0>
	pop	edi
	pop	esi
	pop	ebx
	add	esp, 192				; 000000c0H
	cmp	ebp, esp
	call	__RTC_CheckEsp
	mov	esp, ebp
	pop	ebp
	ret	0
??__EatlTraceCOM@ATL@@YAXXZ ENDP			; ATL::`dynamic initializer for 'atlTraceCOM''
text$di	ENDS
; Function compile flags: /Odsp /RTCsu /ZI
; File c:\program files (x86)\microsoft visual studio 12.0\vc\atlmfc\include\atltrace.h
;	COMDAT ??B?$CTraceCategoryEx@$01$0A@@ATL@@QAEIXZ
_TEXT	SEGMENT
_this$ = -8						; size = 4
??B?$CTraceCategoryEx@$01$0A@@ATL@@QAEIXZ PROC		; ATL::CTraceCategoryEx<2,0>::operator unsigned int, COMDAT
; _this$ = ecx

; 78   : 	{

	push	ebp
	mov	ebp, esp
	sub	esp, 204				; 000000ccH
	push	ebx
	push	esi
	push	edi
	push	ecx
	lea	edi, DWORD PTR [ebp-204]
	push	51					; 00000033H
	pop	ecx
	mov	eax, -858993460				; ccccccccH
	rep stosd
	pop	ecx
	mov	DWORD PTR _this$[ebp], ecx

; 79   : #ifdef _DEBUG
; 80   : 		return traceCategory;

	push	2
	pop	eax

; 81   : #else
; 82   : 		return 0;
; 83   : #endif
; 84   : 	}

	pop	edi
	pop	esi
	pop	ebx
	mov	esp, ebp
	pop	ebp
	ret	0
??B?$CTraceCategoryEx@$01$0A@@ATL@@QAEIXZ ENDP		; ATL::CTraceCategoryEx<2,0>::operator unsigned int
_TEXT	ENDS
; Function compile flags: /Odsp /RTCsu /ZI
; File c:\program files (x86)\microsoft visual studio 12.0\vc\atlmfc\include\atltrace.h
;	COMDAT ??0?$CTraceCategoryEx@$01$0A@@ATL@@QAE@PB_W@Z
_TEXT	SEGMENT
_this$ = -8						; size = 4
_pszCategoryName$ = 8					; size = 4
??0?$CTraceCategoryEx@$01$0A@@ATL@@QAE@PB_W@Z PROC	; ATL::CTraceCategoryEx<2,0>::CTraceCategoryEx<2,0>, COMDAT
; _this$ = ecx

; 388  : {

	push	ebp
	mov	ebp, esp
	sub	esp, 204				; 000000ccH
	push	ebx
	push	esi
	push	edi
	push	ecx
	lea	edi, DWORD PTR [ebp-204]
	push	51					; 00000033H
	pop	ecx
	mov	eax, -858993460				; ccccccccH
	rep stosd
	pop	ecx
	mov	DWORD PTR _this$[ebp], ecx

; 389  : 	CTrace::RegisterCategory(pszCategoryName, traceCategory);

	push	2
	push	DWORD PTR _pszCategoryName$[ebp]
	call	?RegisterCategory@CTrace@ATL@@SAXPB_WI@Z ; ATL::CTrace::RegisterCategory
	pop	ecx
	pop	ecx

; 390  : }

	mov	eax, DWORD PTR _this$[ebp]
	pop	edi
	pop	esi
	pop	ebx
	add	esp, 204				; 000000ccH
	cmp	ebp, esp
	call	__RTC_CheckEsp
	mov	esp, ebp
	pop	ebp
	ret	4
??0?$CTraceCategoryEx@$01$0A@@ATL@@QAE@PB_W@Z ENDP	; ATL::CTraceCategoryEx<2,0>::CTraceCategoryEx<2,0>
_TEXT	ENDS
; Function compile flags: /Odsp /RTCsu /ZI
; File c:\program files (x86)\microsoft visual studio 12.0\vc\atlmfc\include\atltrace.h
;	COMDAT ??__EatlTraceGeneral@ATL@@YAXXZ
text$di	SEGMENT
??__EatlTraceGeneral@ATL@@YAXXZ PROC			; ATL::`dynamic initializer for 'atlTraceGeneral'', COMDAT

; 96   : __declspec(selectany) CTraceCategoryEx<CTraceCategoryEx<>::TraceGeneral> atlTraceGeneral(_T("atlTraceGeneral"));

	push	ebp
	mov	ebp, esp
	sub	esp, 192				; 000000c0H
	push	ebx
	push	esi
	push	edi
	lea	edi, DWORD PTR [ebp-192]
	push	48					; 00000030H
	pop	ecx
	mov	eax, -858993460				; ccccccccH
	rep stosd
	push	OFFSET ??_C@_1CA@ONGMEOAB@?$AAa?$AAt?$AAl?$AAT?$AAr?$AAa?$AAc?$AAe?$AAG?$AAe?$AAn?$AAe?$AAr?$AAa?$AAl?$AA?$AA@
	mov	ecx, OFFSET ?atlTraceGeneral@ATL@@3V?$CTraceCategoryEx@$00$0A@@1@A ; ATL::atlTraceGeneral
	call	??0?$CTraceCategoryEx@$00$0A@@ATL@@QAE@PB_W@Z ; ATL::CTraceCategoryEx<1,0>::CTraceCategoryEx<1,0>
	pop	edi
	pop	esi
	pop	ebx
	add	esp, 192				; 000000c0H
	cmp	ebp, esp
	call	__RTC_CheckEsp
	mov	esp, ebp
	pop	ebp
	ret	0
??__EatlTraceGeneral@ATL@@YAXXZ ENDP			; ATL::`dynamic initializer for 'atlTraceGeneral''
text$di	ENDS
; Function compile flags: /Odsp /RTCsu /ZI
; File c:\program files (x86)\microsoft visual studio 12.0\vc\atlmfc\include\atltrace.h
;	COMDAT ??0?$CTraceCategoryEx@$00$0A@@ATL@@QAE@PB_W@Z
_TEXT	SEGMENT
_this$ = -8						; size = 4
_pszCategoryName$ = 8					; size = 4
??0?$CTraceCategoryEx@$00$0A@@ATL@@QAE@PB_W@Z PROC	; ATL::CTraceCategoryEx<1,0>::CTraceCategoryEx<1,0>, COMDAT
; _this$ = ecx

; 388  : {

	push	ebp
	mov	ebp, esp
	sub	esp, 204				; 000000ccH
	push	ebx
	push	esi
	push	edi
	push	ecx
	lea	edi, DWORD PTR [ebp-204]
	push	51					; 00000033H
	pop	ecx
	mov	eax, -858993460				; ccccccccH
	rep stosd
	pop	ecx
	mov	DWORD PTR _this$[ebp], ecx

; 389  : 	CTrace::RegisterCategory(pszCategoryName, traceCategory);

	push	1
	push	DWORD PTR _pszCategoryName$[ebp]
	call	?RegisterCategory@CTrace@ATL@@SAXPB_WI@Z ; ATL::CTrace::RegisterCategory
	pop	ecx
	pop	ecx

; 390  : }

	mov	eax, DWORD PTR _this$[ebp]
	pop	edi
	pop	esi
	pop	ebx
	add	esp, 204				; 000000ccH
	cmp	ebp, esp
	call	__RTC_CheckEsp
	mov	esp, ebp
	pop	ebp
	ret	4
??0?$CTraceCategoryEx@$00$0A@@ATL@@QAE@PB_W@Z ENDP	; ATL::CTraceCategoryEx<1,0>::CTraceCategoryEx<1,0>
_TEXT	ENDS
; Function compile flags: /Odsp /RTCsu /ZI
; File c:\program files (x86)\microsoft visual studio 12.0\vc\atlmfc\include\atltrace.h
;	COMDAT ??0?$CTraceCategoryEx@$0IAAAA@$0A@@ATL@@QAE@PB_W@Z
_TEXT	SEGMENT
_this$ = -8						; size = 4
_pszCategoryName$ = 8					; size = 4
??0?$CTraceCategoryEx@$0IAAAA@$0A@@ATL@@QAE@PB_W@Z PROC	; ATL::CTraceCategoryEx<524288,0>::CTraceCategoryEx<524288,0>, COMDAT
; _this$ = ecx

; 388  : {

	push	ebp
	mov	ebp, esp
	sub	esp, 204				; 000000ccH
	push	ebx
	push	esi
	push	edi
	push	ecx
	lea	edi, DWORD PTR [ebp-204]
	push	51					; 00000033H
	pop	ecx
	mov	eax, -858993460				; ccccccccH
	rep stosd
	pop	ecx
	mov	DWORD PTR _this$[ebp], ecx

; 389  : 	CTrace::RegisterCategory(pszCategoryName, traceCategory);

	push	524288					; 00080000H
	push	DWORD PTR _pszCategoryName$[ebp]
	call	?RegisterCategory@CTrace@ATL@@SAXPB_WI@Z ; ATL::CTrace::RegisterCategory
	pop	ecx
	pop	ecx

; 390  : }

	mov	eax, DWORD PTR _this$[ebp]
	pop	edi
	pop	esi
	pop	ebx
	add	esp, 204				; 000000ccH
	cmp	ebp, esp
	call	__RTC_CheckEsp
	mov	esp, ebp
	pop	ebp
	ret	4
??0?$CTraceCategoryEx@$0IAAAA@$0A@@ATL@@QAE@PB_W@Z ENDP	; ATL::CTraceCategoryEx<524288,0>::CTraceCategoryEx<524288,0>
_TEXT	ENDS
; Function compile flags: /Odsp /RTCsu /ZI
; File c:\program files (x86)\microsoft visual studio 12.0\vc\atlmfc\include\atlalloc.h
;	COMDAT ??$AtlAdd@K@ATL@@YAJPAKKK@Z
_TEXT	SEGMENT
_ptResult$ = 8						; size = 4
_tLeft$ = 12						; size = 4
_tRight$ = 16						; size = 4
??$AtlAdd@K@ATL@@YAJPAKKK@Z PROC			; ATL::AtlAdd<unsigned long>, COMDAT

; 99   : {

	push	ebp
	mov	ebp, esp
	sub	esp, 192				; 000000c0H
	push	ebx
	push	esi
	push	edi
	lea	edi, DWORD PTR [ebp-192]
	push	48					; 00000030H
	pop	ecx
	mov	eax, -858993460				; ccccccccH
	rep stosd

; 100  : 	if(::ATL::AtlLimits<T>::_Max-tLeft < tRight)

	or	eax, -1
	sub	eax, DWORD PTR _tLeft$[ebp]
	cmp	eax, DWORD PTR _tRight$[ebp]
	jae	SHORT $LN1@AtlAdd

; 101  : 	{
; 102  : 		return HRESULT_FROM_WIN32(ERROR_ARITHMETIC_OVERFLOW);

	push	534					; 00000216H
	call	_HRESULT_FROM_WIN32
	pop	ecx
	jmp	SHORT $LN2@AtlAdd
$LN1@AtlAdd:

; 103  : 	}
; 104  : 	*ptResult= tLeft + tRight;

	mov	eax, DWORD PTR _tLeft$[ebp]
	add	eax, DWORD PTR _tRight$[ebp]
	mov	ecx, DWORD PTR _ptResult$[ebp]
	mov	DWORD PTR [ecx], eax

; 105  : 	return S_OK;

	xor	eax, eax
$LN2@AtlAdd:

; 106  : }

	pop	edi
	pop	esi
	pop	ebx
	add	esp, 192				; 000000c0H
	cmp	ebp, esp
	call	__RTC_CheckEsp
	mov	esp, ebp
	pop	ebp
	ret	0
??$AtlAdd@K@ATL@@YAJPAKKK@Z ENDP			; ATL::AtlAdd<unsigned long>
_TEXT	ENDS
; Function compile flags: /Odsp /RTCsu /ZI
; File c:\program files (x86)\microsoft visual studio 12.0\vc\atlmfc\include\atlalloc.h
;	COMDAT ??$AtlMultiply@K@ATL@@YAJPAKKK@Z
_TEXT	SEGMENT
_i64Result$ = -12					; size = 8
_piResult$ = 8						; size = 4
_iLeft$ = 12						; size = 4
_iRight$ = 16						; size = 4
??$AtlMultiply@K@ATL@@YAJPAKKK@Z PROC			; ATL::AtlMultiply<unsigned long>, COMDAT

; 180  : {

	push	ebp
	mov	ebp, esp
	sub	esp, 208				; 000000d0H
	push	ebx
	push	esi
	push	edi
	lea	edi, DWORD PTR [ebp-208]
	push	52					; 00000034H
	pop	ecx
	mov	eax, -858993460				; ccccccccH
	rep stosd

; 181  : 	unsigned __int64 i64Result=static_cast<unsigned __int64>(iLeft) * static_cast<unsigned __int64>(iRight);

	mov	eax, DWORD PTR _iLeft$[ebp]
	mul	DWORD PTR _iRight$[ebp]
	mov	DWORD PTR _i64Result$[ebp], eax
	mov	DWORD PTR _i64Result$[ebp+4], edx

; 182  : 	if(i64Result>ULONG_MAX)

	cmp	DWORD PTR _i64Result$[ebp+4], 0
	ja	SHORT $LN4@AtlMultipl
	cmp	DWORD PTR _i64Result$[ebp], -1
	jbe	SHORT $LN1@AtlMultipl
$LN4@AtlMultipl:

; 183  : 	{
; 184  : 		return HRESULT_FROM_WIN32(ERROR_ARITHMETIC_OVERFLOW);

	push	534					; 00000216H
	call	_HRESULT_FROM_WIN32
	pop	ecx
	jmp	SHORT $LN2@AtlMultipl
$LN1@AtlMultipl:

; 185  : 	}
; 186  : 	*piResult=static_cast<unsigned long _ATL_W64>(i64Result);

	mov	eax, DWORD PTR _i64Result$[ebp]
	mov	ecx, DWORD PTR _piResult$[ebp]
	mov	DWORD PTR [ecx], eax

; 187  : 	return S_OK;

	xor	eax, eax
$LN2@AtlMultipl:

; 188  : }

	pop	edi
	pop	esi
	pop	ebx
	add	esp, 208				; 000000d0H
	cmp	ebp, esp
	call	__RTC_CheckEsp
	mov	esp, ebp
	pop	ebp
	ret	0
??$AtlMultiply@K@ATL@@YAJPAKKK@Z ENDP			; ATL::AtlMultiply<unsigned long>
_TEXT	ENDS
; Function compile flags: /Odsp /RTCsu /ZI
; File c:\program files (x86)\microsoft visual studio 12.0\vc\atlmfc\include\atlalloc.h
;	COMDAT ??$AtlMultiply@I@ATL@@YAJPAIII@Z
_TEXT	SEGMENT
_i64Result$ = -12					; size = 8
_piResult$ = 8						; size = 4
_iLeft$ = 12						; size = 4
_iRight$ = 16						; size = 4
??$AtlMultiply@I@ATL@@YAJPAIII@Z PROC			; ATL::AtlMultiply<unsigned int>, COMDAT

; 150  : {

	push	ebp
	mov	ebp, esp
	sub	esp, 208				; 000000d0H
	push	ebx
	push	esi
	push	edi
	lea	edi, DWORD PTR [ebp-208]
	push	52					; 00000034H
	pop	ecx
	mov	eax, -858993460				; ccccccccH
	rep stosd

; 151  : 	unsigned __int64 i64Result=static_cast<unsigned __int64>(iLeft) * static_cast<unsigned __int64>(iRight);

	mov	eax, DWORD PTR _iLeft$[ebp]
	mul	DWORD PTR _iRight$[ebp]
	mov	DWORD PTR _i64Result$[ebp], eax
	mov	DWORD PTR _i64Result$[ebp+4], edx

; 152  : 	if(i64Result>UINT_MAX)

	cmp	DWORD PTR _i64Result$[ebp+4], 0
	ja	SHORT $LN4@AtlMultipl
	cmp	DWORD PTR _i64Result$[ebp], -1
	jbe	SHORT $LN1@AtlMultipl
$LN4@AtlMultipl:

; 153  : 	{
; 154  : 		return HRESULT_FROM_WIN32(ERROR_ARITHMETIC_OVERFLOW);

	push	534					; 00000216H
	call	_HRESULT_FROM_WIN32
	pop	ecx
	jmp	SHORT $LN2@AtlMultipl
$LN1@AtlMultipl:

; 155  : 	}
; 156  : 	*piResult=static_cast<unsigned int _ATL_W64>(i64Result);

	mov	eax, DWORD PTR _i64Result$[ebp]
	mov	ecx, DWORD PTR _piResult$[ebp]
	mov	DWORD PTR [ecx], eax

; 157  : 	return S_OK;

	xor	eax, eax
$LN2@AtlMultipl:

; 158  : }

	pop	edi
	pop	esi
	pop	ebx
	add	esp, 208				; 000000d0H
	cmp	ebp, esp
	call	__RTC_CheckEsp
	mov	esp, ebp
	pop	ebp
	ret	0
??$AtlMultiply@I@ATL@@YAJPAIII@Z ENDP			; ATL::AtlMultiply<unsigned int>
_TEXT	ENDS
; Function compile flags: /Odsp /RTCsu /ZI
; File c:\program files (x86)\windows kits\8.1\include\shared\winerror.h
;	COMDAT _HRESULT_FROM_WIN32
_TEXT	SEGMENT
tv68 = -196						; size = 4
_x$ = 8							; size = 4
_HRESULT_FROM_WIN32 PROC				; COMDAT

; 26297: FORCEINLINE HRESULT HRESULT_FROM_WIN32(unsigned long x) { return (HRESULT)(x) <= 0 ? (HRESULT)(x) : (HRESULT) (((x) & 0x0000FFFF) | (FACILITY_WIN32 << 16) | 0x80000000);}

	push	ebp
	mov	ebp, esp
	sub	esp, 196				; 000000c4H
	push	ebx
	push	esi
	push	edi
	lea	edi, DWORD PTR [ebp-196]
	push	49					; 00000031H
	pop	ecx
	mov	eax, -858993460				; ccccccccH
	rep stosd
	cmp	DWORD PTR _x$[ebp], 0
	jg	SHORT $LN3@HRESULT_FR
	mov	eax, DWORD PTR _x$[ebp]
	mov	DWORD PTR tv68[ebp], eax
	jmp	SHORT $LN4@HRESULT_FR
$LN3@HRESULT_FR:
	mov	eax, DWORD PTR _x$[ebp]
	and	eax, 65535				; 0000ffffH
	or	eax, 458752				; 00070000H
	or	eax, -2147483648			; 80000000H
	mov	DWORD PTR tv68[ebp], eax
$LN4@HRESULT_FR:
	mov	eax, DWORD PTR tv68[ebp]
	pop	edi
	pop	esi
	pop	ebx
	mov	esp, ebp
	pop	ebp
	ret	0
_HRESULT_FROM_WIN32 ENDP
_TEXT	ENDS
; Function compile flags: /Odsp /RTCsu /ZI
;	COMDAT ??_H@YGXPAXIHP6EPAX0@Z@Z
_TEXT	SEGMENT
___t$ = 8						; size = 4
___s$ = 12						; size = 4
___n$ = 16						; size = 4
___f$ = 20						; size = 4
??_H@YGXPAXIHP6EPAX0@Z@Z PROC				; `vector constructor iterator', COMDAT
	push	ebp
	mov	ebp, esp
	sub	esp, 192				; 000000c0H
	push	ebx
	push	esi
	push	edi
	lea	edi, DWORD PTR [ebp-192]
	push	48					; 00000030H
	pop	ecx
	mov	eax, -858993460				; ccccccccH
	rep stosd
$LN2@vector:
	mov	eax, DWORD PTR ___n$[ebp]
	dec	eax
	mov	DWORD PTR ___n$[ebp], eax
	js	SHORT $LN3@vector
	mov	esi, esp
	mov	ecx, DWORD PTR ___t$[ebp]
	call	DWORD PTR ___f$[ebp]
	cmp	esi, esp
	call	__RTC_CheckEsp
	mov	eax, DWORD PTR ___t$[ebp]
	add	eax, DWORD PTR ___s$[ebp]
	mov	DWORD PTR ___t$[ebp], eax
	jmp	SHORT $LN2@vector
$LN3@vector:
	pop	edi
	pop	esi
	pop	ebx
	add	esp, 192				; 000000c0H
	cmp	ebp, esp
	call	__RTC_CheckEsp
	mov	esp, ebp
	pop	ebp
	ret	16					; 00000010H
??_H@YGXPAXIHP6EPAX0@Z@Z ENDP				; `vector constructor iterator'
_TEXT	ENDS
END
