; Listing generated by Microsoft (R) Optimizing Compiler Version 18.00.21005.1 

	TITLE	C:\Projets\SUDOKU\SUDOKU\SUDOKU\SUDOKU.cpp
	.686P
	.XMM
	include listing.inc
	.model	flat

INCLUDELIB MSVCRTD
INCLUDELIB OLDNAMES

PUBLIC	?m_nLevel@CTrace@ATL@@1IA			; ATL::CTrace::m_nLevel
PUBLIC	?m_nCategory@CTrace@ATL@@1IA			; ATL::CTrace::m_nCategory
PUBLIC	?m_nLastCategory@CTrace@ATL@@1IA		; ATL::CTrace::m_nLastCategory
PUBLIC	?m_nMap@CTrace@ATL@@1PAUCategoryMap@12@A	; ATL::CTrace::m_nMap
EXTRN	?OnHelp@CWinApp@@IAEXXZ:PROC			; CWinApp::OnHelp
EXTRN	?GetThisMessageMap@CWinApp@@KGPBUAFX_MSGMAP@@XZ:PROC ; CWinApp::GetThisMessageMap
;	COMDAT ?m_nLevel@CTrace@ATL@@1IA
_BSS	SEGMENT
?m_nLevel@CTrace@ATL@@1IA DD 01H DUP (?)		; ATL::CTrace::m_nLevel
_BSS	ENDS
;	COMDAT ?m_nLastCategory@CTrace@ATL@@1IA
_BSS	SEGMENT
?m_nLastCategory@CTrace@ATL@@1IA DD 01H DUP (?)		; ATL::CTrace::m_nLastCategory
_BSS	ENDS
;	COMDAT ?m_nMap@CTrace@ATL@@1PAUCategoryMap@12@A
_BSS	SEGMENT
?m_nMap@CTrace@ATL@@1PAUCategoryMap@12@A DB 02080H DUP (?) ; ATL::CTrace::m_nMap
_BSS	ENDS
;	COMDAT ?m_nCategory@CTrace@ATL@@1IA
_DATA	SEGMENT
?m_nCategory@CTrace@ATL@@1IA DD 0ffffffffH		; ATL::CTrace::m_nCategory
_DATA	ENDS
CONST	SEGMENT
?_messageEntries@?1??GetThisMessageMap@CSUDOKUApp@@KGPBUAFX_MSGMAP@@XZ@4QBUAFX_MSGMAP_ENTRY@@B DD 0111H ; `CSUDOKUApp::GetThisMessageMap'::`2'::_messageEntries
	DD	00H
	DD	0e146H
	DD	0e146H
	DD	03aH
	DD	FLAT:?OnHelp@CWinApp@@IAEXXZ
	DD	00H
	DD	00H
	DD	00H
	DD	00H
	DD	00H
	DD	00H
?messageMap@?1??GetThisMessageMap@CSUDOKUApp@@KGPBUAFX_MSGMAP@@XZ@4U3@B DD FLAT:?GetThisMessageMap@CWinApp@@KGPBUAFX_MSGMAP@@XZ ; `CSUDOKUApp::GetThisMessageMap'::`2'::messageMap
	DD	FLAT:?_messageEntries@?1??GetThisMessageMap@CSUDOKUApp@@KGPBUAFX_MSGMAP@@XZ@4QBUAFX_MSGMAP_ENTRY@@B
CONST	ENDS
PUBLIC	??B?$CTraceCategoryEx@$0IAAAA@$0A@@ATL@@QAEIXZ	; ATL::CTraceCategoryEx<524288,0>::operator unsigned int
PUBLIC	?GetCategoryName@CTrace@ATL@@CAPA_WI@Z		; ATL::CTrace::GetCategoryName
PUBLIC	?TraceV@CTrace@ATL@@CAXPBDHIIPB_W@Z		; ATL::CTrace::TraceV
PUBLIC	?TraceV@CTrace@ATL@@SAXPBDHII0PAD@Z		; ATL::CTrace::TraceV
PUBLIC	??0CTraceFileAndLineInfo@ATL@@QAE@PBDH@Z	; ATL::CTraceFileAndLineInfo::CTraceFileAndLineInfo
PUBLIC	??RCTraceFileAndLineInfo@ATL@@QBAXHIPBDZZ	; ATL::CTraceFileAndLineInfo::operator()
PUBLIC	?SupportsRestartManager@CWinApp@@UBEHXZ		; CWinApp::SupportsRestartManager
PUBLIC	?SupportsApplicationRecovery@CWinApp@@UBEHXZ	; CWinApp::SupportsApplicationRecovery
PUBLIC	?SupportsAutosaveAtRestart@CWinApp@@UBEHXZ	; CWinApp::SupportsAutosaveAtRestart
PUBLIC	?SupportsAutosaveAtInterval@CWinApp@@UBEHXZ	; CWinApp::SupportsAutosaveAtInterval
PUBLIC	?ReopenPreviousFilesAtRestart@CWinApp@@UBEHXZ	; CWinApp::ReopenPreviousFilesAtRestart
PUBLIC	?RestoreAutosavedFilesAtRestart@CWinApp@@UBEHXZ	; CWinApp::RestoreAutosavedFilesAtRestart
PUBLIC	?GetApplicationRestartFlags@CWinApp@@UAEKXZ	; CWinApp::GetApplicationRestartFlags
PUBLIC	?GetApplicationRecoveryParameter@CWinApp@@UAEPAXXZ ; CWinApp::GetApplicationRecoveryParameter
PUBLIC	?GetApplicationRecoveryPingInterval@CWinApp@@UAEKXZ ; CWinApp::GetApplicationRecoveryPingInterval
PUBLIC	??1CDialogEx@@UAE@XZ				; CDialogEx::~CDialogEx
PUBLIC	??0CSUDOKUApp@@QAE@XZ				; CSUDOKUApp::CSUDOKUApp
PUBLIC	?InitInstance@CSUDOKUApp@@UAEHXZ		; CSUDOKUApp::InitInstance
PUBLIC	?GetThisMessageMap@CSUDOKUApp@@KGPBUAFX_MSGMAP@@XZ ; CSUDOKUApp::GetThisMessageMap
PUBLIC	?GetMessageMap@CSUDOKUApp@@MBEPBUAFX_MSGMAP@@XZ	; CSUDOKUApp::GetMessageMap
PUBLIC	??1CSUDOKUApp@@UAE@XZ				; CSUDOKUApp::~CSUDOKUApp
PUBLIC	?__autoclassinit2@CSUDOKUApp@@QAEXI@Z		; CSUDOKUApp::__autoclassinit2
PUBLIC	??_GCSUDOKUApp@@UAEPAXI@Z			; CSUDOKUApp::`scalar deleting destructor'
PUBLIC	??1CSUDOKUDlg@@UAE@XZ				; CSUDOKUDlg::~CSUDOKUDlg
PUBLIC	?__autoclassinit2@CSUDOKUDlg@@QAEXI@Z		; CSUDOKUDlg::__autoclassinit2
PUBLIC	??_C@_15GANGMFKL@?$AA?$CF?$AAs?$AA?$AA@		; `string'
PUBLIC	??_C@_1M@PLLAHAGD@?$AA?$CF?$AAs?$AA?5?$AA?9?$AA?5?$AA?$AA@ ; `string'
PUBLIC	??_C@_1M@PGKOAACE@?$AA?$CF?$AAu?$AA?5?$AA?9?$AA?5?$AA?$AA@ ; `string'
PUBLIC	??_C@_15MAOEGKJF@?$AA?$CF?$AAS?$AA?$AA@		; `string'
PUBLIC	??_R1A@?0A@EA@CObject@@8			; CObject::`RTTI Base Class Descriptor at (0,-1,0,64)'
PUBLIC	??_R0?AVCObject@@@8				; CObject `RTTI Type Descriptor'
PUBLIC	??_R3CObject@@8					; CObject::`RTTI Class Hierarchy Descriptor'
PUBLIC	??_R2CObject@@8					; CObject::`RTTI Base Class Array'
PUBLIC	??_R1A@?0A@EA@CCmdTarget@@8			; CCmdTarget::`RTTI Base Class Descriptor at (0,-1,0,64)'
PUBLIC	??_R0?AVCCmdTarget@@@8				; CCmdTarget `RTTI Type Descriptor'
PUBLIC	??_R3CCmdTarget@@8				; CCmdTarget::`RTTI Class Hierarchy Descriptor'
PUBLIC	??_R2CCmdTarget@@8				; CCmdTarget::`RTTI Base Class Array'
PUBLIC	??_7CSUDOKUApp@@6B@				; CSUDOKUApp::`vftable'
PUBLIC	?theApp@@3VCSUDOKUApp@@A			; theApp
PUBLIC	?__LINE__Var@?1??InitInstance@CSUDOKUApp@@UAEHXZ@4JA ; `CSUDOKUApp::InitInstance'::`2'::__LINE__Var
PUBLIC	??_C@_0CL@ILEOAJIO@c?3?2projets?2sudoku?2sudoku?2sudoku?2@ ; `string'
PUBLIC	??_C@_1FI@CDFDGNEO@?$AAA?$AAp?$AAp?$AAl?$AAi?$AAc?$AAa?$AAt?$AAi?$AAo?$AAn?$AAs?$AA?5?$AAl?$AAo?$AAc?$AAa?$AAl?$AAe?$AAs?$AA?5?$AAg?$AA?i?$AAn?$AA?i?$AAr?$AA?i?$AAe?$AAs?$AA?5?$AAp?$AAa@ ; `string'
PUBLIC	??_C@_0HK@PBGJPJPO@Avertissement?5?3?5?ichec?5de?5cr?iatio@ ; `string'
PUBLIC	??_C@_0JC@DNIGCLHC@Avertissement?5?3?5si?5vous?5utilisez@ ; `string'
PUBLIC	??_R4CSUDOKUApp@@6B@				; CSUDOKUApp::`RTTI Complete Object Locator'
PUBLIC	??_R0?AVCSUDOKUApp@@@8				; CSUDOKUApp `RTTI Type Descriptor'
PUBLIC	??_R3CSUDOKUApp@@8				; CSUDOKUApp::`RTTI Class Hierarchy Descriptor'
PUBLIC	??_R2CSUDOKUApp@@8				; CSUDOKUApp::`RTTI Base Class Array'
PUBLIC	??_R1A@?0A@EA@CSUDOKUApp@@8			; CSUDOKUApp::`RTTI Base Class Descriptor at (0,-1,0,64)'
PUBLIC	??_R1A@?0A@EA@CWinApp@@8			; CWinApp::`RTTI Base Class Descriptor at (0,-1,0,64)'
PUBLIC	??_R0?AVCWinApp@@@8				; CWinApp `RTTI Type Descriptor'
PUBLIC	??_R3CWinApp@@8					; CWinApp::`RTTI Class Hierarchy Descriptor'
PUBLIC	??_R2CWinApp@@8					; CWinApp::`RTTI Base Class Array'
PUBLIC	??_R1A@?0A@EA@CWinThread@@8			; CWinThread::`RTTI Base Class Descriptor at (0,-1,0,64)'
PUBLIC	??_R0?AVCWinThread@@@8				; CWinThread `RTTI Type Descriptor'
PUBLIC	??_R3CWinThread@@8				; CWinThread::`RTTI Class Hierarchy Descriptor'
PUBLIC	??_R2CWinThread@@8				; CWinThread::`RTTI Base Class Array'
EXTRN	_atexit:PROC
EXTRN	__imp__MultiByteToWideChar@24:PROC
EXTRN	__imp__InitCommonControlsEx@4:PROC
EXTRN	__imp__swprintf_s:PROC
EXTRN	__imp___vsnprintf_s:PROC
EXTRN	__imp___CrtDbgReportW:PROC
EXTRN	??3CObject@@SGXPAX@Z:PROC			; CObject::operator delete
EXTRN	??2CObject@@SGPAXIPBDH@Z:PROC			; CObject::operator new
EXTRN	??3CObject@@SGXPAXPBDH@Z:PROC			; CObject::operator delete
EXTRN	?Serialize@CObject@@UAEXAAVCArchive@@@Z:PROC	; CObject::Serialize
EXTRN	??1CBrush@@UAE@XZ:PROC				; CBrush::~CBrush
EXTRN	?OnCmdMsg@CCmdTarget@@UAEHIHPAXPAUAFX_CMDHANDLERINFO@@@Z:PROC ; CCmdTarget::OnCmdMsg
EXTRN	?OnFinalRelease@CCmdTarget@@UAEXXZ:PROC		; CCmdTarget::OnFinalRelease
EXTRN	?IsInvokeAllowed@CCmdTarget@@UAEHJ@Z:PROC	; CCmdTarget::IsInvokeAllowed
EXTRN	?GetDispatchIID@CCmdTarget@@UAEHPAU_GUID@@@Z:PROC ; CCmdTarget::GetDispatchIID
EXTRN	?GetTypeInfoCount@CCmdTarget@@UAEIXZ:PROC	; CCmdTarget::GetTypeInfoCount
EXTRN	?GetTypeLibCache@CCmdTarget@@UAEPAVCTypeLibCache@@XZ:PROC ; CCmdTarget::GetTypeLibCache
EXTRN	?GetTypeLib@CCmdTarget@@UAEJKPAPAUITypeLib@@@Z:PROC ; CCmdTarget::GetTypeLib
EXTRN	?GetCommandMap@CCmdTarget@@MBEPBUAFX_OLECMDMAP@@XZ:PROC ; CCmdTarget::GetCommandMap
EXTRN	?GetDispatchMap@CCmdTarget@@MBEPBUAFX_DISPMAP@@XZ:PROC ; CCmdTarget::GetDispatchMap
EXTRN	?GetConnectionMap@CCmdTarget@@MBEPBUAFX_CONNECTIONMAP@@XZ:PROC ; CCmdTarget::GetConnectionMap
EXTRN	?GetInterfaceMap@CCmdTarget@@MBEPBUAFX_INTERFACEMAP@@XZ:PROC ; CCmdTarget::GetInterfaceMap
EXTRN	?GetEventSinkMap@CCmdTarget@@MBEPBUAFX_EVENTSINKMAP@@XZ:PROC ; CCmdTarget::GetEventSinkMap
EXTRN	?OnCreateAggregates@CCmdTarget@@UAEHXZ:PROC	; CCmdTarget::OnCreateAggregates
EXTRN	?GetInterfaceHook@CCmdTarget@@UAEPAUIUnknown@@PBX@Z:PROC ; CCmdTarget::GetInterfaceHook
EXTRN	?GetExtraConnectionPoints@CCmdTarget@@MAEHPAVCPtrArray@@@Z:PROC ; CCmdTarget::GetExtraConnectionPoints
EXTRN	?GetConnectionHook@CCmdTarget@@MAEPAUIConnectionPoint@@ABU_GUID@@@Z:PROC ; CCmdTarget::GetConnectionHook
EXTRN	?DoModal@CDialog@@UAEHXZ:PROC			; CDialog::DoModal
EXTRN	??1CDialog@@UAE@XZ:PROC				; CDialog::~CDialog
EXTRN	?PreTranslateMessage@CWinThread@@UAEHPAUtagMSG@@@Z:PROC ; CWinThread::PreTranslateMessage
EXTRN	?PumpMessage@CWinThread@@UAEHXZ:PROC		; CWinThread::PumpMessage
EXTRN	?IsIdleMessage@CWinThread@@UAEHPAUtagMSG@@@Z:PROC ; CWinThread::IsIdleMessage
EXTRN	?ProcessMessageFilter@CWinThread@@UAEHHPAUtagMSG@@@Z:PROC ; CWinThread::ProcessMessageFilter
EXTRN	?GetMainWnd@CWinThread@@UAEPAVCWnd@@XZ:PROC	; CWinThread::GetMainWnd
EXTRN	?Delete@CWinThread@@UAEXXZ:PROC			; CWinThread::Delete
EXTRN	?GetRuntimeClass@CWinApp@@UBEPAUCRuntimeClass@@XZ:PROC ; CWinApp::GetRuntimeClass
EXTRN	??0CWinApp@@QAE@PB_W@Z:PROC			; CWinApp::CWinApp
EXTRN	?SetRegistryKey@CWinApp@@IAEXPB_W@Z:PROC	; CWinApp::SetRegistryKey
EXTRN	?GetProfileIntW@CWinApp@@UAEIPB_W0H@Z:PROC	; CWinApp::GetProfileIntW
EXTRN	?WriteProfileInt@CWinApp@@UAEHPB_W0H@Z:PROC	; CWinApp::WriteProfileInt
EXTRN	?GetProfileStringW@CWinApp@@UAE?AV?$CStringT@_WV?$StrTraitMFC_DLL@_WV?$ChTraitsCRT@_W@ATL@@@@@ATL@@PB_W00@Z:PROC ; CWinApp::GetProfileStringW
EXTRN	?WriteProfileStringW@CWinApp@@UAEHPB_W00@Z:PROC	; CWinApp::WriteProfileStringW
EXTRN	?GetProfileBinary@CWinApp@@UAEHPB_W0PAPAEPAI@Z:PROC ; CWinApp::GetProfileBinary
EXTRN	?WriteProfileBinary@CWinApp@@UAEHPB_W0PAEI@Z:PROC ; CWinApp::WriteProfileBinary
EXTRN	?InitLibId@CWinApp@@UAEXXZ:PROC			; CWinApp::InitLibId
EXTRN	?Register@CWinApp@@UAEHXZ:PROC			; CWinApp::Register
EXTRN	?Unregister@CWinApp@@UAEHXZ:PROC		; CWinApp::Unregister
EXTRN	?OpenDocumentFile@CWinApp@@UAEPAVCDocument@@PB_W@Z:PROC ; CWinApp::OpenDocumentFile
EXTRN	?OpenDocumentFile@CWinApp@@UAEPAVCDocument@@PB_WH@Z:PROC ; CWinApp::OpenDocumentFile
EXTRN	?AddToRecentFileList@CWinApp@@UAEXPB_W@Z:PROC	; CWinApp::AddToRecentFileList
EXTRN	?InitApplication@CWinApp@@UAEHXZ:PROC		; CWinApp::InitApplication
EXTRN	?SaveAllModified@CWinApp@@UAEHXZ:PROC		; CWinApp::SaveAllModified
EXTRN	?DoMessageBox@CWinApp@@UAEHPB_WII@Z:PROC	; CWinApp::DoMessageBox
EXTRN	?DoWaitCursor@CWinApp@@UAEXH@Z:PROC		; CWinApp::DoWaitCursor
EXTRN	?OnDDECommand@CWinApp@@UAEHPA_W@Z:PROC		; CWinApp::OnDDECommand
EXTRN	?WinHelpW@CWinApp@@UAEXKI@Z:PROC		; CWinApp::WinHelpW
EXTRN	?HtmlHelpW@CWinApp@@UAEXKI@Z:PROC		; CWinApp::HtmlHelpW
EXTRN	?WinHelpInternal@CWinApp@@UAEXKI@Z:PROC		; CWinApp::WinHelpInternal
EXTRN	?RegisterWithRestartManager@CWinApp@@UAEJHABV?$CStringT@_WV?$StrTraitMFC_DLL@_WV?$ChTraitsCRT@_W@ATL@@@@@ATL@@@Z:PROC ; CWinApp::RegisterWithRestartManager
EXTRN	?RegisterWithRestartManager@CWinApp@@UAEJPB_WKP6GKPAX@Z1KK@Z:PROC ; CWinApp::RegisterWithRestartManager
EXTRN	?ApplicationRecoveryCallback@CWinApp@@UAEKPAX@Z:PROC ; CWinApp::ApplicationRecoveryCallback
EXTRN	?GetDataRecoveryHandler@CWinApp@@UAEPAVCDataRecoveryHandler@@XZ:PROC ; CWinApp::GetDataRecoveryHandler
EXTRN	?IsTaskbarInteractionEnabled@CWinApp@@UAEHXZ:PROC ; CWinApp::IsTaskbarInteractionEnabled
EXTRN	?InitInstance@CWinApp@@UAEHXZ:PROC		; CWinApp::InitInstance
EXTRN	?ExitInstance@CWinApp@@UAEHXZ:PROC		; CWinApp::ExitInstance
EXTRN	?RestartInstance@CWinApp@@UAEHXZ:PROC		; CWinApp::RestartInstance
EXTRN	?Run@CWinApp@@UAEHXZ:PROC			; CWinApp::Run
EXTRN	?OnIdle@CWinApp@@UAEHJ@Z:PROC			; CWinApp::OnIdle
EXTRN	?ProcessWndProcException@CWinApp@@UAEJPAVCException@@PBUtagMSG@@@Z:PROC ; CWinApp::ProcessWndProcException
EXTRN	?LoadAppLangResourceDLL@CWinApp@@UAEPAUHINSTANCE__@@XZ:PROC ; CWinApp::LoadAppLangResourceDLL
EXTRN	??1CWinApp@@UAE@XZ:PROC				; CWinApp::~CWinApp
EXTRN	?AssertValid@CWinApp@@UBEXXZ:PROC		; CWinApp::AssertValid
EXTRN	?Dump@CWinApp@@UBEXAAVCDumpContext@@@Z:PROC	; CWinApp::Dump
EXTRN	?LoadSysPolicies@CWinApp@@UAEHXZ:PROC		; CWinApp::LoadSysPolicies
EXTRN	?AfxEnableControlContainer@@YAXPAVCOccManager@@@Z:PROC ; AfxEnableControlContainer
EXTRN	?SetDefaultManager@CMFCVisualManager@@SGXPAUCRuntimeClass@@@Z:PROC ; CMFCVisualManager::SetDefaultManager
EXTRN	??1CDialogImpl@@MAE@XZ:PROC			; CDialogImpl::~CDialogImpl
EXTRN	??0CShellManager@@QAE@XZ:PROC			; CShellManager::CShellManager
EXTRN	?GetThisClass@CMFCVisualManagerWindows@@SGPAUCRuntimeClass@@XZ:PROC ; CMFCVisualManagerWindows::GetThisClass
EXTRN	??_ECSUDOKUApp@@UAEPAXI@Z:PROC			; CSUDOKUApp::`vector deleting destructor'
EXTRN	??0CSUDOKUDlg@@QAE@PAVCWnd@@@Z:PROC		; CSUDOKUDlg::CSUDOKUDlg
EXTRN	@_RTC_CheckStackVars@8:PROC
EXTRN	@__security_check_cookie@4:PROC
EXTRN	__RTC_CheckEsp:PROC
EXTRN	__RTC_InitBase:PROC
EXTRN	__RTC_Shutdown:PROC
EXTRN	___CxxFrameHandler3:PROC
EXTRN	_memset:PROC
EXTRN	??_7type_info@@6B@:QWORD			; type_info::`vftable'
EXTRN	__imp_?traceAppMsg@@3VCTraceCategory@ATL@@A:DWORD
EXTRN	___security_cookie:DWORD
_BSS	SEGMENT
?theApp@@3VCSUDOKUApp@@A DB 0ccH DUP (?)		; theApp
_BSS	ENDS
CRT$XCU	SEGMENT
_theApp$initializer$ DD FLAT:??__EtheApp@@YAXXZ
CRT$XCU	ENDS
;	COMDAT rtc$TMZ
rtc$TMZ	SEGMENT
__RTC_Shutdown.rtc$TMZ DD FLAT:__RTC_Shutdown
rtc$TMZ	ENDS
;	COMDAT rtc$IMZ
rtc$IMZ	SEGMENT
__RTC_InitBase.rtc$IMZ DD FLAT:__RTC_InitBase
rtc$IMZ	ENDS
;	COMDAT ??_R2CWinThread@@8
rdata$r	SEGMENT
??_R2CWinThread@@8 DD FLAT:??_R1A@?0A@EA@CWinThread@@8	; CWinThread::`RTTI Base Class Array'
	DD	FLAT:??_R1A@?0A@EA@CCmdTarget@@8
	DD	FLAT:??_R1A@?0A@EA@CObject@@8
rdata$r	ENDS
;	COMDAT ??_R3CWinThread@@8
rdata$r	SEGMENT
??_R3CWinThread@@8 DD 00H				; CWinThread::`RTTI Class Hierarchy Descriptor'
	DD	00H
	DD	03H
	DD	FLAT:??_R2CWinThread@@8
rdata$r	ENDS
;	COMDAT ??_R0?AVCWinThread@@@8
data$r	SEGMENT
??_R0?AVCWinThread@@@8 DD FLAT:??_7type_info@@6B@	; CWinThread `RTTI Type Descriptor'
	DD	00H
	DB	'.?AVCWinThread@@', 00H
data$r	ENDS
;	COMDAT ??_R1A@?0A@EA@CWinThread@@8
rdata$r	SEGMENT
??_R1A@?0A@EA@CWinThread@@8 DD FLAT:??_R0?AVCWinThread@@@8 ; CWinThread::`RTTI Base Class Descriptor at (0,-1,0,64)'
	DD	02H
	DD	00H
	DD	0ffffffffH
	DD	00H
	DD	040H
	DD	FLAT:??_R3CWinThread@@8
rdata$r	ENDS
;	COMDAT ??_R2CWinApp@@8
rdata$r	SEGMENT
??_R2CWinApp@@8 DD FLAT:??_R1A@?0A@EA@CWinApp@@8	; CWinApp::`RTTI Base Class Array'
	DD	FLAT:??_R1A@?0A@EA@CWinThread@@8
	DD	FLAT:??_R1A@?0A@EA@CCmdTarget@@8
	DD	FLAT:??_R1A@?0A@EA@CObject@@8
rdata$r	ENDS
;	COMDAT ??_R3CWinApp@@8
rdata$r	SEGMENT
??_R3CWinApp@@8 DD 00H					; CWinApp::`RTTI Class Hierarchy Descriptor'
	DD	00H
	DD	04H
	DD	FLAT:??_R2CWinApp@@8
rdata$r	ENDS
;	COMDAT ??_R0?AVCWinApp@@@8
data$r	SEGMENT
??_R0?AVCWinApp@@@8 DD FLAT:??_7type_info@@6B@		; CWinApp `RTTI Type Descriptor'
	DD	00H
	DB	'.?AVCWinApp@@', 00H
data$r	ENDS
;	COMDAT ??_R1A@?0A@EA@CWinApp@@8
rdata$r	SEGMENT
??_R1A@?0A@EA@CWinApp@@8 DD FLAT:??_R0?AVCWinApp@@@8	; CWinApp::`RTTI Base Class Descriptor at (0,-1,0,64)'
	DD	03H
	DD	00H
	DD	0ffffffffH
	DD	00H
	DD	040H
	DD	FLAT:??_R3CWinApp@@8
rdata$r	ENDS
;	COMDAT ??_R1A@?0A@EA@CSUDOKUApp@@8
rdata$r	SEGMENT
??_R1A@?0A@EA@CSUDOKUApp@@8 DD FLAT:??_R0?AVCSUDOKUApp@@@8 ; CSUDOKUApp::`RTTI Base Class Descriptor at (0,-1,0,64)'
	DD	04H
	DD	00H
	DD	0ffffffffH
	DD	00H
	DD	040H
	DD	FLAT:??_R3CSUDOKUApp@@8
rdata$r	ENDS
;	COMDAT ??_R2CSUDOKUApp@@8
rdata$r	SEGMENT
??_R2CSUDOKUApp@@8 DD FLAT:??_R1A@?0A@EA@CSUDOKUApp@@8	; CSUDOKUApp::`RTTI Base Class Array'
	DD	FLAT:??_R1A@?0A@EA@CWinApp@@8
	DD	FLAT:??_R1A@?0A@EA@CWinThread@@8
	DD	FLAT:??_R1A@?0A@EA@CCmdTarget@@8
	DD	FLAT:??_R1A@?0A@EA@CObject@@8
rdata$r	ENDS
;	COMDAT ??_R3CSUDOKUApp@@8
rdata$r	SEGMENT
??_R3CSUDOKUApp@@8 DD 00H				; CSUDOKUApp::`RTTI Class Hierarchy Descriptor'
	DD	00H
	DD	05H
	DD	FLAT:??_R2CSUDOKUApp@@8
rdata$r	ENDS
;	COMDAT ??_R0?AVCSUDOKUApp@@@8
data$r	SEGMENT
??_R0?AVCSUDOKUApp@@@8 DD FLAT:??_7type_info@@6B@	; CSUDOKUApp `RTTI Type Descriptor'
	DD	00H
	DB	'.?AVCSUDOKUApp@@', 00H
data$r	ENDS
;	COMDAT ??_R4CSUDOKUApp@@6B@
rdata$r	SEGMENT
??_R4CSUDOKUApp@@6B@ DD 00H				; CSUDOKUApp::`RTTI Complete Object Locator'
	DD	00H
	DD	00H
	DD	FLAT:??_R0?AVCSUDOKUApp@@@8
	DD	FLAT:??_R3CSUDOKUApp@@8
rdata$r	ENDS
;	COMDAT ??_C@_0JC@DNIGCLHC@Avertissement?5?3?5si?5vous?5utilisez@
CONST	SEGMENT
??_C@_0JC@DNIGCLHC@Avertissement?5?3?5si?5vous?5utilisez@ DB 'Avertisseme'
	DB	'nt : si vous utilisez les contr', 0f4H, 'les MFC de la bo', 0eeH
	DB	'te de dialogue, vous ne pouvez pas ex', 0e9H, 'cuter #define '
	DB	'_AFX_NO_MFC_CONTROLS_IN_DIALOGS.', 0aH, 00H	; `string'
CONST	ENDS
;	COMDAT ??_C@_0HK@PBGJPJPO@Avertissement?5?3?5?ichec?5de?5cr?iatio@
CONST	SEGMENT
??_C@_0HK@PBGJPJPO@Avertissement?5?3?5?ichec?5de?5cr?iatio@ DB 'Avertisse'
	DB	'ment : ', 0e9H, 'chec de cr', 0e9H, 'ation de la bo', 0eeH, 't'
	DB	'e de dialogue, par cons', 0e9H, 'quent, l''application s''arr'
	DB	0eaH, 'te de mani', 0e8H, 're inattendue.', 0aH, 00H ; `string'
CONST	ENDS
;	COMDAT ??_C@_1FI@CDFDGNEO@?$AAA?$AAp?$AAp?$AAl?$AAi?$AAc?$AAa?$AAt?$AAi?$AAo?$AAn?$AAs?$AA?5?$AAl?$AAo?$AAc?$AAa?$AAl?$AAe?$AAs?$AA?5?$AAg?$AA?i?$AAn?$AA?i?$AAr?$AA?i?$AAe?$AAs?$AA?5?$AAp?$AAa@
CONST	SEGMENT
??_C@_1FI@CDFDGNEO@?$AAA?$AAp?$AAp?$AAl?$AAi?$AAc?$AAa?$AAt?$AAi?$AAo?$AAn?$AAs?$AA?5?$AAl?$AAo?$AAc?$AAa?$AAl?$AAe?$AAs?$AA?5?$AAg?$AA?i?$AAn?$AA?i?$AAr?$AA?i?$AAe?$AAs?$AA?5?$AAp?$AAa@ DB 'A'
	DB	00H, 'p', 00H, 'p', 00H, 'l', 00H, 'i', 00H, 'c', 00H, 'a', 00H
	DB	't', 00H, 'i', 00H, 'o', 00H, 'n', 00H, 's', 00H, ' ', 00H, 'l'
	DB	00H, 'o', 00H, 'c', 00H, 'a', 00H, 'l', 00H, 'e', 00H, 's', 00H
	DB	' ', 00H, 'g', 00H, 0e9H, 00H, 'n', 00H, 0e9H, 00H, 'r', 00H, 0e9H
	DB	00H, 'e', 00H, 's', 00H, ' ', 00H, 'p', 00H, 'a', 00H, 'r', 00H
	DB	' ', 00H, 'A', 00H, 'p', 00H, 'p', 00H, 'W', 00H, 'i', 00H, 'z'
	DB	00H, 'a', 00H, 'r', 00H, 'd', 00H, 00H, 00H	; `string'
CONST	ENDS
;	COMDAT ??_C@_0CL@ILEOAJIO@c?3?2projets?2sudoku?2sudoku?2sudoku?2@
CONST	SEGMENT
??_C@_0CL@ILEOAJIO@c?3?2projets?2sudoku?2sudoku?2sudoku?2@ DB 'c:\projets'
	DB	'\sudoku\sudoku\sudoku\sudoku.cpp', 00H	; `string'
CONST	ENDS
;	COMDAT ?__LINE__Var@?1??InitInstance@CSUDOKUApp@@UAEHXZ@4JA
_DATA	SEGMENT
?__LINE__Var@?1??InitInstance@CSUDOKUApp@@UAEHXZ@4JA DD 02dH ; `CSUDOKUApp::InitInstance'::`2'::__LINE__Var
_DATA	ENDS
;	COMDAT ??_7CSUDOKUApp@@6B@
CONST	SEGMENT
??_7CSUDOKUApp@@6B@ DD FLAT:??_R4CSUDOKUApp@@6B@	; CSUDOKUApp::`vftable'
	DD	FLAT:?GetRuntimeClass@CWinApp@@UBEPAUCRuntimeClass@@XZ
	DD	FLAT:??_ECSUDOKUApp@@UAEPAXI@Z
	DD	FLAT:?Serialize@CObject@@UAEXAAVCArchive@@@Z
	DD	FLAT:?AssertValid@CWinApp@@UBEXXZ
	DD	FLAT:?Dump@CWinApp@@UBEXAAVCDumpContext@@@Z
	DD	FLAT:?OnCmdMsg@CCmdTarget@@UAEHIHPAXPAUAFX_CMDHANDLERINFO@@@Z
	DD	FLAT:?OnFinalRelease@CCmdTarget@@UAEXXZ
	DD	FLAT:?IsInvokeAllowed@CCmdTarget@@UAEHJ@Z
	DD	FLAT:?GetDispatchIID@CCmdTarget@@UAEHPAU_GUID@@@Z
	DD	FLAT:?GetTypeInfoCount@CCmdTarget@@UAEIXZ
	DD	FLAT:?GetTypeLibCache@CCmdTarget@@UAEPAVCTypeLibCache@@XZ
	DD	FLAT:?GetTypeLib@CCmdTarget@@UAEJKPAPAUITypeLib@@@Z
	DD	FLAT:?GetMessageMap@CSUDOKUApp@@MBEPBUAFX_MSGMAP@@XZ
	DD	FLAT:?GetCommandMap@CCmdTarget@@MBEPBUAFX_OLECMDMAP@@XZ
	DD	FLAT:?GetDispatchMap@CCmdTarget@@MBEPBUAFX_DISPMAP@@XZ
	DD	FLAT:?GetConnectionMap@CCmdTarget@@MBEPBUAFX_CONNECTIONMAP@@XZ
	DD	FLAT:?GetInterfaceMap@CCmdTarget@@MBEPBUAFX_INTERFACEMAP@@XZ
	DD	FLAT:?GetEventSinkMap@CCmdTarget@@MBEPBUAFX_EVENTSINKMAP@@XZ
	DD	FLAT:?OnCreateAggregates@CCmdTarget@@UAEHXZ
	DD	FLAT:?GetInterfaceHook@CCmdTarget@@UAEPAUIUnknown@@PBX@Z
	DD	FLAT:?GetExtraConnectionPoints@CCmdTarget@@MAEHPAVCPtrArray@@@Z
	DD	FLAT:?GetConnectionHook@CCmdTarget@@MAEPAUIConnectionPoint@@ABU_GUID@@@Z
	DD	FLAT:?InitInstance@CSUDOKUApp@@UAEHXZ
	DD	FLAT:?Run@CWinApp@@UAEHXZ
	DD	FLAT:?PreTranslateMessage@CWinThread@@UAEHPAUtagMSG@@@Z
	DD	FLAT:?PumpMessage@CWinThread@@UAEHXZ
	DD	FLAT:?OnIdle@CWinApp@@UAEHJ@Z
	DD	FLAT:?IsIdleMessage@CWinThread@@UAEHPAUtagMSG@@@Z
	DD	FLAT:?ExitInstance@CWinApp@@UAEHXZ
	DD	FLAT:?ProcessWndProcException@CWinApp@@UAEJPAVCException@@PBUtagMSG@@@Z
	DD	FLAT:?ProcessMessageFilter@CWinThread@@UAEHHPAUtagMSG@@@Z
	DD	FLAT:?GetMainWnd@CWinThread@@UAEPAVCWnd@@XZ
	DD	FLAT:?Delete@CWinThread@@UAEXXZ
	DD	FLAT:?GetProfileIntW@CWinApp@@UAEIPB_W0H@Z
	DD	FLAT:?WriteProfileInt@CWinApp@@UAEHPB_W0H@Z
	DD	FLAT:?GetProfileStringW@CWinApp@@UAE?AV?$CStringT@_WV?$StrTraitMFC_DLL@_WV?$ChTraitsCRT@_W@ATL@@@@@ATL@@PB_W00@Z
	DD	FLAT:?WriteProfileStringW@CWinApp@@UAEHPB_W00@Z
	DD	FLAT:?GetProfileBinary@CWinApp@@UAEHPB_W0PAPAEPAI@Z
	DD	FLAT:?WriteProfileBinary@CWinApp@@UAEHPB_W0PAEI@Z
	DD	FLAT:?InitLibId@CWinApp@@UAEXXZ
	DD	FLAT:?Register@CWinApp@@UAEHXZ
	DD	FLAT:?Unregister@CWinApp@@UAEHXZ
	DD	FLAT:?OpenDocumentFile@CWinApp@@UAEPAVCDocument@@PB_WH@Z
	DD	FLAT:?OpenDocumentFile@CWinApp@@UAEPAVCDocument@@PB_W@Z
	DD	FLAT:?AddToRecentFileList@CWinApp@@UAEXPB_W@Z
	DD	FLAT:?InitApplication@CWinApp@@UAEHXZ
	DD	FLAT:?SaveAllModified@CWinApp@@UAEHXZ
	DD	FLAT:?DoMessageBox@CWinApp@@UAEHPB_WII@Z
	DD	FLAT:?DoWaitCursor@CWinApp@@UAEXH@Z
	DD	FLAT:?OnDDECommand@CWinApp@@UAEHPA_W@Z
	DD	FLAT:?WinHelpW@CWinApp@@UAEXKI@Z
	DD	FLAT:?HtmlHelpW@CWinApp@@UAEXKI@Z
	DD	FLAT:?WinHelpInternal@CWinApp@@UAEXKI@Z
	DD	FLAT:?RegisterWithRestartManager@CWinApp@@UAEJPB_WKP6GKPAX@Z1KK@Z
	DD	FLAT:?RegisterWithRestartManager@CWinApp@@UAEJHABV?$CStringT@_WV?$StrTraitMFC_DLL@_WV?$ChTraitsCRT@_W@ATL@@@@@ATL@@@Z
	DD	FLAT:?ApplicationRecoveryCallback@CWinApp@@UAEKPAX@Z
	DD	FLAT:?SupportsRestartManager@CWinApp@@UBEHXZ
	DD	FLAT:?SupportsApplicationRecovery@CWinApp@@UBEHXZ
	DD	FLAT:?SupportsAutosaveAtRestart@CWinApp@@UBEHXZ
	DD	FLAT:?SupportsAutosaveAtInterval@CWinApp@@UBEHXZ
	DD	FLAT:?ReopenPreviousFilesAtRestart@CWinApp@@UBEHXZ
	DD	FLAT:?RestoreAutosavedFilesAtRestart@CWinApp@@UBEHXZ
	DD	FLAT:?GetApplicationRestartFlags@CWinApp@@UAEKXZ
	DD	FLAT:?GetApplicationRecoveryParameter@CWinApp@@UAEPAXXZ
	DD	FLAT:?GetApplicationRecoveryPingInterval@CWinApp@@UAEKXZ
	DD	FLAT:?GetDataRecoveryHandler@CWinApp@@UAEPAVCDataRecoveryHandler@@XZ
	DD	FLAT:?IsTaskbarInteractionEnabled@CWinApp@@UAEHXZ
	DD	FLAT:?RestartInstance@CWinApp@@UAEHXZ
	DD	FLAT:?LoadAppLangResourceDLL@CWinApp@@UAEPAUHINSTANCE__@@XZ
	DD	FLAT:?LoadSysPolicies@CWinApp@@UAEHXZ
CONST	ENDS
;	COMDAT ??_R2CCmdTarget@@8
rdata$r	SEGMENT
??_R2CCmdTarget@@8 DD FLAT:??_R1A@?0A@EA@CCmdTarget@@8	; CCmdTarget::`RTTI Base Class Array'
	DD	FLAT:??_R1A@?0A@EA@CObject@@8
rdata$r	ENDS
;	COMDAT ??_R3CCmdTarget@@8
rdata$r	SEGMENT
??_R3CCmdTarget@@8 DD 00H				; CCmdTarget::`RTTI Class Hierarchy Descriptor'
	DD	00H
	DD	02H
	DD	FLAT:??_R2CCmdTarget@@8
rdata$r	ENDS
;	COMDAT ??_R0?AVCCmdTarget@@@8
data$r	SEGMENT
??_R0?AVCCmdTarget@@@8 DD FLAT:??_7type_info@@6B@	; CCmdTarget `RTTI Type Descriptor'
	DD	00H
	DB	'.?AVCCmdTarget@@', 00H
data$r	ENDS
;	COMDAT ??_R1A@?0A@EA@CCmdTarget@@8
rdata$r	SEGMENT
??_R1A@?0A@EA@CCmdTarget@@8 DD FLAT:??_R0?AVCCmdTarget@@@8 ; CCmdTarget::`RTTI Base Class Descriptor at (0,-1,0,64)'
	DD	01H
	DD	00H
	DD	0ffffffffH
	DD	00H
	DD	040H
	DD	FLAT:??_R3CCmdTarget@@8
rdata$r	ENDS
;	COMDAT ??_R2CObject@@8
rdata$r	SEGMENT
??_R2CObject@@8 DD FLAT:??_R1A@?0A@EA@CObject@@8	; CObject::`RTTI Base Class Array'
rdata$r	ENDS
;	COMDAT ??_R3CObject@@8
rdata$r	SEGMENT
??_R3CObject@@8 DD 00H					; CObject::`RTTI Class Hierarchy Descriptor'
	DD	00H
	DD	01H
	DD	FLAT:??_R2CObject@@8
rdata$r	ENDS
;	COMDAT ??_R0?AVCObject@@@8
data$r	SEGMENT
??_R0?AVCObject@@@8 DD FLAT:??_7type_info@@6B@		; CObject `RTTI Type Descriptor'
	DD	00H
	DB	'.?AVCObject@@', 00H
data$r	ENDS
;	COMDAT ??_R1A@?0A@EA@CObject@@8
rdata$r	SEGMENT
??_R1A@?0A@EA@CObject@@8 DD FLAT:??_R0?AVCObject@@@8	; CObject::`RTTI Base Class Descriptor at (0,-1,0,64)'
	DD	00H
	DD	00H
	DD	0ffffffffH
	DD	00H
	DD	040H
	DD	FLAT:??_R3CObject@@8
rdata$r	ENDS
;	COMDAT ??_C@_15MAOEGKJF@?$AA?$CF?$AAS?$AA?$AA@
CONST	SEGMENT
??_C@_15MAOEGKJF@?$AA?$CF?$AAS?$AA?$AA@ DB '%', 00H, 'S', 00H, 00H, 00H ; `string'
CONST	ENDS
;	COMDAT ??_C@_1M@PGKOAACE@?$AA?$CF?$AAu?$AA?5?$AA?9?$AA?5?$AA?$AA@
CONST	SEGMENT
??_C@_1M@PGKOAACE@?$AA?$CF?$AAu?$AA?5?$AA?9?$AA?5?$AA?$AA@ DB '%', 00H, 'u'
	DB	00H, ' ', 00H, '-', 00H, ' ', 00H, 00H, 00H	; `string'
CONST	ENDS
;	COMDAT ??_C@_1M@PLLAHAGD@?$AA?$CF?$AAs?$AA?5?$AA?9?$AA?5?$AA?$AA@
CONST	SEGMENT
??_C@_1M@PLLAHAGD@?$AA?$CF?$AAs?$AA?5?$AA?9?$AA?5?$AA?$AA@ DB '%', 00H, 's'
	DB	00H, ' ', 00H, '-', 00H, ' ', 00H, 00H, 00H	; `string'
CONST	ENDS
;	COMDAT ??_C@_15GANGMFKL@?$AA?$CF?$AAs?$AA?$AA@
CONST	SEGMENT
??_C@_15GANGMFKL@?$AA?$CF?$AAs?$AA?$AA@ DB '%', 00H, 's', 00H, 00H, 00H ; `string'
CONST	ENDS
;	COMDAT xdata$x
xdata$x	SEGMENT
__unwindtable$?InitInstance@CSUDOKUApp@@UAEHXZ DD 0ffffffffH
	DD	FLAT:__unwindfunclet$?InitInstance@CSUDOKUApp@@UAEHXZ$0
	DD	0ffffffffH
	DD	FLAT:__unwindfunclet$?InitInstance@CSUDOKUApp@@UAEHXZ$1
__ehfuncinfo$?InitInstance@CSUDOKUApp@@UAEHXZ DD 019930522H
	DD	02H
	DD	FLAT:__unwindtable$?InitInstance@CSUDOKUApp@@UAEHXZ
	DD	2 DUP(00H)
	DD	2 DUP(00H)
	DD	00H
	DD	01H
xdata$x	ENDS
;	COMDAT xdata$x
xdata$x	SEGMENT
__unwindtable$??1CDialogEx@@UAE@XZ DD 0ffffffffH
	DD	FLAT:__unwindfunclet$??1CDialogEx@@UAE@XZ$0
	DD	00H
	DD	FLAT:__unwindfunclet$??1CDialogEx@@UAE@XZ$1
__ehfuncinfo$??1CDialogEx@@UAE@XZ DD 019930522H
	DD	02H
	DD	FLAT:__unwindtable$??1CDialogEx@@UAE@XZ
	DD	2 DUP(00H)
	DD	2 DUP(00H)
	DD	00H
	DD	01H
xdata$x	ENDS
; Function compile flags: /Odsp /RTCsu /ZI
;	COMDAT ??__FtheApp@@YAXXZ
text$yd	SEGMENT
??__FtheApp@@YAXXZ PROC					; `dynamic atexit destructor for 'theApp'', COMDAT
	push	ebp
	mov	ebp, esp
	sub	esp, 192				; 000000c0H
	push	ebx
	push	esi
	push	edi
	lea	edi, DWORD PTR [ebp-192]
	push	48					; 00000030H
	pop	ecx
	mov	eax, -858993460				; ccccccccH
	rep stosd
	mov	ecx, OFFSET ?theApp@@3VCSUDOKUApp@@A	; theApp
	call	??1CSUDOKUApp@@UAE@XZ
	pop	edi
	pop	esi
	pop	ebx
	add	esp, 192				; 000000c0H
	cmp	ebp, esp
	call	__RTC_CheckEsp
	mov	esp, ebp
	pop	ebp
	ret	0
??__FtheApp@@YAXXZ ENDP					; `dynamic atexit destructor for 'theApp''
text$yd	ENDS
; Function compile flags: /Odsp /RTCsu /ZI
; File c:\projets\sudoku\sudoku\sudoku\sudoku.cpp
;	COMDAT ??__EtheApp@@YAXXZ
text$di	SEGMENT
??__EtheApp@@YAXXZ PROC					; `dynamic initializer for 'theApp'', COMDAT

; 39   : CSUDOKUApp theApp;

	push	ebp
	mov	ebp, esp
	sub	esp, 192				; 000000c0H
	push	ebx
	push	esi
	push	edi
	lea	edi, DWORD PTR [ebp-192]
	push	48					; 00000030H
	pop	ecx
	mov	eax, -858993460				; ccccccccH
	rep stosd
	push	204					; 000000ccH
	mov	ecx, OFFSET ?theApp@@3VCSUDOKUApp@@A	; theApp
	call	?__autoclassinit2@CSUDOKUApp@@QAEXI@Z
	mov	ecx, OFFSET ?theApp@@3VCSUDOKUApp@@A	; theApp
	call	??0CSUDOKUApp@@QAE@XZ			; CSUDOKUApp::CSUDOKUApp
	push	OFFSET ??__FtheApp@@YAXXZ		; `dynamic atexit destructor for 'theApp''
	call	_atexit
	pop	ecx
	pop	edi
	pop	esi
	pop	ebx
	add	esp, 192				; 000000c0H
	cmp	ebp, esp
	call	__RTC_CheckEsp
	mov	esp, ebp
	pop	ebp
	ret	0
??__EtheApp@@YAXXZ ENDP					; `dynamic initializer for 'theApp''
text$di	ENDS
; Function compile flags: /Odsp /RTCsu /ZI
;	COMDAT ?__autoclassinit2@CSUDOKUDlg@@QAEXI@Z
_TEXT	SEGMENT
_this$ = -8						; size = 4
_classSize$ = 8						; size = 4
?__autoclassinit2@CSUDOKUDlg@@QAEXI@Z PROC		; CSUDOKUDlg::__autoclassinit2, COMDAT
; _this$ = ecx
	push	ebp
	mov	ebp, esp
	sub	esp, 204				; 000000ccH
	push	ebx
	push	esi
	push	edi
	push	ecx
	lea	edi, DWORD PTR [ebp-204]
	push	51					; 00000033H
	pop	ecx
	mov	eax, -858993460				; ccccccccH
	rep stosd
	pop	ecx
	mov	DWORD PTR _this$[ebp], ecx
	push	DWORD PTR _classSize$[ebp]
	push	0
	push	DWORD PTR _this$[ebp]
	call	_memset
	add	esp, 12					; 0000000cH
	pop	edi
	pop	esi
	pop	ebx
	add	esp, 204				; 000000ccH
	cmp	ebp, esp
	call	__RTC_CheckEsp
	mov	esp, ebp
	pop	ebp
	ret	4
?__autoclassinit2@CSUDOKUDlg@@QAEXI@Z ENDP		; CSUDOKUDlg::__autoclassinit2
_TEXT	ENDS
; Function compile flags: /Odsp /RTCsu /ZI
;	COMDAT ??1CSUDOKUDlg@@UAE@XZ
_TEXT	SEGMENT
_this$ = -8						; size = 4
??1CSUDOKUDlg@@UAE@XZ PROC				; CSUDOKUDlg::~CSUDOKUDlg, COMDAT
; _this$ = ecx
	push	ebp
	mov	ebp, esp
	sub	esp, 204				; 000000ccH
	push	ebx
	push	esi
	push	edi
	push	ecx
	lea	edi, DWORD PTR [ebp-204]
	push	51					; 00000033H
	pop	ecx
	mov	eax, -858993460				; ccccccccH
	rep stosd
	pop	ecx
	mov	DWORD PTR _this$[ebp], ecx
	mov	ecx, DWORD PTR _this$[ebp]
	call	??1CDialogEx@@UAE@XZ
	pop	edi
	pop	esi
	pop	ebx
	add	esp, 204				; 000000ccH
	cmp	ebp, esp
	call	__RTC_CheckEsp
	mov	esp, ebp
	pop	ebp
	ret	0
??1CSUDOKUDlg@@UAE@XZ ENDP				; CSUDOKUDlg::~CSUDOKUDlg
_TEXT	ENDS
; Function compile flags: /Odsp /RTCsu /ZI
;	COMDAT ??_GCSUDOKUApp@@UAEPAXI@Z
_TEXT	SEGMENT
_this$ = -8						; size = 4
___flags$ = 8						; size = 4
??_GCSUDOKUApp@@UAEPAXI@Z PROC				; CSUDOKUApp::`scalar deleting destructor', COMDAT
; _this$ = ecx
	push	ebp
	mov	ebp, esp
	sub	esp, 204				; 000000ccH
	push	ebx
	push	esi
	push	edi
	push	ecx
	lea	edi, DWORD PTR [ebp-204]
	push	51					; 00000033H
	pop	ecx
	mov	eax, -858993460				; ccccccccH
	rep stosd
	pop	ecx
	mov	DWORD PTR _this$[ebp], ecx
	mov	ecx, DWORD PTR _this$[ebp]
	call	??1CSUDOKUApp@@UAE@XZ
	mov	eax, DWORD PTR ___flags$[ebp]
	and	eax, 1
	je	SHORT $LN1@scalar
	push	DWORD PTR _this$[ebp]
	call	??3CObject@@SGXPAX@Z			; CObject::operator delete
$LN1@scalar:
	mov	eax, DWORD PTR _this$[ebp]
	pop	edi
	pop	esi
	pop	ebx
	add	esp, 204				; 000000ccH
	cmp	ebp, esp
	call	__RTC_CheckEsp
	mov	esp, ebp
	pop	ebp
	ret	4
??_GCSUDOKUApp@@UAEPAXI@Z ENDP				; CSUDOKUApp::`scalar deleting destructor'
_TEXT	ENDS
; Function compile flags: /Odsp /RTCsu /ZI
;	COMDAT ?__autoclassinit2@CSUDOKUApp@@QAEXI@Z
_TEXT	SEGMENT
_this$ = -8						; size = 4
_classSize$ = 8						; size = 4
?__autoclassinit2@CSUDOKUApp@@QAEXI@Z PROC		; CSUDOKUApp::__autoclassinit2, COMDAT
; _this$ = ecx
	push	ebp
	mov	ebp, esp
	sub	esp, 204				; 000000ccH
	push	ebx
	push	esi
	push	edi
	push	ecx
	lea	edi, DWORD PTR [ebp-204]
	push	51					; 00000033H
	pop	ecx
	mov	eax, -858993460				; ccccccccH
	rep stosd
	pop	ecx
	mov	DWORD PTR _this$[ebp], ecx
	push	DWORD PTR _classSize$[ebp]
	push	0
	push	DWORD PTR _this$[ebp]
	call	_memset
	add	esp, 12					; 0000000cH
	pop	edi
	pop	esi
	pop	ebx
	add	esp, 204				; 000000ccH
	cmp	ebp, esp
	call	__RTC_CheckEsp
	mov	esp, ebp
	pop	ebp
	ret	4
?__autoclassinit2@CSUDOKUApp@@QAEXI@Z ENDP		; CSUDOKUApp::__autoclassinit2
_TEXT	ENDS
; Function compile flags: /Odsp /RTCsu /ZI
;	COMDAT ??1CSUDOKUApp@@UAE@XZ
_TEXT	SEGMENT
_this$ = -8						; size = 4
??1CSUDOKUApp@@UAE@XZ PROC				; CSUDOKUApp::~CSUDOKUApp, COMDAT
; _this$ = ecx
	push	ebp
	mov	ebp, esp
	sub	esp, 204				; 000000ccH
	push	ebx
	push	esi
	push	edi
	push	ecx
	lea	edi, DWORD PTR [ebp-204]
	push	51					; 00000033H
	pop	ecx
	mov	eax, -858993460				; ccccccccH
	rep stosd
	pop	ecx
	mov	DWORD PTR _this$[ebp], ecx
	mov	ecx, DWORD PTR _this$[ebp]
	call	??1CWinApp@@UAE@XZ			; CWinApp::~CWinApp
	pop	edi
	pop	esi
	pop	ebx
	add	esp, 204				; 000000ccH
	cmp	ebp, esp
	call	__RTC_CheckEsp
	mov	esp, ebp
	pop	ebp
	ret	0
??1CSUDOKUApp@@UAE@XZ ENDP				; CSUDOKUApp::~CSUDOKUApp
_TEXT	ENDS
; Function compile flags: /Odsp /RTCsu /ZI
; File c:\projets\sudoku\sudoku\sudoku\sudoku.cpp
;	COMDAT ?GetMessageMap@CSUDOKUApp@@MBEPBUAFX_MSGMAP@@XZ
_TEXT	SEGMENT
_this$ = -8						; size = 4
?GetMessageMap@CSUDOKUApp@@MBEPBUAFX_MSGMAP@@XZ PROC	; CSUDOKUApp::GetMessageMap, COMDAT
; _this$ = ecx

; 20   : BEGIN_MESSAGE_MAP(CSUDOKUApp, CWinApp)

	push	ebp
	mov	ebp, esp
	sub	esp, 204				; 000000ccH
	push	ebx
	push	esi
	push	edi
	push	ecx
	lea	edi, DWORD PTR [ebp-204]
	push	51					; 00000033H
	pop	ecx
	mov	eax, -858993460				; ccccccccH
	rep stosd
	pop	ecx
	mov	DWORD PTR _this$[ebp], ecx
	call	?GetThisMessageMap@CSUDOKUApp@@KGPBUAFX_MSGMAP@@XZ ; CSUDOKUApp::GetThisMessageMap
	pop	edi
	pop	esi
	pop	ebx
	add	esp, 204				; 000000ccH
	cmp	ebp, esp
	call	__RTC_CheckEsp
	mov	esp, ebp
	pop	ebp
	ret	0
?GetMessageMap@CSUDOKUApp@@MBEPBUAFX_MSGMAP@@XZ ENDP	; CSUDOKUApp::GetMessageMap
_TEXT	ENDS
; Function compile flags: /Odsp /RTCsu /ZI
; File c:\projets\sudoku\sudoku\sudoku\sudoku.cpp
;	COMDAT ?GetThisMessageMap@CSUDOKUApp@@KGPBUAFX_MSGMAP@@XZ
_TEXT	SEGMENT
?GetThisMessageMap@CSUDOKUApp@@KGPBUAFX_MSGMAP@@XZ PROC	; CSUDOKUApp::GetThisMessageMap, COMDAT

; 20   : BEGIN_MESSAGE_MAP(CSUDOKUApp, CWinApp)

	push	ebp
	mov	ebp, esp
	sub	esp, 192				; 000000c0H
	push	ebx
	push	esi
	push	edi
	lea	edi, DWORD PTR [ebp-192]
	push	48					; 00000030H
	pop	ecx
	mov	eax, -858993460				; ccccccccH
	rep stosd

; 21   : 	ON_COMMAND(ID_HELP, &CWinApp::OnHelp)
; 22   : END_MESSAGE_MAP()

	mov	eax, OFFSET ?messageMap@?1??GetThisMessageMap@CSUDOKUApp@@KGPBUAFX_MSGMAP@@XZ@4U3@B
	pop	edi
	pop	esi
	pop	ebx
	mov	esp, ebp
	pop	ebp
	ret	0
?GetThisMessageMap@CSUDOKUApp@@KGPBUAFX_MSGMAP@@XZ ENDP	; CSUDOKUApp::GetThisMessageMap
_TEXT	ENDS
; Function compile flags: /Odsp /RTCsu /ZI
; File c:\projets\sudoku\sudoku\sudoku\sudoku.cpp
;	COMDAT ?InitInstance@CSUDOKUApp@@UAEHXZ
_TEXT	SEGMENT
tv189 = -560						; size = 4
tv84 = -560						; size = 4
$T2 = -552						; size = 4
$T3 = -540						; size = 4
$T4 = -528						; size = 8
$T5 = -512						; size = 8
$T6 = -496						; size = 4
$T7 = -484						; size = 4
$T8 = -472						; size = 4
_nResponse$ = -268					; size = 4
_dlg$ = -256						; size = 196
_pShellManager$ = -52					; size = 4
_InitCtrls$ = -40					; size = 8
_this$ = -24						; size = 4
__$ArrayPad$ = -16					; size = 4
__$EHRec$ = -12						; size = 12
?InitInstance@CSUDOKUApp@@UAEHXZ PROC			; CSUDOKUApp::InitInstance, COMDAT
; _this$ = ecx

; 45   : {

	push	ebp
	mov	ebp, esp
	push	-1
	push	__ehhandler$?InitInstance@CSUDOKUApp@@UAEHXZ
	mov	eax, DWORD PTR fs:0
	push	eax
	sub	esp, 548				; 00000224H
	push	ebx
	push	esi
	push	edi
	push	ecx
	lea	edi, DWORD PTR [ebp-560]
	mov	ecx, 137				; 00000089H
	mov	eax, -858993460				; ccccccccH
	rep stosd
	pop	ecx
	mov	eax, DWORD PTR ___security_cookie
	xor	eax, ebp
	mov	DWORD PTR __$ArrayPad$[ebp], eax
	push	eax
	lea	eax, DWORD PTR __$EHRec$[ebp]
	mov	DWORD PTR fs:0, eax
	mov	DWORD PTR _this$[ebp], ecx

; 46   : 	// InitCommonControlsEx() est requis sur Windows XP si le manifeste de l'application
; 47   : 	// spécifie l'utilisation de ComCtl32.dll version 6 ou ultérieure pour activer les
; 48   : 	// styles visuels.  Dans le cas contraire, la création de fenêtres échouera.
; 49   : 	INITCOMMONCONTROLSEX InitCtrls;
; 50   : 	InitCtrls.dwSize = sizeof(InitCtrls);

	mov	DWORD PTR _InitCtrls$[ebp], 8

; 51   : 	// À définir pour inclure toutes les classes de contrôles communs à utiliser
; 52   : 	// dans votre application.
; 53   : 	InitCtrls.dwICC = ICC_WIN95_CLASSES;

	mov	DWORD PTR _InitCtrls$[ebp+4], 255	; 000000ffH

; 54   : 	InitCommonControlsEx(&InitCtrls);

	mov	esi, esp
	lea	eax, DWORD PTR _InitCtrls$[ebp]
	push	eax
	call	DWORD PTR __imp__InitCommonControlsEx@4
	cmp	esi, esp
	call	__RTC_CheckEsp

; 55   : 
; 56   : 	CWinApp::InitInstance();

	mov	ecx, DWORD PTR _this$[ebp]
	call	?InitInstance@CWinApp@@UAEHXZ		; CWinApp::InitInstance

; 57   : 
; 58   : 
; 59   : 	AfxEnableControlContainer();

	push	0
	call	?AfxEnableControlContainer@@YAXPAVCOccManager@@@Z ; AfxEnableControlContainer
	pop	ecx

; 60   : 
; 61   : 	// Créer le gestionnaire de shell, si la boîte de dialogue contient
; 62   : 	// des contrôles d'arborescence ou de liste de shell.
; 63   : 	CShellManager *pShellManager = new CShellManager;

	mov	eax, DWORD PTR ?__LINE__Var@?1??InitInstance@CSUDOKUApp@@UAEHXZ@4JA
	add	eax, 18					; 00000012H
	push	eax
	push	OFFSET ??_C@_0CL@ILEOAJIO@c?3?2projets?2sudoku?2sudoku?2sudoku?2@
	push	12					; 0000000cH
	call	??2CObject@@SGPAXIPBDH@Z		; CObject::operator new
	mov	DWORD PTR $T3[ebp], eax
	and	DWORD PTR __$EHRec$[ebp+8], 0
	cmp	DWORD PTR $T3[ebp], 0
	je	SHORT $LN9@InitInstan
	mov	ecx, DWORD PTR $T3[ebp]
	call	??0CShellManager@@QAE@XZ		; CShellManager::CShellManager
	mov	DWORD PTR tv84[ebp], eax
	jmp	SHORT $LN10@InitInstan
$LN9@InitInstan:
	and	DWORD PTR tv84[ebp], 0
$LN10@InitInstan:
	mov	eax, DWORD PTR tv84[ebp]
	mov	DWORD PTR $T2[ebp], eax
	or	DWORD PTR __$EHRec$[ebp+8], -1
	mov	eax, DWORD PTR $T2[ebp]
	mov	DWORD PTR _pShellManager$[ebp], eax

; 64   : 
; 65   : 	// Active le gestionnaire visuel "natif Windows" pour activer les thèmes dans les contrôles MFC
; 66   : 	CMFCVisualManager::SetDefaultManager(RUNTIME_CLASS(CMFCVisualManagerWindows));

	call	?GetThisClass@CMFCVisualManagerWindows@@SGPAUCRuntimeClass@@XZ ; CMFCVisualManagerWindows::GetThisClass
	push	eax
	call	?SetDefaultManager@CMFCVisualManager@@SGXPAUCRuntimeClass@@@Z ; CMFCVisualManager::SetDefaultManager

; 67   : 
; 68   : 	// Initialisation standard
; 69   : 	// Si vous n'utilisez pas ces fonctionnalités et que vous souhaitez réduire la taille
; 70   : 	// de votre exécutable final, vous devez supprimer ci-dessous
; 71   : 	// les routines d'initialisation spécifiques dont vous n'avez pas besoin.
; 72   : 	// Changez la clé de Registre sous laquelle nos paramètres sont enregistrés
; 73   : 	// TODO: modifiez cette chaîne avec des informations appropriées,
; 74   : 	// telles que le nom de votre société ou organisation
; 75   : 	SetRegistryKey(_T("Applications locales générées par AppWizard"));

	push	OFFSET ??_C@_1FI@CDFDGNEO@?$AAA?$AAp?$AAp?$AAl?$AAi?$AAc?$AAa?$AAt?$AAi?$AAo?$AAn?$AAs?$AA?5?$AAl?$AAo?$AAc?$AAa?$AAl?$AAe?$AAs?$AA?5?$AAg?$AA?i?$AAn?$AA?i?$AAr?$AA?i?$AAe?$AAs?$AA?5?$AAp?$AAa@
	mov	ecx, DWORD PTR _this$[ebp]
	call	?SetRegistryKey@CWinApp@@IAEXPB_W@Z	; CWinApp::SetRegistryKey

; 76   : 
; 77   : 	CSUDOKUDlg dlg;

	push	196					; 000000c4H
	lea	ecx, DWORD PTR _dlg$[ebp]
	call	?__autoclassinit2@CSUDOKUDlg@@QAEXI@Z
	push	0
	lea	ecx, DWORD PTR _dlg$[ebp]
	call	??0CSUDOKUDlg@@QAE@PAVCWnd@@@Z		; CSUDOKUDlg::CSUDOKUDlg
	mov	DWORD PTR __$EHRec$[ebp+8], 1

; 78   : 	m_pMainWnd = &dlg;

	mov	eax, DWORD PTR _this$[ebp]
	lea	ecx, DWORD PTR _dlg$[ebp]
	mov	DWORD PTR [eax+32], ecx

; 79   : 	INT_PTR nResponse = dlg.DoModal();

	lea	ecx, DWORD PTR _dlg$[ebp]
	call	?DoModal@CDialog@@UAEHXZ		; CDialog::DoModal
	mov	DWORD PTR _nResponse$[ebp], eax

; 80   : 	if (nResponse == IDOK)

	cmp	DWORD PTR _nResponse$[ebp], 1
	jne	SHORT $LN6@InitInstan
	jmp	SHORT $LN5@InitInstan
$LN6@InitInstan:

; 81   : 	{
; 82   : 		// TODO: placez ici le code définissant le comportement lorsque la boîte de dialogue est
; 83   : 		//  fermée avec OK
; 84   : 	}
; 85   : 	else if (nResponse == IDCANCEL)

	cmp	DWORD PTR _nResponse$[ebp], 2
	jne	SHORT $LN4@InitInstan
	jmp	SHORT $LN5@InitInstan
$LN4@InitInstan:

; 86   : 	{
; 87   : 		// TODO: placez ici le code définissant le comportement lorsque la boîte de dialogue est
; 88   : 		//  fermée avec Annuler
; 89   : 	}
; 90   : 	else if (nResponse == -1)

	cmp	DWORD PTR _nResponse$[ebp], -1
	jne	SHORT $LN5@InitInstan

; 91   : 	{
; 92   : 		TRACE(traceAppMsg, 0, "Avertissement : échec de création de la boîte de dialogue, par conséquent, l'application s'arrête de manière inattendue.\n");

	push	OFFSET ??_C@_0HK@PBGJPJPO@Avertissement?5?3?5?ichec?5de?5cr?iatio@
	push	0
	mov	ecx, DWORD PTR __imp_?traceAppMsg@@3VCTraceCategory@ATL@@A
	call	??B?$CTraceCategoryEx@$0IAAAA@$0A@@ATL@@QAEIXZ ; ATL::CTraceCategoryEx<524288,0>::operator unsigned int
	push	eax
	mov	eax, DWORD PTR ?__LINE__Var@?1??InitInstance@CSUDOKUApp@@UAEHXZ@4JA
	add	eax, 47					; 0000002fH
	push	eax
	push	OFFSET ??_C@_0CL@ILEOAJIO@c?3?2projets?2sudoku?2sudoku?2sudoku?2@
	lea	ecx, DWORD PTR $T4[ebp]
	call	??0CTraceFileAndLineInfo@ATL@@QAE@PBDH@Z ; ATL::CTraceFileAndLineInfo::CTraceFileAndLineInfo
	push	eax
	call	??RCTraceFileAndLineInfo@ATL@@QBAXHIPBDZZ ; ATL::CTraceFileAndLineInfo::operator()
	add	esp, 16					; 00000010H

; 93   : 		TRACE(traceAppMsg, 0, "Avertissement : si vous utilisez les contrôles MFC de la boîte de dialogue, vous ne pouvez pas exécuter #define _AFX_NO_MFC_CONTROLS_IN_DIALOGS.\n");

	push	OFFSET ??_C@_0JC@DNIGCLHC@Avertissement?5?3?5si?5vous?5utilisez@
	push	0
	mov	ecx, DWORD PTR __imp_?traceAppMsg@@3VCTraceCategory@ATL@@A
	call	??B?$CTraceCategoryEx@$0IAAAA@$0A@@ATL@@QAEIXZ ; ATL::CTraceCategoryEx<524288,0>::operator unsigned int
	push	eax
	mov	eax, DWORD PTR ?__LINE__Var@?1??InitInstance@CSUDOKUApp@@UAEHXZ@4JA
	add	eax, 48					; 00000030H
	push	eax
	push	OFFSET ??_C@_0CL@ILEOAJIO@c?3?2projets?2sudoku?2sudoku?2sudoku?2@
	lea	ecx, DWORD PTR $T5[ebp]
	call	??0CTraceFileAndLineInfo@ATL@@QAE@PBDH@Z ; ATL::CTraceFileAndLineInfo::CTraceFileAndLineInfo
	push	eax
	call	??RCTraceFileAndLineInfo@ATL@@QBAXHIPBDZZ ; ATL::CTraceFileAndLineInfo::operator()
	add	esp, 16					; 00000010H
$LN5@InitInstan:

; 94   : 	}
; 95   : 
; 96   : 	// Supprimer le gestionnaire de shell créé ci-dessus.
; 97   : 	if (pShellManager != NULL)

	cmp	DWORD PTR _pShellManager$[ebp], 0
	je	SHORT $LN1@InitInstan

; 98   : 	{
; 99   : 		delete pShellManager;

	mov	eax, DWORD PTR _pShellManager$[ebp]
	mov	DWORD PTR $T7[ebp], eax
	mov	eax, DWORD PTR $T7[ebp]
	mov	DWORD PTR $T6[ebp], eax
	cmp	DWORD PTR $T6[ebp], 0
	je	SHORT $LN11@InitInstan
	mov	esi, esp
	push	1
	mov	eax, DWORD PTR $T6[ebp]
	mov	eax, DWORD PTR [eax]
	mov	ecx, DWORD PTR $T6[ebp]
	call	DWORD PTR [eax+4]
	cmp	esi, esp
	call	__RTC_CheckEsp
	mov	DWORD PTR tv189[ebp], eax
	jmp	SHORT $LN1@InitInstan
$LN11@InitInstan:
	and	DWORD PTR tv189[ebp], 0
$LN1@InitInstan:

; 100  : 	}
; 101  :     
; 102  : 	// Lorsque la boîte de dialogue est fermée, retourner FALSE afin de quitter
; 103  : 	//  l'application, plutôt que de démarrer la pompe de messages de l'application.
; 104  : 	return FALSE;

	and	DWORD PTR $T8[ebp], 0
	or	DWORD PTR __$EHRec$[ebp+8], -1
	lea	ecx, DWORD PTR _dlg$[ebp]
	call	??1CSUDOKUDlg@@UAE@XZ
	mov	eax, DWORD PTR $T8[ebp]

; 105  : }

	push	edx
	mov	ecx, ebp
	push	eax
	lea	edx, DWORD PTR $LN19@InitInstan
	call	@_RTC_CheckStackVars@8
	pop	eax
	pop	edx
	mov	ecx, DWORD PTR __$EHRec$[ebp]
	mov	DWORD PTR fs:0, ecx
	pop	ecx
	pop	edi
	pop	esi
	pop	ebx
	mov	ecx, DWORD PTR __$ArrayPad$[ebp]
	xor	ecx, ebp
	call	@__security_check_cookie@4
	add	esp, 560				; 00000230H
	cmp	ebp, esp
	call	__RTC_CheckEsp
	mov	esp, ebp
	pop	ebp
	ret	0
$LN19@InitInstan:
	DD	2
	DD	$LN18@InitInstan
$LN18@InitInstan:
	DD	-40					; ffffffd8H
	DD	8
	DD	$LN15@InitInstan
	DD	-256					; ffffff00H
	DD	196					; 000000c4H
	DD	$LN16@InitInstan
$LN16@InitInstan:
	DB	100					; 00000064H
	DB	108					; 0000006cH
	DB	103					; 00000067H
	DB	0
$LN15@InitInstan:
	DB	73					; 00000049H
	DB	110					; 0000006eH
	DB	105					; 00000069H
	DB	116					; 00000074H
	DB	67					; 00000043H
	DB	116					; 00000074H
	DB	114					; 00000072H
	DB	108					; 0000006cH
	DB	115					; 00000073H
	DB	0
_TEXT	ENDS
;	COMDAT text$x
text$x	SEGMENT
__unwindfunclet$?InitInstance@CSUDOKUApp@@UAEHXZ$0:
	mov	eax, DWORD PTR ?__LINE__Var@?1??InitInstance@CSUDOKUApp@@UAEHXZ@4JA
	add	eax, 18					; 00000012H
	push	eax
	push	OFFSET ??_C@_0CL@ILEOAJIO@c?3?2projets?2sudoku?2sudoku?2sudoku?2@
	push	DWORD PTR $T3[ebp]
	call	??3CObject@@SGXPAXPBDH@Z		; CObject::operator delete
	ret	0
__unwindfunclet$?InitInstance@CSUDOKUApp@@UAEHXZ$1:
	lea	ecx, DWORD PTR _dlg$[ebp]
	jmp	??1CSUDOKUDlg@@UAE@XZ
__ehhandler$?InitInstance@CSUDOKUApp@@UAEHXZ:
	mov	edx, DWORD PTR [esp+8]
	lea	eax, DWORD PTR [edx+12]
	mov	ecx, DWORD PTR [edx-564]
	xor	ecx, eax
	call	@__security_check_cookie@4
	mov	ecx, DWORD PTR [edx-4]
	xor	ecx, eax
	call	@__security_check_cookie@4
	mov	eax, OFFSET __ehfuncinfo$?InitInstance@CSUDOKUApp@@UAEHXZ
	jmp	___CxxFrameHandler3
text$x	ENDS
?InitInstance@CSUDOKUApp@@UAEHXZ ENDP			; CSUDOKUApp::InitInstance
; Function compile flags: /Odsp /RTCsu /ZI
; File c:\projets\sudoku\sudoku\sudoku\sudoku.cpp
;	COMDAT ??0CSUDOKUApp@@QAE@XZ
_TEXT	SEGMENT
_this$ = -8						; size = 4
??0CSUDOKUApp@@QAE@XZ PROC				; CSUDOKUApp::CSUDOKUApp, COMDAT
; _this$ = ecx

; 28   : {

	push	ebp
	mov	ebp, esp
	sub	esp, 204				; 000000ccH
	push	ebx
	push	esi
	push	edi
	push	ecx
	lea	edi, DWORD PTR [ebp-204]
	push	51					; 00000033H
	pop	ecx
	mov	eax, -858993460				; ccccccccH
	rep stosd
	pop	ecx
	mov	DWORD PTR _this$[ebp], ecx
	push	0
	mov	ecx, DWORD PTR _this$[ebp]
	call	??0CWinApp@@QAE@PB_W@Z			; CWinApp::CWinApp
	mov	eax, DWORD PTR _this$[ebp]
	mov	DWORD PTR [eax], OFFSET ??_7CSUDOKUApp@@6B@

; 29   : 	// prend en charge le Gestionnaire de redémarrage
; 30   : 	m_dwRestartManagerSupportFlags = AFX_RESTART_MANAGER_SUPPORT_RESTART;

	mov	eax, DWORD PTR _this$[ebp]
	mov	DWORD PTR [eax+172], 1

; 31   : 
; 32   : 	// TODO: ajoutez ici du code de construction,
; 33   : 	// Placez toutes les initialisations significatives dans InitInstance
; 34   : }

	mov	eax, DWORD PTR _this$[ebp]
	pop	edi
	pop	esi
	pop	ebx
	add	esp, 204				; 000000ccH
	cmp	ebp, esp
	call	__RTC_CheckEsp
	mov	esp, ebp
	pop	ebp
	ret	0
??0CSUDOKUApp@@QAE@XZ ENDP				; CSUDOKUApp::CSUDOKUApp
_TEXT	ENDS
; Function compile flags: /Odsp /RTCsu /ZI
;	COMDAT ??1CDialogEx@@UAE@XZ
_TEXT	SEGMENT
_this$ = -20						; size = 4
__$EHRec$ = -12						; size = 12
??1CDialogEx@@UAE@XZ PROC				; CDialogEx::~CDialogEx, COMDAT
; _this$ = ecx
	push	ebp
	mov	ebp, esp
	push	-1
	push	__ehhandler$??1CDialogEx@@UAE@XZ
	mov	eax, DWORD PTR fs:0
	push	eax
	sub	esp, 204				; 000000ccH
	push	ebx
	push	esi
	push	edi
	push	ecx
	lea	edi, DWORD PTR [ebp-216]
	push	51					; 00000033H
	pop	ecx
	mov	eax, -858993460				; ccccccccH
	rep stosd
	pop	ecx
	mov	eax, DWORD PTR ___security_cookie
	xor	eax, ebp
	push	eax
	lea	eax, DWORD PTR __$EHRec$[ebp]
	mov	DWORD PTR fs:0, eax
	mov	DWORD PTR _this$[ebp], ecx
	mov	DWORD PTR __$EHRec$[ebp+8], 1
	mov	ecx, DWORD PTR _this$[ebp]
	add	ecx, 176				; 000000b0H
	call	??1CDialogImpl@@MAE@XZ			; CDialogImpl::~CDialogImpl
	mov	BYTE PTR __$EHRec$[ebp+8], 0
	mov	ecx, DWORD PTR _this$[ebp]
	add	ecx, 164				; 000000a4H
	call	??1CBrush@@UAE@XZ			; CBrush::~CBrush
	or	DWORD PTR __$EHRec$[ebp+8], -1
	mov	ecx, DWORD PTR _this$[ebp]
	call	??1CDialog@@UAE@XZ			; CDialog::~CDialog
	mov	ecx, DWORD PTR __$EHRec$[ebp]
	mov	DWORD PTR fs:0, ecx
	pop	ecx
	pop	edi
	pop	esi
	pop	ebx
	add	esp, 216				; 000000d8H
	cmp	ebp, esp
	call	__RTC_CheckEsp
	mov	esp, ebp
	pop	ebp
	ret	0
_TEXT	ENDS
;	COMDAT text$x
text$x	SEGMENT
__unwindfunclet$??1CDialogEx@@UAE@XZ$0:
	mov	ecx, DWORD PTR _this$[ebp]
	jmp	??1CDialog@@UAE@XZ			; CDialog::~CDialog
__unwindfunclet$??1CDialogEx@@UAE@XZ$1:
	mov	ecx, DWORD PTR _this$[ebp]
	add	ecx, 164				; 000000a4H
	jmp	??1CBrush@@UAE@XZ			; CBrush::~CBrush
__ehhandler$??1CDialogEx@@UAE@XZ:
	mov	edx, DWORD PTR [esp+8]
	lea	eax, DWORD PTR [edx+12]
	mov	ecx, DWORD PTR [edx-220]
	xor	ecx, eax
	call	@__security_check_cookie@4
	mov	eax, OFFSET __ehfuncinfo$??1CDialogEx@@UAE@XZ
	jmp	___CxxFrameHandler3
text$x	ENDS
??1CDialogEx@@UAE@XZ ENDP				; CDialogEx::~CDialogEx
; Function compile flags: /Odsp /RTCsu /ZI
; File c:\program files (x86)\microsoft visual studio 12.0\vc\atlmfc\include\afxwin.h
;	COMDAT ?GetApplicationRecoveryPingInterval@CWinApp@@UAEKXZ
_TEXT	SEGMENT
_this$ = -8						; size = 4
?GetApplicationRecoveryPingInterval@CWinApp@@UAEKXZ PROC ; CWinApp::GetApplicationRecoveryPingInterval, COMDAT
; _this$ = ecx

; 5319 : 	virtual DWORD GetApplicationRecoveryPingInterval() { return RECOVERY_DEFAULT_PING_INTERVAL; }  // Ping interval for RegisterApplicationRecoveryCallback

	push	ebp
	mov	ebp, esp
	sub	esp, 204				; 000000ccH
	push	ebx
	push	esi
	push	edi
	push	ecx
	lea	edi, DWORD PTR [ebp-204]
	push	51					; 00000033H
	pop	ecx
	mov	eax, -858993460				; ccccccccH
	rep stosd
	pop	ecx
	mov	DWORD PTR _this$[ebp], ecx
	mov	eax, 5000				; 00001388H
	pop	edi
	pop	esi
	pop	ebx
	mov	esp, ebp
	pop	ebp
	ret	0
?GetApplicationRecoveryPingInterval@CWinApp@@UAEKXZ ENDP ; CWinApp::GetApplicationRecoveryPingInterval
_TEXT	ENDS
; Function compile flags: /Odsp /RTCsu /ZI
; File c:\program files (x86)\microsoft visual studio 12.0\vc\atlmfc\include\afxwin.h
;	COMDAT ?GetApplicationRecoveryParameter@CWinApp@@UAEPAXXZ
_TEXT	SEGMENT
_this$ = -8						; size = 4
?GetApplicationRecoveryParameter@CWinApp@@UAEPAXXZ PROC	; CWinApp::GetApplicationRecoveryParameter, COMDAT
; _this$ = ecx

; 5318 : 	virtual LPVOID GetApplicationRecoveryParameter() { return NULL; }  // Parameter to be passed along to RegisterApplicationRecoveryCallback

	push	ebp
	mov	ebp, esp
	sub	esp, 204				; 000000ccH
	push	ebx
	push	esi
	push	edi
	push	ecx
	lea	edi, DWORD PTR [ebp-204]
	push	51					; 00000033H
	pop	ecx
	mov	eax, -858993460				; ccccccccH
	rep stosd
	pop	ecx
	mov	DWORD PTR _this$[ebp], ecx
	xor	eax, eax
	pop	edi
	pop	esi
	pop	ebx
	mov	esp, ebp
	pop	ebp
	ret	0
?GetApplicationRecoveryParameter@CWinApp@@UAEPAXXZ ENDP	; CWinApp::GetApplicationRecoveryParameter
_TEXT	ENDS
; Function compile flags: /Odsp /RTCsu /ZI
; File c:\program files (x86)\microsoft visual studio 12.0\vc\atlmfc\include\afxwin.h
;	COMDAT ?GetApplicationRestartFlags@CWinApp@@UAEKXZ
_TEXT	SEGMENT
_this$ = -8						; size = 4
?GetApplicationRestartFlags@CWinApp@@UAEKXZ PROC	; CWinApp::GetApplicationRestartFlags, COMDAT
; _this$ = ecx

; 5317 : 	virtual DWORD GetApplicationRestartFlags() { return 0; }  // Flags for RegisterApplicationRestart: default is none of RESTART_NO_CRASH/RESTART_NO_HANG/RESTART_NO_PATCH/RESTART_NO_REBOOT

	push	ebp
	mov	ebp, esp
	sub	esp, 204				; 000000ccH
	push	ebx
	push	esi
	push	edi
	push	ecx
	lea	edi, DWORD PTR [ebp-204]
	push	51					; 00000033H
	pop	ecx
	mov	eax, -858993460				; ccccccccH
	rep stosd
	pop	ecx
	mov	DWORD PTR _this$[ebp], ecx
	xor	eax, eax
	pop	edi
	pop	esi
	pop	ebx
	mov	esp, ebp
	pop	ebp
	ret	0
?GetApplicationRestartFlags@CWinApp@@UAEKXZ ENDP	; CWinApp::GetApplicationRestartFlags
_TEXT	ENDS
; Function compile flags: /Odsp /RTCsu /ZI
; File c:\program files (x86)\microsoft visual studio 12.0\vc\atlmfc\include\afxwin.h
;	COMDAT ?RestoreAutosavedFilesAtRestart@CWinApp@@UBEHXZ
_TEXT	SEGMENT
_this$ = -8						; size = 4
?RestoreAutosavedFilesAtRestart@CWinApp@@UBEHXZ PROC	; CWinApp::RestoreAutosavedFilesAtRestart, COMDAT
; _this$ = ecx

; 5315 : 	virtual BOOL RestoreAutosavedFilesAtRestart() const { return m_dwRestartManagerSupportFlags & AFX_RESTART_MANAGER_RESTORE_AUTOSAVED_FILES; }

	push	ebp
	mov	ebp, esp
	sub	esp, 204				; 000000ccH
	push	ebx
	push	esi
	push	edi
	push	ecx
	lea	edi, DWORD PTR [ebp-204]
	push	51					; 00000033H
	pop	ecx
	mov	eax, -858993460				; ccccccccH
	rep stosd
	pop	ecx
	mov	DWORD PTR _this$[ebp], ecx
	mov	eax, DWORD PTR _this$[ebp]
	mov	eax, DWORD PTR [eax+172]
	and	eax, 32					; 00000020H
	pop	edi
	pop	esi
	pop	ebx
	mov	esp, ebp
	pop	ebp
	ret	0
?RestoreAutosavedFilesAtRestart@CWinApp@@UBEHXZ ENDP	; CWinApp::RestoreAutosavedFilesAtRestart
_TEXT	ENDS
; Function compile flags: /Odsp /RTCsu /ZI
; File c:\program files (x86)\microsoft visual studio 12.0\vc\atlmfc\include\afxwin.h
;	COMDAT ?ReopenPreviousFilesAtRestart@CWinApp@@UBEHXZ
_TEXT	SEGMENT
_this$ = -8						; size = 4
?ReopenPreviousFilesAtRestart@CWinApp@@UBEHXZ PROC	; CWinApp::ReopenPreviousFilesAtRestart, COMDAT
; _this$ = ecx

; 5314 : 	virtual BOOL ReopenPreviousFilesAtRestart() const { return m_dwRestartManagerSupportFlags & AFX_RESTART_MANAGER_REOPEN_PREVIOUS_FILES; }

	push	ebp
	mov	ebp, esp
	sub	esp, 204				; 000000ccH
	push	ebx
	push	esi
	push	edi
	push	ecx
	lea	edi, DWORD PTR [ebp-204]
	push	51					; 00000033H
	pop	ecx
	mov	eax, -858993460				; ccccccccH
	rep stosd
	pop	ecx
	mov	DWORD PTR _this$[ebp], ecx
	mov	eax, DWORD PTR _this$[ebp]
	mov	eax, DWORD PTR [eax+172]
	and	eax, 16					; 00000010H
	pop	edi
	pop	esi
	pop	ebx
	mov	esp, ebp
	pop	ebp
	ret	0
?ReopenPreviousFilesAtRestart@CWinApp@@UBEHXZ ENDP	; CWinApp::ReopenPreviousFilesAtRestart
_TEXT	ENDS
; Function compile flags: /Odsp /RTCsu /ZI
; File c:\program files (x86)\microsoft visual studio 12.0\vc\atlmfc\include\afxwin.h
;	COMDAT ?SupportsAutosaveAtInterval@CWinApp@@UBEHXZ
_TEXT	SEGMENT
_this$ = -8						; size = 4
?SupportsAutosaveAtInterval@CWinApp@@UBEHXZ PROC	; CWinApp::SupportsAutosaveAtInterval, COMDAT
; _this$ = ecx

; 5313 : 	virtual BOOL SupportsAutosaveAtInterval() const { return m_dwRestartManagerSupportFlags & AFX_RESTART_MANAGER_AUTOSAVE_AT_INTERVAL; }

	push	ebp
	mov	ebp, esp
	sub	esp, 204				; 000000ccH
	push	ebx
	push	esi
	push	edi
	push	ecx
	lea	edi, DWORD PTR [ebp-204]
	push	51					; 00000033H
	pop	ecx
	mov	eax, -858993460				; ccccccccH
	rep stosd
	pop	ecx
	mov	DWORD PTR _this$[ebp], ecx
	mov	eax, DWORD PTR _this$[ebp]
	mov	eax, DWORD PTR [eax+172]
	and	eax, 8
	pop	edi
	pop	esi
	pop	ebx
	mov	esp, ebp
	pop	ebp
	ret	0
?SupportsAutosaveAtInterval@CWinApp@@UBEHXZ ENDP	; CWinApp::SupportsAutosaveAtInterval
_TEXT	ENDS
; Function compile flags: /Odsp /RTCsu /ZI
; File c:\program files (x86)\microsoft visual studio 12.0\vc\atlmfc\include\afxwin.h
;	COMDAT ?SupportsAutosaveAtRestart@CWinApp@@UBEHXZ
_TEXT	SEGMENT
_this$ = -8						; size = 4
?SupportsAutosaveAtRestart@CWinApp@@UBEHXZ PROC		; CWinApp::SupportsAutosaveAtRestart, COMDAT
; _this$ = ecx

; 5312 : 	virtual BOOL SupportsAutosaveAtRestart() const { return m_dwRestartManagerSupportFlags & AFX_RESTART_MANAGER_AUTOSAVE_AT_RESTART; }

	push	ebp
	mov	ebp, esp
	sub	esp, 204				; 000000ccH
	push	ebx
	push	esi
	push	edi
	push	ecx
	lea	edi, DWORD PTR [ebp-204]
	push	51					; 00000033H
	pop	ecx
	mov	eax, -858993460				; ccccccccH
	rep stosd
	pop	ecx
	mov	DWORD PTR _this$[ebp], ecx
	mov	eax, DWORD PTR _this$[ebp]
	mov	eax, DWORD PTR [eax+172]
	and	eax, 4
	pop	edi
	pop	esi
	pop	ebx
	mov	esp, ebp
	pop	ebp
	ret	0
?SupportsAutosaveAtRestart@CWinApp@@UBEHXZ ENDP		; CWinApp::SupportsAutosaveAtRestart
_TEXT	ENDS
; Function compile flags: /Odsp /RTCsu /ZI
; File c:\program files (x86)\microsoft visual studio 12.0\vc\atlmfc\include\afxwin.h
;	COMDAT ?SupportsApplicationRecovery@CWinApp@@UBEHXZ
_TEXT	SEGMENT
_this$ = -8						; size = 4
?SupportsApplicationRecovery@CWinApp@@UBEHXZ PROC	; CWinApp::SupportsApplicationRecovery, COMDAT
; _this$ = ecx

; 5311 : 	virtual BOOL SupportsApplicationRecovery() const { return m_dwRestartManagerSupportFlags & AFX_RESTART_MANAGER_SUPPORT_RECOVERY; }

	push	ebp
	mov	ebp, esp
	sub	esp, 204				; 000000ccH
	push	ebx
	push	esi
	push	edi
	push	ecx
	lea	edi, DWORD PTR [ebp-204]
	push	51					; 00000033H
	pop	ecx
	mov	eax, -858993460				; ccccccccH
	rep stosd
	pop	ecx
	mov	DWORD PTR _this$[ebp], ecx
	mov	eax, DWORD PTR _this$[ebp]
	mov	eax, DWORD PTR [eax+172]
	and	eax, 2
	pop	edi
	pop	esi
	pop	ebx
	mov	esp, ebp
	pop	ebp
	ret	0
?SupportsApplicationRecovery@CWinApp@@UBEHXZ ENDP	; CWinApp::SupportsApplicationRecovery
_TEXT	ENDS
; Function compile flags: /Odsp /RTCsu /ZI
; File c:\program files (x86)\microsoft visual studio 12.0\vc\atlmfc\include\afxwin.h
;	COMDAT ?SupportsRestartManager@CWinApp@@UBEHXZ
_TEXT	SEGMENT
_this$ = -8						; size = 4
?SupportsRestartManager@CWinApp@@UBEHXZ PROC		; CWinApp::SupportsRestartManager, COMDAT
; _this$ = ecx

; 5310 : 	virtual BOOL SupportsRestartManager() const { return m_dwRestartManagerSupportFlags & AFX_RESTART_MANAGER_SUPPORT_RESTART; }

	push	ebp
	mov	ebp, esp
	sub	esp, 204				; 000000ccH
	push	ebx
	push	esi
	push	edi
	push	ecx
	lea	edi, DWORD PTR [ebp-204]
	push	51					; 00000033H
	pop	ecx
	mov	eax, -858993460				; ccccccccH
	rep stosd
	pop	ecx
	mov	DWORD PTR _this$[ebp], ecx
	mov	eax, DWORD PTR _this$[ebp]
	mov	eax, DWORD PTR [eax+172]
	and	eax, 1
	pop	edi
	pop	esi
	pop	ebx
	mov	esp, ebp
	pop	ebp
	ret	0
?SupportsRestartManager@CWinApp@@UBEHXZ ENDP		; CWinApp::SupportsRestartManager
_TEXT	ENDS
; Function compile flags: /Odsp /RTCsu /ZI
; File c:\program files (x86)\microsoft visual studio 12.0\vc\atlmfc\include\atltrace.h
;	COMDAT ??RCTraceFileAndLineInfo@ATL@@QBAXHIPBDZZ
_TEXT	SEGMENT
_ptr$ = -8						; size = 4
_this$ = 8						; size = 4
_dwCategory$ = 12					; size = 4
_nLevel$ = 16						; size = 4
_pszFmt$ = 20						; size = 4
??RCTraceFileAndLineInfo@ATL@@QBAXHIPBDZZ PROC		; ATL::CTraceFileAndLineInfo::operator(), COMDAT

; 333  : 	{

	push	ebp
	mov	ebp, esp
	sub	esp, 204				; 000000ccH
	push	ebx
	push	esi
	push	edi
	lea	edi, DWORD PTR [ebp-204]
	push	51					; 00000033H
	pop	ecx
	mov	eax, -858993460				; ccccccccH
	rep stosd

; 334  : 		va_list ptr; va_start(ptr, pszFmt);

	lea	eax, DWORD PTR _pszFmt$[ebp+4]
	mov	DWORD PTR _ptr$[ebp], eax

; 335  : 		ATL::CTrace::TraceV(m_pszFileName, m_nLineNo, dwCategory, nLevel, pszFmt, ptr);

	push	DWORD PTR _ptr$[ebp]
	push	DWORD PTR _pszFmt$[ebp]
	push	DWORD PTR _nLevel$[ebp]
	push	DWORD PTR _dwCategory$[ebp]
	mov	eax, DWORD PTR _this$[ebp]
	push	DWORD PTR [eax+4]
	mov	eax, DWORD PTR _this$[ebp]
	push	DWORD PTR [eax]
	call	?TraceV@CTrace@ATL@@SAXPBDHII0PAD@Z	; ATL::CTrace::TraceV
	add	esp, 24					; 00000018H

; 336  : 		va_end(ptr);

	and	DWORD PTR _ptr$[ebp], 0

; 337  : 	}

	pop	edi
	pop	esi
	pop	ebx
	add	esp, 204				; 000000ccH
	cmp	ebp, esp
	call	__RTC_CheckEsp
	mov	esp, ebp
	pop	ebp
	ret	0
??RCTraceFileAndLineInfo@ATL@@QBAXHIPBDZZ ENDP		; ATL::CTraceFileAndLineInfo::operator()
_TEXT	ENDS
; Function compile flags: /Odsp /RTCsu /ZI
; File c:\program files (x86)\microsoft visual studio 12.0\vc\atlmfc\include\atltrace.h
;	COMDAT ??0CTraceFileAndLineInfo@ATL@@QAE@PBDH@Z
_TEXT	SEGMENT
_this$ = -8						; size = 4
_pszFileName$ = 8					; size = 4
_nLineNo$ = 12						; size = 4
??0CTraceFileAndLineInfo@ATL@@QAE@PBDH@Z PROC		; ATL::CTraceFileAndLineInfo::CTraceFileAndLineInfo, COMDAT
; _this$ = ecx

; 323  : 	{

	push	ebp
	mov	ebp, esp
	sub	esp, 204				; 000000ccH
	push	ebx
	push	esi
	push	edi
	push	ecx
	lea	edi, DWORD PTR [ebp-204]
	push	51					; 00000033H
	pop	ecx
	mov	eax, -858993460				; ccccccccH
	rep stosd
	pop	ecx
	mov	DWORD PTR _this$[ebp], ecx
	mov	eax, DWORD PTR _this$[ebp]
	mov	ecx, DWORD PTR _pszFileName$[ebp]
	mov	DWORD PTR [eax], ecx
	mov	eax, DWORD PTR _this$[ebp]
	mov	ecx, DWORD PTR _nLineNo$[ebp]
	mov	DWORD PTR [eax+4], ecx

; 324  : 	}

	mov	eax, DWORD PTR _this$[ebp]
	pop	edi
	pop	esi
	pop	ebx
	mov	esp, ebp
	pop	ebp
	ret	8
??0CTraceFileAndLineInfo@ATL@@QAE@PBDH@Z ENDP		; ATL::CTraceFileAndLineInfo::CTraceFileAndLineInfo
_TEXT	ENDS
; Function compile flags: /Odsp /RTCsu /ZI
; File c:\program files (x86)\microsoft visual studio 12.0\vc\atlmfc\include\atltrace.h
;	COMDAT ?TraceV@CTrace@ATL@@SAXPBDHII0PAD@Z
_TEXT	SEGMENT
_wszBuf$ = -3088					; size = 2048
_szBuf$ = -1032						; size = 1024
__$ArrayPad$ = -4					; size = 4
_pszFileName$ = 8					; size = 4
_nLine$ = 12						; size = 4
_dwCategory$ = 16					; size = 4
_nLevel$ = 20						; size = 4
_pszFmt$ = 24						; size = 4
_args$ = 28						; size = 4
?TraceV@CTrace@ATL@@SAXPBDHII0PAD@Z PROC		; ATL::CTrace::TraceV, COMDAT

; 225  : 	{

	push	ebp
	mov	ebp, esp
	sub	esp, 3284				; 00000cd4H
	push	ebx
	push	esi
	push	edi
	lea	edi, DWORD PTR [ebp-3284]
	mov	ecx, 821				; 00000335H
	mov	eax, -858993460				; ccccccccH
	rep stosd
	mov	eax, DWORD PTR ___security_cookie
	xor	eax, ebp
	mov	DWORD PTR __$ArrayPad$[ebp], eax

; 226  : 		char szBuf[TraceBufferSize] = {'\0'};

	mov	BYTE PTR _szBuf$[ebp], 0
	push	1023					; 000003ffH
	push	0
	lea	eax, DWORD PTR _szBuf$[ebp+1]
	push	eax
	call	_memset
	add	esp, 12					; 0000000cH

; 227  : 
; 228  : 		if (_vsnprintf_s(szBuf, TraceBufferSize, TraceBufferSize - 1, pszFmt, args) == -1)

	mov	esi, esp
	push	DWORD PTR _args$[ebp]
	push	DWORD PTR _pszFmt$[ebp]
	push	1023					; 000003ffH
	push	1024					; 00000400H
	lea	eax, DWORD PTR _szBuf$[ebp]
	push	eax
	call	DWORD PTR __imp___vsnprintf_s
	add	esp, 20					; 00000014H
	cmp	esi, esp
	call	__RTC_CheckEsp
	cmp	eax, -1
	jne	SHORT $LN2@TraceV

; 229  : 		{
; 230  : 			return;

	jmp	SHORT $LN3@TraceV
$LN2@TraceV:

; 231  : 		}
; 232  : 
; 233  : 		wchar_t wszBuf[TraceBufferSize] = {'\0'};

	xor	eax, eax
	mov	WORD PTR _wszBuf$[ebp], ax
	push	2046					; 000007feH
	push	0
	lea	eax, DWORD PTR _wszBuf$[ebp+2]
	push	eax
	call	_memset
	add	esp, 12					; 0000000cH

; 234  : 
; 235  : 		if (MultiByteToWideChar(CP_ACP, 0, szBuf, -1, wszBuf, TraceBufferSize) == 0)

	mov	esi, esp
	push	1024					; 00000400H
	lea	eax, DWORD PTR _wszBuf$[ebp]
	push	eax
	push	-1
	lea	eax, DWORD PTR _szBuf$[ebp]
	push	eax
	push	0
	push	0
	call	DWORD PTR __imp__MultiByteToWideChar@24
	cmp	esi, esp
	call	__RTC_CheckEsp
	test	eax, eax
	jne	SHORT $LN1@TraceV

; 236  : 		{
; 237  : 			return;

	jmp	SHORT $LN3@TraceV
$LN1@TraceV:

; 238  : 		}
; 239  : 
; 240  : 		TraceV(pszFileName, nLine, dwCategory, nLevel, wszBuf);

	lea	eax, DWORD PTR _wszBuf$[ebp]
	push	eax
	push	DWORD PTR _nLevel$[ebp]
	push	DWORD PTR _dwCategory$[ebp]
	push	DWORD PTR _nLine$[ebp]
	push	DWORD PTR _pszFileName$[ebp]
	call	?TraceV@CTrace@ATL@@CAXPBDHIIPB_W@Z	; ATL::CTrace::TraceV
	add	esp, 20					; 00000014H
$LN3@TraceV:

; 241  : 	}

	push	edx
	mov	ecx, ebp
	push	eax
	lea	edx, DWORD PTR $LN8@TraceV
	call	@_RTC_CheckStackVars@8
	pop	eax
	pop	edx
	pop	edi
	pop	esi
	pop	ebx
	mov	ecx, DWORD PTR __$ArrayPad$[ebp]
	xor	ecx, ebp
	call	@__security_check_cookie@4
	add	esp, 3284				; 00000cd4H
	cmp	ebp, esp
	call	__RTC_CheckEsp
	mov	esp, ebp
	pop	ebp
	ret	0
$LN8@TraceV:
	DD	2
	DD	$LN7@TraceV
$LN7@TraceV:
	DD	-1032					; fffffbf8H
	DD	1024					; 00000400H
	DD	$LN5@TraceV
	DD	-3088					; fffff3f0H
	DD	2048					; 00000800H
	DD	$LN6@TraceV
$LN6@TraceV:
	DB	119					; 00000077H
	DB	115					; 00000073H
	DB	122					; 0000007aH
	DB	66					; 00000042H
	DB	117					; 00000075H
	DB	102					; 00000066H
	DB	0
$LN5@TraceV:
	DB	115					; 00000073H
	DB	122					; 0000007aH
	DB	66					; 00000042H
	DB	117					; 00000075H
	DB	102					; 00000066H
	DB	0
?TraceV@CTrace@ATL@@SAXPBDHII0PAD@Z ENDP		; ATL::CTrace::TraceV
_TEXT	ENDS
; Function compile flags: /Odsp /RTCsu /ZI
; File c:\program files (x86)\microsoft visual studio 12.0\vc\atlmfc\include\atltrace.h
;	COMDAT ?TraceV@CTrace@ATL@@CAXPBDHIIPB_W@Z
_TEXT	SEGMENT
_fileName$ = -2608					; size = 520
_pwszCategoryName$ = -2080				; size = 4
_strLen$ = -2068					; size = 4
_wszBuf$ = -2056					; size = 2048
__$ArrayPad$ = -4					; size = 4
_pszFileName$ = 8					; size = 4
_nLine$ = 12						; size = 4
_dwCategory$ = 16					; size = 4
_nLevel$ = 20						; size = 4
_pwszMessage$ = 24					; size = 4
?TraceV@CTrace@ATL@@CAXPBDHIIPB_W@Z PROC		; ATL::CTrace::TraceV, COMDAT

; 149  : 	{

	push	ebp
	mov	ebp, esp
	sub	esp, 2804				; 00000af4H
	push	ebx
	push	esi
	push	edi
	lea	edi, DWORD PTR [ebp-2804]
	mov	ecx, 701				; 000002bdH
	mov	eax, -858993460				; ccccccccH
	rep stosd
	mov	eax, DWORD PTR ___security_cookie
	xor	eax, ebp
	mov	DWORD PTR __$ArrayPad$[ebp], eax

; 150  : 		if (CTrace::m_nLevel == CTrace::DisableTracing || CTrace::m_nLevel < nLevel || (CTrace::m_nCategory & dwCategory) == 0)

	cmp	DWORD PTR ?m_nLevel@CTrace@ATL@@1IA, -1	; ATL::CTrace::m_nLevel
	je	SHORT $LN7@TraceV
	mov	eax, DWORD PTR ?m_nLevel@CTrace@ATL@@1IA ; ATL::CTrace::m_nLevel
	cmp	eax, DWORD PTR _nLevel$[ebp]
	jb	SHORT $LN7@TraceV
	mov	eax, DWORD PTR ?m_nCategory@CTrace@ATL@@1IA ; ATL::CTrace::m_nCategory
	and	eax, DWORD PTR _dwCategory$[ebp]
	jne	SHORT $LN8@TraceV
$LN7@TraceV:

; 151  : 		{
; 152  : 			return;

	jmp	$LN9@TraceV
$LN8@TraceV:

; 153  : 		}
; 154  : 
; 155  : 		wchar_t wszBuf[TraceBufferSize] = {'\0'};

	xor	eax, eax
	mov	WORD PTR _wszBuf$[ebp], ax
	push	2046					; 000007feH
	push	0
	lea	eax, DWORD PTR _wszBuf$[ebp+2]
	push	eax
	call	_memset
	add	esp, 12					; 0000000cH

; 156  : 		int strLen = 0;

	and	DWORD PTR _strLen$[ebp], 0

; 157  : 		const wchar_t *const pwszCategoryName = GetCategoryName(dwCategory);

	push	DWORD PTR _dwCategory$[ebp]
	call	?GetCategoryName@CTrace@ATL@@CAPA_WI@Z	; ATL::CTrace::GetCategoryName
	pop	ecx
	mov	DWORD PTR _pwszCategoryName$[ebp], eax

; 158  : 
; 159  : 		if (pwszCategoryName != nullptr)

	cmp	DWORD PTR _pwszCategoryName$[ebp], 0
	je	SHORT $LN6@TraceV

; 160  : 		{
; 161  : 			if ((strLen = swprintf_s(wszBuf, TraceBufferSize, L"%s - ", pwszCategoryName)) == -1)

	mov	esi, esp
	push	DWORD PTR _pwszCategoryName$[ebp]
	push	OFFSET ??_C@_1M@PLLAHAGD@?$AA?$CF?$AAs?$AA?5?$AA?9?$AA?5?$AA?$AA@
	push	1024					; 00000400H
	lea	eax, DWORD PTR _wszBuf$[ebp]
	push	eax
	call	DWORD PTR __imp__swprintf_s
	add	esp, 16					; 00000010H
	cmp	esi, esp
	call	__RTC_CheckEsp
	mov	DWORD PTR _strLen$[ebp], eax
	cmp	DWORD PTR _strLen$[ebp], -1
	jne	SHORT $LN5@TraceV

; 162  : 			{
; 163  : 				return;

	jmp	$LN9@TraceV
$LN5@TraceV:

; 164  : 			}
; 165  : 		}
; 166  : 		else

	jmp	SHORT $LN4@TraceV
$LN6@TraceV:

; 167  : 		{
; 168  : 			if ((strLen = swprintf_s(wszBuf, TraceBufferSize, L"%u - ", dwCategory)) == -1)

	mov	esi, esp
	push	DWORD PTR _dwCategory$[ebp]
	push	OFFSET ??_C@_1M@PGKOAACE@?$AA?$CF?$AAu?$AA?5?$AA?9?$AA?5?$AA?$AA@
	push	1024					; 00000400H
	lea	eax, DWORD PTR _wszBuf$[ebp]
	push	eax
	call	DWORD PTR __imp__swprintf_s
	add	esp, 16					; 00000010H
	cmp	esi, esp
	call	__RTC_CheckEsp
	mov	DWORD PTR _strLen$[ebp], eax
	cmp	DWORD PTR _strLen$[ebp], -1
	jne	SHORT $LN4@TraceV

; 169  : 			{
; 170  : 				return;

	jmp	$LN9@TraceV
$LN4@TraceV:

; 171  : 			}
; 172  : 		}
; 173  : 
; 174  : 		if ((strLen = swprintf_s(wszBuf + strLen, TraceBufferSize - strLen, L"%s", pwszMessage)) == -1)

	mov	esi, esp
	push	DWORD PTR _pwszMessage$[ebp]
	push	OFFSET ??_C@_15GANGMFKL@?$AA?$CF?$AAs?$AA?$AA@
	mov	eax, 1024				; 00000400H
	sub	eax, DWORD PTR _strLen$[ebp]
	push	eax
	mov	eax, DWORD PTR _strLen$[ebp]
	lea	eax, DWORD PTR _wszBuf$[ebp+eax*2]
	push	eax
	call	DWORD PTR __imp__swprintf_s
	add	esp, 16					; 00000010H
	cmp	esi, esp
	call	__RTC_CheckEsp
	mov	DWORD PTR _strLen$[ebp], eax
	cmp	DWORD PTR _strLen$[ebp], -1
	jne	SHORT $LN2@TraceV

; 175  : 		{
; 176  : 			return;

	jmp	SHORT $LN9@TraceV
$LN2@TraceV:

; 177  : 		}
; 178  : 
; 179  : 		wchar_t fileName[_MAX_PATH] = {'\0'};	

	xor	eax, eax
	mov	WORD PTR _fileName$[ebp], ax
	push	518					; 00000206H
	push	0
	lea	eax, DWORD PTR _fileName$[ebp+2]
	push	eax
	call	_memset
	add	esp, 12					; 0000000cH

; 180  : 		if (swprintf_s(fileName, _MAX_PATH, L"%S", pszFileName) == -1)

	mov	esi, esp
	push	DWORD PTR _pszFileName$[ebp]
	push	OFFSET ??_C@_15MAOEGKJF@?$AA?$CF?$AAS?$AA?$AA@
	push	260					; 00000104H
	lea	eax, DWORD PTR _fileName$[ebp]
	push	eax
	call	DWORD PTR __imp__swprintf_s
	add	esp, 16					; 00000010H
	cmp	esi, esp
	call	__RTC_CheckEsp
	cmp	eax, -1
	jne	SHORT $LN1@TraceV

; 181  : 		{
; 182  : 			return;

	jmp	SHORT $LN9@TraceV
$LN1@TraceV:

; 183  : 		}
; 184  : 
; 185  : 		_CrtDbgReportW(_CRT_WARN, fileName, nLine, nullptr, L"%s", wszBuf);		

	mov	esi, esp
	lea	eax, DWORD PTR _wszBuf$[ebp]
	push	eax
	push	OFFSET ??_C@_15GANGMFKL@?$AA?$CF?$AAs?$AA?$AA@
	push	0
	push	DWORD PTR _nLine$[ebp]
	lea	eax, DWORD PTR _fileName$[ebp]
	push	eax
	push	0
	call	DWORD PTR __imp___CrtDbgReportW
	add	esp, 24					; 00000018H
	cmp	esi, esp
	call	__RTC_CheckEsp
$LN9@TraceV:

; 186  : 	}

	push	edx
	mov	ecx, ebp
	push	eax
	lea	edx, DWORD PTR $LN14@TraceV
	call	@_RTC_CheckStackVars@8
	pop	eax
	pop	edx
	pop	edi
	pop	esi
	pop	ebx
	mov	ecx, DWORD PTR __$ArrayPad$[ebp]
	xor	ecx, ebp
	call	@__security_check_cookie@4
	add	esp, 2804				; 00000af4H
	cmp	ebp, esp
	call	__RTC_CheckEsp
	mov	esp, ebp
	pop	ebp
	ret	0
	npad	3
$LN14@TraceV:
	DD	2
	DD	$LN13@TraceV
$LN13@TraceV:
	DD	-2056					; fffff7f8H
	DD	2048					; 00000800H
	DD	$LN11@TraceV
	DD	-2608					; fffff5d0H
	DD	520					; 00000208H
	DD	$LN12@TraceV
$LN12@TraceV:
	DB	102					; 00000066H
	DB	105					; 00000069H
	DB	108					; 0000006cH
	DB	101					; 00000065H
	DB	78					; 0000004eH
	DB	97					; 00000061H
	DB	109					; 0000006dH
	DB	101					; 00000065H
	DB	0
$LN11@TraceV:
	DB	119					; 00000077H
	DB	115					; 00000073H
	DB	122					; 0000007aH
	DB	66					; 00000042H
	DB	117					; 00000075H
	DB	102					; 00000066H
	DB	0
?TraceV@CTrace@ATL@@CAXPBDHIIPB_W@Z ENDP		; ATL::CTrace::TraceV
_TEXT	ENDS
; Function compile flags: /Odsp /RTCsu /ZI
; File c:\program files (x86)\microsoft visual studio 12.0\vc\atlmfc\include\atltrace.h
;	COMDAT ?GetCategoryName@CTrace@ATL@@CAPA_WI@Z
_TEXT	SEGMENT
_i$1 = -8						; size = 4
_nCategory$ = 8						; size = 4
?GetCategoryName@CTrace@ATL@@CAPA_WI@Z PROC		; ATL::CTrace::GetCategoryName, COMDAT

; 131  : 	{

	push	ebp
	mov	ebp, esp
	sub	esp, 204				; 000000ccH
	push	ebx
	push	esi
	push	edi
	lea	edi, DWORD PTR [ebp-204]
	push	51					; 00000033H
	pop	ecx
	mov	eax, -858993460				; ccccccccH
	rep stosd

; 132  : 		for(unsigned int i = 0; i < m_nLastCategory; i++) 

	and	DWORD PTR _i$1[ebp], 0
	jmp	SHORT $LN4@GetCategor
$LN3@GetCategor:
	mov	eax, DWORD PTR _i$1[ebp]
	inc	eax
	mov	DWORD PTR _i$1[ebp], eax
$LN4@GetCategor:
	mov	eax, DWORD PTR _i$1[ebp]
	cmp	eax, DWORD PTR ?m_nLastCategory@CTrace@ATL@@1IA ; ATL::CTrace::m_nLastCategory
	jae	SHORT $LN2@GetCategor

; 133  : 		{
; 134  : 			if (m_nMap[i].nCategory == nCategory)

	imul	eax, DWORD PTR _i$1[ebp], 260
	mov	eax, DWORD PTR ?m_nMap@CTrace@ATL@@1PAUCategoryMap@12@A[eax]
	cmp	eax, DWORD PTR _nCategory$[ebp]
	jne	SHORT $LN1@GetCategor

; 135  : 			{
; 136  : 				return m_nMap[i].categryName;

	imul	eax, DWORD PTR _i$1[ebp], 260
	add	eax, OFFSET ?m_nMap@CTrace@ATL@@1PAUCategoryMap@12@A+4
	jmp	SHORT $LN5@GetCategor
$LN1@GetCategor:

; 137  : 			}
; 138  : 		}

	jmp	SHORT $LN3@GetCategor
$LN2@GetCategor:

; 139  : 
; 140  : 		return nullptr;

	xor	eax, eax
$LN5@GetCategor:

; 141  : 	}

	pop	edi
	pop	esi
	pop	ebx
	mov	esp, ebp
	pop	ebp
	ret	0
?GetCategoryName@CTrace@ATL@@CAPA_WI@Z ENDP		; ATL::CTrace::GetCategoryName
_TEXT	ENDS
; Function compile flags: /Odsp /RTCsu /ZI
; File c:\program files (x86)\microsoft visual studio 12.0\vc\atlmfc\include\atltrace.h
;	COMDAT ??B?$CTraceCategoryEx@$0IAAAA@$0A@@ATL@@QAEIXZ
_TEXT	SEGMENT
_this$ = -8						; size = 4
??B?$CTraceCategoryEx@$0IAAAA@$0A@@ATL@@QAEIXZ PROC	; ATL::CTraceCategoryEx<524288,0>::operator unsigned int, COMDAT
; _this$ = ecx

; 78   : 	{

	push	ebp
	mov	ebp, esp
	sub	esp, 204				; 000000ccH
	push	ebx
	push	esi
	push	edi
	push	ecx
	lea	edi, DWORD PTR [ebp-204]
	push	51					; 00000033H
	pop	ecx
	mov	eax, -858993460				; ccccccccH
	rep stosd
	pop	ecx
	mov	DWORD PTR _this$[ebp], ecx

; 79   : #ifdef _DEBUG
; 80   : 		return traceCategory;

	mov	eax, 524288				; 00080000H

; 81   : #else
; 82   : 		return 0;
; 83   : #endif
; 84   : 	}

	pop	edi
	pop	esi
	pop	ebx
	mov	esp, ebp
	pop	ebp
	ret	0
??B?$CTraceCategoryEx@$0IAAAA@$0A@@ATL@@QAEIXZ ENDP	; ATL::CTraceCategoryEx<524288,0>::operator unsigned int
_TEXT	ENDS
END
