; Listing generated by Microsoft (R) Optimizing Compiler Version 19.34.31937.0 

	TITLE	J:\work\SUDOKU\SUDOKU\SUDOKU\Debug\SUDOKU.obj
	.686P
	.XMM
	include listing.inc
	.model	flat

INCLUDELIB LIBCMTD
INCLUDELIB OLDNAMES

EXTRN	?OnHelp@CWinApp@@IAEXXZ:PROC			; CWinApp::OnHelp
EXTRN	?GetThisMessageMap@CWinApp@@KGPBUAFX_MSGMAP@@XZ:PROC ; CWinApp::GetThisMessageMap
msvcjmc	SEGMENT
__7723FEDF_SUDOKU@pch DB 01H
__1F006E5A_afxwin@h DB 01H
__8A4E50A9_afxdialogex@h DB 01H
__B5C48800_stdio@h DB 01H
__63F83F46_atltrace@h DB 01H
__A8C6672F_winerror@h DB 01H
__A7F89B2B_corecrt_wstdio@h DB 01H
__C44F8F6B_corecrt_stdio_config@h DB 01H
__D909E87F_atlalloc@h DB 01H
__CE00359D_SUDOKUDlg@h DB 01H
__B746AA20_SUDOKU@cpp DB 01H
__A700C7EB_Solution@h DB 01H
__6E6BE0F3_resource@h DB 01H
__B585B2A7_SUDOKU@h DB 01H
__3EA9D4DA_stdafx@h DB 01H
__8906E2DA_stdafx@cpp DB 01H
msvcjmc	ENDS
CONST	SEGMENT
?_messageEntries@?1??GetThisMessageMap@CSUDOKUApp@@KGPBUAFX_MSGMAP@@XZ@4QBUAFX_MSGMAP_ENTRY@@B DD 0111H ; `CSUDOKUApp::GetThisMessageMap'::`2'::_messageEntries
	DD	00H
	DD	0e146H
	DD	0e146H
	DD	03aH
	DD	FLAT:?OnHelp@CWinApp@@IAEXXZ
	DD	00H
	DD	00H
	DD	00H
	DD	00H
	DD	00H
	DD	00H
?messageMap@?1??GetThisMessageMap@CSUDOKUApp@@KGPBUAFX_MSGMAP@@XZ@4U3@B DD FLAT:?GetThisMessageMap@CWinApp@@KGPBUAFX_MSGMAP@@XZ ; `CSUDOKUApp::GetThisMessageMap'::`2'::messageMap
	DD	FLAT:?_messageEntries@?1??GetThisMessageMap@CSUDOKUApp@@KGPBUAFX_MSGMAP@@XZ@4QBUAFX_MSGMAP_ENTRY@@B
CONST	ENDS
PUBLIC	?__empty_global_delete@@YAXPAX@Z		; __empty_global_delete
PUBLIC	?__empty_global_delete@@YAXPAXI@Z		; __empty_global_delete
PUBLIC	_HRESULT_FROM_WIN32
PUBLIC	___local_stdio_printf_options
PUBLIC	__vswprintf_s_l
PUBLIC	_swprintf_s
PUBLIC	__vsnprintf_s_l
PUBLIC	__vsnprintf_s
PUBLIC	__vscprintf_l
PUBLIC	__vscprintf
PUBLIC	??$AtlMultiply@I@ATL@@YAJPAIII@Z		; ATL::AtlMultiply<unsigned int>
PUBLIC	?Allocate@CCRTAllocator@ATL@@SAPAXI@Z		; ATL::CCRTAllocator::Allocate
PUBLIC	?Free@CCRTAllocator@ATL@@SAXPAX@Z		; ATL::CCRTAllocator::Free
PUBLIC	??B?$CTraceCategoryEx@$0IAAAA@$0A@@ATL@@QAEIXZ	; ATL::CTraceCategoryEx<524288,0>::operator unsigned int
PUBLIC	?GetCategoryName@CTrace@ATL@@CAPA_WI@Z		; ATL::CTrace::GetCategoryName
PUBLIC	?TraceV@CTrace@ATL@@CAXPBDHIIPB_W@Z		; ATL::CTrace::TraceV
PUBLIC	?TraceV@CTrace@ATL@@SAXPBDHII0PAD@Z		; ATL::CTrace::TraceV
PUBLIC	??0?$CHeapPtrBase@_WVCCRTAllocator@ATL@@@ATL@@IAE@XZ ; ATL::CHeapPtrBase<wchar_t,ATL::CCRTAllocator>::CHeapPtrBase<wchar_t,ATL::CCRTAllocator>
PUBLIC	??1?$CHeapPtrBase@_WVCCRTAllocator@ATL@@@ATL@@QAE@XZ ; ATL::CHeapPtrBase<wchar_t,ATL::CCRTAllocator>::~CHeapPtrBase<wchar_t,ATL::CCRTAllocator>
PUBLIC	??B?$CHeapPtrBase@_WVCCRTAllocator@ATL@@@ATL@@QBEPA_WXZ ; ATL::CHeapPtrBase<wchar_t,ATL::CCRTAllocator>::operator wchar_t *
PUBLIC	?AllocateBytes@?$CHeapPtrBase@_WVCCRTAllocator@ATL@@@ATL@@QAE_NI@Z ; ATL::CHeapPtrBase<wchar_t,ATL::CCRTAllocator>::AllocateBytes
PUBLIC	?Free@?$CHeapPtrBase@_WVCCRTAllocator@ATL@@@ATL@@QAEXXZ ; ATL::CHeapPtrBase<wchar_t,ATL::CCRTAllocator>::Free
PUBLIC	??0?$CHeapPtr@_WVCCRTAllocator@ATL@@@ATL@@QAE@XZ ; ATL::CHeapPtr<wchar_t,ATL::CCRTAllocator>::CHeapPtr<wchar_t,ATL::CCRTAllocator>
PUBLIC	?Allocate@?$CHeapPtr@_WVCCRTAllocator@ATL@@@ATL@@QAE_NI@Z ; ATL::CHeapPtr<wchar_t,ATL::CCRTAllocator>::Allocate
PUBLIC	??1?$CHeapPtr@_WVCCRTAllocator@ATL@@@ATL@@QAE@XZ ; ATL::CHeapPtr<wchar_t,ATL::CCRTAllocator>::~CHeapPtr<wchar_t,ATL::CCRTAllocator>
PUBLIC	?__autoclassinit2@?$CHeapPtr@_WVCCRTAllocator@ATL@@@ATL@@QAEXI@Z ; ATL::CHeapPtr<wchar_t,ATL::CCRTAllocator>::__autoclassinit2
PUBLIC	??0?$CHeapPtrBase@DVCCRTAllocator@ATL@@@ATL@@IAE@XZ ; ATL::CHeapPtrBase<char,ATL::CCRTAllocator>::CHeapPtrBase<char,ATL::CCRTAllocator>
PUBLIC	??1?$CHeapPtrBase@DVCCRTAllocator@ATL@@@ATL@@QAE@XZ ; ATL::CHeapPtrBase<char,ATL::CCRTAllocator>::~CHeapPtrBase<char,ATL::CCRTAllocator>
PUBLIC	??B?$CHeapPtrBase@DVCCRTAllocator@ATL@@@ATL@@QBEPADXZ ; ATL::CHeapPtrBase<char,ATL::CCRTAllocator>::operator char *
PUBLIC	?AllocateBytes@?$CHeapPtrBase@DVCCRTAllocator@ATL@@@ATL@@QAE_NI@Z ; ATL::CHeapPtrBase<char,ATL::CCRTAllocator>::AllocateBytes
PUBLIC	?Free@?$CHeapPtrBase@DVCCRTAllocator@ATL@@@ATL@@QAEXXZ ; ATL::CHeapPtrBase<char,ATL::CCRTAllocator>::Free
PUBLIC	??0?$CHeapPtr@DVCCRTAllocator@ATL@@@ATL@@QAE@XZ	; ATL::CHeapPtr<char,ATL::CCRTAllocator>::CHeapPtr<char,ATL::CCRTAllocator>
PUBLIC	?Allocate@?$CHeapPtr@DVCCRTAllocator@ATL@@@ATL@@QAE_NI@Z ; ATL::CHeapPtr<char,ATL::CCRTAllocator>::Allocate
PUBLIC	??1?$CHeapPtr@DVCCRTAllocator@ATL@@@ATL@@QAE@XZ	; ATL::CHeapPtr<char,ATL::CCRTAllocator>::~CHeapPtr<char,ATL::CCRTAllocator>
PUBLIC	?__autoclassinit2@?$CHeapPtr@DVCCRTAllocator@ATL@@@ATL@@QAEXI@Z ; ATL::CHeapPtr<char,ATL::CCRTAllocator>::__autoclassinit2
PUBLIC	??0CPreserveLastError@ATL@@QAE@XZ		; ATL::CPreserveLastError::CPreserveLastError
PUBLIC	??1CPreserveLastError@ATL@@QAE@XZ		; ATL::CPreserveLastError::~CPreserveLastError
PUBLIC	??0CTraceFileAndLineInfo@ATL@@QAE@PBDH@Z	; ATL::CTraceFileAndLineInfo::CTraceFileAndLineInfo
PUBLIC	??RCTraceFileAndLineInfo@ATL@@QBAXHIPBDZZ	; ATL::CTraceFileAndLineInfo::operator()
PUBLIC	?SupportsRestartManager@CWinApp@@UBEHXZ		; CWinApp::SupportsRestartManager
PUBLIC	?SupportsApplicationRecovery@CWinApp@@UBEHXZ	; CWinApp::SupportsApplicationRecovery
PUBLIC	?SupportsAutosaveAtRestart@CWinApp@@UBEHXZ	; CWinApp::SupportsAutosaveAtRestart
PUBLIC	?SupportsAutosaveAtInterval@CWinApp@@UBEHXZ	; CWinApp::SupportsAutosaveAtInterval
PUBLIC	?ReopenPreviousFilesAtRestart@CWinApp@@UBEHXZ	; CWinApp::ReopenPreviousFilesAtRestart
PUBLIC	?RestoreAutosavedFilesAtRestart@CWinApp@@UBEHXZ	; CWinApp::RestoreAutosavedFilesAtRestart
PUBLIC	?GetApplicationRestartFlags@CWinApp@@UAEKXZ	; CWinApp::GetApplicationRestartFlags
PUBLIC	?GetApplicationRecoveryParameter@CWinApp@@UAEPAXXZ ; CWinApp::GetApplicationRecoveryParameter
PUBLIC	?GetApplicationRecoveryPingInterval@CWinApp@@UAEKXZ ; CWinApp::GetApplicationRecoveryPingInterval
PUBLIC	??1CDialogEx@@UAE@XZ				; CDialogEx::~CDialogEx
PUBLIC	??0CSUDOKUApp@@QAE@XZ				; CSUDOKUApp::CSUDOKUApp
PUBLIC	?InitInstance@CSUDOKUApp@@UAEHXZ		; CSUDOKUApp::InitInstance
PUBLIC	?GetThisMessageMap@CSUDOKUApp@@KGPBUAFX_MSGMAP@@XZ ; CSUDOKUApp::GetThisMessageMap
PUBLIC	?GetMessageMap@CSUDOKUApp@@MBEPBUAFX_MSGMAP@@XZ	; CSUDOKUApp::GetMessageMap
PUBLIC	??1CSUDOKUApp@@UAE@XZ				; CSUDOKUApp::~CSUDOKUApp
PUBLIC	?__autoclassinit2@CSUDOKUApp@@QAEXI@Z		; CSUDOKUApp::__autoclassinit2
PUBLIC	??_GCSUDOKUApp@@UAEPAXI@Z			; CSUDOKUApp::`scalar deleting destructor'
PUBLIC	??1CSUDOKUDlg@@UAE@XZ				; CSUDOKUDlg::~CSUDOKUDlg
PUBLIC	?__autoclassinit2@CSUDOKUDlg@@QAEXI@Z		; CSUDOKUDlg::__autoclassinit2
PUBLIC	__JustMyCode_Default
PUBLIC	?_OptionsStorage@?1??__local_stdio_printf_options@@9@4_KA ; `__local_stdio_printf_options'::`2'::_OptionsStorage
PUBLIC	??_C@_17CNPHIMPH@?$AA?$CF?$AAl?$AAs@		; `string'
PUBLIC	??_C@_1NK@JCBLKNMO@?$AAC?$AA?3?$AA?2?$AAP?$AAr?$AAo?$AAg?$AAr?$AAa?$AAm?$AA?5?$AAF?$AAi?$AAl?$AAe@ ; `string'
PUBLIC	?m_nLevel@CTrace@ATL@@1IA			; ATL::CTrace::m_nLevel
PUBLIC	?m_nCategory@CTrace@ATL@@1IA			; ATL::CTrace::m_nCategory
PUBLIC	?m_nLastCategory@CTrace@ATL@@1IA		; ATL::CTrace::m_nLastCategory
PUBLIC	?m_nMap@CTrace@ATL@@1PAUCategoryMap@12@A	; ATL::CTrace::m_nMap
PUBLIC	??_C@_1O@LFNDFEBP@?$AA?$CF?$AAl?$AAs?$AA?5?$AA?9?$AA?5@ ; `string'
PUBLIC	??_C@_1M@PGKOAACE@?$AA?$CF?$AAu?$AA?5?$AA?9?$AA?5@ ; `string'
PUBLIC	??_C@_1O@OAIPCDPO@?$AA?$CF?$AAl?$AAs?$AA?$CF?$AAl?$AAs@ ; `string'
PUBLIC	??_C@_17LGGGMOOB@?$AA?$CF?$AAh?$AAs@		; `string'
PUBLIC	??_C@_1BK@NHECDDNK@?$AAm?$AA_?$AAp?$AAD?$AAa?$AAt?$AAa?$AA?5?$AA?$DN?$AA?$DN?$AA?5?$AA0@ ; `string'
PUBLIC	??_R1A@?0A@EA@CObject@@8			; CObject::`RTTI Base Class Descriptor at (0,-1,0,64)'
PUBLIC	??_R0?AVCObject@@@8				; CObject `RTTI Type Descriptor'
PUBLIC	??_R3CObject@@8					; CObject::`RTTI Class Hierarchy Descriptor'
PUBLIC	??_R2CObject@@8					; CObject::`RTTI Base Class Array'
PUBLIC	??_R1A@?0A@EA@CCmdTarget@@8			; CCmdTarget::`RTTI Base Class Descriptor at (0,-1,0,64)'
PUBLIC	??_R0?AVCCmdTarget@@@8				; CCmdTarget `RTTI Type Descriptor'
PUBLIC	??_R3CCmdTarget@@8				; CCmdTarget::`RTTI Class Hierarchy Descriptor'
PUBLIC	??_R2CCmdTarget@@8				; CCmdTarget::`RTTI Base Class Array'
PUBLIC	??_7CSUDOKUApp@@6B@				; CSUDOKUApp::`vftable'
PUBLIC	?theApp@@3VCSUDOKUApp@@A			; theApp
PUBLIC	?__LINE__Var@?0??InitInstance@CSUDOKUApp@@UAEHXZ@4JA ; `CSUDOKUApp::InitInstance'::`1'::__LINE__Var
PUBLIC	??_C@_0CI@CNMKKECM@J?3?2work?2SUDOKU?2SUDOKU?2SUDOKU?2SU@ ; `string'
PUBLIC	??_C@_1FI@CDFDGNEO@?$AAA?$AAp?$AAp?$AAl?$AAi?$AAc?$AAa?$AAt?$AAi?$AAo?$AAn?$AAs?$AA?5?$AAl?$AAo@ ; `string'
PUBLIC	??_C@_0HK@PBGJPJPO@Avertissement?5?3?5?ichec?5de?5cr?iati@ ; `string'
PUBLIC	??_C@_0JC@DNIGCLHC@Avertissement?5?3?5si?5vous?5utilise@ ; `string'
PUBLIC	??_R4CSUDOKUApp@@6B@				; CSUDOKUApp::`RTTI Complete Object Locator'
PUBLIC	??_R0?AVCSUDOKUApp@@@8				; CSUDOKUApp `RTTI Type Descriptor'
PUBLIC	??_R3CSUDOKUApp@@8				; CSUDOKUApp::`RTTI Class Hierarchy Descriptor'
PUBLIC	??_R2CSUDOKUApp@@8				; CSUDOKUApp::`RTTI Base Class Array'
PUBLIC	??_R1A@?0A@EA@CSUDOKUApp@@8			; CSUDOKUApp::`RTTI Base Class Descriptor at (0,-1,0,64)'
PUBLIC	??_R1A@?0A@EA@CWinApp@@8			; CWinApp::`RTTI Base Class Descriptor at (0,-1,0,64)'
PUBLIC	??_R0?AVCWinApp@@@8				; CWinApp `RTTI Type Descriptor'
PUBLIC	??_R3CWinApp@@8					; CWinApp::`RTTI Class Hierarchy Descriptor'
PUBLIC	??_R2CWinApp@@8					; CWinApp::`RTTI Base Class Array'
PUBLIC	??_R1A@?0A@EA@CWinThread@@8			; CWinThread::`RTTI Base Class Descriptor at (0,-1,0,64)'
PUBLIC	??_R0?AVCWinThread@@@8				; CWinThread `RTTI Type Descriptor'
PUBLIC	??_R3CWinThread@@8				; CWinThread::`RTTI Class Hierarchy Descriptor'
PUBLIC	??_R2CWinThread@@8				; CWinThread::`RTTI Base Class Array'
EXTRN	?__global_delete@@YAXPAXI@Z:PROC		; __global_delete
EXTRN	_atexit:PROC
EXTRN	_wcslen:PROC
EXTRN	__imp__GetLastError@0:PROC
EXTRN	__imp__SetLastError@4:PROC
EXTRN	__imp__MultiByteToWideChar@24:PROC
EXTRN	__imp__InitCommonControlsEx@4:PROC
EXTRN	___stdio_common_vswprintf_s:PROC
EXTRN	___stdio_common_vsprintf:PROC
EXTRN	___stdio_common_vsnprintf_s:PROC
EXTRN	_free:PROC
EXTRN	_malloc:PROC
EXTRN	__CrtDbgReportW:PROC
EXTRN	??3CObject@@SGXPAX@Z:PROC			; CObject::operator delete
EXTRN	??2CObject@@SGPAXIPBDH@Z:PROC			; CObject::operator new
EXTRN	??3CObject@@SGXPAXPBDH@Z:PROC			; CObject::operator delete
EXTRN	?Serialize@CObject@@UAEXAAVCArchive@@@Z:PROC	; CObject::Serialize
EXTRN	??1CBrush@@UAE@XZ:PROC				; CBrush::~CBrush
EXTRN	?OnCmdMsg@CCmdTarget@@UAEHIHPAXPAUAFX_CMDHANDLERINFO@@@Z:PROC ; CCmdTarget::OnCmdMsg
EXTRN	?OnFinalRelease@CCmdTarget@@UAEXXZ:PROC		; CCmdTarget::OnFinalRelease
EXTRN	?IsInvokeAllowed@CCmdTarget@@UAEHJ@Z:PROC	; CCmdTarget::IsInvokeAllowed
EXTRN	?GetDispatchIID@CCmdTarget@@UAEHPAU_GUID@@@Z:PROC ; CCmdTarget::GetDispatchIID
EXTRN	?GetTypeInfoCount@CCmdTarget@@UAEIXZ:PROC	; CCmdTarget::GetTypeInfoCount
EXTRN	?GetTypeLibCache@CCmdTarget@@UAEPAVCTypeLibCache@@XZ:PROC ; CCmdTarget::GetTypeLibCache
EXTRN	?GetTypeLib@CCmdTarget@@UAEJKPAPAUITypeLib@@@Z:PROC ; CCmdTarget::GetTypeLib
EXTRN	?GetCommandMap@CCmdTarget@@MBEPBUAFX_OLECMDMAP@@XZ:PROC ; CCmdTarget::GetCommandMap
EXTRN	?GetDispatchMap@CCmdTarget@@MBEPBUAFX_DISPMAP@@XZ:PROC ; CCmdTarget::GetDispatchMap
EXTRN	?GetConnectionMap@CCmdTarget@@MBEPBUAFX_CONNECTIONMAP@@XZ:PROC ; CCmdTarget::GetConnectionMap
EXTRN	?GetInterfaceMap@CCmdTarget@@MBEPBUAFX_INTERFACEMAP@@XZ:PROC ; CCmdTarget::GetInterfaceMap
EXTRN	?GetEventSinkMap@CCmdTarget@@MBEPBUAFX_EVENTSINKMAP@@XZ:PROC ; CCmdTarget::GetEventSinkMap
EXTRN	?OnCreateAggregates@CCmdTarget@@UAEHXZ:PROC	; CCmdTarget::OnCreateAggregates
EXTRN	?GetInterfaceHook@CCmdTarget@@UAEPAUIUnknown@@PBX@Z:PROC ; CCmdTarget::GetInterfaceHook
EXTRN	?GetExtraConnectionPoints@CCmdTarget@@MAEHPAVCPtrArray@@@Z:PROC ; CCmdTarget::GetExtraConnectionPoints
EXTRN	?GetConnectionHook@CCmdTarget@@MAEPAUIConnectionPoint@@ABU_GUID@@@Z:PROC ; CCmdTarget::GetConnectionHook
EXTRN	?DoModal@CDialog@@UAEHXZ:PROC			; CDialog::DoModal
EXTRN	??1CDialog@@UAE@XZ:PROC				; CDialog::~CDialog
EXTRN	?PreTranslateMessage@CWinThread@@UAEHPAUtagMSG@@@Z:PROC ; CWinThread::PreTranslateMessage
EXTRN	?PumpMessage@CWinThread@@UAEHXZ:PROC		; CWinThread::PumpMessage
EXTRN	?IsIdleMessage@CWinThread@@UAEHPAUtagMSG@@@Z:PROC ; CWinThread::IsIdleMessage
EXTRN	?ProcessMessageFilter@CWinThread@@UAEHHPAUtagMSG@@@Z:PROC ; CWinThread::ProcessMessageFilter
EXTRN	?GetMainWnd@CWinThread@@UAEPAVCWnd@@XZ:PROC	; CWinThread::GetMainWnd
EXTRN	?Delete@CWinThread@@UAEXXZ:PROC			; CWinThread::Delete
EXTRN	?GetRuntimeClass@CWinApp@@UBEPAUCRuntimeClass@@XZ:PROC ; CWinApp::GetRuntimeClass
EXTRN	??0CWinApp@@QAE@PB_W@Z:PROC			; CWinApp::CWinApp
EXTRN	?SetRegistryKey@CWinApp@@IAEXPB_W@Z:PROC	; CWinApp::SetRegistryKey
EXTRN	?GetProfileIntW@CWinApp@@UAEIPB_W0H@Z:PROC	; CWinApp::GetProfileIntW
EXTRN	?WriteProfileInt@CWinApp@@UAEHPB_W0H@Z:PROC	; CWinApp::WriteProfileInt
EXTRN	?GetProfileStringW@CWinApp@@UAE?AV?$CStringT@_WV?$StrTraitMFC@_WV?$ChTraitsCRT@_W@ATL@@@@@ATL@@PB_W00@Z:PROC ; CWinApp::GetProfileStringW
EXTRN	?WriteProfileStringW@CWinApp@@UAEHPB_W00@Z:PROC	; CWinApp::WriteProfileStringW
EXTRN	?GetProfileBinary@CWinApp@@UAEHPB_W0PAPAEPAI@Z:PROC ; CWinApp::GetProfileBinary
EXTRN	?WriteProfileBinary@CWinApp@@UAEHPB_W0PAEI@Z:PROC ; CWinApp::WriteProfileBinary
EXTRN	?InitLibId@CWinApp@@UAEXXZ:PROC			; CWinApp::InitLibId
EXTRN	?Register@CWinApp@@UAEHXZ:PROC			; CWinApp::Register
EXTRN	?Unregister@CWinApp@@UAEHXZ:PROC		; CWinApp::Unregister
EXTRN	?OpenDocumentFile@CWinApp@@UAEPAVCDocument@@PB_W@Z:PROC ; CWinApp::OpenDocumentFile
EXTRN	?OpenDocumentFile@CWinApp@@UAEPAVCDocument@@PB_WH@Z:PROC ; CWinApp::OpenDocumentFile
EXTRN	?AddToRecentFileList@CWinApp@@UAEXPB_W@Z:PROC	; CWinApp::AddToRecentFileList
EXTRN	?InitApplication@CWinApp@@UAEHXZ:PROC		; CWinApp::InitApplication
EXTRN	?SaveAllModified@CWinApp@@UAEHXZ:PROC		; CWinApp::SaveAllModified
EXTRN	?DoMessageBox@CWinApp@@UAEHPB_WII@Z:PROC	; CWinApp::DoMessageBox
EXTRN	?DoWaitCursor@CWinApp@@UAEXH@Z:PROC		; CWinApp::DoWaitCursor
EXTRN	?OnDDECommand@CWinApp@@UAEHPA_W@Z:PROC		; CWinApp::OnDDECommand
EXTRN	?WinHelpW@CWinApp@@UAEXKI@Z:PROC		; CWinApp::WinHelpW
EXTRN	?HtmlHelpW@CWinApp@@UAEXKI@Z:PROC		; CWinApp::HtmlHelpW
EXTRN	?WinHelpInternal@CWinApp@@UAEXKI@Z:PROC		; CWinApp::WinHelpInternal
EXTRN	?RegisterWithRestartManager@CWinApp@@UAEJHABV?$CStringT@_WV?$StrTraitMFC@_WV?$ChTraitsCRT@_W@ATL@@@@@ATL@@@Z:PROC ; CWinApp::RegisterWithRestartManager
EXTRN	?RegisterWithRestartManager@CWinApp@@UAEJPB_WKP6GKPAX@Z1KK@Z:PROC ; CWinApp::RegisterWithRestartManager
EXTRN	?ApplicationRecoveryCallback@CWinApp@@UAEKPAX@Z:PROC ; CWinApp::ApplicationRecoveryCallback
EXTRN	?GetDataRecoveryHandler@CWinApp@@UAEPAVCDataRecoveryHandler@@XZ:PROC ; CWinApp::GetDataRecoveryHandler
EXTRN	?IsTaskbarInteractionEnabled@CWinApp@@UAEHXZ:PROC ; CWinApp::IsTaskbarInteractionEnabled
EXTRN	?InitInstance@CWinApp@@UAEHXZ:PROC		; CWinApp::InitInstance
EXTRN	?ExitInstance@CWinApp@@UAEHXZ:PROC		; CWinApp::ExitInstance
EXTRN	?RestartInstance@CWinApp@@UAEHXZ:PROC		; CWinApp::RestartInstance
EXTRN	?Run@CWinApp@@UAEHXZ:PROC			; CWinApp::Run
EXTRN	?OnIdle@CWinApp@@UAEHJ@Z:PROC			; CWinApp::OnIdle
EXTRN	?ProcessWndProcException@CWinApp@@UAEJPAVCException@@PBUtagMSG@@@Z:PROC ; CWinApp::ProcessWndProcException
EXTRN	?LoadAppLangResourceDLL@CWinApp@@UAEPAUHINSTANCE__@@XZ:PROC ; CWinApp::LoadAppLangResourceDLL
EXTRN	??1CWinApp@@UAE@XZ:PROC				; CWinApp::~CWinApp
EXTRN	?AssertValid@CWinApp@@UBEXXZ:PROC		; CWinApp::AssertValid
EXTRN	?Dump@CWinApp@@UBEXAAVCDumpContext@@@Z:PROC	; CWinApp::Dump
EXTRN	?LoadSysPolicies@CWinApp@@UAEHXZ:PROC		; CWinApp::LoadSysPolicies
EXTRN	?AfxEnableControlContainer@@YAXPAVCOccManager@@@Z:PROC ; AfxEnableControlContainer
EXTRN	?SetDefaultManager@CMFCVisualManager@@SGXPAUCRuntimeClass@@@Z:PROC ; CMFCVisualManager::SetDefaultManager
EXTRN	??1CDialogImpl@@MAE@XZ:PROC			; CDialogImpl::~CDialogImpl
EXTRN	??0CShellManager@@QAE@XZ:PROC			; CShellManager::CShellManager
EXTRN	??_ECSUDOKUApp@@UAEPAXI@Z:PROC			; CSUDOKUApp::`vector deleting destructor'
EXTRN	??0CSUDOKUDlg@@QAE@PAVCWnd@@@Z:PROC		; CSUDOKUDlg::CSUDOKUDlg
EXTRN	@_RTC_CheckStackVars@8:PROC
EXTRN	@__CheckForDebuggerJustMyCode@4:PROC
EXTRN	@__security_check_cookie@4:PROC
EXTRN	__RTC_CheckEsp:PROC
EXTRN	__RTC_InitBase:PROC
EXTRN	__RTC_Shutdown:PROC
EXTRN	___CxxFrameHandler3:PROC
EXTRN	_memset:PROC
EXTRN	??_7type_info@@6B@:QWORD			; type_info::`vftable'
EXTRN	?traceAppMsg@@3VCTraceCategory@ATL@@A:DWORD	; traceAppMsg
EXTRN	?classCMFCVisualManagerWindows@CMFCVisualManagerWindows@@2UCRuntimeClass@@B:BYTE ; CMFCVisualManagerWindows::classCMFCVisualManagerWindows
EXTRN	___security_cookie:DWORD
;	COMDAT ?_OptionsStorage@?1??__local_stdio_printf_options@@9@4_KA
_BSS	SEGMENT
?_OptionsStorage@?1??__local_stdio_printf_options@@9@4_KA DQ 01H DUP (?) ; `__local_stdio_printf_options'::`2'::_OptionsStorage
_BSS	ENDS
;	COMDAT ?m_nLevel@CTrace@ATL@@1IA
_BSS	SEGMENT
?m_nLevel@CTrace@ATL@@1IA DD 01H DUP (?)		; ATL::CTrace::m_nLevel
_BSS	ENDS
;	COMDAT ?m_nLastCategory@CTrace@ATL@@1IA
_BSS	SEGMENT
?m_nLastCategory@CTrace@ATL@@1IA DD 01H DUP (?)		; ATL::CTrace::m_nLastCategory
_BSS	ENDS
;	COMDAT ?m_nMap@CTrace@ATL@@1PAUCategoryMap@12@A
_BSS	SEGMENT
?m_nMap@CTrace@ATL@@1PAUCategoryMap@12@A DB 02080H DUP (?) ; ATL::CTrace::m_nMap
_BSS	ENDS
_BSS	SEGMENT
?theApp@@3VCSUDOKUApp@@A DB 0ccH DUP (?)		; theApp
_BSS	ENDS
CRT$XCU	SEGMENT
?theApp$initializer$@@3P6AXXZA DD FLAT:??__EtheApp@@YAXXZ ; theApp$initializer$
CRT$XCU	ENDS
;	COMDAT rtc$TMZ
rtc$TMZ	SEGMENT
__RTC_Shutdown.rtc$TMZ DD FLAT:__RTC_Shutdown
rtc$TMZ	ENDS
;	COMDAT rtc$IMZ
rtc$IMZ	SEGMENT
__RTC_InitBase.rtc$IMZ DD FLAT:__RTC_InitBase
rtc$IMZ	ENDS
;	COMDAT ??_R2CWinThread@@8
rdata$r	SEGMENT
??_R2CWinThread@@8 DD FLAT:??_R1A@?0A@EA@CWinThread@@8	; CWinThread::`RTTI Base Class Array'
	DD	FLAT:??_R1A@?0A@EA@CCmdTarget@@8
	DD	FLAT:??_R1A@?0A@EA@CObject@@8
rdata$r	ENDS
;	COMDAT ??_R3CWinThread@@8
rdata$r	SEGMENT
??_R3CWinThread@@8 DD 00H				; CWinThread::`RTTI Class Hierarchy Descriptor'
	DD	00H
	DD	03H
	DD	FLAT:??_R2CWinThread@@8
rdata$r	ENDS
;	COMDAT ??_R0?AVCWinThread@@@8
data$rs	SEGMENT
??_R0?AVCWinThread@@@8 DD FLAT:??_7type_info@@6B@	; CWinThread `RTTI Type Descriptor'
	DD	00H
	DB	'.?AVCWinThread@@', 00H
data$rs	ENDS
;	COMDAT ??_R1A@?0A@EA@CWinThread@@8
rdata$r	SEGMENT
??_R1A@?0A@EA@CWinThread@@8 DD FLAT:??_R0?AVCWinThread@@@8 ; CWinThread::`RTTI Base Class Descriptor at (0,-1,0,64)'
	DD	02H
	DD	00H
	DD	0ffffffffH
	DD	00H
	DD	040H
	DD	FLAT:??_R3CWinThread@@8
rdata$r	ENDS
;	COMDAT ??_R2CWinApp@@8
rdata$r	SEGMENT
??_R2CWinApp@@8 DD FLAT:??_R1A@?0A@EA@CWinApp@@8	; CWinApp::`RTTI Base Class Array'
	DD	FLAT:??_R1A@?0A@EA@CWinThread@@8
	DD	FLAT:??_R1A@?0A@EA@CCmdTarget@@8
	DD	FLAT:??_R1A@?0A@EA@CObject@@8
rdata$r	ENDS
;	COMDAT ??_R3CWinApp@@8
rdata$r	SEGMENT
??_R3CWinApp@@8 DD 00H					; CWinApp::`RTTI Class Hierarchy Descriptor'
	DD	00H
	DD	04H
	DD	FLAT:??_R2CWinApp@@8
rdata$r	ENDS
;	COMDAT ??_R0?AVCWinApp@@@8
data$rs	SEGMENT
??_R0?AVCWinApp@@@8 DD FLAT:??_7type_info@@6B@		; CWinApp `RTTI Type Descriptor'
	DD	00H
	DB	'.?AVCWinApp@@', 00H
data$rs	ENDS
;	COMDAT ??_R1A@?0A@EA@CWinApp@@8
rdata$r	SEGMENT
??_R1A@?0A@EA@CWinApp@@8 DD FLAT:??_R0?AVCWinApp@@@8	; CWinApp::`RTTI Base Class Descriptor at (0,-1,0,64)'
	DD	03H
	DD	00H
	DD	0ffffffffH
	DD	00H
	DD	040H
	DD	FLAT:??_R3CWinApp@@8
rdata$r	ENDS
;	COMDAT ??_R1A@?0A@EA@CSUDOKUApp@@8
rdata$r	SEGMENT
??_R1A@?0A@EA@CSUDOKUApp@@8 DD FLAT:??_R0?AVCSUDOKUApp@@@8 ; CSUDOKUApp::`RTTI Base Class Descriptor at (0,-1,0,64)'
	DD	04H
	DD	00H
	DD	0ffffffffH
	DD	00H
	DD	040H
	DD	FLAT:??_R3CSUDOKUApp@@8
rdata$r	ENDS
;	COMDAT ??_R2CSUDOKUApp@@8
rdata$r	SEGMENT
??_R2CSUDOKUApp@@8 DD FLAT:??_R1A@?0A@EA@CSUDOKUApp@@8	; CSUDOKUApp::`RTTI Base Class Array'
	DD	FLAT:??_R1A@?0A@EA@CWinApp@@8
	DD	FLAT:??_R1A@?0A@EA@CWinThread@@8
	DD	FLAT:??_R1A@?0A@EA@CCmdTarget@@8
	DD	FLAT:??_R1A@?0A@EA@CObject@@8
rdata$r	ENDS
;	COMDAT ??_R3CSUDOKUApp@@8
rdata$r	SEGMENT
??_R3CSUDOKUApp@@8 DD 00H				; CSUDOKUApp::`RTTI Class Hierarchy Descriptor'
	DD	00H
	DD	05H
	DD	FLAT:??_R2CSUDOKUApp@@8
rdata$r	ENDS
;	COMDAT ??_R0?AVCSUDOKUApp@@@8
data$rs	SEGMENT
??_R0?AVCSUDOKUApp@@@8 DD FLAT:??_7type_info@@6B@	; CSUDOKUApp `RTTI Type Descriptor'
	DD	00H
	DB	'.?AVCSUDOKUApp@@', 00H
data$rs	ENDS
;	COMDAT ??_R4CSUDOKUApp@@6B@
rdata$r	SEGMENT
??_R4CSUDOKUApp@@6B@ DD 00H				; CSUDOKUApp::`RTTI Complete Object Locator'
	DD	00H
	DD	00H
	DD	FLAT:??_R0?AVCSUDOKUApp@@@8
	DD	FLAT:??_R3CSUDOKUApp@@8
rdata$r	ENDS
;	COMDAT ??_C@_0JC@DNIGCLHC@Avertissement?5?3?5si?5vous?5utilise@
CONST	SEGMENT
??_C@_0JC@DNIGCLHC@Avertissement?5?3?5si?5vous?5utilise@ DB 'Avertissemen'
	DB	't : si vous utilisez les contr', 0f4H, 'les MFC de la bo', 0eeH
	DB	'te de dialogue, vous ne pouvez pas ex', 0e9H, 'cuter #define '
	DB	'_AFX_NO_MFC_CONTROLS_IN_DIALOGS.', 0aH, 00H	; `string'
CONST	ENDS
;	COMDAT ??_C@_0HK@PBGJPJPO@Avertissement?5?3?5?ichec?5de?5cr?iati@
CONST	SEGMENT
??_C@_0HK@PBGJPJPO@Avertissement?5?3?5?ichec?5de?5cr?iati@ DB 'Avertissem'
	DB	'ent : ', 0e9H, 'chec de cr', 0e9H, 'ation de la bo', 0eeH, 't'
	DB	'e de dialogue, par cons', 0e9H, 'quent, l''application s''arr'
	DB	0eaH, 'te de mani', 0e8H, 're inattendue.', 0aH, 00H ; `string'
CONST	ENDS
;	COMDAT ??_C@_1FI@CDFDGNEO@?$AAA?$AAp?$AAp?$AAl?$AAi?$AAc?$AAa?$AAt?$AAi?$AAo?$AAn?$AAs?$AA?5?$AAl?$AAo@
CONST	SEGMENT
??_C@_1FI@CDFDGNEO@?$AAA?$AAp?$AAp?$AAl?$AAi?$AAc?$AAa?$AAt?$AAi?$AAo?$AAn?$AAs?$AA?5?$AAl?$AAo@ DB 'A'
	DB	00H, 'p', 00H, 'p', 00H, 'l', 00H, 'i', 00H, 'c', 00H, 'a', 00H
	DB	't', 00H, 'i', 00H, 'o', 00H, 'n', 00H, 's', 00H, ' ', 00H, 'l'
	DB	00H, 'o', 00H, 'c', 00H, 'a', 00H, 'l', 00H, 'e', 00H, 's', 00H
	DB	' ', 00H, 'g', 00H, 0e9H, 00H, 'n', 00H, 0e9H, 00H, 'r', 00H, 0e9H
	DB	00H, 'e', 00H, 's', 00H, ' ', 00H, 'p', 00H, 'a', 00H, 'r', 00H
	DB	' ', 00H, 'A', 00H, 'p', 00H, 'p', 00H, 'W', 00H, 'i', 00H, 'z'
	DB	00H, 'a', 00H, 'r', 00H, 'd', 00H, 00H, 00H	; `string'
CONST	ENDS
;	COMDAT ??_C@_0CI@CNMKKECM@J?3?2work?2SUDOKU?2SUDOKU?2SUDOKU?2SU@
CONST	SEGMENT
??_C@_0CI@CNMKKECM@J?3?2work?2SUDOKU?2SUDOKU?2SUDOKU?2SU@ DB 'J:\work\SUD'
	DB	'OKU\SUDOKU\SUDOKU\SUDOKU.cpp', 00H		; `string'
CONST	ENDS
;	COMDAT ?__LINE__Var@?0??InitInstance@CSUDOKUApp@@UAEHXZ@4JA
_DATA	SEGMENT
?__LINE__Var@?0??InitInstance@CSUDOKUApp@@UAEHXZ@4JA DD 02dH ; `CSUDOKUApp::InitInstance'::`1'::__LINE__Var
_DATA	ENDS
;	COMDAT ??_7CSUDOKUApp@@6B@
CONST	SEGMENT
??_7CSUDOKUApp@@6B@ DD FLAT:??_R4CSUDOKUApp@@6B@	; CSUDOKUApp::`vftable'
	DD	FLAT:?GetRuntimeClass@CWinApp@@UBEPAUCRuntimeClass@@XZ
	DD	FLAT:??_ECSUDOKUApp@@UAEPAXI@Z
	DD	FLAT:?Serialize@CObject@@UAEXAAVCArchive@@@Z
	DD	FLAT:?AssertValid@CWinApp@@UBEXXZ
	DD	FLAT:?Dump@CWinApp@@UBEXAAVCDumpContext@@@Z
	DD	FLAT:?OnCmdMsg@CCmdTarget@@UAEHIHPAXPAUAFX_CMDHANDLERINFO@@@Z
	DD	FLAT:?OnFinalRelease@CCmdTarget@@UAEXXZ
	DD	FLAT:?IsInvokeAllowed@CCmdTarget@@UAEHJ@Z
	DD	FLAT:?GetDispatchIID@CCmdTarget@@UAEHPAU_GUID@@@Z
	DD	FLAT:?GetTypeInfoCount@CCmdTarget@@UAEIXZ
	DD	FLAT:?GetTypeLibCache@CCmdTarget@@UAEPAVCTypeLibCache@@XZ
	DD	FLAT:?GetTypeLib@CCmdTarget@@UAEJKPAPAUITypeLib@@@Z
	DD	FLAT:?GetMessageMap@CSUDOKUApp@@MBEPBUAFX_MSGMAP@@XZ
	DD	FLAT:?GetCommandMap@CCmdTarget@@MBEPBUAFX_OLECMDMAP@@XZ
	DD	FLAT:?GetDispatchMap@CCmdTarget@@MBEPBUAFX_DISPMAP@@XZ
	DD	FLAT:?GetConnectionMap@CCmdTarget@@MBEPBUAFX_CONNECTIONMAP@@XZ
	DD	FLAT:?GetInterfaceMap@CCmdTarget@@MBEPBUAFX_INTERFACEMAP@@XZ
	DD	FLAT:?GetEventSinkMap@CCmdTarget@@MBEPBUAFX_EVENTSINKMAP@@XZ
	DD	FLAT:?OnCreateAggregates@CCmdTarget@@UAEHXZ
	DD	FLAT:?GetInterfaceHook@CCmdTarget@@UAEPAUIUnknown@@PBX@Z
	DD	FLAT:?GetExtraConnectionPoints@CCmdTarget@@MAEHPAVCPtrArray@@@Z
	DD	FLAT:?GetConnectionHook@CCmdTarget@@MAEPAUIConnectionPoint@@ABU_GUID@@@Z
	DD	FLAT:?InitInstance@CSUDOKUApp@@UAEHXZ
	DD	FLAT:?Run@CWinApp@@UAEHXZ
	DD	FLAT:?PreTranslateMessage@CWinThread@@UAEHPAUtagMSG@@@Z
	DD	FLAT:?PumpMessage@CWinThread@@UAEHXZ
	DD	FLAT:?OnIdle@CWinApp@@UAEHJ@Z
	DD	FLAT:?IsIdleMessage@CWinThread@@UAEHPAUtagMSG@@@Z
	DD	FLAT:?ExitInstance@CWinApp@@UAEHXZ
	DD	FLAT:?ProcessWndProcException@CWinApp@@UAEJPAVCException@@PBUtagMSG@@@Z
	DD	FLAT:?ProcessMessageFilter@CWinThread@@UAEHHPAUtagMSG@@@Z
	DD	FLAT:?GetMainWnd@CWinThread@@UAEPAVCWnd@@XZ
	DD	FLAT:?Delete@CWinThread@@UAEXXZ
	DD	FLAT:?GetProfileIntW@CWinApp@@UAEIPB_W0H@Z
	DD	FLAT:?WriteProfileInt@CWinApp@@UAEHPB_W0H@Z
	DD	FLAT:?GetProfileStringW@CWinApp@@UAE?AV?$CStringT@_WV?$StrTraitMFC@_WV?$ChTraitsCRT@_W@ATL@@@@@ATL@@PB_W00@Z
	DD	FLAT:?WriteProfileStringW@CWinApp@@UAEHPB_W00@Z
	DD	FLAT:?GetProfileBinary@CWinApp@@UAEHPB_W0PAPAEPAI@Z
	DD	FLAT:?WriteProfileBinary@CWinApp@@UAEHPB_W0PAEI@Z
	DD	FLAT:?InitLibId@CWinApp@@UAEXXZ
	DD	FLAT:?Register@CWinApp@@UAEHXZ
	DD	FLAT:?Unregister@CWinApp@@UAEHXZ
	DD	FLAT:?OpenDocumentFile@CWinApp@@UAEPAVCDocument@@PB_WH@Z
	DD	FLAT:?OpenDocumentFile@CWinApp@@UAEPAVCDocument@@PB_W@Z
	DD	FLAT:?AddToRecentFileList@CWinApp@@UAEXPB_W@Z
	DD	FLAT:?InitApplication@CWinApp@@UAEHXZ
	DD	FLAT:?SaveAllModified@CWinApp@@UAEHXZ
	DD	FLAT:?DoMessageBox@CWinApp@@UAEHPB_WII@Z
	DD	FLAT:?DoWaitCursor@CWinApp@@UAEXH@Z
	DD	FLAT:?OnDDECommand@CWinApp@@UAEHPA_W@Z
	DD	FLAT:?WinHelpW@CWinApp@@UAEXKI@Z
	DD	FLAT:?HtmlHelpW@CWinApp@@UAEXKI@Z
	DD	FLAT:?WinHelpInternal@CWinApp@@UAEXKI@Z
	DD	FLAT:?RegisterWithRestartManager@CWinApp@@UAEJPB_WKP6GKPAX@Z1KK@Z
	DD	FLAT:?RegisterWithRestartManager@CWinApp@@UAEJHABV?$CStringT@_WV?$StrTraitMFC@_WV?$ChTraitsCRT@_W@ATL@@@@@ATL@@@Z
	DD	FLAT:?ApplicationRecoveryCallback@CWinApp@@UAEKPAX@Z
	DD	FLAT:?SupportsRestartManager@CWinApp@@UBEHXZ
	DD	FLAT:?SupportsApplicationRecovery@CWinApp@@UBEHXZ
	DD	FLAT:?SupportsAutosaveAtRestart@CWinApp@@UBEHXZ
	DD	FLAT:?SupportsAutosaveAtInterval@CWinApp@@UBEHXZ
	DD	FLAT:?ReopenPreviousFilesAtRestart@CWinApp@@UBEHXZ
	DD	FLAT:?RestoreAutosavedFilesAtRestart@CWinApp@@UBEHXZ
	DD	FLAT:?GetApplicationRestartFlags@CWinApp@@UAEKXZ
	DD	FLAT:?GetApplicationRecoveryParameter@CWinApp@@UAEPAXXZ
	DD	FLAT:?GetApplicationRecoveryPingInterval@CWinApp@@UAEKXZ
	DD	FLAT:?GetDataRecoveryHandler@CWinApp@@UAEPAVCDataRecoveryHandler@@XZ
	DD	FLAT:?IsTaskbarInteractionEnabled@CWinApp@@UAEHXZ
	DD	FLAT:?RestartInstance@CWinApp@@UAEHXZ
	DD	FLAT:?LoadAppLangResourceDLL@CWinApp@@UAEPAUHINSTANCE__@@XZ
	DD	FLAT:?LoadSysPolicies@CWinApp@@UAEHXZ
CONST	ENDS
;	COMDAT ??_R2CCmdTarget@@8
rdata$r	SEGMENT
??_R2CCmdTarget@@8 DD FLAT:??_R1A@?0A@EA@CCmdTarget@@8	; CCmdTarget::`RTTI Base Class Array'
	DD	FLAT:??_R1A@?0A@EA@CObject@@8
rdata$r	ENDS
;	COMDAT ??_R3CCmdTarget@@8
rdata$r	SEGMENT
??_R3CCmdTarget@@8 DD 00H				; CCmdTarget::`RTTI Class Hierarchy Descriptor'
	DD	00H
	DD	02H
	DD	FLAT:??_R2CCmdTarget@@8
rdata$r	ENDS
;	COMDAT ??_R0?AVCCmdTarget@@@8
data$rs	SEGMENT
??_R0?AVCCmdTarget@@@8 DD FLAT:??_7type_info@@6B@	; CCmdTarget `RTTI Type Descriptor'
	DD	00H
	DB	'.?AVCCmdTarget@@', 00H
data$rs	ENDS
;	COMDAT ??_R1A@?0A@EA@CCmdTarget@@8
rdata$r	SEGMENT
??_R1A@?0A@EA@CCmdTarget@@8 DD FLAT:??_R0?AVCCmdTarget@@@8 ; CCmdTarget::`RTTI Base Class Descriptor at (0,-1,0,64)'
	DD	01H
	DD	00H
	DD	0ffffffffH
	DD	00H
	DD	040H
	DD	FLAT:??_R3CCmdTarget@@8
rdata$r	ENDS
;	COMDAT ??_R2CObject@@8
rdata$r	SEGMENT
??_R2CObject@@8 DD FLAT:??_R1A@?0A@EA@CObject@@8	; CObject::`RTTI Base Class Array'
rdata$r	ENDS
;	COMDAT ??_R3CObject@@8
rdata$r	SEGMENT
??_R3CObject@@8 DD 00H					; CObject::`RTTI Class Hierarchy Descriptor'
	DD	00H
	DD	01H
	DD	FLAT:??_R2CObject@@8
rdata$r	ENDS
;	COMDAT ??_R0?AVCObject@@@8
data$rs	SEGMENT
??_R0?AVCObject@@@8 DD FLAT:??_7type_info@@6B@		; CObject `RTTI Type Descriptor'
	DD	00H
	DB	'.?AVCObject@@', 00H
data$rs	ENDS
;	COMDAT ??_R1A@?0A@EA@CObject@@8
rdata$r	SEGMENT
??_R1A@?0A@EA@CObject@@8 DD FLAT:??_R0?AVCObject@@@8	; CObject::`RTTI Base Class Descriptor at (0,-1,0,64)'
	DD	00H
	DD	00H
	DD	0ffffffffH
	DD	00H
	DD	040H
	DD	FLAT:??_R3CObject@@8
rdata$r	ENDS
;	COMDAT ??_C@_1BK@NHECDDNK@?$AAm?$AA_?$AAp?$AAD?$AAa?$AAt?$AAa?$AA?5?$AA?$DN?$AA?$DN?$AA?5?$AA0@
CONST	SEGMENT
??_C@_1BK@NHECDDNK@?$AAm?$AA_?$AAp?$AAD?$AAa?$AAt?$AAa?$AA?5?$AA?$DN?$AA?$DN?$AA?5?$AA0@ DB 'm'
	DB	00H, '_', 00H, 'p', 00H, 'D', 00H, 'a', 00H, 't', 00H, 'a', 00H
	DB	' ', 00H, '=', 00H, '=', 00H, ' ', 00H, '0', 00H, 00H, 00H ; `string'
CONST	ENDS
;	COMDAT ??_C@_17LGGGMOOB@?$AA?$CF?$AAh?$AAs@
CONST	SEGMENT
??_C@_17LGGGMOOB@?$AA?$CF?$AAh?$AAs@ DB '%', 00H, 'h', 00H, 's', 00H, 00H
	DB	00H						; `string'
CONST	ENDS
;	COMDAT ??_C@_1O@OAIPCDPO@?$AA?$CF?$AAl?$AAs?$AA?$CF?$AAl?$AAs@
CONST	SEGMENT
??_C@_1O@OAIPCDPO@?$AA?$CF?$AAl?$AAs?$AA?$CF?$AAl?$AAs@ DB '%', 00H, 'l', 00H
	DB	's', 00H, '%', 00H, 'l', 00H, 's', 00H, 00H, 00H ; `string'
CONST	ENDS
;	COMDAT ??_C@_1M@PGKOAACE@?$AA?$CF?$AAu?$AA?5?$AA?9?$AA?5@
CONST	SEGMENT
??_C@_1M@PGKOAACE@?$AA?$CF?$AAu?$AA?5?$AA?9?$AA?5@ DB '%', 00H, 'u', 00H, ' '
	DB	00H, '-', 00H, ' ', 00H, 00H, 00H		; `string'
CONST	ENDS
;	COMDAT ??_C@_1O@LFNDFEBP@?$AA?$CF?$AAl?$AAs?$AA?5?$AA?9?$AA?5@
CONST	SEGMENT
??_C@_1O@LFNDFEBP@?$AA?$CF?$AAl?$AAs?$AA?5?$AA?9?$AA?5@ DB '%', 00H, 'l', 00H
	DB	's', 00H, ' ', 00H, '-', 00H, ' ', 00H, 00H, 00H ; `string'
CONST	ENDS
;	COMDAT ?m_nCategory@CTrace@ATL@@1IA
_DATA	SEGMENT
?m_nCategory@CTrace@ATL@@1IA DD 0ffffffffH		; ATL::CTrace::m_nCategory
_DATA	ENDS
;	COMDAT ??_C@_1NK@JCBLKNMO@?$AAC?$AA?3?$AA?2?$AAP?$AAr?$AAo?$AAg?$AAr?$AAa?$AAm?$AA?5?$AAF?$AAi?$AAl?$AAe@
CONST	SEGMENT
??_C@_1NK@JCBLKNMO@?$AAC?$AA?3?$AA?2?$AAP?$AAr?$AAo?$AAg?$AAr?$AAa?$AAm?$AA?5?$AAF?$AAi?$AAl?$AAe@ DB 'C'
	DB	00H, ':', 00H, '\', 00H, 'P', 00H, 'r', 00H, 'o', 00H, 'g', 00H
	DB	'r', 00H, 'a', 00H, 'm', 00H, ' ', 00H, 'F', 00H, 'i', 00H, 'l'
	DB	00H, 'e', 00H, 's', 00H, '\', 00H, 'M', 00H, 'i', 00H, 'c', 00H
	DB	'r', 00H, 'o', 00H, 's', 00H, 'o', 00H, 'f', 00H, 't', 00H, ' '
	DB	00H, 'V', 00H, 'i', 00H, 's', 00H, 'u', 00H, 'a', 00H, 'l', 00H
	DB	' ', 00H, 'S', 00H, 't', 00H, 'u', 00H, 'd', 00H, 'i', 00H, 'o'
	DB	00H, '\', 00H, '2', 00H, '0', 00H, '2', 00H, '2', 00H, '\', 00H
	DB	'E', 00H, 'n', 00H, 't', 00H, 'e', 00H, 'r', 00H, 'p', 00H, 'r'
	DB	00H, 'i', 00H, 's', 00H, 'e', 00H, '\', 00H, 'V', 00H, 'C', 00H
	DB	'\', 00H, 'T', 00H, 'o', 00H, 'o', 00H, 'l', 00H, 's', 00H, '\'
	DB	00H, 'M', 00H, 'S', 00H, 'V', 00H, 'C', 00H, '\', 00H, '1', 00H
	DB	'4', 00H, '.', 00H, '3', 00H, '4', 00H, '.', 00H, '3', 00H, '1'
	DB	00H, '9', 00H, '3', 00H, '3', 00H, '\', 00H, 'a', 00H, 't', 00H
	DB	'l', 00H, 'm', 00H, 'f', 00H, 'c', 00H, '\', 00H, 'i', 00H, 'n'
	DB	00H, 'c', 00H, 'l', 00H, 'u', 00H, 'd', 00H, 'e', 00H, '\', 00H
	DB	'a', 00H, 't', 00H, 'l', 00H, 'a', 00H, 'l', 00H, 'l', 00H, 'o'
	DB	00H, 'c', 00H, '.', 00H, 'h', 00H, 00H, 00H	; `string'
CONST	ENDS
;	COMDAT ??_C@_17CNPHIMPH@?$AA?$CF?$AAl?$AAs@
CONST	SEGMENT
??_C@_17CNPHIMPH@?$AA?$CF?$AAl?$AAs@ DB '%', 00H, 'l', 00H, 's', 00H, 00H
	DB	00H						; `string'
CONST	ENDS
;	COMDAT voltbl
voltbl	SEGMENT
_volmd	DB	033H
	DB	040H
voltbl	ENDS
;	COMDAT voltbl
voltbl	SEGMENT
_volmd	DW	033H
	DW	0236H
voltbl	ENDS
;	COMDAT xdata$x
xdata$x	SEGMENT
__unwindtable$?InitInstance@CSUDOKUApp@@UAEHXZ DD 0ffffffffH
	DD	FLAT:__unwindfunclet$?InitInstance@CSUDOKUApp@@UAEHXZ$0
	DD	0ffffffffH
	DD	FLAT:__unwindfunclet$?InitInstance@CSUDOKUApp@@UAEHXZ$1
__ehfuncinfo$?InitInstance@CSUDOKUApp@@UAEHXZ DD 019930522H
	DD	02H
	DD	FLAT:__unwindtable$?InitInstance@CSUDOKUApp@@UAEHXZ
	DD	2 DUP(00H)
	DD	2 DUP(00H)
	DD	00H
	DD	01H
xdata$x	ENDS
;	COMDAT voltbl
voltbl	SEGMENT
_volmd	DB	016H
	DB	023H
voltbl	ENDS
;	COMDAT voltbl
voltbl	SEGMENT
_volmd	DB	02eH
	DB	0a5H
voltbl	ENDS
;	COMDAT xdata$x
xdata$x	SEGMENT
__unwindtable$??RCTraceFileAndLineInfo@ATL@@QBAXHIPBDZZ DD 0ffffffffH
	DD	FLAT:__unwindfunclet$??RCTraceFileAndLineInfo@ATL@@QBAXHIPBDZZ$0
__ehfuncinfo$??RCTraceFileAndLineInfo@ATL@@QBAXHIPBDZZ DD 019930522H
	DD	01H
	DD	FLAT:__unwindtable$??RCTraceFileAndLineInfo@ATL@@QBAXHIPBDZZ
	DD	2 DUP(00H)
	DD	2 DUP(00H)
	DD	00H
	DD	01H
xdata$x	ENDS
;	COMDAT voltbl
voltbl	SEGMENT
_volmd	DB	022H
	DB	06eH
voltbl	ENDS
;	COMDAT voltbl
voltbl	SEGMENT
_volmd	DB	022H
	DB	06eH
voltbl	ENDS
;	COMDAT voltbl
voltbl	SEGMENT
_volmd	DB	01eH
	DB	02bH
voltbl	ENDS
;	COMDAT voltbl
voltbl	SEGMENT
_volmd	DW	02eH
	DW	01dbH
voltbl	ENDS
;	COMDAT xdata$x
xdata$x	SEGMENT
__unwindtable$?TraceV@CTrace@ATL@@SAXPBDHII0PAD@Z DD 0ffffffffH
	DD	FLAT:__unwindfunclet$?TraceV@CTrace@ATL@@SAXPBDHII0PAD@Z$0
	DD	00H
	DD	FLAT:__unwindfunclet$?TraceV@CTrace@ATL@@SAXPBDHII0PAD@Z$1
__ehfuncinfo$?TraceV@CTrace@ATL@@SAXPBDHII0PAD@Z DD 019930522H
	DD	02H
	DD	FLAT:__unwindtable$?TraceV@CTrace@ATL@@SAXPBDHII0PAD@Z
	DD	2 DUP(00H)
	DD	2 DUP(00H)
	DD	00H
	DD	01H
xdata$x	ENDS
;	COMDAT voltbl
voltbl	SEGMENT
_volmd	DW	025H
	DW	0223H
voltbl	ENDS
; Function compile flags: /Odt
;	COMDAT __JustMyCode_Default
_TEXT	SEGMENT
__JustMyCode_Default PROC				; COMDAT
  00000	55		 push	 ebp
  00001	8b ec		 mov	 ebp, esp
  00003	5d		 pop	 ebp
  00004	c3		 ret	 0
__JustMyCode_Default ENDP
_TEXT	ENDS
; Function compile flags: /Odsp /RTCsu /ZI
;	COMDAT ??__FtheApp@@YAXXZ
text$yd	SEGMENT
??__FtheApp@@YAXXZ PROC					; `dynamic atexit destructor for 'theApp'', COMDAT
  00000	55		 push	 ebp
  00001	8b ec		 mov	 ebp, esp
  00003	81 ec c0 00 00
	00		 sub	 esp, 192		; 000000c0H
  00009	53		 push	 ebx
  0000a	56		 push	 esi
  0000b	57		 push	 edi
  0000c	8b fd		 mov	 edi, ebp
  0000e	33 c9		 xor	 ecx, ecx
  00010	b8 cc cc cc cc	 mov	 eax, -858993460		; ccccccccH
  00015	f3 ab		 rep stosd
  00017	b9 00 00 00 00	 mov	 ecx, OFFSET ?theApp@@3VCSUDOKUApp@@A ; theApp
  0001c	e8 00 00 00 00	 call	 ??1CSUDOKUApp@@UAE@XZ
  00021	5f		 pop	 edi
  00022	5e		 pop	 esi
  00023	5b		 pop	 ebx
  00024	81 c4 c0 00 00
	00		 add	 esp, 192		; 000000c0H
  0002a	3b ec		 cmp	 ebp, esp
  0002c	e8 00 00 00 00	 call	 __RTC_CheckEsp
  00031	c9		 leave
  00032	c3		 ret	 0
??__FtheApp@@YAXXZ ENDP					; `dynamic atexit destructor for 'theApp''
text$yd	ENDS
; Function compile flags: /Odsp /RTCsu /ZI
; File J:\work\SUDOKU\SUDOKU\SUDOKU\SUDOKU.cpp
;	COMDAT ??__EtheApp@@YAXXZ
text$di	SEGMENT
??__EtheApp@@YAXXZ PROC					; `dynamic initializer for 'theApp'', COMDAT

; 39   : CSUDOKUApp theApp;

  00000	55		 push	 ebp
  00001	8b ec		 mov	 ebp, esp
  00003	81 ec c0 00 00
	00		 sub	 esp, 192		; 000000c0H
  00009	53		 push	 ebx
  0000a	56		 push	 esi
  0000b	57		 push	 edi
  0000c	8b fd		 mov	 edi, ebp
  0000e	33 c9		 xor	 ecx, ecx
  00010	b8 cc cc cc cc	 mov	 eax, -858993460		; ccccccccH
  00015	f3 ab		 rep stosd
  00017	b9 00 00 00 00	 mov	 ecx, OFFSET __B746AA20_SUDOKU@cpp
  0001c	e8 00 00 00 00	 call	 @__CheckForDebuggerJustMyCode@4
  00021	68 cc 00 00 00	 push	 204			; 000000ccH
  00026	b9 00 00 00 00	 mov	 ecx, OFFSET ?theApp@@3VCSUDOKUApp@@A ; theApp
  0002b	e8 00 00 00 00	 call	 ?__autoclassinit2@CSUDOKUApp@@QAEXI@Z
  00030	b9 00 00 00 00	 mov	 ecx, OFFSET ?theApp@@3VCSUDOKUApp@@A ; theApp
  00035	e8 00 00 00 00	 call	 ??0CSUDOKUApp@@QAE@XZ	; CSUDOKUApp::CSUDOKUApp
  0003a	68 00 00 00 00	 push	 OFFSET ??__FtheApp@@YAXXZ ; `dynamic atexit destructor for 'theApp''
  0003f	e8 00 00 00 00	 call	 _atexit
  00044	59		 pop	 ecx
  00045	5f		 pop	 edi
  00046	5e		 pop	 esi
  00047	5b		 pop	 ebx
  00048	81 c4 c0 00 00
	00		 add	 esp, 192		; 000000c0H
  0004e	3b ec		 cmp	 ebp, esp
  00050	e8 00 00 00 00	 call	 __RTC_CheckEsp
  00055	c9		 leave
  00056	c3		 ret	 0
??__EtheApp@@YAXXZ ENDP					; `dynamic initializer for 'theApp''
text$di	ENDS
; Function compile flags: /Odsp /RTCsu /ZI
;	COMDAT ?__autoclassinit2@CSUDOKUDlg@@QAEXI@Z
_TEXT	SEGMENT
_this$ = -8						; size = 4
_classSize$ = 8						; size = 4
?__autoclassinit2@CSUDOKUDlg@@QAEXI@Z PROC		; CSUDOKUDlg::__autoclassinit2, COMDAT
; _this$ = ecx
  00000	55		 push	 ebp
  00001	8b ec		 mov	 ebp, esp
  00003	81 ec cc 00 00
	00		 sub	 esp, 204		; 000000ccH
  00009	53		 push	 ebx
  0000a	56		 push	 esi
  0000b	57		 push	 edi
  0000c	51		 push	 ecx
  0000d	8d 7d f4	 lea	 edi, DWORD PTR [ebp-12]
  00010	6a 03		 push	 3
  00012	59		 pop	 ecx
  00013	b8 cc cc cc cc	 mov	 eax, -858993460		; ccccccccH
  00018	f3 ab		 rep stosd
  0001a	59		 pop	 ecx
  0001b	89 4d f8	 mov	 DWORD PTR _this$[ebp], ecx
  0001e	ff 75 08	 push	 DWORD PTR _classSize$[ebp]
  00021	6a 00		 push	 0
  00023	ff 75 f8	 push	 DWORD PTR _this$[ebp]
  00026	e8 00 00 00 00	 call	 _memset
  0002b	83 c4 0c	 add	 esp, 12			; 0000000cH
  0002e	5f		 pop	 edi
  0002f	5e		 pop	 esi
  00030	5b		 pop	 ebx
  00031	81 c4 cc 00 00
	00		 add	 esp, 204		; 000000ccH
  00037	3b ec		 cmp	 ebp, esp
  00039	e8 00 00 00 00	 call	 __RTC_CheckEsp
  0003e	c9		 leave
  0003f	c2 04 00	 ret	 4
?__autoclassinit2@CSUDOKUDlg@@QAEXI@Z ENDP		; CSUDOKUDlg::__autoclassinit2
_TEXT	ENDS
; Function compile flags: /Odsp /RTCsu /ZI
;	COMDAT ??1CSUDOKUDlg@@UAE@XZ
_TEXT	SEGMENT
_this$ = -8						; size = 4
??1CSUDOKUDlg@@UAE@XZ PROC				; CSUDOKUDlg::~CSUDOKUDlg, COMDAT
; _this$ = ecx
  00000	55		 push	 ebp
  00001	8b ec		 mov	 ebp, esp
  00003	81 ec cc 00 00
	00		 sub	 esp, 204		; 000000ccH
  00009	53		 push	 ebx
  0000a	56		 push	 esi
  0000b	57		 push	 edi
  0000c	51		 push	 ecx
  0000d	8d 7d f4	 lea	 edi, DWORD PTR [ebp-12]
  00010	6a 03		 push	 3
  00012	59		 pop	 ecx
  00013	b8 cc cc cc cc	 mov	 eax, -858993460		; ccccccccH
  00018	f3 ab		 rep stosd
  0001a	59		 pop	 ecx
  0001b	89 4d f8	 mov	 DWORD PTR _this$[ebp], ecx
  0001e	8b 4d f8	 mov	 ecx, DWORD PTR _this$[ebp]
  00021	e8 00 00 00 00	 call	 ??1CDialogEx@@UAE@XZ
  00026	5f		 pop	 edi
  00027	5e		 pop	 esi
  00028	5b		 pop	 ebx
  00029	81 c4 cc 00 00
	00		 add	 esp, 204		; 000000ccH
  0002f	3b ec		 cmp	 ebp, esp
  00031	e8 00 00 00 00	 call	 __RTC_CheckEsp
  00036	c9		 leave
  00037	c3		 ret	 0
??1CSUDOKUDlg@@UAE@XZ ENDP				; CSUDOKUDlg::~CSUDOKUDlg
_TEXT	ENDS
; Function compile flags: /Odsp /RTCsu /ZI
;	COMDAT ??_GCSUDOKUApp@@UAEPAXI@Z
_TEXT	SEGMENT
_this$ = -8						; size = 4
___flags$ = 8						; size = 4
??_GCSUDOKUApp@@UAEPAXI@Z PROC				; CSUDOKUApp::`scalar deleting destructor', COMDAT
; _this$ = ecx
  00000	55		 push	 ebp
  00001	8b ec		 mov	 ebp, esp
  00003	81 ec cc 00 00
	00		 sub	 esp, 204		; 000000ccH
  00009	53		 push	 ebx
  0000a	56		 push	 esi
  0000b	57		 push	 edi
  0000c	51		 push	 ecx
  0000d	8d 7d f4	 lea	 edi, DWORD PTR [ebp-12]
  00010	6a 03		 push	 3
  00012	59		 pop	 ecx
  00013	b8 cc cc cc cc	 mov	 eax, -858993460		; ccccccccH
  00018	f3 ab		 rep stosd
  0001a	59		 pop	 ecx
  0001b	89 4d f8	 mov	 DWORD PTR _this$[ebp], ecx
  0001e	8b 4d f8	 mov	 ecx, DWORD PTR _this$[ebp]
  00021	e8 00 00 00 00	 call	 ??1CSUDOKUApp@@UAE@XZ
  00026	8b 45 08	 mov	 eax, DWORD PTR ___flags$[ebp]
  00029	83 e0 01	 and	 eax, 1
  0002c	74 21		 je	 SHORT $LN2@scalar
  0002e	8b 45 08	 mov	 eax, DWORD PTR ___flags$[ebp]
  00031	83 e0 04	 and	 eax, 4
  00034	75 0a		 jne	 SHORT $LN3@scalar
  00036	ff 75 f8	 push	 DWORD PTR _this$[ebp]
  00039	e8 00 00 00 00	 call	 ??3CObject@@SGXPAX@Z	; CObject::operator delete
  0003e	eb 0f		 jmp	 SHORT $LN2@scalar
$LN3@scalar:
  00040	68 cc 00 00 00	 push	 204			; 000000ccH
  00045	ff 75 f8	 push	 DWORD PTR _this$[ebp]
  00048	e8 00 00 00 00	 call	 ?__global_delete@@YAXPAXI@Z ; __global_delete
  0004d	59		 pop	 ecx
  0004e	59		 pop	 ecx
$LN2@scalar:
  0004f	8b 45 f8	 mov	 eax, DWORD PTR _this$[ebp]
  00052	5f		 pop	 edi
  00053	5e		 pop	 esi
  00054	5b		 pop	 ebx
  00055	81 c4 cc 00 00
	00		 add	 esp, 204		; 000000ccH
  0005b	3b ec		 cmp	 ebp, esp
  0005d	e8 00 00 00 00	 call	 __RTC_CheckEsp
  00062	c9		 leave
  00063	c2 04 00	 ret	 4
??_GCSUDOKUApp@@UAEPAXI@Z ENDP				; CSUDOKUApp::`scalar deleting destructor'
_TEXT	ENDS
; Function compile flags: /Odsp /RTCsu /ZI
;	COMDAT ?__autoclassinit2@CSUDOKUApp@@QAEXI@Z
_TEXT	SEGMENT
_this$ = -8						; size = 4
_classSize$ = 8						; size = 4
?__autoclassinit2@CSUDOKUApp@@QAEXI@Z PROC		; CSUDOKUApp::__autoclassinit2, COMDAT
; _this$ = ecx
  00000	55		 push	 ebp
  00001	8b ec		 mov	 ebp, esp
  00003	81 ec cc 00 00
	00		 sub	 esp, 204		; 000000ccH
  00009	53		 push	 ebx
  0000a	56		 push	 esi
  0000b	57		 push	 edi
  0000c	51		 push	 ecx
  0000d	8d 7d f4	 lea	 edi, DWORD PTR [ebp-12]
  00010	6a 03		 push	 3
  00012	59		 pop	 ecx
  00013	b8 cc cc cc cc	 mov	 eax, -858993460		; ccccccccH
  00018	f3 ab		 rep stosd
  0001a	59		 pop	 ecx
  0001b	89 4d f8	 mov	 DWORD PTR _this$[ebp], ecx
  0001e	ff 75 08	 push	 DWORD PTR _classSize$[ebp]
  00021	6a 00		 push	 0
  00023	ff 75 f8	 push	 DWORD PTR _this$[ebp]
  00026	e8 00 00 00 00	 call	 _memset
  0002b	83 c4 0c	 add	 esp, 12			; 0000000cH
  0002e	5f		 pop	 edi
  0002f	5e		 pop	 esi
  00030	5b		 pop	 ebx
  00031	81 c4 cc 00 00
	00		 add	 esp, 204		; 000000ccH
  00037	3b ec		 cmp	 ebp, esp
  00039	e8 00 00 00 00	 call	 __RTC_CheckEsp
  0003e	c9		 leave
  0003f	c2 04 00	 ret	 4
?__autoclassinit2@CSUDOKUApp@@QAEXI@Z ENDP		; CSUDOKUApp::__autoclassinit2
_TEXT	ENDS
; Function compile flags: /Odsp /RTCsu /ZI
;	COMDAT ??1CSUDOKUApp@@UAE@XZ
_TEXT	SEGMENT
_this$ = -8						; size = 4
??1CSUDOKUApp@@UAE@XZ PROC				; CSUDOKUApp::~CSUDOKUApp, COMDAT
; _this$ = ecx
  00000	55		 push	 ebp
  00001	8b ec		 mov	 ebp, esp
  00003	81 ec cc 00 00
	00		 sub	 esp, 204		; 000000ccH
  00009	53		 push	 ebx
  0000a	56		 push	 esi
  0000b	57		 push	 edi
  0000c	51		 push	 ecx
  0000d	8d 7d f4	 lea	 edi, DWORD PTR [ebp-12]
  00010	6a 03		 push	 3
  00012	59		 pop	 ecx
  00013	b8 cc cc cc cc	 mov	 eax, -858993460		; ccccccccH
  00018	f3 ab		 rep stosd
  0001a	59		 pop	 ecx
  0001b	89 4d f8	 mov	 DWORD PTR _this$[ebp], ecx
  0001e	8b 4d f8	 mov	 ecx, DWORD PTR _this$[ebp]
  00021	e8 00 00 00 00	 call	 ??1CWinApp@@UAE@XZ	; CWinApp::~CWinApp
  00026	5f		 pop	 edi
  00027	5e		 pop	 esi
  00028	5b		 pop	 ebx
  00029	81 c4 cc 00 00
	00		 add	 esp, 204		; 000000ccH
  0002f	3b ec		 cmp	 ebp, esp
  00031	e8 00 00 00 00	 call	 __RTC_CheckEsp
  00036	c9		 leave
  00037	c3		 ret	 0
??1CSUDOKUApp@@UAE@XZ ENDP				; CSUDOKUApp::~CSUDOKUApp
_TEXT	ENDS
; Function compile flags: /Odsp /RTCsu /ZI
; File J:\work\SUDOKU\SUDOKU\SUDOKU\SUDOKU.cpp
;	COMDAT ?GetMessageMap@CSUDOKUApp@@MBEPBUAFX_MSGMAP@@XZ
_TEXT	SEGMENT
_this$ = -8						; size = 4
?GetMessageMap@CSUDOKUApp@@MBEPBUAFX_MSGMAP@@XZ PROC	; CSUDOKUApp::GetMessageMap, COMDAT
; _this$ = ecx

; 20   : BEGIN_MESSAGE_MAP(CSUDOKUApp, CWinApp)

  00000	55		 push	 ebp
  00001	8b ec		 mov	 ebp, esp
  00003	81 ec cc 00 00
	00		 sub	 esp, 204		; 000000ccH
  00009	53		 push	 ebx
  0000a	56		 push	 esi
  0000b	57		 push	 edi
  0000c	51		 push	 ecx
  0000d	8d 7d f4	 lea	 edi, DWORD PTR [ebp-12]
  00010	6a 03		 push	 3
  00012	59		 pop	 ecx
  00013	b8 cc cc cc cc	 mov	 eax, -858993460		; ccccccccH
  00018	f3 ab		 rep stosd
  0001a	59		 pop	 ecx
  0001b	89 4d f8	 mov	 DWORD PTR _this$[ebp], ecx
  0001e	b9 00 00 00 00	 mov	 ecx, OFFSET __B746AA20_SUDOKU@cpp
  00023	e8 00 00 00 00	 call	 @__CheckForDebuggerJustMyCode@4
  00028	e8 00 00 00 00	 call	 ?GetThisMessageMap@CSUDOKUApp@@KGPBUAFX_MSGMAP@@XZ ; CSUDOKUApp::GetThisMessageMap
  0002d	5f		 pop	 edi
  0002e	5e		 pop	 esi
  0002f	5b		 pop	 ebx
  00030	81 c4 cc 00 00
	00		 add	 esp, 204		; 000000ccH
  00036	3b ec		 cmp	 ebp, esp
  00038	e8 00 00 00 00	 call	 __RTC_CheckEsp
  0003d	c9		 leave
  0003e	c3		 ret	 0
?GetMessageMap@CSUDOKUApp@@MBEPBUAFX_MSGMAP@@XZ ENDP	; CSUDOKUApp::GetMessageMap
_TEXT	ENDS
; Function compile flags: /Odsp /RTCsu /ZI
; File J:\work\SUDOKU\SUDOKU\SUDOKU\SUDOKU.cpp
;	COMDAT ?GetThisMessageMap@CSUDOKUApp@@KGPBUAFX_MSGMAP@@XZ
_TEXT	SEGMENT
?GetThisMessageMap@CSUDOKUApp@@KGPBUAFX_MSGMAP@@XZ PROC	; CSUDOKUApp::GetThisMessageMap, COMDAT

; 20   : BEGIN_MESSAGE_MAP(CSUDOKUApp, CWinApp)

  00000	55		 push	 ebp
  00001	8b ec		 mov	 ebp, esp
  00003	81 ec c0 00 00
	00		 sub	 esp, 192		; 000000c0H
  00009	53		 push	 ebx
  0000a	56		 push	 esi
  0000b	57		 push	 edi
  0000c	8b fd		 mov	 edi, ebp
  0000e	33 c9		 xor	 ecx, ecx
  00010	b8 cc cc cc cc	 mov	 eax, -858993460		; ccccccccH
  00015	f3 ab		 rep stosd
  00017	b9 00 00 00 00	 mov	 ecx, OFFSET __B746AA20_SUDOKU@cpp
  0001c	e8 00 00 00 00	 call	 @__CheckForDebuggerJustMyCode@4

; 21   : 	ON_COMMAND(ID_HELP, &CWinApp::OnHelp)
; 22   : END_MESSAGE_MAP()

  00021	b8 00 00 00 00	 mov	 eax, OFFSET ?messageMap@?1??GetThisMessageMap@CSUDOKUApp@@KGPBUAFX_MSGMAP@@XZ@4U3@B
  00026	5f		 pop	 edi
  00027	5e		 pop	 esi
  00028	5b		 pop	 ebx
  00029	81 c4 c0 00 00
	00		 add	 esp, 192		; 000000c0H
  0002f	3b ec		 cmp	 ebp, esp
  00031	e8 00 00 00 00	 call	 __RTC_CheckEsp
  00036	c9		 leave
  00037	c3		 ret	 0
?GetThisMessageMap@CSUDOKUApp@@KGPBUAFX_MSGMAP@@XZ ENDP	; CSUDOKUApp::GetThisMessageMap
_TEXT	ENDS
; Function compile flags: /Odsp /RTCsu /ZI
; File J:\work\SUDOKU\SUDOKU\SUDOKU\SUDOKU.cpp
;	COMDAT ?InitInstance@CSUDOKUApp@@UAEHXZ
_TEXT	SEGMENT
tv191 = -568						; size = 4
tv87 = -568						; size = 4
$T2 = -560						; size = 4
$T3 = -548						; size = 4
$T4 = -536						; size = 8
$T5 = -520						; size = 8
$T6 = -504						; size = 4
$T7 = -492						; size = 4
_nResponse$ = -288					; size = 4
_dlg$ = -276						; size = 216
_pShellManager$ = -52					; size = 4
_InitCtrls$ = -40					; size = 8
_this$ = -24						; size = 4
__$ArrayPad$ = -16					; size = 4
__$EHRec$ = -12						; size = 12
?InitInstance@CSUDOKUApp@@UAEHXZ PROC			; CSUDOKUApp::InitInstance, COMDAT
; _this$ = ecx

; 45   : {

  00000	55		 push	 ebp
  00001	8b ec		 mov	 ebp, esp
  00003	6a ff		 push	 -1
  00005	68 00 00 00 00	 push	 __ehhandler$?InitInstance@CSUDOKUApp@@UAEHXZ
  0000a	64 a1 00 00 00
	00		 mov	 eax, DWORD PTR fs:0
  00010	50		 push	 eax
  00011	81 ec 2c 02 00
	00		 sub	 esp, 556		; 0000022cH
  00017	53		 push	 ebx
  00018	56		 push	 esi
  00019	57		 push	 edi
  0001a	51		 push	 ecx
  0001b	8d bd 88 fe ff
	ff		 lea	 edi, DWORD PTR [ebp-376]
  00021	6a 5b		 push	 91			; 0000005bH
  00023	59		 pop	 ecx
  00024	b8 cc cc cc cc	 mov	 eax, -858993460		; ccccccccH
  00029	f3 ab		 rep stosd
  0002b	59		 pop	 ecx
  0002c	a1 00 00 00 00	 mov	 eax, DWORD PTR ___security_cookie
  00031	33 c5		 xor	 eax, ebp
  00033	89 45 f0	 mov	 DWORD PTR __$ArrayPad$[ebp], eax
  00036	50		 push	 eax
  00037	8d 45 f4	 lea	 eax, DWORD PTR __$EHRec$[ebp]
  0003a	64 a3 00 00 00
	00		 mov	 DWORD PTR fs:0, eax
  00040	89 4d e8	 mov	 DWORD PTR _this$[ebp], ecx
  00043	b9 00 00 00 00	 mov	 ecx, OFFSET __B746AA20_SUDOKU@cpp
  00048	e8 00 00 00 00	 call	 @__CheckForDebuggerJustMyCode@4

; 46   : 	// InitCommonControlsEx() est requis sur Windows XP si le manifeste de l'application
; 47   : 	// spécifie l'utilisation de ComCtl32.dll version 6 ou ultérieure pour activer les
; 48   : 	// styles visuels.  Dans le cas contraire, la création de fenêtres échouera.
; 49   : 	INITCOMMONCONTROLSEX InitCtrls;
; 50   : 	InitCtrls.dwSize = sizeof(InitCtrls);

  0004d	c7 45 d8 08 00
	00 00		 mov	 DWORD PTR _InitCtrls$[ebp], 8

; 51   : 	// À définir pour inclure toutes les classes de contrôles communs à utiliser
; 52   : 	// dans votre application.
; 53   : 	InitCtrls.dwICC = ICC_WIN95_CLASSES;

  00054	c7 45 dc ff 00
	00 00		 mov	 DWORD PTR _InitCtrls$[ebp+4], 255 ; 000000ffH

; 54   : 	InitCommonControlsEx(&InitCtrls);

  0005b	8b f4		 mov	 esi, esp
  0005d	8d 45 d8	 lea	 eax, DWORD PTR _InitCtrls$[ebp]
  00060	50		 push	 eax
  00061	ff 15 00 00 00
	00		 call	 DWORD PTR __imp__InitCommonControlsEx@4
  00067	3b f4		 cmp	 esi, esp
  00069	e8 00 00 00 00	 call	 __RTC_CheckEsp

; 55   : 
; 56   : 	CWinApp::InitInstance();

  0006e	8b 4d e8	 mov	 ecx, DWORD PTR _this$[ebp]
  00071	e8 00 00 00 00	 call	 ?InitInstance@CWinApp@@UAEHXZ ; CWinApp::InitInstance

; 57   : 
; 58   : 
; 59   : 	AfxEnableControlContainer();

  00076	6a 00		 push	 0
  00078	e8 00 00 00 00	 call	 ?AfxEnableControlContainer@@YAXPAVCOccManager@@@Z ; AfxEnableControlContainer
  0007d	59		 pop	 ecx

; 60   : 
; 61   : 	// Créer le gestionnaire de shell, si la boîte de dialogue contient
; 62   : 	// des contrôles d'arborescence ou de liste de shell.
; 63   : 	CShellManager *pShellManager = new CShellManager;

  0007e	a1 00 00 00 00	 mov	 eax, DWORD PTR ?__LINE__Var@?0??InitInstance@CSUDOKUApp@@UAEHXZ@4JA
  00083	83 c0 12	 add	 eax, 18			; 00000012H
  00086	50		 push	 eax
  00087	68 00 00 00 00	 push	 OFFSET ??_C@_0CI@CNMKKECM@J?3?2work?2SUDOKU?2SUDOKU?2SUDOKU?2SU@
  0008c	6a 0c		 push	 12			; 0000000cH
  0008e	e8 00 00 00 00	 call	 ??2CObject@@SGPAXIPBDH@Z ; CObject::operator new
  00093	89 85 08 fe ff
	ff		 mov	 DWORD PTR $T6[ebp], eax
  00099	83 65 fc 00	 and	 DWORD PTR __$EHRec$[ebp+8], 0
  0009d	83 bd 08 fe ff
	ff 00		 cmp	 DWORD PTR $T6[ebp], 0
  000a4	74 13		 je	 SHORT $LN9@InitInstan
  000a6	8b 8d 08 fe ff
	ff		 mov	 ecx, DWORD PTR $T6[ebp]
  000ac	e8 00 00 00 00	 call	 ??0CShellManager@@QAE@XZ ; CShellManager::CShellManager
  000b1	89 85 c8 fd ff
	ff		 mov	 DWORD PTR tv87[ebp], eax
  000b7	eb 07		 jmp	 SHORT $LN10@InitInstan
$LN9@InitInstan:
  000b9	83 a5 c8 fd ff
	ff 00		 and	 DWORD PTR tv87[ebp], 0
$LN10@InitInstan:
  000c0	8b 85 c8 fd ff
	ff		 mov	 eax, DWORD PTR tv87[ebp]
  000c6	89 85 14 fe ff
	ff		 mov	 DWORD PTR $T7[ebp], eax
  000cc	83 4d fc ff	 or	 DWORD PTR __$EHRec$[ebp+8], -1
  000d0	8b 85 14 fe ff
	ff		 mov	 eax, DWORD PTR $T7[ebp]
  000d6	89 45 cc	 mov	 DWORD PTR _pShellManager$[ebp], eax

; 64   : 
; 65   : 	// Active le gestionnaire visuel "natif Windows" pour activer les thèmes dans les contrôles MFC
; 66   : 	CMFCVisualManager::SetDefaultManager(RUNTIME_CLASS(CMFCVisualManagerWindows));

  000d9	68 00 00 00 00	 push	 OFFSET ?classCMFCVisualManagerWindows@CMFCVisualManagerWindows@@2UCRuntimeClass@@B ; CMFCVisualManagerWindows::classCMFCVisualManagerWindows
  000de	e8 00 00 00 00	 call	 ?SetDefaultManager@CMFCVisualManager@@SGXPAUCRuntimeClass@@@Z ; CMFCVisualManager::SetDefaultManager

; 67   : 
; 68   : 	// Initialisation standard
; 69   : 	// Si vous n'utilisez pas ces fonctionnalités et que vous souhaitez réduire la taille
; 70   : 	// de votre exécutable final, vous devez supprimer ci-dessous
; 71   : 	// les routines d'initialisation spécifiques dont vous n'avez pas besoin.
; 72   : 	// Changez la clé de Registre sous laquelle nos paramètres sont enregistrés
; 73   : 	// TODO: modifiez cette chaîne avec des informations appropriées,
; 74   : 	// telles que le nom de votre société ou organisation
; 75   : 	SetRegistryKey(_T("Applications locales générées par AppWizard"));

  000e3	68 00 00 00 00	 push	 OFFSET ??_C@_1FI@CDFDGNEO@?$AAA?$AAp?$AAp?$AAl?$AAi?$AAc?$AAa?$AAt?$AAi?$AAo?$AAn?$AAs?$AA?5?$AAl?$AAo@
  000e8	8b 4d e8	 mov	 ecx, DWORD PTR _this$[ebp]
  000eb	e8 00 00 00 00	 call	 ?SetRegistryKey@CWinApp@@IAEXPB_W@Z ; CWinApp::SetRegistryKey

; 76   : 
; 77   : 	CSUDOKUDlg dlg;

  000f0	68 d8 00 00 00	 push	 216			; 000000d8H
  000f5	8d 8d ec fe ff
	ff		 lea	 ecx, DWORD PTR _dlg$[ebp]
  000fb	e8 00 00 00 00	 call	 ?__autoclassinit2@CSUDOKUDlg@@QAEXI@Z
  00100	6a 00		 push	 0
  00102	8d 8d ec fe ff
	ff		 lea	 ecx, DWORD PTR _dlg$[ebp]
  00108	e8 00 00 00 00	 call	 ??0CSUDOKUDlg@@QAE@PAVCWnd@@@Z ; CSUDOKUDlg::CSUDOKUDlg
  0010d	c7 45 fc 01 00
	00 00		 mov	 DWORD PTR __$EHRec$[ebp+8], 1

; 78   : 	m_pMainWnd = &dlg;

  00114	8b 45 e8	 mov	 eax, DWORD PTR _this$[ebp]
  00117	8d 8d ec fe ff
	ff		 lea	 ecx, DWORD PTR _dlg$[ebp]
  0011d	89 48 20	 mov	 DWORD PTR [eax+32], ecx

; 79   : 	INT_PTR nResponse = dlg.DoModal();

  00120	8d 8d ec fe ff
	ff		 lea	 ecx, DWORD PTR _dlg$[ebp]
  00126	e8 00 00 00 00	 call	 ?DoModal@CDialog@@UAEHXZ ; CDialog::DoModal
  0012b	89 85 e0 fe ff
	ff		 mov	 DWORD PTR _nResponse$[ebp], eax

; 80   : 	if (nResponse == IDOK)

  00131	83 bd e0 fe ff
	ff 01		 cmp	 DWORD PTR _nResponse$[ebp], 1
  00138	75 02		 jne	 SHORT $LN2@InitInstan

; 81   : 	{
; 82   : 		// TODO: placez ici le code définissant le comportement lorsque la boîte de dialogue est
; 83   : 		//  fermée avec OK
; 84   : 	}

  0013a	eb 7c		 jmp	 SHORT $LN3@InitInstan
$LN2@InitInstan:

; 85   : 	else if (nResponse == IDCANCEL)

  0013c	83 bd e0 fe ff
	ff 02		 cmp	 DWORD PTR _nResponse$[ebp], 2
  00143	75 02		 jne	 SHORT $LN4@InitInstan

; 86   : 	{
; 87   : 		// TODO: placez ici le code définissant le comportement lorsque la boîte de dialogue est
; 88   : 		//  fermée avec Annuler
; 89   : 	}

  00145	eb 71		 jmp	 SHORT $LN3@InitInstan
$LN4@InitInstan:

; 90   : 	else if (nResponse == -1)

  00147	83 bd e0 fe ff
	ff ff		 cmp	 DWORD PTR _nResponse$[ebp], -1
  0014e	75 68		 jne	 SHORT $LN3@InitInstan

; 91   : 	{
; 92   : 		TRACE(traceAppMsg, 0, "Avertissement : échec de création de la boîte de dialogue, par conséquent, l'application s'arrête de manière inattendue.\n");

  00150	68 00 00 00 00	 push	 OFFSET ??_C@_0HK@PBGJPJPO@Avertissement?5?3?5?ichec?5de?5cr?iati@
  00155	6a 00		 push	 0
  00157	b9 00 00 00 00	 mov	 ecx, OFFSET ?traceAppMsg@@3VCTraceCategory@ATL@@A ; traceAppMsg
  0015c	e8 00 00 00 00	 call	 ??B?$CTraceCategoryEx@$0IAAAA@$0A@@ATL@@QAEIXZ ; ATL::CTraceCategoryEx<524288,0>::operator unsigned int
  00161	50		 push	 eax
  00162	a1 00 00 00 00	 mov	 eax, DWORD PTR ?__LINE__Var@?0??InitInstance@CSUDOKUApp@@UAEHXZ@4JA
  00167	83 c0 2f	 add	 eax, 47			; 0000002fH
  0016a	50		 push	 eax
  0016b	68 00 00 00 00	 push	 OFFSET ??_C@_0CI@CNMKKECM@J?3?2work?2SUDOKU?2SUDOKU?2SUDOKU?2SU@
  00170	8d 8d f8 fd ff
	ff		 lea	 ecx, DWORD PTR $T5[ebp]
  00176	e8 00 00 00 00	 call	 ??0CTraceFileAndLineInfo@ATL@@QAE@PBDH@Z ; ATL::CTraceFileAndLineInfo::CTraceFileAndLineInfo
  0017b	50		 push	 eax
  0017c	e8 00 00 00 00	 call	 ??RCTraceFileAndLineInfo@ATL@@QBAXHIPBDZZ ; ATL::CTraceFileAndLineInfo::operator()
  00181	83 c4 10	 add	 esp, 16			; 00000010H

; 93   : 		TRACE(traceAppMsg, 0, "Avertissement : si vous utilisez les contrôles MFC de la boîte de dialogue, vous ne pouvez pas exécuter #define _AFX_NO_MFC_CONTROLS_IN_DIALOGS.\n");

  00184	68 00 00 00 00	 push	 OFFSET ??_C@_0JC@DNIGCLHC@Avertissement?5?3?5si?5vous?5utilise@
  00189	6a 00		 push	 0
  0018b	b9 00 00 00 00	 mov	 ecx, OFFSET ?traceAppMsg@@3VCTraceCategory@ATL@@A ; traceAppMsg
  00190	e8 00 00 00 00	 call	 ??B?$CTraceCategoryEx@$0IAAAA@$0A@@ATL@@QAEIXZ ; ATL::CTraceCategoryEx<524288,0>::operator unsigned int
  00195	50		 push	 eax
  00196	a1 00 00 00 00	 mov	 eax, DWORD PTR ?__LINE__Var@?0??InitInstance@CSUDOKUApp@@UAEHXZ@4JA
  0019b	83 c0 30	 add	 eax, 48			; 00000030H
  0019e	50		 push	 eax
  0019f	68 00 00 00 00	 push	 OFFSET ??_C@_0CI@CNMKKECM@J?3?2work?2SUDOKU?2SUDOKU?2SUDOKU?2SU@
  001a4	8d 8d e8 fd ff
	ff		 lea	 ecx, DWORD PTR $T4[ebp]
  001aa	e8 00 00 00 00	 call	 ??0CTraceFileAndLineInfo@ATL@@QAE@PBDH@Z ; ATL::CTraceFileAndLineInfo::CTraceFileAndLineInfo
  001af	50		 push	 eax
  001b0	e8 00 00 00 00	 call	 ??RCTraceFileAndLineInfo@ATL@@QBAXHIPBDZZ ; ATL::CTraceFileAndLineInfo::operator()
  001b5	83 c4 10	 add	 esp, 16			; 00000010H
$LN3@InitInstan:

; 94   : 	}
; 95   : 
; 96   : 	// Supprimer le gestionnaire de shell créé ci-dessus.
; 97   : 	if (pShellManager != NULL)

  001b8	83 7d cc 00	 cmp	 DWORD PTR _pShellManager$[ebp], 0
  001bc	74 3d		 je	 SHORT $LN7@InitInstan

; 98   : 	{
; 99   : 		delete pShellManager;

  001be	8b 45 cc	 mov	 eax, DWORD PTR _pShellManager$[ebp]
  001c1	89 85 dc fd ff
	ff		 mov	 DWORD PTR $T3[ebp], eax
  001c7	83 bd dc fd ff
	ff 00		 cmp	 DWORD PTR $T3[ebp], 0
  001ce	74 24		 je	 SHORT $LN11@InitInstan
  001d0	8b f4		 mov	 esi, esp
  001d2	6a 01		 push	 1
  001d4	8b 85 dc fd ff
	ff		 mov	 eax, DWORD PTR $T3[ebp]
  001da	8b 00		 mov	 eax, DWORD PTR [eax]
  001dc	8b 8d dc fd ff
	ff		 mov	 ecx, DWORD PTR $T3[ebp]
  001e2	ff 50 04	 call	 DWORD PTR [eax+4]
  001e5	3b f4		 cmp	 esi, esp
  001e7	e8 00 00 00 00	 call	 __RTC_CheckEsp
  001ec	89 85 c8 fd ff
	ff		 mov	 DWORD PTR tv191[ebp], eax
  001f2	eb 07		 jmp	 SHORT $LN7@InitInstan
$LN11@InitInstan:
  001f4	83 a5 c8 fd ff
	ff 00		 and	 DWORD PTR tv191[ebp], 0
$LN7@InitInstan:

; 100  : 	}
; 101  :     
; 102  : 	// Lorsque la boîte de dialogue est fermée, retourner FALSE afin de quitter
; 103  : 	//  l'application, plutôt que de démarrer la pompe de messages de l'application.
; 104  : 	return FALSE;

  001fb	83 a5 d0 fd ff
	ff 00		 and	 DWORD PTR $T2[ebp], 0
  00202	83 4d fc ff	 or	 DWORD PTR __$EHRec$[ebp+8], -1
  00206	8d 8d ec fe ff
	ff		 lea	 ecx, DWORD PTR _dlg$[ebp]
  0020c	e8 00 00 00 00	 call	 ??1CSUDOKUDlg@@UAE@XZ
  00211	8b 85 d0 fd ff
	ff		 mov	 eax, DWORD PTR $T2[ebp]

; 105  : }

  00217	52		 push	 edx
  00218	8b cd		 mov	 ecx, ebp
  0021a	50		 push	 eax
  0021b	8d 15 00 00 00
	00		 lea	 edx, DWORD PTR $LN19@InitInstan
  00221	e8 00 00 00 00	 call	 @_RTC_CheckStackVars@8
  00226	58		 pop	 eax
  00227	5a		 pop	 edx
  00228	8b 4d f4	 mov	 ecx, DWORD PTR __$EHRec$[ebp]
  0022b	64 89 0d 00 00
	00 00		 mov	 DWORD PTR fs:0, ecx
  00232	59		 pop	 ecx
  00233	5f		 pop	 edi
  00234	5e		 pop	 esi
  00235	5b		 pop	 ebx
  00236	8b 4d f0	 mov	 ecx, DWORD PTR __$ArrayPad$[ebp]
  00239	33 cd		 xor	 ecx, ebp
  0023b	e8 00 00 00 00	 call	 @__security_check_cookie@4
  00240	81 c4 38 02 00
	00		 add	 esp, 568		; 00000238H
  00246	3b ec		 cmp	 ebp, esp
  00248	e8 00 00 00 00	 call	 __RTC_CheckEsp
  0024d	c9		 leave
  0024e	c3		 ret	 0
  0024f	90		 npad	 1
$LN19@InitInstan:
  00250	02 00 00 00	 DD	 2
  00254	00 00 00 00	 DD	 $LN18@InitInstan
$LN18@InitInstan:
  00258	d8 ff ff ff	 DD	 -40			; ffffffd8H
  0025c	08 00 00 00	 DD	 8
  00260	00 00 00 00	 DD	 $LN15@InitInstan
  00264	ec fe ff ff	 DD	 -276			; fffffeecH
  00268	d8 00 00 00	 DD	 216			; 000000d8H
  0026c	00 00 00 00	 DD	 $LN16@InitInstan
$LN16@InitInstan:
  00270	64		 DB	 100			; 00000064H
  00271	6c		 DB	 108			; 0000006cH
  00272	67		 DB	 103			; 00000067H
  00273	00		 DB	 0
$LN15@InitInstan:
  00274	49		 DB	 73			; 00000049H
  00275	6e		 DB	 110			; 0000006eH
  00276	69		 DB	 105			; 00000069H
  00277	74		 DB	 116			; 00000074H
  00278	43		 DB	 67			; 00000043H
  00279	74		 DB	 116			; 00000074H
  0027a	72		 DB	 114			; 00000072H
  0027b	6c		 DB	 108			; 0000006cH
  0027c	73		 DB	 115			; 00000073H
  0027d	00		 DB	 0
_TEXT	ENDS
;	COMDAT text$x
text$x	SEGMENT
__unwindfunclet$?InitInstance@CSUDOKUApp@@UAEHXZ$0:
  00000	a1 00 00 00 00	 mov	 eax, DWORD PTR ?__LINE__Var@?0??InitInstance@CSUDOKUApp@@UAEHXZ@4JA
  00005	83 c0 12	 add	 eax, 18			; 00000012H
  00008	50		 push	 eax
  00009	68 00 00 00 00	 push	 OFFSET ??_C@_0CI@CNMKKECM@J?3?2work?2SUDOKU?2SUDOKU?2SUDOKU?2SU@
  0000e	ff b5 08 fe ff
	ff		 push	 DWORD PTR $T6[ebp]
  00014	e8 00 00 00 00	 call	 ??3CObject@@SGXPAXPBDH@Z ; CObject::operator delete
  00019	c3		 ret	 0
__unwindfunclet$?InitInstance@CSUDOKUApp@@UAEHXZ$1:
  0001a	8d 8d ec fe ff
	ff		 lea	 ecx, DWORD PTR _dlg$[ebp]
  00020	e9 00 00 00 00	 jmp	 ??1CSUDOKUDlg@@UAE@XZ
  00025	cc		 int	 3
  00026	cc		 int	 3
  00027	cc		 int	 3
  00028	cc		 int	 3
  00029	cc		 int	 3
__ehhandler$?InitInstance@CSUDOKUApp@@UAEHXZ:
  0002a	90		 npad	 1
  0002b	90		 npad	 1
  0002c	8b 54 24 08	 mov	 edx, DWORD PTR [esp+8]
  00030	8d 42 0c	 lea	 eax, DWORD PTR [edx+12]
  00033	8b 8a c4 fd ff
	ff		 mov	 ecx, DWORD PTR [edx-572]
  00039	33 c8		 xor	 ecx, eax
  0003b	e8 00 00 00 00	 call	 @__security_check_cookie@4
  00040	8b 4a fc	 mov	 ecx, DWORD PTR [edx-4]
  00043	33 c8		 xor	 ecx, eax
  00045	e8 00 00 00 00	 call	 @__security_check_cookie@4
  0004a	b8 00 00 00 00	 mov	 eax, OFFSET __ehfuncinfo$?InitInstance@CSUDOKUApp@@UAEHXZ
  0004f	e9 00 00 00 00	 jmp	 ___CxxFrameHandler3
text$x	ENDS
?InitInstance@CSUDOKUApp@@UAEHXZ ENDP			; CSUDOKUApp::InitInstance
; Function compile flags: /Odsp /RTCsu /ZI
; File J:\work\SUDOKU\SUDOKU\SUDOKU\SUDOKU.cpp
;	COMDAT ??0CSUDOKUApp@@QAE@XZ
_TEXT	SEGMENT
_this$ = -8						; size = 4
??0CSUDOKUApp@@QAE@XZ PROC				; CSUDOKUApp::CSUDOKUApp, COMDAT
; _this$ = ecx

; 28   : {

  00000	55		 push	 ebp
  00001	8b ec		 mov	 ebp, esp
  00003	81 ec cc 00 00
	00		 sub	 esp, 204		; 000000ccH
  00009	53		 push	 ebx
  0000a	56		 push	 esi
  0000b	57		 push	 edi
  0000c	51		 push	 ecx
  0000d	8d 7d f4	 lea	 edi, DWORD PTR [ebp-12]
  00010	6a 03		 push	 3
  00012	59		 pop	 ecx
  00013	b8 cc cc cc cc	 mov	 eax, -858993460		; ccccccccH
  00018	f3 ab		 rep stosd
  0001a	59		 pop	 ecx
  0001b	89 4d f8	 mov	 DWORD PTR _this$[ebp], ecx
  0001e	b9 00 00 00 00	 mov	 ecx, OFFSET __B746AA20_SUDOKU@cpp
  00023	e8 00 00 00 00	 call	 @__CheckForDebuggerJustMyCode@4
  00028	6a 00		 push	 0
  0002a	8b 4d f8	 mov	 ecx, DWORD PTR _this$[ebp]
  0002d	e8 00 00 00 00	 call	 ??0CWinApp@@QAE@PB_W@Z	; CWinApp::CWinApp
  00032	8b 45 f8	 mov	 eax, DWORD PTR _this$[ebp]
  00035	c7 00 00 00 00
	00		 mov	 DWORD PTR [eax], OFFSET ??_7CSUDOKUApp@@6B@

; 29   : 	// prend en charge le Gestionnaire de redémarrage
; 30   : 	m_dwRestartManagerSupportFlags = AFX_RESTART_MANAGER_SUPPORT_RESTART;

  0003b	8b 45 f8	 mov	 eax, DWORD PTR _this$[ebp]
  0003e	c7 80 ac 00 00
	00 01 00 00 00	 mov	 DWORD PTR [eax+172], 1

; 31   : 
; 32   : 	// TODO: ajoutez ici du code de construction,
; 33   : 	// Placez toutes les initialisations significatives dans InitInstance
; 34   : }

  00048	8b 45 f8	 mov	 eax, DWORD PTR _this$[ebp]
  0004b	5f		 pop	 edi
  0004c	5e		 pop	 esi
  0004d	5b		 pop	 ebx
  0004e	81 c4 cc 00 00
	00		 add	 esp, 204		; 000000ccH
  00054	3b ec		 cmp	 ebp, esp
  00056	e8 00 00 00 00	 call	 __RTC_CheckEsp
  0005b	c9		 leave
  0005c	c3		 ret	 0
??0CSUDOKUApp@@QAE@XZ ENDP				; CSUDOKUApp::CSUDOKUApp
_TEXT	ENDS
; Function compile flags: /Odsp /RTCsu /ZI
;	COMDAT ??1CDialogEx@@UAE@XZ
_TEXT	SEGMENT
_this$ = -8						; size = 4
??1CDialogEx@@UAE@XZ PROC				; CDialogEx::~CDialogEx, COMDAT
; _this$ = ecx
  00000	55		 push	 ebp
  00001	8b ec		 mov	 ebp, esp
  00003	81 ec cc 00 00
	00		 sub	 esp, 204		; 000000ccH
  00009	53		 push	 ebx
  0000a	56		 push	 esi
  0000b	57		 push	 edi
  0000c	51		 push	 ecx
  0000d	8d 7d f4	 lea	 edi, DWORD PTR [ebp-12]
  00010	6a 03		 push	 3
  00012	59		 pop	 ecx
  00013	b8 cc cc cc cc	 mov	 eax, -858993460		; ccccccccH
  00018	f3 ab		 rep stosd
  0001a	59		 pop	 ecx
  0001b	89 4d f8	 mov	 DWORD PTR _this$[ebp], ecx
  0001e	8b 4d f8	 mov	 ecx, DWORD PTR _this$[ebp]
  00021	81 c1 c0 00 00
	00		 add	 ecx, 192		; 000000c0H
  00027	e8 00 00 00 00	 call	 ??1CDialogImpl@@MAE@XZ	; CDialogImpl::~CDialogImpl
  0002c	8b 4d f8	 mov	 ecx, DWORD PTR _this$[ebp]
  0002f	81 c1 b4 00 00
	00		 add	 ecx, 180		; 000000b4H
  00035	e8 00 00 00 00	 call	 ??1CBrush@@UAE@XZ	; CBrush::~CBrush
  0003a	8b 4d f8	 mov	 ecx, DWORD PTR _this$[ebp]
  0003d	e8 00 00 00 00	 call	 ??1CDialog@@UAE@XZ	; CDialog::~CDialog
  00042	5f		 pop	 edi
  00043	5e		 pop	 esi
  00044	5b		 pop	 ebx
  00045	81 c4 cc 00 00
	00		 add	 esp, 204		; 000000ccH
  0004b	3b ec		 cmp	 ebp, esp
  0004d	e8 00 00 00 00	 call	 __RTC_CheckEsp
  00052	c9		 leave
  00053	c3		 ret	 0
??1CDialogEx@@UAE@XZ ENDP				; CDialogEx::~CDialogEx
_TEXT	ENDS
; Function compile flags: /Odsp /RTCsu /ZI
; File C:\Program Files\Microsoft Visual Studio\2022\Enterprise\VC\Tools\MSVC\14.34.31933\atlmfc\include\afxwin.h
;	COMDAT ?GetApplicationRecoveryPingInterval@CWinApp@@UAEKXZ
_TEXT	SEGMENT
_this$ = -8						; size = 4
?GetApplicationRecoveryPingInterval@CWinApp@@UAEKXZ PROC ; CWinApp::GetApplicationRecoveryPingInterval, COMDAT
; _this$ = ecx

; 5370 : 	virtual DWORD GetApplicationRecoveryPingInterval() { return RECOVERY_DEFAULT_PING_INTERVAL; }  // Ping interval for RegisterApplicationRecoveryCallback

  00000	55		 push	 ebp
  00001	8b ec		 mov	 ebp, esp
  00003	81 ec cc 00 00
	00		 sub	 esp, 204		; 000000ccH
  00009	53		 push	 ebx
  0000a	56		 push	 esi
  0000b	57		 push	 edi
  0000c	51		 push	 ecx
  0000d	8d 7d f4	 lea	 edi, DWORD PTR [ebp-12]
  00010	6a 03		 push	 3
  00012	59		 pop	 ecx
  00013	b8 cc cc cc cc	 mov	 eax, -858993460		; ccccccccH
  00018	f3 ab		 rep stosd
  0001a	59		 pop	 ecx
  0001b	89 4d f8	 mov	 DWORD PTR _this$[ebp], ecx
  0001e	b9 00 00 00 00	 mov	 ecx, OFFSET __1F006E5A_afxwin@h
  00023	e8 00 00 00 00	 call	 @__CheckForDebuggerJustMyCode@4
  00028	b8 88 13 00 00	 mov	 eax, 5000		; 00001388H
  0002d	5f		 pop	 edi
  0002e	5e		 pop	 esi
  0002f	5b		 pop	 ebx
  00030	81 c4 cc 00 00
	00		 add	 esp, 204		; 000000ccH
  00036	3b ec		 cmp	 ebp, esp
  00038	e8 00 00 00 00	 call	 __RTC_CheckEsp
  0003d	c9		 leave
  0003e	c3		 ret	 0
?GetApplicationRecoveryPingInterval@CWinApp@@UAEKXZ ENDP ; CWinApp::GetApplicationRecoveryPingInterval
_TEXT	ENDS
; Function compile flags: /Odsp /RTCsu /ZI
; File C:\Program Files\Microsoft Visual Studio\2022\Enterprise\VC\Tools\MSVC\14.34.31933\atlmfc\include\afxwin.h
;	COMDAT ?GetApplicationRecoveryParameter@CWinApp@@UAEPAXXZ
_TEXT	SEGMENT
_this$ = -8						; size = 4
?GetApplicationRecoveryParameter@CWinApp@@UAEPAXXZ PROC	; CWinApp::GetApplicationRecoveryParameter, COMDAT
; _this$ = ecx

; 5369 : 	virtual LPVOID GetApplicationRecoveryParameter() { return NULL; }  // Parameter to be passed along to RegisterApplicationRecoveryCallback

  00000	55		 push	 ebp
  00001	8b ec		 mov	 ebp, esp
  00003	81 ec cc 00 00
	00		 sub	 esp, 204		; 000000ccH
  00009	53		 push	 ebx
  0000a	56		 push	 esi
  0000b	57		 push	 edi
  0000c	51		 push	 ecx
  0000d	8d 7d f4	 lea	 edi, DWORD PTR [ebp-12]
  00010	6a 03		 push	 3
  00012	59		 pop	 ecx
  00013	b8 cc cc cc cc	 mov	 eax, -858993460		; ccccccccH
  00018	f3 ab		 rep stosd
  0001a	59		 pop	 ecx
  0001b	89 4d f8	 mov	 DWORD PTR _this$[ebp], ecx
  0001e	b9 00 00 00 00	 mov	 ecx, OFFSET __1F006E5A_afxwin@h
  00023	e8 00 00 00 00	 call	 @__CheckForDebuggerJustMyCode@4
  00028	33 c0		 xor	 eax, eax
  0002a	5f		 pop	 edi
  0002b	5e		 pop	 esi
  0002c	5b		 pop	 ebx
  0002d	81 c4 cc 00 00
	00		 add	 esp, 204		; 000000ccH
  00033	3b ec		 cmp	 ebp, esp
  00035	e8 00 00 00 00	 call	 __RTC_CheckEsp
  0003a	c9		 leave
  0003b	c3		 ret	 0
?GetApplicationRecoveryParameter@CWinApp@@UAEPAXXZ ENDP	; CWinApp::GetApplicationRecoveryParameter
_TEXT	ENDS
; Function compile flags: /Odsp /RTCsu /ZI
; File C:\Program Files\Microsoft Visual Studio\2022\Enterprise\VC\Tools\MSVC\14.34.31933\atlmfc\include\afxwin.h
;	COMDAT ?GetApplicationRestartFlags@CWinApp@@UAEKXZ
_TEXT	SEGMENT
_this$ = -8						; size = 4
?GetApplicationRestartFlags@CWinApp@@UAEKXZ PROC	; CWinApp::GetApplicationRestartFlags, COMDAT
; _this$ = ecx

; 5368 : 	virtual DWORD GetApplicationRestartFlags() { return 0; }  // Flags for RegisterApplicationRestart: default is none of RESTART_NO_CRASH/RESTART_NO_HANG/RESTART_NO_PATCH/RESTART_NO_REBOOT

  00000	55		 push	 ebp
  00001	8b ec		 mov	 ebp, esp
  00003	81 ec cc 00 00
	00		 sub	 esp, 204		; 000000ccH
  00009	53		 push	 ebx
  0000a	56		 push	 esi
  0000b	57		 push	 edi
  0000c	51		 push	 ecx
  0000d	8d 7d f4	 lea	 edi, DWORD PTR [ebp-12]
  00010	6a 03		 push	 3
  00012	59		 pop	 ecx
  00013	b8 cc cc cc cc	 mov	 eax, -858993460		; ccccccccH
  00018	f3 ab		 rep stosd
  0001a	59		 pop	 ecx
  0001b	89 4d f8	 mov	 DWORD PTR _this$[ebp], ecx
  0001e	b9 00 00 00 00	 mov	 ecx, OFFSET __1F006E5A_afxwin@h
  00023	e8 00 00 00 00	 call	 @__CheckForDebuggerJustMyCode@4
  00028	33 c0		 xor	 eax, eax
  0002a	5f		 pop	 edi
  0002b	5e		 pop	 esi
  0002c	5b		 pop	 ebx
  0002d	81 c4 cc 00 00
	00		 add	 esp, 204		; 000000ccH
  00033	3b ec		 cmp	 ebp, esp
  00035	e8 00 00 00 00	 call	 __RTC_CheckEsp
  0003a	c9		 leave
  0003b	c3		 ret	 0
?GetApplicationRestartFlags@CWinApp@@UAEKXZ ENDP	; CWinApp::GetApplicationRestartFlags
_TEXT	ENDS
; Function compile flags: /Odsp /RTCsu /ZI
; File C:\Program Files\Microsoft Visual Studio\2022\Enterprise\VC\Tools\MSVC\14.34.31933\atlmfc\include\afxwin.h
;	COMDAT ?RestoreAutosavedFilesAtRestart@CWinApp@@UBEHXZ
_TEXT	SEGMENT
_this$ = -8						; size = 4
?RestoreAutosavedFilesAtRestart@CWinApp@@UBEHXZ PROC	; CWinApp::RestoreAutosavedFilesAtRestart, COMDAT
; _this$ = ecx

; 5366 : 	virtual BOOL RestoreAutosavedFilesAtRestart() const { return m_dwRestartManagerSupportFlags & AFX_RESTART_MANAGER_RESTORE_AUTOSAVED_FILES; }

  00000	55		 push	 ebp
  00001	8b ec		 mov	 ebp, esp
  00003	81 ec cc 00 00
	00		 sub	 esp, 204		; 000000ccH
  00009	53		 push	 ebx
  0000a	56		 push	 esi
  0000b	57		 push	 edi
  0000c	51		 push	 ecx
  0000d	8d 7d f4	 lea	 edi, DWORD PTR [ebp-12]
  00010	6a 03		 push	 3
  00012	59		 pop	 ecx
  00013	b8 cc cc cc cc	 mov	 eax, -858993460		; ccccccccH
  00018	f3 ab		 rep stosd
  0001a	59		 pop	 ecx
  0001b	89 4d f8	 mov	 DWORD PTR _this$[ebp], ecx
  0001e	b9 00 00 00 00	 mov	 ecx, OFFSET __1F006E5A_afxwin@h
  00023	e8 00 00 00 00	 call	 @__CheckForDebuggerJustMyCode@4
  00028	8b 45 f8	 mov	 eax, DWORD PTR _this$[ebp]
  0002b	8b 80 ac 00 00
	00		 mov	 eax, DWORD PTR [eax+172]
  00031	83 e0 20	 and	 eax, 32			; 00000020H
  00034	5f		 pop	 edi
  00035	5e		 pop	 esi
  00036	5b		 pop	 ebx
  00037	81 c4 cc 00 00
	00		 add	 esp, 204		; 000000ccH
  0003d	3b ec		 cmp	 ebp, esp
  0003f	e8 00 00 00 00	 call	 __RTC_CheckEsp
  00044	c9		 leave
  00045	c3		 ret	 0
?RestoreAutosavedFilesAtRestart@CWinApp@@UBEHXZ ENDP	; CWinApp::RestoreAutosavedFilesAtRestart
_TEXT	ENDS
; Function compile flags: /Odsp /RTCsu /ZI
; File C:\Program Files\Microsoft Visual Studio\2022\Enterprise\VC\Tools\MSVC\14.34.31933\atlmfc\include\afxwin.h
;	COMDAT ?ReopenPreviousFilesAtRestart@CWinApp@@UBEHXZ
_TEXT	SEGMENT
_this$ = -8						; size = 4
?ReopenPreviousFilesAtRestart@CWinApp@@UBEHXZ PROC	; CWinApp::ReopenPreviousFilesAtRestart, COMDAT
; _this$ = ecx

; 5365 : 	virtual BOOL ReopenPreviousFilesAtRestart() const { return m_dwRestartManagerSupportFlags & AFX_RESTART_MANAGER_REOPEN_PREVIOUS_FILES; }

  00000	55		 push	 ebp
  00001	8b ec		 mov	 ebp, esp
  00003	81 ec cc 00 00
	00		 sub	 esp, 204		; 000000ccH
  00009	53		 push	 ebx
  0000a	56		 push	 esi
  0000b	57		 push	 edi
  0000c	51		 push	 ecx
  0000d	8d 7d f4	 lea	 edi, DWORD PTR [ebp-12]
  00010	6a 03		 push	 3
  00012	59		 pop	 ecx
  00013	b8 cc cc cc cc	 mov	 eax, -858993460		; ccccccccH
  00018	f3 ab		 rep stosd
  0001a	59		 pop	 ecx
  0001b	89 4d f8	 mov	 DWORD PTR _this$[ebp], ecx
  0001e	b9 00 00 00 00	 mov	 ecx, OFFSET __1F006E5A_afxwin@h
  00023	e8 00 00 00 00	 call	 @__CheckForDebuggerJustMyCode@4
  00028	8b 45 f8	 mov	 eax, DWORD PTR _this$[ebp]
  0002b	8b 80 ac 00 00
	00		 mov	 eax, DWORD PTR [eax+172]
  00031	83 e0 10	 and	 eax, 16			; 00000010H
  00034	5f		 pop	 edi
  00035	5e		 pop	 esi
  00036	5b		 pop	 ebx
  00037	81 c4 cc 00 00
	00		 add	 esp, 204		; 000000ccH
  0003d	3b ec		 cmp	 ebp, esp
  0003f	e8 00 00 00 00	 call	 __RTC_CheckEsp
  00044	c9		 leave
  00045	c3		 ret	 0
?ReopenPreviousFilesAtRestart@CWinApp@@UBEHXZ ENDP	; CWinApp::ReopenPreviousFilesAtRestart
_TEXT	ENDS
; Function compile flags: /Odsp /RTCsu /ZI
; File C:\Program Files\Microsoft Visual Studio\2022\Enterprise\VC\Tools\MSVC\14.34.31933\atlmfc\include\afxwin.h
;	COMDAT ?SupportsAutosaveAtInterval@CWinApp@@UBEHXZ
_TEXT	SEGMENT
_this$ = -8						; size = 4
?SupportsAutosaveAtInterval@CWinApp@@UBEHXZ PROC	; CWinApp::SupportsAutosaveAtInterval, COMDAT
; _this$ = ecx

; 5364 : 	virtual BOOL SupportsAutosaveAtInterval() const { return m_dwRestartManagerSupportFlags & AFX_RESTART_MANAGER_AUTOSAVE_AT_INTERVAL; }

  00000	55		 push	 ebp
  00001	8b ec		 mov	 ebp, esp
  00003	81 ec cc 00 00
	00		 sub	 esp, 204		; 000000ccH
  00009	53		 push	 ebx
  0000a	56		 push	 esi
  0000b	57		 push	 edi
  0000c	51		 push	 ecx
  0000d	8d 7d f4	 lea	 edi, DWORD PTR [ebp-12]
  00010	6a 03		 push	 3
  00012	59		 pop	 ecx
  00013	b8 cc cc cc cc	 mov	 eax, -858993460		; ccccccccH
  00018	f3 ab		 rep stosd
  0001a	59		 pop	 ecx
  0001b	89 4d f8	 mov	 DWORD PTR _this$[ebp], ecx
  0001e	b9 00 00 00 00	 mov	 ecx, OFFSET __1F006E5A_afxwin@h
  00023	e8 00 00 00 00	 call	 @__CheckForDebuggerJustMyCode@4
  00028	8b 45 f8	 mov	 eax, DWORD PTR _this$[ebp]
  0002b	8b 80 ac 00 00
	00		 mov	 eax, DWORD PTR [eax+172]
  00031	83 e0 08	 and	 eax, 8
  00034	5f		 pop	 edi
  00035	5e		 pop	 esi
  00036	5b		 pop	 ebx
  00037	81 c4 cc 00 00
	00		 add	 esp, 204		; 000000ccH
  0003d	3b ec		 cmp	 ebp, esp
  0003f	e8 00 00 00 00	 call	 __RTC_CheckEsp
  00044	c9		 leave
  00045	c3		 ret	 0
?SupportsAutosaveAtInterval@CWinApp@@UBEHXZ ENDP	; CWinApp::SupportsAutosaveAtInterval
_TEXT	ENDS
; Function compile flags: /Odsp /RTCsu /ZI
; File C:\Program Files\Microsoft Visual Studio\2022\Enterprise\VC\Tools\MSVC\14.34.31933\atlmfc\include\afxwin.h
;	COMDAT ?SupportsAutosaveAtRestart@CWinApp@@UBEHXZ
_TEXT	SEGMENT
_this$ = -8						; size = 4
?SupportsAutosaveAtRestart@CWinApp@@UBEHXZ PROC		; CWinApp::SupportsAutosaveAtRestart, COMDAT
; _this$ = ecx

; 5363 : 	virtual BOOL SupportsAutosaveAtRestart() const { return m_dwRestartManagerSupportFlags & AFX_RESTART_MANAGER_AUTOSAVE_AT_RESTART; }

  00000	55		 push	 ebp
  00001	8b ec		 mov	 ebp, esp
  00003	81 ec cc 00 00
	00		 sub	 esp, 204		; 000000ccH
  00009	53		 push	 ebx
  0000a	56		 push	 esi
  0000b	57		 push	 edi
  0000c	51		 push	 ecx
  0000d	8d 7d f4	 lea	 edi, DWORD PTR [ebp-12]
  00010	6a 03		 push	 3
  00012	59		 pop	 ecx
  00013	b8 cc cc cc cc	 mov	 eax, -858993460		; ccccccccH
  00018	f3 ab		 rep stosd
  0001a	59		 pop	 ecx
  0001b	89 4d f8	 mov	 DWORD PTR _this$[ebp], ecx
  0001e	b9 00 00 00 00	 mov	 ecx, OFFSET __1F006E5A_afxwin@h
  00023	e8 00 00 00 00	 call	 @__CheckForDebuggerJustMyCode@4
  00028	8b 45 f8	 mov	 eax, DWORD PTR _this$[ebp]
  0002b	8b 80 ac 00 00
	00		 mov	 eax, DWORD PTR [eax+172]
  00031	83 e0 04	 and	 eax, 4
  00034	5f		 pop	 edi
  00035	5e		 pop	 esi
  00036	5b		 pop	 ebx
  00037	81 c4 cc 00 00
	00		 add	 esp, 204		; 000000ccH
  0003d	3b ec		 cmp	 ebp, esp
  0003f	e8 00 00 00 00	 call	 __RTC_CheckEsp
  00044	c9		 leave
  00045	c3		 ret	 0
?SupportsAutosaveAtRestart@CWinApp@@UBEHXZ ENDP		; CWinApp::SupportsAutosaveAtRestart
_TEXT	ENDS
; Function compile flags: /Odsp /RTCsu /ZI
; File C:\Program Files\Microsoft Visual Studio\2022\Enterprise\VC\Tools\MSVC\14.34.31933\atlmfc\include\afxwin.h
;	COMDAT ?SupportsApplicationRecovery@CWinApp@@UBEHXZ
_TEXT	SEGMENT
_this$ = -8						; size = 4
?SupportsApplicationRecovery@CWinApp@@UBEHXZ PROC	; CWinApp::SupportsApplicationRecovery, COMDAT
; _this$ = ecx

; 5362 : 	virtual BOOL SupportsApplicationRecovery() const { return m_dwRestartManagerSupportFlags & AFX_RESTART_MANAGER_SUPPORT_RECOVERY; }

  00000	55		 push	 ebp
  00001	8b ec		 mov	 ebp, esp
  00003	81 ec cc 00 00
	00		 sub	 esp, 204		; 000000ccH
  00009	53		 push	 ebx
  0000a	56		 push	 esi
  0000b	57		 push	 edi
  0000c	51		 push	 ecx
  0000d	8d 7d f4	 lea	 edi, DWORD PTR [ebp-12]
  00010	6a 03		 push	 3
  00012	59		 pop	 ecx
  00013	b8 cc cc cc cc	 mov	 eax, -858993460		; ccccccccH
  00018	f3 ab		 rep stosd
  0001a	59		 pop	 ecx
  0001b	89 4d f8	 mov	 DWORD PTR _this$[ebp], ecx
  0001e	b9 00 00 00 00	 mov	 ecx, OFFSET __1F006E5A_afxwin@h
  00023	e8 00 00 00 00	 call	 @__CheckForDebuggerJustMyCode@4
  00028	8b 45 f8	 mov	 eax, DWORD PTR _this$[ebp]
  0002b	8b 80 ac 00 00
	00		 mov	 eax, DWORD PTR [eax+172]
  00031	83 e0 02	 and	 eax, 2
  00034	5f		 pop	 edi
  00035	5e		 pop	 esi
  00036	5b		 pop	 ebx
  00037	81 c4 cc 00 00
	00		 add	 esp, 204		; 000000ccH
  0003d	3b ec		 cmp	 ebp, esp
  0003f	e8 00 00 00 00	 call	 __RTC_CheckEsp
  00044	c9		 leave
  00045	c3		 ret	 0
?SupportsApplicationRecovery@CWinApp@@UBEHXZ ENDP	; CWinApp::SupportsApplicationRecovery
_TEXT	ENDS
; Function compile flags: /Odsp /RTCsu /ZI
; File C:\Program Files\Microsoft Visual Studio\2022\Enterprise\VC\Tools\MSVC\14.34.31933\atlmfc\include\afxwin.h
;	COMDAT ?SupportsRestartManager@CWinApp@@UBEHXZ
_TEXT	SEGMENT
_this$ = -8						; size = 4
?SupportsRestartManager@CWinApp@@UBEHXZ PROC		; CWinApp::SupportsRestartManager, COMDAT
; _this$ = ecx

; 5361 : 	virtual BOOL SupportsRestartManager() const { return m_dwRestartManagerSupportFlags & AFX_RESTART_MANAGER_SUPPORT_RESTART; }

  00000	55		 push	 ebp
  00001	8b ec		 mov	 ebp, esp
  00003	81 ec cc 00 00
	00		 sub	 esp, 204		; 000000ccH
  00009	53		 push	 ebx
  0000a	56		 push	 esi
  0000b	57		 push	 edi
  0000c	51		 push	 ecx
  0000d	8d 7d f4	 lea	 edi, DWORD PTR [ebp-12]
  00010	6a 03		 push	 3
  00012	59		 pop	 ecx
  00013	b8 cc cc cc cc	 mov	 eax, -858993460		; ccccccccH
  00018	f3 ab		 rep stosd
  0001a	59		 pop	 ecx
  0001b	89 4d f8	 mov	 DWORD PTR _this$[ebp], ecx
  0001e	b9 00 00 00 00	 mov	 ecx, OFFSET __1F006E5A_afxwin@h
  00023	e8 00 00 00 00	 call	 @__CheckForDebuggerJustMyCode@4
  00028	8b 45 f8	 mov	 eax, DWORD PTR _this$[ebp]
  0002b	8b 80 ac 00 00
	00		 mov	 eax, DWORD PTR [eax+172]
  00031	83 e0 01	 and	 eax, 1
  00034	5f		 pop	 edi
  00035	5e		 pop	 esi
  00036	5b		 pop	 ebx
  00037	81 c4 cc 00 00
	00		 add	 esp, 204		; 000000ccH
  0003d	3b ec		 cmp	 ebp, esp
  0003f	e8 00 00 00 00	 call	 __RTC_CheckEsp
  00044	c9		 leave
  00045	c3		 ret	 0
?SupportsRestartManager@CWinApp@@UBEHXZ ENDP		; CWinApp::SupportsRestartManager
_TEXT	ENDS
; Function compile flags: /Odsp /RTCsu /ZI
; File C:\Program Files\Microsoft Visual Studio\2022\Enterprise\VC\Tools\MSVC\14.34.31933\atlmfc\include\atltrace.h
;	COMDAT ??RCTraceFileAndLineInfo@ATL@@QBAXHIPBDZZ
_TEXT	SEGMENT
_ptr$ = -36						; size = 4
_ple$ = -24						; size = 4
__$ArrayPad$ = -16					; size = 4
__$EHRec$ = -12						; size = 12
_this$ = 8						; size = 4
_dwCategory$ = 12					; size = 4
_nLevel$ = 16						; size = 4
_pszFmt$ = 20						; size = 4
??RCTraceFileAndLineInfo@ATL@@QBAXHIPBDZZ PROC		; ATL::CTraceFileAndLineInfo::operator(), COMDAT

; 421  : 	{

  00000	55		 push	 ebp
  00001	8b ec		 mov	 ebp, esp
  00003	6a ff		 push	 -1
  00005	68 00 00 00 00	 push	 __ehhandler$??RCTraceFileAndLineInfo@ATL@@QBAXHIPBDZZ
  0000a	64 a1 00 00 00
	00		 mov	 eax, DWORD PTR fs:0
  00010	50		 push	 eax
  00011	81 ec e8 00 00
	00		 sub	 esp, 232		; 000000e8H
  00017	53		 push	 ebx
  00018	56		 push	 esi
  00019	57		 push	 edi
  0001a	8d 7d cc	 lea	 edi, DWORD PTR [ebp-52]
  0001d	6a 0a		 push	 10			; 0000000aH
  0001f	59		 pop	 ecx
  00020	b8 cc cc cc cc	 mov	 eax, -858993460		; ccccccccH
  00025	f3 ab		 rep stosd
  00027	a1 00 00 00 00	 mov	 eax, DWORD PTR ___security_cookie
  0002c	33 c5		 xor	 eax, ebp
  0002e	89 45 f0	 mov	 DWORD PTR __$ArrayPad$[ebp], eax
  00031	50		 push	 eax
  00032	8d 45 f4	 lea	 eax, DWORD PTR __$EHRec$[ebp]
  00035	64 a3 00 00 00
	00		 mov	 DWORD PTR fs:0, eax
  0003b	b9 00 00 00 00	 mov	 ecx, OFFSET __63F83F46_atltrace@h
  00040	e8 00 00 00 00	 call	 @__CheckForDebuggerJustMyCode@4

; 422  : 		CPreserveLastError ple;

  00045	8d 4d e8	 lea	 ecx, DWORD PTR _ple$[ebp]
  00048	e8 00 00 00 00	 call	 ??0CPreserveLastError@ATL@@QAE@XZ ; ATL::CPreserveLastError::CPreserveLastError
  0004d	83 65 fc 00	 and	 DWORD PTR __$EHRec$[ebp+8], 0

; 423  : 		va_list ptr; va_start(ptr, pszFmt);

  00051	8d 45 18	 lea	 eax, DWORD PTR _pszFmt$[ebp+4]
  00054	89 45 dc	 mov	 DWORD PTR _ptr$[ebp], eax

; 424  : 		ATL::CTrace::TraceV(m_pszFileName, m_nLineNo, dwCategory, nLevel, pszFmt, ptr);

  00057	ff 75 dc	 push	 DWORD PTR _ptr$[ebp]
  0005a	ff 75 14	 push	 DWORD PTR _pszFmt$[ebp]
  0005d	ff 75 10	 push	 DWORD PTR _nLevel$[ebp]
  00060	ff 75 0c	 push	 DWORD PTR _dwCategory$[ebp]
  00063	8b 45 08	 mov	 eax, DWORD PTR _this$[ebp]
  00066	ff 70 04	 push	 DWORD PTR [eax+4]
  00069	8b 45 08	 mov	 eax, DWORD PTR _this$[ebp]
  0006c	ff 30		 push	 DWORD PTR [eax]
  0006e	e8 00 00 00 00	 call	 ?TraceV@CTrace@ATL@@SAXPBDHII0PAD@Z ; ATL::CTrace::TraceV
  00073	83 c4 18	 add	 esp, 24			; 00000018H

; 425  : 		va_end(ptr);

  00076	83 65 dc 00	 and	 DWORD PTR _ptr$[ebp], 0

; 426  : 	}

  0007a	83 4d fc ff	 or	 DWORD PTR __$EHRec$[ebp+8], -1
  0007e	8d 4d e8	 lea	 ecx, DWORD PTR _ple$[ebp]
  00081	e8 00 00 00 00	 call	 ??1CPreserveLastError@ATL@@QAE@XZ ; ATL::CPreserveLastError::~CPreserveLastError
  00086	52		 push	 edx
  00087	8b cd		 mov	 ecx, ebp
  00089	50		 push	 eax
  0008a	8d 15 00 00 00
	00		 lea	 edx, DWORD PTR $LN7@operator
  00090	e8 00 00 00 00	 call	 @_RTC_CheckStackVars@8
  00095	58		 pop	 eax
  00096	5a		 pop	 edx
  00097	8b 4d f4	 mov	 ecx, DWORD PTR __$EHRec$[ebp]
  0009a	64 89 0d 00 00
	00 00		 mov	 DWORD PTR fs:0, ecx
  000a1	59		 pop	 ecx
  000a2	5f		 pop	 edi
  000a3	5e		 pop	 esi
  000a4	5b		 pop	 ebx
  000a5	8b 4d f0	 mov	 ecx, DWORD PTR __$ArrayPad$[ebp]
  000a8	33 cd		 xor	 ecx, ebp
  000aa	e8 00 00 00 00	 call	 @__security_check_cookie@4
  000af	81 c4 f4 00 00
	00		 add	 esp, 244		; 000000f4H
  000b5	3b ec		 cmp	 ebp, esp
  000b7	e8 00 00 00 00	 call	 __RTC_CheckEsp
  000bc	c9		 leave
  000bd	c3		 ret	 0
  000be	66 90		 npad	 2
$LN7@operator:
  000c0	01 00 00 00	 DD	 1
  000c4	00 00 00 00	 DD	 $LN6@operator
$LN6@operator:
  000c8	e8 ff ff ff	 DD	 -24			; ffffffe8H
  000cc	04 00 00 00	 DD	 4
  000d0	00 00 00 00	 DD	 $LN4@operator
$LN4@operator:
  000d4	70		 DB	 112			; 00000070H
  000d5	6c		 DB	 108			; 0000006cH
  000d6	65		 DB	 101			; 00000065H
  000d7	00		 DB	 0
_TEXT	ENDS
;	COMDAT text$x
text$x	SEGMENT
__unwindfunclet$??RCTraceFileAndLineInfo@ATL@@QBAXHIPBDZZ$0:
  00000	8d 4d e8	 lea	 ecx, DWORD PTR _ple$[ebp]
  00003	e9 00 00 00 00	 jmp	 ??1CPreserveLastError@ATL@@QAE@XZ ; ATL::CPreserveLastError::~CPreserveLastError
  00008	cc		 int	 3
  00009	cc		 int	 3
  0000a	cc		 int	 3
  0000b	cc		 int	 3
  0000c	cc		 int	 3
__ehhandler$??RCTraceFileAndLineInfo@ATL@@QBAXHIPBDZZ:
  0000d	90		 npad	 1
  0000e	90		 npad	 1
  0000f	8b 54 24 08	 mov	 edx, DWORD PTR [esp+8]
  00013	8d 42 0c	 lea	 eax, DWORD PTR [edx+12]
  00016	8b 8a 08 ff ff
	ff		 mov	 ecx, DWORD PTR [edx-248]
  0001c	33 c8		 xor	 ecx, eax
  0001e	e8 00 00 00 00	 call	 @__security_check_cookie@4
  00023	8b 4a fc	 mov	 ecx, DWORD PTR [edx-4]
  00026	33 c8		 xor	 ecx, eax
  00028	e8 00 00 00 00	 call	 @__security_check_cookie@4
  0002d	b8 00 00 00 00	 mov	 eax, OFFSET __ehfuncinfo$??RCTraceFileAndLineInfo@ATL@@QBAXHIPBDZZ
  00032	e9 00 00 00 00	 jmp	 ___CxxFrameHandler3
text$x	ENDS
??RCTraceFileAndLineInfo@ATL@@QBAXHIPBDZZ ENDP		; ATL::CTraceFileAndLineInfo::operator()
; Function compile flags: /Odsp /RTCsu /ZI
; File C:\Program Files\Microsoft Visual Studio\2022\Enterprise\VC\Tools\MSVC\14.34.31933\atlmfc\include\atltrace.h
;	COMDAT ??0CTraceFileAndLineInfo@ATL@@QAE@PBDH@Z
_TEXT	SEGMENT
_this$ = -8						; size = 4
_pszFileName$ = 8					; size = 4
_nLineNo$ = 12						; size = 4
??0CTraceFileAndLineInfo@ATL@@QAE@PBDH@Z PROC		; ATL::CTraceFileAndLineInfo::CTraceFileAndLineInfo, COMDAT
; _this$ = ecx

; 411  : 	{

  00000	55		 push	 ebp
  00001	8b ec		 mov	 ebp, esp
  00003	81 ec cc 00 00
	00		 sub	 esp, 204		; 000000ccH
  00009	53		 push	 ebx
  0000a	56		 push	 esi
  0000b	57		 push	 edi
  0000c	51		 push	 ecx
  0000d	8d 7d f4	 lea	 edi, DWORD PTR [ebp-12]
  00010	6a 03		 push	 3
  00012	59		 pop	 ecx
  00013	b8 cc cc cc cc	 mov	 eax, -858993460		; ccccccccH
  00018	f3 ab		 rep stosd
  0001a	59		 pop	 ecx
  0001b	89 4d f8	 mov	 DWORD PTR _this$[ebp], ecx
  0001e	b9 00 00 00 00	 mov	 ecx, OFFSET __63F83F46_atltrace@h
  00023	e8 00 00 00 00	 call	 @__CheckForDebuggerJustMyCode@4

; 410  : 		: m_pszFileName(pszFileName), m_nLineNo(nLineNo)

  00028	8b 45 f8	 mov	 eax, DWORD PTR _this$[ebp]
  0002b	8b 4d 08	 mov	 ecx, DWORD PTR _pszFileName$[ebp]
  0002e	89 08		 mov	 DWORD PTR [eax], ecx
  00030	8b 45 f8	 mov	 eax, DWORD PTR _this$[ebp]
  00033	8b 4d 0c	 mov	 ecx, DWORD PTR _nLineNo$[ebp]
  00036	89 48 04	 mov	 DWORD PTR [eax+4], ecx

; 412  : 	}

  00039	8b 45 f8	 mov	 eax, DWORD PTR _this$[ebp]
  0003c	5f		 pop	 edi
  0003d	5e		 pop	 esi
  0003e	5b		 pop	 ebx
  0003f	81 c4 cc 00 00
	00		 add	 esp, 204		; 000000ccH
  00045	3b ec		 cmp	 ebp, esp
  00047	e8 00 00 00 00	 call	 __RTC_CheckEsp
  0004c	c9		 leave
  0004d	c2 08 00	 ret	 8
??0CTraceFileAndLineInfo@ATL@@QAE@PBDH@Z ENDP		; ATL::CTraceFileAndLineInfo::CTraceFileAndLineInfo
_TEXT	ENDS
; Function compile flags: /Odsp /RTCsu /ZI
; File C:\Program Files\Microsoft Visual Studio\2022\Enterprise\VC\Tools\MSVC\14.34.31933\atlmfc\include\atltrace.h
;	COMDAT ??1CPreserveLastError@ATL@@QAE@XZ
_TEXT	SEGMENT
_this$ = -8						; size = 4
??1CPreserveLastError@ATL@@QAE@XZ PROC			; ATL::CPreserveLastError::~CPreserveLastError, COMDAT
; _this$ = ecx

; 396  : 	{

  00000	55		 push	 ebp
  00001	8b ec		 mov	 ebp, esp
  00003	81 ec cc 00 00
	00		 sub	 esp, 204		; 000000ccH
  00009	53		 push	 ebx
  0000a	56		 push	 esi
  0000b	57		 push	 edi
  0000c	51		 push	 ecx
  0000d	8d 7d f4	 lea	 edi, DWORD PTR [ebp-12]
  00010	6a 03		 push	 3
  00012	59		 pop	 ecx
  00013	b8 cc cc cc cc	 mov	 eax, -858993460		; ccccccccH
  00018	f3 ab		 rep stosd
  0001a	59		 pop	 ecx
  0001b	89 4d f8	 mov	 DWORD PTR _this$[ebp], ecx
  0001e	b9 00 00 00 00	 mov	 ecx, OFFSET __63F83F46_atltrace@h
  00023	e8 00 00 00 00	 call	 @__CheckForDebuggerJustMyCode@4

; 397  : 		SetLastError(m_dwLastError);

  00028	8b f4		 mov	 esi, esp
  0002a	8b 45 f8	 mov	 eax, DWORD PTR _this$[ebp]
  0002d	ff 30		 push	 DWORD PTR [eax]
  0002f	ff 15 00 00 00
	00		 call	 DWORD PTR __imp__SetLastError@4
  00035	3b f4		 cmp	 esi, esp
  00037	e8 00 00 00 00	 call	 __RTC_CheckEsp

; 398  : 	}

  0003c	5f		 pop	 edi
  0003d	5e		 pop	 esi
  0003e	5b		 pop	 ebx
  0003f	81 c4 cc 00 00
	00		 add	 esp, 204		; 000000ccH
  00045	3b ec		 cmp	 ebp, esp
  00047	e8 00 00 00 00	 call	 __RTC_CheckEsp
  0004c	c9		 leave
  0004d	c3		 ret	 0
??1CPreserveLastError@ATL@@QAE@XZ ENDP			; ATL::CPreserveLastError::~CPreserveLastError
_TEXT	ENDS
; Function compile flags: /Odsp /RTCsu /ZI
; File C:\Program Files\Microsoft Visual Studio\2022\Enterprise\VC\Tools\MSVC\14.34.31933\atlmfc\include\atltrace.h
;	COMDAT ??0CPreserveLastError@ATL@@QAE@XZ
_TEXT	SEGMENT
_this$ = -8						; size = 4
??0CPreserveLastError@ATL@@QAE@XZ PROC			; ATL::CPreserveLastError::CPreserveLastError, COMDAT
; _this$ = ecx

; 390  : 	CPreserveLastError()

  00000	55		 push	 ebp
  00001	8b ec		 mov	 ebp, esp
  00003	81 ec cc 00 00
	00		 sub	 esp, 204		; 000000ccH
  00009	53		 push	 ebx
  0000a	56		 push	 esi
  0000b	57		 push	 edi
  0000c	51		 push	 ecx
  0000d	8d 7d f4	 lea	 edi, DWORD PTR [ebp-12]
  00010	6a 03		 push	 3
  00012	59		 pop	 ecx
  00013	b8 cc cc cc cc	 mov	 eax, -858993460		; ccccccccH
  00018	f3 ab		 rep stosd
  0001a	59		 pop	 ecx
  0001b	89 4d f8	 mov	 DWORD PTR _this$[ebp], ecx
  0001e	b9 00 00 00 00	 mov	 ecx, OFFSET __63F83F46_atltrace@h
  00023	e8 00 00 00 00	 call	 @__CheckForDebuggerJustMyCode@4

; 391  : 	{
; 392  : 		m_dwLastError = GetLastError();

  00028	8b f4		 mov	 esi, esp
  0002a	ff 15 00 00 00
	00		 call	 DWORD PTR __imp__GetLastError@0
  00030	3b f4		 cmp	 esi, esp
  00032	e8 00 00 00 00	 call	 __RTC_CheckEsp
  00037	8b 4d f8	 mov	 ecx, DWORD PTR _this$[ebp]
  0003a	89 01		 mov	 DWORD PTR [ecx], eax

; 393  : 	}

  0003c	8b 45 f8	 mov	 eax, DWORD PTR _this$[ebp]
  0003f	5f		 pop	 edi
  00040	5e		 pop	 esi
  00041	5b		 pop	 ebx
  00042	81 c4 cc 00 00
	00		 add	 esp, 204		; 000000ccH
  00048	3b ec		 cmp	 ebp, esp
  0004a	e8 00 00 00 00	 call	 __RTC_CheckEsp
  0004f	c9		 leave
  00050	c3		 ret	 0
??0CPreserveLastError@ATL@@QAE@XZ ENDP			; ATL::CPreserveLastError::CPreserveLastError
_TEXT	ENDS
; Function compile flags: /Odsp /RTCsu /ZI
;	COMDAT ?__autoclassinit2@?$CHeapPtr@DVCCRTAllocator@ATL@@@ATL@@QAEXI@Z
_TEXT	SEGMENT
_this$ = -8						; size = 4
_classSize$ = 8						; size = 4
?__autoclassinit2@?$CHeapPtr@DVCCRTAllocator@ATL@@@ATL@@QAEXI@Z PROC ; ATL::CHeapPtr<char,ATL::CCRTAllocator>::__autoclassinit2, COMDAT
; _this$ = ecx
  00000	55		 push	 ebp
  00001	8b ec		 mov	 ebp, esp
  00003	81 ec cc 00 00
	00		 sub	 esp, 204		; 000000ccH
  00009	53		 push	 ebx
  0000a	56		 push	 esi
  0000b	57		 push	 edi
  0000c	51		 push	 ecx
  0000d	8d 7d f4	 lea	 edi, DWORD PTR [ebp-12]
  00010	6a 03		 push	 3
  00012	59		 pop	 ecx
  00013	b8 cc cc cc cc	 mov	 eax, -858993460		; ccccccccH
  00018	f3 ab		 rep stosd
  0001a	59		 pop	 ecx
  0001b	89 4d f8	 mov	 DWORD PTR _this$[ebp], ecx
  0001e	ff 75 08	 push	 DWORD PTR _classSize$[ebp]
  00021	6a 00		 push	 0
  00023	ff 75 f8	 push	 DWORD PTR _this$[ebp]
  00026	e8 00 00 00 00	 call	 _memset
  0002b	83 c4 0c	 add	 esp, 12			; 0000000cH
  0002e	5f		 pop	 edi
  0002f	5e		 pop	 esi
  00030	5b		 pop	 ebx
  00031	81 c4 cc 00 00
	00		 add	 esp, 204		; 000000ccH
  00037	3b ec		 cmp	 ebp, esp
  00039	e8 00 00 00 00	 call	 __RTC_CheckEsp
  0003e	c9		 leave
  0003f	c2 04 00	 ret	 4
?__autoclassinit2@?$CHeapPtr@DVCCRTAllocator@ATL@@@ATL@@QAEXI@Z ENDP ; ATL::CHeapPtr<char,ATL::CCRTAllocator>::__autoclassinit2
_TEXT	ENDS
; Function compile flags: /Odsp /RTCsu /ZI
;	COMDAT ??1?$CHeapPtr@DVCCRTAllocator@ATL@@@ATL@@QAE@XZ
_TEXT	SEGMENT
_this$ = -8						; size = 4
??1?$CHeapPtr@DVCCRTAllocator@ATL@@@ATL@@QAE@XZ PROC	; ATL::CHeapPtr<char,ATL::CCRTAllocator>::~CHeapPtr<char,ATL::CCRTAllocator>, COMDAT
; _this$ = ecx
  00000	55		 push	 ebp
  00001	8b ec		 mov	 ebp, esp
  00003	81 ec cc 00 00
	00		 sub	 esp, 204		; 000000ccH
  00009	53		 push	 ebx
  0000a	56		 push	 esi
  0000b	57		 push	 edi
  0000c	51		 push	 ecx
  0000d	8d 7d f4	 lea	 edi, DWORD PTR [ebp-12]
  00010	6a 03		 push	 3
  00012	59		 pop	 ecx
  00013	b8 cc cc cc cc	 mov	 eax, -858993460		; ccccccccH
  00018	f3 ab		 rep stosd
  0001a	59		 pop	 ecx
  0001b	89 4d f8	 mov	 DWORD PTR _this$[ebp], ecx
  0001e	8b 4d f8	 mov	 ecx, DWORD PTR _this$[ebp]
  00021	e8 00 00 00 00	 call	 ??1?$CHeapPtrBase@DVCCRTAllocator@ATL@@@ATL@@QAE@XZ ; ATL::CHeapPtrBase<char,ATL::CCRTAllocator>::~CHeapPtrBase<char,ATL::CCRTAllocator>
  00026	5f		 pop	 edi
  00027	5e		 pop	 esi
  00028	5b		 pop	 ebx
  00029	81 c4 cc 00 00
	00		 add	 esp, 204		; 000000ccH
  0002f	3b ec		 cmp	 ebp, esp
  00031	e8 00 00 00 00	 call	 __RTC_CheckEsp
  00036	c9		 leave
  00037	c3		 ret	 0
??1?$CHeapPtr@DVCCRTAllocator@ATL@@@ATL@@QAE@XZ ENDP	; ATL::CHeapPtr<char,ATL::CCRTAllocator>::~CHeapPtr<char,ATL::CCRTAllocator>
_TEXT	ENDS
; Function compile flags: /Odsp /RTCsu /ZI
; File C:\Program Files\Microsoft Visual Studio\2022\Enterprise\VC\Tools\MSVC\14.34.31933\atlmfc\include\atlalloc.h
;	COMDAT ?Allocate@?$CHeapPtr@DVCCRTAllocator@ATL@@@ATL@@QAE_NI@Z
_TEXT	SEGMENT
_nBytes$ = -24						; size = 4
_this$ = -12						; size = 4
__$ArrayPad$ = -4					; size = 4
_nElements$ = 8						; size = 4
?Allocate@?$CHeapPtr@DVCCRTAllocator@ATL@@@ATL@@QAE_NI@Z PROC ; ATL::CHeapPtr<char,ATL::CCRTAllocator>::Allocate, COMDAT
; _this$ = ecx

; 456  : 	{

  00000	55		 push	 ebp
  00001	8b ec		 mov	 ebp, esp
  00003	81 ec dc 00 00
	00		 sub	 esp, 220		; 000000dcH
  00009	53		 push	 ebx
  0000a	56		 push	 esi
  0000b	57		 push	 edi
  0000c	51		 push	 ecx
  0000d	8d 7d e4	 lea	 edi, DWORD PTR [ebp-28]
  00010	6a 07		 push	 7
  00012	59		 pop	 ecx
  00013	b8 cc cc cc cc	 mov	 eax, -858993460		; ccccccccH
  00018	f3 ab		 rep stosd
  0001a	59		 pop	 ecx
  0001b	a1 00 00 00 00	 mov	 eax, DWORD PTR ___security_cookie
  00020	33 c5		 xor	 eax, ebp
  00022	89 45 fc	 mov	 DWORD PTR __$ArrayPad$[ebp], eax
  00025	89 4d f4	 mov	 DWORD PTR _this$[ebp], ecx
  00028	b9 00 00 00 00	 mov	 ecx, OFFSET __D909E87F_atlalloc@h
  0002d	e8 00 00 00 00	 call	 @__CheckForDebuggerJustMyCode@4

; 457  : 		size_t nBytes=0;

  00032	83 65 e8 00	 and	 DWORD PTR _nBytes$[ebp], 0

; 458  : 		if(FAILED(::ATL::AtlMultiply(&nBytes, nElements, sizeof(T))))

  00036	6a 01		 push	 1
  00038	ff 75 08	 push	 DWORD PTR _nElements$[ebp]
  0003b	8d 45 e8	 lea	 eax, DWORD PTR _nBytes$[ebp]
  0003e	50		 push	 eax
  0003f	e8 00 00 00 00	 call	 ??$AtlMultiply@I@ATL@@YAJPAIII@Z ; ATL::AtlMultiply<unsigned int>
  00044	83 c4 0c	 add	 esp, 12			; 0000000cH
  00047	85 c0		 test	 eax, eax
  00049	7d 04		 jge	 SHORT $LN2@Allocate

; 459  : 		{
; 460  : 			return false;

  0004b	32 c0		 xor	 al, al
  0004d	eb 0b		 jmp	 SHORT $LN1@Allocate
$LN2@Allocate:

; 461  : 		}
; 462  : 		return this->AllocateBytes(nBytes);

  0004f	ff 75 e8	 push	 DWORD PTR _nBytes$[ebp]
  00052	8b 4d f4	 mov	 ecx, DWORD PTR _this$[ebp]
  00055	e8 00 00 00 00	 call	 ?AllocateBytes@?$CHeapPtrBase@DVCCRTAllocator@ATL@@@ATL@@QAE_NI@Z ; ATL::CHeapPtrBase<char,ATL::CCRTAllocator>::AllocateBytes
$LN1@Allocate:

; 463  : 	}

  0005a	52		 push	 edx
  0005b	8b cd		 mov	 ecx, ebp
  0005d	50		 push	 eax
  0005e	8d 15 00 00 00
	00		 lea	 edx, DWORD PTR $LN6@Allocate
  00064	e8 00 00 00 00	 call	 @_RTC_CheckStackVars@8
  00069	58		 pop	 eax
  0006a	5a		 pop	 edx
  0006b	5f		 pop	 edi
  0006c	5e		 pop	 esi
  0006d	5b		 pop	 ebx
  0006e	8b 4d fc	 mov	 ecx, DWORD PTR __$ArrayPad$[ebp]
  00071	33 cd		 xor	 ecx, ebp
  00073	e8 00 00 00 00	 call	 @__security_check_cookie@4
  00078	81 c4 dc 00 00
	00		 add	 esp, 220		; 000000dcH
  0007e	3b ec		 cmp	 ebp, esp
  00080	e8 00 00 00 00	 call	 __RTC_CheckEsp
  00085	c9		 leave
  00086	c2 04 00	 ret	 4
  00089	0f 1f 00	 npad	 3
$LN6@Allocate:
  0008c	01 00 00 00	 DD	 1
  00090	00 00 00 00	 DD	 $LN5@Allocate
$LN5@Allocate:
  00094	e8 ff ff ff	 DD	 -24			; ffffffe8H
  00098	04 00 00 00	 DD	 4
  0009c	00 00 00 00	 DD	 $LN4@Allocate
$LN4@Allocate:
  000a0	6e		 DB	 110			; 0000006eH
  000a1	42		 DB	 66			; 00000042H
  000a2	79		 DB	 121			; 00000079H
  000a3	74		 DB	 116			; 00000074H
  000a4	65		 DB	 101			; 00000065H
  000a5	73		 DB	 115			; 00000073H
  000a6	00		 DB	 0
?Allocate@?$CHeapPtr@DVCCRTAllocator@ATL@@@ATL@@QAE_NI@Z ENDP ; ATL::CHeapPtr<char,ATL::CCRTAllocator>::Allocate
_TEXT	ENDS
; Function compile flags: /Odsp /RTCsu /ZI
; File C:\Program Files\Microsoft Visual Studio\2022\Enterprise\VC\Tools\MSVC\14.34.31933\atlmfc\include\atlalloc.h
;	COMDAT ??0?$CHeapPtr@DVCCRTAllocator@ATL@@@ATL@@QAE@XZ
_TEXT	SEGMENT
_this$ = -8						; size = 4
??0?$CHeapPtr@DVCCRTAllocator@ATL@@@ATL@@QAE@XZ PROC	; ATL::CHeapPtr<char,ATL::CCRTAllocator>::CHeapPtr<char,ATL::CCRTAllocator>, COMDAT
; _this$ = ecx

; 435  : 	CHeapPtr() throw()

  00000	55		 push	 ebp
  00001	8b ec		 mov	 ebp, esp
  00003	81 ec cc 00 00
	00		 sub	 esp, 204		; 000000ccH
  00009	53		 push	 ebx
  0000a	56		 push	 esi
  0000b	57		 push	 edi
  0000c	51		 push	 ecx
  0000d	8d 7d f4	 lea	 edi, DWORD PTR [ebp-12]
  00010	6a 03		 push	 3
  00012	59		 pop	 ecx
  00013	b8 cc cc cc cc	 mov	 eax, -858993460		; ccccccccH
  00018	f3 ab		 rep stosd
  0001a	59		 pop	 ecx
  0001b	89 4d f8	 mov	 DWORD PTR _this$[ebp], ecx
  0001e	b9 00 00 00 00	 mov	 ecx, OFFSET __D909E87F_atlalloc@h
  00023	e8 00 00 00 00	 call	 @__CheckForDebuggerJustMyCode@4

; 436  : 	{

  00028	8b 4d f8	 mov	 ecx, DWORD PTR _this$[ebp]
  0002b	e8 00 00 00 00	 call	 ??0?$CHeapPtrBase@DVCCRTAllocator@ATL@@@ATL@@IAE@XZ ; ATL::CHeapPtrBase<char,ATL::CCRTAllocator>::CHeapPtrBase<char,ATL::CCRTAllocator>

; 437  : 	}

  00030	8b 45 f8	 mov	 eax, DWORD PTR _this$[ebp]
  00033	5f		 pop	 edi
  00034	5e		 pop	 esi
  00035	5b		 pop	 ebx
  00036	81 c4 cc 00 00
	00		 add	 esp, 204		; 000000ccH
  0003c	3b ec		 cmp	 ebp, esp
  0003e	e8 00 00 00 00	 call	 __RTC_CheckEsp
  00043	c9		 leave
  00044	c3		 ret	 0
??0?$CHeapPtr@DVCCRTAllocator@ATL@@@ATL@@QAE@XZ ENDP	; ATL::CHeapPtr<char,ATL::CCRTAllocator>::CHeapPtr<char,ATL::CCRTAllocator>
_TEXT	ENDS
; Function compile flags: /Odsp /RTCsu /ZI
; File C:\Program Files\Microsoft Visual Studio\2022\Enterprise\VC\Tools\MSVC\14.34.31933\atlmfc\include\atlalloc.h
;	COMDAT ?Free@?$CHeapPtrBase@DVCCRTAllocator@ATL@@@ATL@@QAEXXZ
_TEXT	SEGMENT
_this$ = -8						; size = 4
?Free@?$CHeapPtrBase@DVCCRTAllocator@ATL@@@ATL@@QAEXXZ PROC ; ATL::CHeapPtrBase<char,ATL::CCRTAllocator>::Free, COMDAT
; _this$ = ecx

; 408  : 	{

  00000	55		 push	 ebp
  00001	8b ec		 mov	 ebp, esp
  00003	81 ec cc 00 00
	00		 sub	 esp, 204		; 000000ccH
  00009	53		 push	 ebx
  0000a	56		 push	 esi
  0000b	57		 push	 edi
  0000c	51		 push	 ecx
  0000d	8d 7d f4	 lea	 edi, DWORD PTR [ebp-12]
  00010	6a 03		 push	 3
  00012	59		 pop	 ecx
  00013	b8 cc cc cc cc	 mov	 eax, -858993460		; ccccccccH
  00018	f3 ab		 rep stosd
  0001a	59		 pop	 ecx
  0001b	89 4d f8	 mov	 DWORD PTR _this$[ebp], ecx
  0001e	b9 00 00 00 00	 mov	 ecx, OFFSET __D909E87F_atlalloc@h
  00023	e8 00 00 00 00	 call	 @__CheckForDebuggerJustMyCode@4

; 409  : 		Allocator::Free(m_pData);

  00028	8b 45 f8	 mov	 eax, DWORD PTR _this$[ebp]
  0002b	ff 30		 push	 DWORD PTR [eax]
  0002d	e8 00 00 00 00	 call	 ?Free@CCRTAllocator@ATL@@SAXPAX@Z ; ATL::CCRTAllocator::Free
  00032	59		 pop	 ecx

; 410  : 		m_pData = NULL;

  00033	8b 45 f8	 mov	 eax, DWORD PTR _this$[ebp]
  00036	83 20 00	 and	 DWORD PTR [eax], 0

; 411  : 	}

  00039	5f		 pop	 edi
  0003a	5e		 pop	 esi
  0003b	5b		 pop	 ebx
  0003c	81 c4 cc 00 00
	00		 add	 esp, 204		; 000000ccH
  00042	3b ec		 cmp	 ebp, esp
  00044	e8 00 00 00 00	 call	 __RTC_CheckEsp
  00049	c9		 leave
  0004a	c3		 ret	 0
?Free@?$CHeapPtrBase@DVCCRTAllocator@ATL@@@ATL@@QAEXXZ ENDP ; ATL::CHeapPtrBase<char,ATL::CCRTAllocator>::Free
_TEXT	ENDS
; Function compile flags: /Odsp /RTCsu /ZI
; File C:\Program Files\Microsoft Visual Studio\2022\Enterprise\VC\Tools\MSVC\14.34.31933\atlmfc\include\atlalloc.h
;	COMDAT ?AllocateBytes@?$CHeapPtrBase@DVCCRTAllocator@ATL@@@ATL@@QAE_NI@Z
_TEXT	SEGMENT
_this$ = -8						; size = 4
_nBytes$ = 8						; size = 4
?AllocateBytes@?$CHeapPtrBase@DVCCRTAllocator@ATL@@@ATL@@QAE_NI@Z PROC ; ATL::CHeapPtrBase<char,ATL::CCRTAllocator>::AllocateBytes, COMDAT
; _this$ = ecx

; 382  : 	{

  00000	55		 push	 ebp
  00001	8b ec		 mov	 ebp, esp
  00003	81 ec cc 00 00
	00		 sub	 esp, 204		; 000000ccH
  00009	53		 push	 ebx
  0000a	56		 push	 esi
  0000b	57		 push	 edi
  0000c	51		 push	 ecx
  0000d	8d 7d f4	 lea	 edi, DWORD PTR [ebp-12]
  00010	6a 03		 push	 3
  00012	59		 pop	 ecx
  00013	b8 cc cc cc cc	 mov	 eax, -858993460		; ccccccccH
  00018	f3 ab		 rep stosd
  0001a	59		 pop	 ecx
  0001b	89 4d f8	 mov	 DWORD PTR _this$[ebp], ecx
  0001e	b9 00 00 00 00	 mov	 ecx, OFFSET __D909E87F_atlalloc@h
  00023	e8 00 00 00 00	 call	 @__CheckForDebuggerJustMyCode@4

; 383  : 		ATLASSERT(m_pData == NULL);

  00028	8b 45 f8	 mov	 eax, DWORD PTR _this$[ebp]
  0002b	83 38 00	 cmp	 DWORD PTR [eax], 0
  0002e	74 26		 je	 SHORT $LN4@AllocateBy
  00030	68 00 00 00 00	 push	 OFFSET ??_C@_1BK@NHECDDNK@?$AAm?$AA_?$AAp?$AAD?$AAa?$AAt?$AAa?$AA?5?$AA?$DN?$AA?$DN?$AA?5?$AA0@
  00035	68 00 00 00 00	 push	 OFFSET ??_C@_17CNPHIMPH@?$AA?$CF?$AAl?$AAs@
  0003a	6a 00		 push	 0
  0003c	68 7f 01 00 00	 push	 383			; 0000017fH
  00041	68 00 00 00 00	 push	 OFFSET ??_C@_1NK@JCBLKNMO@?$AAC?$AA?3?$AA?2?$AAP?$AAr?$AAo?$AAg?$AAr?$AAa?$AAm?$AA?5?$AAF?$AAi?$AAl?$AAe@
  00046	6a 02		 push	 2
  00048	e8 00 00 00 00	 call	 __CrtDbgReportW
  0004d	83 c4 18	 add	 esp, 24			; 00000018H
  00050	83 f8 01	 cmp	 eax, 1
  00053	75 01		 jne	 SHORT $LN4@AllocateBy
  00055	cc		 int	 3
$LN4@AllocateBy:

; 384  : 		m_pData = static_cast<T*>(Allocator::Allocate(nBytes));

  00056	ff 75 08	 push	 DWORD PTR _nBytes$[ebp]
  00059	e8 00 00 00 00	 call	 ?Allocate@CCRTAllocator@ATL@@SAPAXI@Z ; ATL::CCRTAllocator::Allocate
  0005e	59		 pop	 ecx
  0005f	8b 4d f8	 mov	 ecx, DWORD PTR _this$[ebp]
  00062	89 01		 mov	 DWORD PTR [ecx], eax

; 385  : 		if (m_pData == NULL)

  00064	8b 45 f8	 mov	 eax, DWORD PTR _this$[ebp]
  00067	83 38 00	 cmp	 DWORD PTR [eax], 0
  0006a	75 04		 jne	 SHORT $LN2@AllocateBy

; 386  : 			return false;

  0006c	32 c0		 xor	 al, al
  0006e	eb 02		 jmp	 SHORT $LN1@AllocateBy
$LN2@AllocateBy:

; 387  : 
; 388  : 		return true;

  00070	b0 01		 mov	 al, 1
$LN1@AllocateBy:

; 389  : 	}

  00072	5f		 pop	 edi
  00073	5e		 pop	 esi
  00074	5b		 pop	 ebx
  00075	81 c4 cc 00 00
	00		 add	 esp, 204		; 000000ccH
  0007b	3b ec		 cmp	 ebp, esp
  0007d	e8 00 00 00 00	 call	 __RTC_CheckEsp
  00082	c9		 leave
  00083	c2 04 00	 ret	 4
?AllocateBytes@?$CHeapPtrBase@DVCCRTAllocator@ATL@@@ATL@@QAE_NI@Z ENDP ; ATL::CHeapPtrBase<char,ATL::CCRTAllocator>::AllocateBytes
_TEXT	ENDS
; Function compile flags: /Odsp /RTCsu /ZI
; File C:\Program Files\Microsoft Visual Studio\2022\Enterprise\VC\Tools\MSVC\14.34.31933\atlmfc\include\atlalloc.h
;	COMDAT ??B?$CHeapPtrBase@DVCCRTAllocator@ATL@@@ATL@@QBEPADXZ
_TEXT	SEGMENT
_this$ = -8						; size = 4
??B?$CHeapPtrBase@DVCCRTAllocator@ATL@@@ATL@@QBEPADXZ PROC ; ATL::CHeapPtrBase<char,ATL::CCRTAllocator>::operator char *, COMDAT
; _this$ = ecx

; 364  : 	{

  00000	55		 push	 ebp
  00001	8b ec		 mov	 ebp, esp
  00003	81 ec cc 00 00
	00		 sub	 esp, 204		; 000000ccH
  00009	53		 push	 ebx
  0000a	56		 push	 esi
  0000b	57		 push	 edi
  0000c	51		 push	 ecx
  0000d	8d 7d f4	 lea	 edi, DWORD PTR [ebp-12]
  00010	6a 03		 push	 3
  00012	59		 pop	 ecx
  00013	b8 cc cc cc cc	 mov	 eax, -858993460		; ccccccccH
  00018	f3 ab		 rep stosd
  0001a	59		 pop	 ecx
  0001b	89 4d f8	 mov	 DWORD PTR _this$[ebp], ecx
  0001e	b9 00 00 00 00	 mov	 ecx, OFFSET __D909E87F_atlalloc@h
  00023	e8 00 00 00 00	 call	 @__CheckForDebuggerJustMyCode@4

; 365  : 		return m_pData;

  00028	8b 45 f8	 mov	 eax, DWORD PTR _this$[ebp]
  0002b	8b 00		 mov	 eax, DWORD PTR [eax]

; 366  : 	}

  0002d	5f		 pop	 edi
  0002e	5e		 pop	 esi
  0002f	5b		 pop	 ebx
  00030	81 c4 cc 00 00
	00		 add	 esp, 204		; 000000ccH
  00036	3b ec		 cmp	 ebp, esp
  00038	e8 00 00 00 00	 call	 __RTC_CheckEsp
  0003d	c9		 leave
  0003e	c3		 ret	 0
??B?$CHeapPtrBase@DVCCRTAllocator@ATL@@@ATL@@QBEPADXZ ENDP ; ATL::CHeapPtrBase<char,ATL::CCRTAllocator>::operator char *
_TEXT	ENDS
; Function compile flags: /Odsp /RTCsu /ZI
; File C:\Program Files\Microsoft Visual Studio\2022\Enterprise\VC\Tools\MSVC\14.34.31933\atlmfc\include\atlalloc.h
;	COMDAT ??1?$CHeapPtrBase@DVCCRTAllocator@ATL@@@ATL@@QAE@XZ
_TEXT	SEGMENT
_this$ = -8						; size = 4
??1?$CHeapPtrBase@DVCCRTAllocator@ATL@@@ATL@@QAE@XZ PROC ; ATL::CHeapPtrBase<char,ATL::CCRTAllocator>::~CHeapPtrBase<char,ATL::CCRTAllocator>, COMDAT
; _this$ = ecx

; 350  : 	{

  00000	55		 push	 ebp
  00001	8b ec		 mov	 ebp, esp
  00003	81 ec cc 00 00
	00		 sub	 esp, 204		; 000000ccH
  00009	53		 push	 ebx
  0000a	56		 push	 esi
  0000b	57		 push	 edi
  0000c	51		 push	 ecx
  0000d	8d 7d f4	 lea	 edi, DWORD PTR [ebp-12]
  00010	6a 03		 push	 3
  00012	59		 pop	 ecx
  00013	b8 cc cc cc cc	 mov	 eax, -858993460		; ccccccccH
  00018	f3 ab		 rep stosd
  0001a	59		 pop	 ecx
  0001b	89 4d f8	 mov	 DWORD PTR _this$[ebp], ecx
  0001e	b9 00 00 00 00	 mov	 ecx, OFFSET __D909E87F_atlalloc@h
  00023	e8 00 00 00 00	 call	 @__CheckForDebuggerJustMyCode@4

; 351  : 		Free();

  00028	8b 4d f8	 mov	 ecx, DWORD PTR _this$[ebp]
  0002b	e8 00 00 00 00	 call	 ?Free@?$CHeapPtrBase@DVCCRTAllocator@ATL@@@ATL@@QAEXXZ ; ATL::CHeapPtrBase<char,ATL::CCRTAllocator>::Free

; 352  : 	}

  00030	5f		 pop	 edi
  00031	5e		 pop	 esi
  00032	5b		 pop	 ebx
  00033	81 c4 cc 00 00
	00		 add	 esp, 204		; 000000ccH
  00039	3b ec		 cmp	 ebp, esp
  0003b	e8 00 00 00 00	 call	 __RTC_CheckEsp
  00040	c9		 leave
  00041	c3		 ret	 0
??1?$CHeapPtrBase@DVCCRTAllocator@ATL@@@ATL@@QAE@XZ ENDP ; ATL::CHeapPtrBase<char,ATL::CCRTAllocator>::~CHeapPtrBase<char,ATL::CCRTAllocator>
_TEXT	ENDS
; Function compile flags: /Odsp /RTCsu /ZI
; File C:\Program Files\Microsoft Visual Studio\2022\Enterprise\VC\Tools\MSVC\14.34.31933\atlmfc\include\atlalloc.h
;	COMDAT ??0?$CHeapPtrBase@DVCCRTAllocator@ATL@@@ATL@@IAE@XZ
_TEXT	SEGMENT
_this$ = -8						; size = 4
??0?$CHeapPtrBase@DVCCRTAllocator@ATL@@@ATL@@IAE@XZ PROC ; ATL::CHeapPtrBase<char,ATL::CCRTAllocator>::CHeapPtrBase<char,ATL::CCRTAllocator>, COMDAT
; _this$ = ecx

; 337  : 	{

  00000	55		 push	 ebp
  00001	8b ec		 mov	 ebp, esp
  00003	81 ec cc 00 00
	00		 sub	 esp, 204		; 000000ccH
  00009	53		 push	 ebx
  0000a	56		 push	 esi
  0000b	57		 push	 edi
  0000c	51		 push	 ecx
  0000d	8d 7d f4	 lea	 edi, DWORD PTR [ebp-12]
  00010	6a 03		 push	 3
  00012	59		 pop	 ecx
  00013	b8 cc cc cc cc	 mov	 eax, -858993460		; ccccccccH
  00018	f3 ab		 rep stosd
  0001a	59		 pop	 ecx
  0001b	89 4d f8	 mov	 DWORD PTR _this$[ebp], ecx
  0001e	b9 00 00 00 00	 mov	 ecx, OFFSET __D909E87F_atlalloc@h
  00023	e8 00 00 00 00	 call	 @__CheckForDebuggerJustMyCode@4

; 336  : 		m_pData(NULL)

  00028	8b 45 f8	 mov	 eax, DWORD PTR _this$[ebp]
  0002b	83 20 00	 and	 DWORD PTR [eax], 0

; 338  : 	}

  0002e	8b 45 f8	 mov	 eax, DWORD PTR _this$[ebp]
  00031	5f		 pop	 edi
  00032	5e		 pop	 esi
  00033	5b		 pop	 ebx
  00034	81 c4 cc 00 00
	00		 add	 esp, 204		; 000000ccH
  0003a	3b ec		 cmp	 ebp, esp
  0003c	e8 00 00 00 00	 call	 __RTC_CheckEsp
  00041	c9		 leave
  00042	c3		 ret	 0
??0?$CHeapPtrBase@DVCCRTAllocator@ATL@@@ATL@@IAE@XZ ENDP ; ATL::CHeapPtrBase<char,ATL::CCRTAllocator>::CHeapPtrBase<char,ATL::CCRTAllocator>
_TEXT	ENDS
; Function compile flags: /Odsp /RTCsu /ZI
;	COMDAT ?__autoclassinit2@?$CHeapPtr@_WVCCRTAllocator@ATL@@@ATL@@QAEXI@Z
_TEXT	SEGMENT
_this$ = -8						; size = 4
_classSize$ = 8						; size = 4
?__autoclassinit2@?$CHeapPtr@_WVCCRTAllocator@ATL@@@ATL@@QAEXI@Z PROC ; ATL::CHeapPtr<wchar_t,ATL::CCRTAllocator>::__autoclassinit2, COMDAT
; _this$ = ecx
  00000	55		 push	 ebp
  00001	8b ec		 mov	 ebp, esp
  00003	81 ec cc 00 00
	00		 sub	 esp, 204		; 000000ccH
  00009	53		 push	 ebx
  0000a	56		 push	 esi
  0000b	57		 push	 edi
  0000c	51		 push	 ecx
  0000d	8d 7d f4	 lea	 edi, DWORD PTR [ebp-12]
  00010	6a 03		 push	 3
  00012	59		 pop	 ecx
  00013	b8 cc cc cc cc	 mov	 eax, -858993460		; ccccccccH
  00018	f3 ab		 rep stosd
  0001a	59		 pop	 ecx
  0001b	89 4d f8	 mov	 DWORD PTR _this$[ebp], ecx
  0001e	ff 75 08	 push	 DWORD PTR _classSize$[ebp]
  00021	6a 00		 push	 0
  00023	ff 75 f8	 push	 DWORD PTR _this$[ebp]
  00026	e8 00 00 00 00	 call	 _memset
  0002b	83 c4 0c	 add	 esp, 12			; 0000000cH
  0002e	5f		 pop	 edi
  0002f	5e		 pop	 esi
  00030	5b		 pop	 ebx
  00031	81 c4 cc 00 00
	00		 add	 esp, 204		; 000000ccH
  00037	3b ec		 cmp	 ebp, esp
  00039	e8 00 00 00 00	 call	 __RTC_CheckEsp
  0003e	c9		 leave
  0003f	c2 04 00	 ret	 4
?__autoclassinit2@?$CHeapPtr@_WVCCRTAllocator@ATL@@@ATL@@QAEXI@Z ENDP ; ATL::CHeapPtr<wchar_t,ATL::CCRTAllocator>::__autoclassinit2
_TEXT	ENDS
; Function compile flags: /Odsp /RTCsu /ZI
;	COMDAT ??1?$CHeapPtr@_WVCCRTAllocator@ATL@@@ATL@@QAE@XZ
_TEXT	SEGMENT
_this$ = -8						; size = 4
??1?$CHeapPtr@_WVCCRTAllocator@ATL@@@ATL@@QAE@XZ PROC	; ATL::CHeapPtr<wchar_t,ATL::CCRTAllocator>::~CHeapPtr<wchar_t,ATL::CCRTAllocator>, COMDAT
; _this$ = ecx
  00000	55		 push	 ebp
  00001	8b ec		 mov	 ebp, esp
  00003	81 ec cc 00 00
	00		 sub	 esp, 204		; 000000ccH
  00009	53		 push	 ebx
  0000a	56		 push	 esi
  0000b	57		 push	 edi
  0000c	51		 push	 ecx
  0000d	8d 7d f4	 lea	 edi, DWORD PTR [ebp-12]
  00010	6a 03		 push	 3
  00012	59		 pop	 ecx
  00013	b8 cc cc cc cc	 mov	 eax, -858993460		; ccccccccH
  00018	f3 ab		 rep stosd
  0001a	59		 pop	 ecx
  0001b	89 4d f8	 mov	 DWORD PTR _this$[ebp], ecx
  0001e	8b 4d f8	 mov	 ecx, DWORD PTR _this$[ebp]
  00021	e8 00 00 00 00	 call	 ??1?$CHeapPtrBase@_WVCCRTAllocator@ATL@@@ATL@@QAE@XZ ; ATL::CHeapPtrBase<wchar_t,ATL::CCRTAllocator>::~CHeapPtrBase<wchar_t,ATL::CCRTAllocator>
  00026	5f		 pop	 edi
  00027	5e		 pop	 esi
  00028	5b		 pop	 ebx
  00029	81 c4 cc 00 00
	00		 add	 esp, 204		; 000000ccH
  0002f	3b ec		 cmp	 ebp, esp
  00031	e8 00 00 00 00	 call	 __RTC_CheckEsp
  00036	c9		 leave
  00037	c3		 ret	 0
??1?$CHeapPtr@_WVCCRTAllocator@ATL@@@ATL@@QAE@XZ ENDP	; ATL::CHeapPtr<wchar_t,ATL::CCRTAllocator>::~CHeapPtr<wchar_t,ATL::CCRTAllocator>
_TEXT	ENDS
; Function compile flags: /Odsp /RTCsu /ZI
; File C:\Program Files\Microsoft Visual Studio\2022\Enterprise\VC\Tools\MSVC\14.34.31933\atlmfc\include\atlalloc.h
;	COMDAT ?Allocate@?$CHeapPtr@_WVCCRTAllocator@ATL@@@ATL@@QAE_NI@Z
_TEXT	SEGMENT
_nBytes$ = -24						; size = 4
_this$ = -12						; size = 4
__$ArrayPad$ = -4					; size = 4
_nElements$ = 8						; size = 4
?Allocate@?$CHeapPtr@_WVCCRTAllocator@ATL@@@ATL@@QAE_NI@Z PROC ; ATL::CHeapPtr<wchar_t,ATL::CCRTAllocator>::Allocate, COMDAT
; _this$ = ecx

; 456  : 	{

  00000	55		 push	 ebp
  00001	8b ec		 mov	 ebp, esp
  00003	81 ec dc 00 00
	00		 sub	 esp, 220		; 000000dcH
  00009	53		 push	 ebx
  0000a	56		 push	 esi
  0000b	57		 push	 edi
  0000c	51		 push	 ecx
  0000d	8d 7d e4	 lea	 edi, DWORD PTR [ebp-28]
  00010	6a 07		 push	 7
  00012	59		 pop	 ecx
  00013	b8 cc cc cc cc	 mov	 eax, -858993460		; ccccccccH
  00018	f3 ab		 rep stosd
  0001a	59		 pop	 ecx
  0001b	a1 00 00 00 00	 mov	 eax, DWORD PTR ___security_cookie
  00020	33 c5		 xor	 eax, ebp
  00022	89 45 fc	 mov	 DWORD PTR __$ArrayPad$[ebp], eax
  00025	89 4d f4	 mov	 DWORD PTR _this$[ebp], ecx
  00028	b9 00 00 00 00	 mov	 ecx, OFFSET __D909E87F_atlalloc@h
  0002d	e8 00 00 00 00	 call	 @__CheckForDebuggerJustMyCode@4

; 457  : 		size_t nBytes=0;

  00032	83 65 e8 00	 and	 DWORD PTR _nBytes$[ebp], 0

; 458  : 		if(FAILED(::ATL::AtlMultiply(&nBytes, nElements, sizeof(T))))

  00036	6a 02		 push	 2
  00038	ff 75 08	 push	 DWORD PTR _nElements$[ebp]
  0003b	8d 45 e8	 lea	 eax, DWORD PTR _nBytes$[ebp]
  0003e	50		 push	 eax
  0003f	e8 00 00 00 00	 call	 ??$AtlMultiply@I@ATL@@YAJPAIII@Z ; ATL::AtlMultiply<unsigned int>
  00044	83 c4 0c	 add	 esp, 12			; 0000000cH
  00047	85 c0		 test	 eax, eax
  00049	7d 04		 jge	 SHORT $LN2@Allocate

; 459  : 		{
; 460  : 			return false;

  0004b	32 c0		 xor	 al, al
  0004d	eb 0b		 jmp	 SHORT $LN1@Allocate
$LN2@Allocate:

; 461  : 		}
; 462  : 		return this->AllocateBytes(nBytes);

  0004f	ff 75 e8	 push	 DWORD PTR _nBytes$[ebp]
  00052	8b 4d f4	 mov	 ecx, DWORD PTR _this$[ebp]
  00055	e8 00 00 00 00	 call	 ?AllocateBytes@?$CHeapPtrBase@_WVCCRTAllocator@ATL@@@ATL@@QAE_NI@Z ; ATL::CHeapPtrBase<wchar_t,ATL::CCRTAllocator>::AllocateBytes
$LN1@Allocate:

; 463  : 	}

  0005a	52		 push	 edx
  0005b	8b cd		 mov	 ecx, ebp
  0005d	50		 push	 eax
  0005e	8d 15 00 00 00
	00		 lea	 edx, DWORD PTR $LN6@Allocate
  00064	e8 00 00 00 00	 call	 @_RTC_CheckStackVars@8
  00069	58		 pop	 eax
  0006a	5a		 pop	 edx
  0006b	5f		 pop	 edi
  0006c	5e		 pop	 esi
  0006d	5b		 pop	 ebx
  0006e	8b 4d fc	 mov	 ecx, DWORD PTR __$ArrayPad$[ebp]
  00071	33 cd		 xor	 ecx, ebp
  00073	e8 00 00 00 00	 call	 @__security_check_cookie@4
  00078	81 c4 dc 00 00
	00		 add	 esp, 220		; 000000dcH
  0007e	3b ec		 cmp	 ebp, esp
  00080	e8 00 00 00 00	 call	 __RTC_CheckEsp
  00085	c9		 leave
  00086	c2 04 00	 ret	 4
  00089	0f 1f 00	 npad	 3
$LN6@Allocate:
  0008c	01 00 00 00	 DD	 1
  00090	00 00 00 00	 DD	 $LN5@Allocate
$LN5@Allocate:
  00094	e8 ff ff ff	 DD	 -24			; ffffffe8H
  00098	04 00 00 00	 DD	 4
  0009c	00 00 00 00	 DD	 $LN4@Allocate
$LN4@Allocate:
  000a0	6e		 DB	 110			; 0000006eH
  000a1	42		 DB	 66			; 00000042H
  000a2	79		 DB	 121			; 00000079H
  000a3	74		 DB	 116			; 00000074H
  000a4	65		 DB	 101			; 00000065H
  000a5	73		 DB	 115			; 00000073H
  000a6	00		 DB	 0
?Allocate@?$CHeapPtr@_WVCCRTAllocator@ATL@@@ATL@@QAE_NI@Z ENDP ; ATL::CHeapPtr<wchar_t,ATL::CCRTAllocator>::Allocate
_TEXT	ENDS
; Function compile flags: /Odsp /RTCsu /ZI
; File C:\Program Files\Microsoft Visual Studio\2022\Enterprise\VC\Tools\MSVC\14.34.31933\atlmfc\include\atlalloc.h
;	COMDAT ??0?$CHeapPtr@_WVCCRTAllocator@ATL@@@ATL@@QAE@XZ
_TEXT	SEGMENT
_this$ = -8						; size = 4
??0?$CHeapPtr@_WVCCRTAllocator@ATL@@@ATL@@QAE@XZ PROC	; ATL::CHeapPtr<wchar_t,ATL::CCRTAllocator>::CHeapPtr<wchar_t,ATL::CCRTAllocator>, COMDAT
; _this$ = ecx

; 435  : 	CHeapPtr() throw()

  00000	55		 push	 ebp
  00001	8b ec		 mov	 ebp, esp
  00003	81 ec cc 00 00
	00		 sub	 esp, 204		; 000000ccH
  00009	53		 push	 ebx
  0000a	56		 push	 esi
  0000b	57		 push	 edi
  0000c	51		 push	 ecx
  0000d	8d 7d f4	 lea	 edi, DWORD PTR [ebp-12]
  00010	6a 03		 push	 3
  00012	59		 pop	 ecx
  00013	b8 cc cc cc cc	 mov	 eax, -858993460		; ccccccccH
  00018	f3 ab		 rep stosd
  0001a	59		 pop	 ecx
  0001b	89 4d f8	 mov	 DWORD PTR _this$[ebp], ecx
  0001e	b9 00 00 00 00	 mov	 ecx, OFFSET __D909E87F_atlalloc@h
  00023	e8 00 00 00 00	 call	 @__CheckForDebuggerJustMyCode@4

; 436  : 	{

  00028	8b 4d f8	 mov	 ecx, DWORD PTR _this$[ebp]
  0002b	e8 00 00 00 00	 call	 ??0?$CHeapPtrBase@_WVCCRTAllocator@ATL@@@ATL@@IAE@XZ ; ATL::CHeapPtrBase<wchar_t,ATL::CCRTAllocator>::CHeapPtrBase<wchar_t,ATL::CCRTAllocator>

; 437  : 	}

  00030	8b 45 f8	 mov	 eax, DWORD PTR _this$[ebp]
  00033	5f		 pop	 edi
  00034	5e		 pop	 esi
  00035	5b		 pop	 ebx
  00036	81 c4 cc 00 00
	00		 add	 esp, 204		; 000000ccH
  0003c	3b ec		 cmp	 ebp, esp
  0003e	e8 00 00 00 00	 call	 __RTC_CheckEsp
  00043	c9		 leave
  00044	c3		 ret	 0
??0?$CHeapPtr@_WVCCRTAllocator@ATL@@@ATL@@QAE@XZ ENDP	; ATL::CHeapPtr<wchar_t,ATL::CCRTAllocator>::CHeapPtr<wchar_t,ATL::CCRTAllocator>
_TEXT	ENDS
; Function compile flags: /Odsp /RTCsu /ZI
; File C:\Program Files\Microsoft Visual Studio\2022\Enterprise\VC\Tools\MSVC\14.34.31933\atlmfc\include\atlalloc.h
;	COMDAT ?Free@?$CHeapPtrBase@_WVCCRTAllocator@ATL@@@ATL@@QAEXXZ
_TEXT	SEGMENT
_this$ = -8						; size = 4
?Free@?$CHeapPtrBase@_WVCCRTAllocator@ATL@@@ATL@@QAEXXZ PROC ; ATL::CHeapPtrBase<wchar_t,ATL::CCRTAllocator>::Free, COMDAT
; _this$ = ecx

; 408  : 	{

  00000	55		 push	 ebp
  00001	8b ec		 mov	 ebp, esp
  00003	81 ec cc 00 00
	00		 sub	 esp, 204		; 000000ccH
  00009	53		 push	 ebx
  0000a	56		 push	 esi
  0000b	57		 push	 edi
  0000c	51		 push	 ecx
  0000d	8d 7d f4	 lea	 edi, DWORD PTR [ebp-12]
  00010	6a 03		 push	 3
  00012	59		 pop	 ecx
  00013	b8 cc cc cc cc	 mov	 eax, -858993460		; ccccccccH
  00018	f3 ab		 rep stosd
  0001a	59		 pop	 ecx
  0001b	89 4d f8	 mov	 DWORD PTR _this$[ebp], ecx
  0001e	b9 00 00 00 00	 mov	 ecx, OFFSET __D909E87F_atlalloc@h
  00023	e8 00 00 00 00	 call	 @__CheckForDebuggerJustMyCode@4

; 409  : 		Allocator::Free(m_pData);

  00028	8b 45 f8	 mov	 eax, DWORD PTR _this$[ebp]
  0002b	ff 30		 push	 DWORD PTR [eax]
  0002d	e8 00 00 00 00	 call	 ?Free@CCRTAllocator@ATL@@SAXPAX@Z ; ATL::CCRTAllocator::Free
  00032	59		 pop	 ecx

; 410  : 		m_pData = NULL;

  00033	8b 45 f8	 mov	 eax, DWORD PTR _this$[ebp]
  00036	83 20 00	 and	 DWORD PTR [eax], 0

; 411  : 	}

  00039	5f		 pop	 edi
  0003a	5e		 pop	 esi
  0003b	5b		 pop	 ebx
  0003c	81 c4 cc 00 00
	00		 add	 esp, 204		; 000000ccH
  00042	3b ec		 cmp	 ebp, esp
  00044	e8 00 00 00 00	 call	 __RTC_CheckEsp
  00049	c9		 leave
  0004a	c3		 ret	 0
?Free@?$CHeapPtrBase@_WVCCRTAllocator@ATL@@@ATL@@QAEXXZ ENDP ; ATL::CHeapPtrBase<wchar_t,ATL::CCRTAllocator>::Free
_TEXT	ENDS
; Function compile flags: /Odsp /RTCsu /ZI
; File C:\Program Files\Microsoft Visual Studio\2022\Enterprise\VC\Tools\MSVC\14.34.31933\atlmfc\include\atlalloc.h
;	COMDAT ?AllocateBytes@?$CHeapPtrBase@_WVCCRTAllocator@ATL@@@ATL@@QAE_NI@Z
_TEXT	SEGMENT
_this$ = -8						; size = 4
_nBytes$ = 8						; size = 4
?AllocateBytes@?$CHeapPtrBase@_WVCCRTAllocator@ATL@@@ATL@@QAE_NI@Z PROC ; ATL::CHeapPtrBase<wchar_t,ATL::CCRTAllocator>::AllocateBytes, COMDAT
; _this$ = ecx

; 382  : 	{

  00000	55		 push	 ebp
  00001	8b ec		 mov	 ebp, esp
  00003	81 ec cc 00 00
	00		 sub	 esp, 204		; 000000ccH
  00009	53		 push	 ebx
  0000a	56		 push	 esi
  0000b	57		 push	 edi
  0000c	51		 push	 ecx
  0000d	8d 7d f4	 lea	 edi, DWORD PTR [ebp-12]
  00010	6a 03		 push	 3
  00012	59		 pop	 ecx
  00013	b8 cc cc cc cc	 mov	 eax, -858993460		; ccccccccH
  00018	f3 ab		 rep stosd
  0001a	59		 pop	 ecx
  0001b	89 4d f8	 mov	 DWORD PTR _this$[ebp], ecx
  0001e	b9 00 00 00 00	 mov	 ecx, OFFSET __D909E87F_atlalloc@h
  00023	e8 00 00 00 00	 call	 @__CheckForDebuggerJustMyCode@4

; 383  : 		ATLASSERT(m_pData == NULL);

  00028	8b 45 f8	 mov	 eax, DWORD PTR _this$[ebp]
  0002b	83 38 00	 cmp	 DWORD PTR [eax], 0
  0002e	74 26		 je	 SHORT $LN4@AllocateBy
  00030	68 00 00 00 00	 push	 OFFSET ??_C@_1BK@NHECDDNK@?$AAm?$AA_?$AAp?$AAD?$AAa?$AAt?$AAa?$AA?5?$AA?$DN?$AA?$DN?$AA?5?$AA0@
  00035	68 00 00 00 00	 push	 OFFSET ??_C@_17CNPHIMPH@?$AA?$CF?$AAl?$AAs@
  0003a	6a 00		 push	 0
  0003c	68 7f 01 00 00	 push	 383			; 0000017fH
  00041	68 00 00 00 00	 push	 OFFSET ??_C@_1NK@JCBLKNMO@?$AAC?$AA?3?$AA?2?$AAP?$AAr?$AAo?$AAg?$AAr?$AAa?$AAm?$AA?5?$AAF?$AAi?$AAl?$AAe@
  00046	6a 02		 push	 2
  00048	e8 00 00 00 00	 call	 __CrtDbgReportW
  0004d	83 c4 18	 add	 esp, 24			; 00000018H
  00050	83 f8 01	 cmp	 eax, 1
  00053	75 01		 jne	 SHORT $LN4@AllocateBy
  00055	cc		 int	 3
$LN4@AllocateBy:

; 384  : 		m_pData = static_cast<T*>(Allocator::Allocate(nBytes));

  00056	ff 75 08	 push	 DWORD PTR _nBytes$[ebp]
  00059	e8 00 00 00 00	 call	 ?Allocate@CCRTAllocator@ATL@@SAPAXI@Z ; ATL::CCRTAllocator::Allocate
  0005e	59		 pop	 ecx
  0005f	8b 4d f8	 mov	 ecx, DWORD PTR _this$[ebp]
  00062	89 01		 mov	 DWORD PTR [ecx], eax

; 385  : 		if (m_pData == NULL)

  00064	8b 45 f8	 mov	 eax, DWORD PTR _this$[ebp]
  00067	83 38 00	 cmp	 DWORD PTR [eax], 0
  0006a	75 04		 jne	 SHORT $LN2@AllocateBy

; 386  : 			return false;

  0006c	32 c0		 xor	 al, al
  0006e	eb 02		 jmp	 SHORT $LN1@AllocateBy
$LN2@AllocateBy:

; 387  : 
; 388  : 		return true;

  00070	b0 01		 mov	 al, 1
$LN1@AllocateBy:

; 389  : 	}

  00072	5f		 pop	 edi
  00073	5e		 pop	 esi
  00074	5b		 pop	 ebx
  00075	81 c4 cc 00 00
	00		 add	 esp, 204		; 000000ccH
  0007b	3b ec		 cmp	 ebp, esp
  0007d	e8 00 00 00 00	 call	 __RTC_CheckEsp
  00082	c9		 leave
  00083	c2 04 00	 ret	 4
?AllocateBytes@?$CHeapPtrBase@_WVCCRTAllocator@ATL@@@ATL@@QAE_NI@Z ENDP ; ATL::CHeapPtrBase<wchar_t,ATL::CCRTAllocator>::AllocateBytes
_TEXT	ENDS
; Function compile flags: /Odsp /RTCsu /ZI
; File C:\Program Files\Microsoft Visual Studio\2022\Enterprise\VC\Tools\MSVC\14.34.31933\atlmfc\include\atlalloc.h
;	COMDAT ??B?$CHeapPtrBase@_WVCCRTAllocator@ATL@@@ATL@@QBEPA_WXZ
_TEXT	SEGMENT
_this$ = -8						; size = 4
??B?$CHeapPtrBase@_WVCCRTAllocator@ATL@@@ATL@@QBEPA_WXZ PROC ; ATL::CHeapPtrBase<wchar_t,ATL::CCRTAllocator>::operator wchar_t *, COMDAT
; _this$ = ecx

; 364  : 	{

  00000	55		 push	 ebp
  00001	8b ec		 mov	 ebp, esp
  00003	81 ec cc 00 00
	00		 sub	 esp, 204		; 000000ccH
  00009	53		 push	 ebx
  0000a	56		 push	 esi
  0000b	57		 push	 edi
  0000c	51		 push	 ecx
  0000d	8d 7d f4	 lea	 edi, DWORD PTR [ebp-12]
  00010	6a 03		 push	 3
  00012	59		 pop	 ecx
  00013	b8 cc cc cc cc	 mov	 eax, -858993460		; ccccccccH
  00018	f3 ab		 rep stosd
  0001a	59		 pop	 ecx
  0001b	89 4d f8	 mov	 DWORD PTR _this$[ebp], ecx
  0001e	b9 00 00 00 00	 mov	 ecx, OFFSET __D909E87F_atlalloc@h
  00023	e8 00 00 00 00	 call	 @__CheckForDebuggerJustMyCode@4

; 365  : 		return m_pData;

  00028	8b 45 f8	 mov	 eax, DWORD PTR _this$[ebp]
  0002b	8b 00		 mov	 eax, DWORD PTR [eax]

; 366  : 	}

  0002d	5f		 pop	 edi
  0002e	5e		 pop	 esi
  0002f	5b		 pop	 ebx
  00030	81 c4 cc 00 00
	00		 add	 esp, 204		; 000000ccH
  00036	3b ec		 cmp	 ebp, esp
  00038	e8 00 00 00 00	 call	 __RTC_CheckEsp
  0003d	c9		 leave
  0003e	c3		 ret	 0
??B?$CHeapPtrBase@_WVCCRTAllocator@ATL@@@ATL@@QBEPA_WXZ ENDP ; ATL::CHeapPtrBase<wchar_t,ATL::CCRTAllocator>::operator wchar_t *
_TEXT	ENDS
; Function compile flags: /Odsp /RTCsu /ZI
; File C:\Program Files\Microsoft Visual Studio\2022\Enterprise\VC\Tools\MSVC\14.34.31933\atlmfc\include\atlalloc.h
;	COMDAT ??1?$CHeapPtrBase@_WVCCRTAllocator@ATL@@@ATL@@QAE@XZ
_TEXT	SEGMENT
_this$ = -8						; size = 4
??1?$CHeapPtrBase@_WVCCRTAllocator@ATL@@@ATL@@QAE@XZ PROC ; ATL::CHeapPtrBase<wchar_t,ATL::CCRTAllocator>::~CHeapPtrBase<wchar_t,ATL::CCRTAllocator>, COMDAT
; _this$ = ecx

; 350  : 	{

  00000	55		 push	 ebp
  00001	8b ec		 mov	 ebp, esp
  00003	81 ec cc 00 00
	00		 sub	 esp, 204		; 000000ccH
  00009	53		 push	 ebx
  0000a	56		 push	 esi
  0000b	57		 push	 edi
  0000c	51		 push	 ecx
  0000d	8d 7d f4	 lea	 edi, DWORD PTR [ebp-12]
  00010	6a 03		 push	 3
  00012	59		 pop	 ecx
  00013	b8 cc cc cc cc	 mov	 eax, -858993460		; ccccccccH
  00018	f3 ab		 rep stosd
  0001a	59		 pop	 ecx
  0001b	89 4d f8	 mov	 DWORD PTR _this$[ebp], ecx
  0001e	b9 00 00 00 00	 mov	 ecx, OFFSET __D909E87F_atlalloc@h
  00023	e8 00 00 00 00	 call	 @__CheckForDebuggerJustMyCode@4

; 351  : 		Free();

  00028	8b 4d f8	 mov	 ecx, DWORD PTR _this$[ebp]
  0002b	e8 00 00 00 00	 call	 ?Free@?$CHeapPtrBase@_WVCCRTAllocator@ATL@@@ATL@@QAEXXZ ; ATL::CHeapPtrBase<wchar_t,ATL::CCRTAllocator>::Free

; 352  : 	}

  00030	5f		 pop	 edi
  00031	5e		 pop	 esi
  00032	5b		 pop	 ebx
  00033	81 c4 cc 00 00
	00		 add	 esp, 204		; 000000ccH
  00039	3b ec		 cmp	 ebp, esp
  0003b	e8 00 00 00 00	 call	 __RTC_CheckEsp
  00040	c9		 leave
  00041	c3		 ret	 0
??1?$CHeapPtrBase@_WVCCRTAllocator@ATL@@@ATL@@QAE@XZ ENDP ; ATL::CHeapPtrBase<wchar_t,ATL::CCRTAllocator>::~CHeapPtrBase<wchar_t,ATL::CCRTAllocator>
_TEXT	ENDS
; Function compile flags: /Odsp /RTCsu /ZI
; File C:\Program Files\Microsoft Visual Studio\2022\Enterprise\VC\Tools\MSVC\14.34.31933\atlmfc\include\atlalloc.h
;	COMDAT ??0?$CHeapPtrBase@_WVCCRTAllocator@ATL@@@ATL@@IAE@XZ
_TEXT	SEGMENT
_this$ = -8						; size = 4
??0?$CHeapPtrBase@_WVCCRTAllocator@ATL@@@ATL@@IAE@XZ PROC ; ATL::CHeapPtrBase<wchar_t,ATL::CCRTAllocator>::CHeapPtrBase<wchar_t,ATL::CCRTAllocator>, COMDAT
; _this$ = ecx

; 337  : 	{

  00000	55		 push	 ebp
  00001	8b ec		 mov	 ebp, esp
  00003	81 ec cc 00 00
	00		 sub	 esp, 204		; 000000ccH
  00009	53		 push	 ebx
  0000a	56		 push	 esi
  0000b	57		 push	 edi
  0000c	51		 push	 ecx
  0000d	8d 7d f4	 lea	 edi, DWORD PTR [ebp-12]
  00010	6a 03		 push	 3
  00012	59		 pop	 ecx
  00013	b8 cc cc cc cc	 mov	 eax, -858993460		; ccccccccH
  00018	f3 ab		 rep stosd
  0001a	59		 pop	 ecx
  0001b	89 4d f8	 mov	 DWORD PTR _this$[ebp], ecx
  0001e	b9 00 00 00 00	 mov	 ecx, OFFSET __D909E87F_atlalloc@h
  00023	e8 00 00 00 00	 call	 @__CheckForDebuggerJustMyCode@4

; 336  : 		m_pData(NULL)

  00028	8b 45 f8	 mov	 eax, DWORD PTR _this$[ebp]
  0002b	83 20 00	 and	 DWORD PTR [eax], 0

; 338  : 	}

  0002e	8b 45 f8	 mov	 eax, DWORD PTR _this$[ebp]
  00031	5f		 pop	 edi
  00032	5e		 pop	 esi
  00033	5b		 pop	 ebx
  00034	81 c4 cc 00 00
	00		 add	 esp, 204		; 000000ccH
  0003a	3b ec		 cmp	 ebp, esp
  0003c	e8 00 00 00 00	 call	 __RTC_CheckEsp
  00041	c9		 leave
  00042	c3		 ret	 0
??0?$CHeapPtrBase@_WVCCRTAllocator@ATL@@@ATL@@IAE@XZ ENDP ; ATL::CHeapPtrBase<wchar_t,ATL::CCRTAllocator>::CHeapPtrBase<wchar_t,ATL::CCRTAllocator>
_TEXT	ENDS
; Function compile flags: /Odsp /RTCsu /ZI
; File C:\Program Files\Microsoft Visual Studio\2022\Enterprise\VC\Tools\MSVC\14.34.31933\atlmfc\include\atltrace.h
;	COMDAT ?TraceV@CTrace@ATL@@SAXPBDHII0PAD@Z
_TEXT	SEGMENT
_wszBuf$ = -48						; size = 4
_szBuf$ = -36						; size = 4
_cchNeeded$ = -24					; size = 4
__$ArrayPad$ = -16					; size = 4
__$EHRec$ = -12						; size = 12
_pszFileName$ = 8					; size = 4
_nLine$ = 12						; size = 4
_dwCategory$ = 16					; size = 4
_nLevel$ = 20						; size = 4
_pszFmt$ = 24						; size = 4
_args$ = 28						; size = 4
?TraceV@CTrace@ATL@@SAXPBDHII0PAD@Z PROC		; ATL::CTrace::TraceV, COMDAT

; 238  : 	{

  00000	55		 push	 ebp
  00001	8b ec		 mov	 ebp, esp
  00003	6a ff		 push	 -1
  00005	68 00 00 00 00	 push	 __ehhandler$?TraceV@CTrace@ATL@@SAXPBDHII0PAD@Z
  0000a	64 a1 00 00 00
	00		 mov	 eax, DWORD PTR fs:0
  00010	50		 push	 eax
  00011	81 ec e8 00 00
	00		 sub	 esp, 232		; 000000e8H
  00017	53		 push	 ebx
  00018	56		 push	 esi
  00019	57		 push	 edi
  0001a	8d 7d cc	 lea	 edi, DWORD PTR [ebp-52]
  0001d	6a 0a		 push	 10			; 0000000aH
  0001f	59		 pop	 ecx
  00020	b8 cc cc cc cc	 mov	 eax, -858993460		; ccccccccH
  00025	f3 ab		 rep stosd
  00027	a1 00 00 00 00	 mov	 eax, DWORD PTR ___security_cookie
  0002c	33 c5		 xor	 eax, ebp
  0002e	89 45 f0	 mov	 DWORD PTR __$ArrayPad$[ebp], eax
  00031	50		 push	 eax
  00032	8d 45 f4	 lea	 eax, DWORD PTR __$EHRec$[ebp]
  00035	64 a3 00 00 00
	00		 mov	 DWORD PTR fs:0, eax
  0003b	b9 00 00 00 00	 mov	 ecx, OFFSET __63F83F46_atltrace@h
  00040	e8 00 00 00 00	 call	 @__CheckForDebuggerJustMyCode@4

; 239  : 		int cchNeeded = _vscprintf(pszFmt, args);

  00045	ff 75 1c	 push	 DWORD PTR _args$[ebp]
  00048	ff 75 18	 push	 DWORD PTR _pszFmt$[ebp]
  0004b	e8 00 00 00 00	 call	 __vscprintf
  00050	59		 pop	 ecx
  00051	59		 pop	 ecx
  00052	89 45 e8	 mov	 DWORD PTR _cchNeeded$[ebp], eax

; 240  : 		if (cchNeeded < 0)

  00055	83 7d e8 00	 cmp	 DWORD PTR _cchNeeded$[ebp], 0
  00059	7d 05		 jge	 SHORT $LN2@TraceV

; 241  : 		{
; 242  : 			return;

  0005b	e9 5c 01 00 00	 jmp	 $LN1@TraceV
$LN2@TraceV:

; 243  : 		}
; 244  : 
; 245  : 		CHeapPtr<char> szBuf;

  00060	6a 04		 push	 4
  00062	8d 4d dc	 lea	 ecx, DWORD PTR _szBuf$[ebp]
  00065	e8 00 00 00 00	 call	 ?__autoclassinit2@?$CHeapPtr@DVCCRTAllocator@ATL@@@ATL@@QAEXI@Z
  0006a	8d 4d dc	 lea	 ecx, DWORD PTR _szBuf$[ebp]
  0006d	e8 00 00 00 00	 call	 ??0?$CHeapPtr@DVCCRTAllocator@ATL@@@ATL@@QAE@XZ ; ATL::CHeapPtr<char,ATL::CCRTAllocator>::CHeapPtr<char,ATL::CCRTAllocator>
  00072	83 65 fc 00	 and	 DWORD PTR __$EHRec$[ebp+8], 0

; 246  : 		if (!szBuf.Allocate(cchNeeded + 1))

  00076	8b 45 e8	 mov	 eax, DWORD PTR _cchNeeded$[ebp]
  00079	40		 inc	 eax
  0007a	50		 push	 eax
  0007b	8d 4d dc	 lea	 ecx, DWORD PTR _szBuf$[ebp]
  0007e	e8 00 00 00 00	 call	 ?Allocate@?$CHeapPtr@DVCCRTAllocator@ATL@@@ATL@@QAE_NI@Z ; ATL::CHeapPtr<char,ATL::CCRTAllocator>::Allocate
  00083	0f b6 c0	 movzx	 eax, al
  00086	85 c0		 test	 eax, eax
  00088	75 11		 jne	 SHORT $LN3@TraceV

; 247  : 		{
; 248  : 			return;

  0008a	83 4d fc ff	 or	 DWORD PTR __$EHRec$[ebp+8], -1
  0008e	8d 4d dc	 lea	 ecx, DWORD PTR _szBuf$[ebp]
  00091	e8 00 00 00 00	 call	 ??1?$CHeapPtr@DVCCRTAllocator@ATL@@@ATL@@QAE@XZ
  00096	e9 21 01 00 00	 jmp	 $LN1@TraceV
$LN3@TraceV:

; 249  : 		}
; 250  : 
; 251  : 		szBuf[0] = '\0';

  0009b	8d 4d dc	 lea	 ecx, DWORD PTR _szBuf$[ebp]
  0009e	e8 00 00 00 00	 call	 ??B?$CHeapPtrBase@DVCCRTAllocator@ATL@@@ATL@@QBEPADXZ ; ATL::CHeapPtrBase<char,ATL::CCRTAllocator>::operator char *
  000a3	33 c9		 xor	 ecx, ecx
  000a5	41		 inc	 ecx
  000a6	6b c9 00	 imul	 ecx, ecx, 0
  000a9	c6 04 08 00	 mov	 BYTE PTR [eax+ecx], 0

; 252  : 
; 253  : 		if (_vsnprintf_s(szBuf, cchNeeded + 1, cchNeeded, pszFmt, args) == -1)

  000ad	ff 75 1c	 push	 DWORD PTR _args$[ebp]
  000b0	ff 75 18	 push	 DWORD PTR _pszFmt$[ebp]
  000b3	ff 75 e8	 push	 DWORD PTR _cchNeeded$[ebp]
  000b6	8b 45 e8	 mov	 eax, DWORD PTR _cchNeeded$[ebp]
  000b9	40		 inc	 eax
  000ba	50		 push	 eax
  000bb	8d 4d dc	 lea	 ecx, DWORD PTR _szBuf$[ebp]
  000be	e8 00 00 00 00	 call	 ??B?$CHeapPtrBase@DVCCRTAllocator@ATL@@@ATL@@QBEPADXZ ; ATL::CHeapPtrBase<char,ATL::CCRTAllocator>::operator char *
  000c3	50		 push	 eax
  000c4	e8 00 00 00 00	 call	 __vsnprintf_s
  000c9	83 c4 14	 add	 esp, 20			; 00000014H
  000cc	83 f8 ff	 cmp	 eax, -1
  000cf	75 11		 jne	 SHORT $LN4@TraceV

; 254  : 		{
; 255  : 			return;

  000d1	83 4d fc ff	 or	 DWORD PTR __$EHRec$[ebp+8], -1
  000d5	8d 4d dc	 lea	 ecx, DWORD PTR _szBuf$[ebp]
  000d8	e8 00 00 00 00	 call	 ??1?$CHeapPtr@DVCCRTAllocator@ATL@@@ATL@@QAE@XZ
  000dd	e9 da 00 00 00	 jmp	 $LN1@TraceV
$LN4@TraceV:

; 256  : 		}
; 257  : 
; 258  : 		CHeapPtr<wchar_t> wszBuf;

  000e2	6a 04		 push	 4
  000e4	8d 4d d0	 lea	 ecx, DWORD PTR _wszBuf$[ebp]
  000e7	e8 00 00 00 00	 call	 ?__autoclassinit2@?$CHeapPtr@_WVCCRTAllocator@ATL@@@ATL@@QAEXI@Z
  000ec	8d 4d d0	 lea	 ecx, DWORD PTR _wszBuf$[ebp]
  000ef	e8 00 00 00 00	 call	 ??0?$CHeapPtr@_WVCCRTAllocator@ATL@@@ATL@@QAE@XZ ; ATL::CHeapPtr<wchar_t,ATL::CCRTAllocator>::CHeapPtr<wchar_t,ATL::CCRTAllocator>
  000f4	c6 45 fc 01	 mov	 BYTE PTR __$EHRec$[ebp+8], 1

; 259  : 		if (!wszBuf.Allocate(cchNeeded + 1))

  000f8	8b 45 e8	 mov	 eax, DWORD PTR _cchNeeded$[ebp]
  000fb	40		 inc	 eax
  000fc	50		 push	 eax
  000fd	8d 4d d0	 lea	 ecx, DWORD PTR _wszBuf$[ebp]
  00100	e8 00 00 00 00	 call	 ?Allocate@?$CHeapPtr@_WVCCRTAllocator@ATL@@@ATL@@QAE_NI@Z ; ATL::CHeapPtr<wchar_t,ATL::CCRTAllocator>::Allocate
  00105	0f b6 c0	 movzx	 eax, al
  00108	85 c0		 test	 eax, eax
  0010a	75 1d		 jne	 SHORT $LN5@TraceV

; 260  : 		{
; 261  : 			return;

  0010c	c6 45 fc 00	 mov	 BYTE PTR __$EHRec$[ebp+8], 0
  00110	8d 4d d0	 lea	 ecx, DWORD PTR _wszBuf$[ebp]
  00113	e8 00 00 00 00	 call	 ??1?$CHeapPtr@_WVCCRTAllocator@ATL@@@ATL@@QAE@XZ
  00118	83 4d fc ff	 or	 DWORD PTR __$EHRec$[ebp+8], -1
  0011c	8d 4d dc	 lea	 ecx, DWORD PTR _szBuf$[ebp]
  0011f	e8 00 00 00 00	 call	 ??1?$CHeapPtr@DVCCRTAllocator@ATL@@@ATL@@QAE@XZ
  00124	e9 93 00 00 00	 jmp	 $LN1@TraceV
$LN5@TraceV:

; 262  : 		}
; 263  : 
; 264  : 		wszBuf[0] = '\0';

  00129	8d 4d d0	 lea	 ecx, DWORD PTR _wszBuf$[ebp]
  0012c	e8 00 00 00 00	 call	 ??B?$CHeapPtrBase@_WVCCRTAllocator@ATL@@@ATL@@QBEPA_WXZ ; ATL::CHeapPtrBase<wchar_t,ATL::CCRTAllocator>::operator wchar_t *
  00131	6a 02		 push	 2
  00133	59		 pop	 ecx
  00134	6b c9 00	 imul	 ecx, ecx, 0
  00137	33 d2		 xor	 edx, edx
  00139	66 89 14 08	 mov	 WORD PTR [eax+ecx], dx

; 265  : 
; 266  : 		if (::MultiByteToWideChar(CP_ACP, 0, szBuf, -1, wszBuf, cchNeeded + 1) == 0)

  0013d	8b 45 e8	 mov	 eax, DWORD PTR _cchNeeded$[ebp]
  00140	40		 inc	 eax
  00141	8b f4		 mov	 esi, esp
  00143	50		 push	 eax
  00144	8d 4d d0	 lea	 ecx, DWORD PTR _wszBuf$[ebp]
  00147	e8 00 00 00 00	 call	 ??B?$CHeapPtrBase@_WVCCRTAllocator@ATL@@@ATL@@QBEPA_WXZ ; ATL::CHeapPtrBase<wchar_t,ATL::CCRTAllocator>::operator wchar_t *
  0014c	50		 push	 eax
  0014d	6a ff		 push	 -1
  0014f	8d 4d dc	 lea	 ecx, DWORD PTR _szBuf$[ebp]
  00152	e8 00 00 00 00	 call	 ??B?$CHeapPtrBase@DVCCRTAllocator@ATL@@@ATL@@QBEPADXZ ; ATL::CHeapPtrBase<char,ATL::CCRTAllocator>::operator char *
  00157	50		 push	 eax
  00158	6a 00		 push	 0
  0015a	6a 00		 push	 0
  0015c	ff 15 00 00 00
	00		 call	 DWORD PTR __imp__MultiByteToWideChar@24
  00162	3b f4		 cmp	 esi, esp
  00164	e8 00 00 00 00	 call	 __RTC_CheckEsp
  00169	85 c0		 test	 eax, eax
  0016b	75 1a		 jne	 SHORT $LN6@TraceV

; 267  : 		{
; 268  : 			return;

  0016d	c6 45 fc 00	 mov	 BYTE PTR __$EHRec$[ebp+8], 0
  00171	8d 4d d0	 lea	 ecx, DWORD PTR _wszBuf$[ebp]
  00174	e8 00 00 00 00	 call	 ??1?$CHeapPtr@_WVCCRTAllocator@ATL@@@ATL@@QAE@XZ
  00179	83 4d fc ff	 or	 DWORD PTR __$EHRec$[ebp+8], -1
  0017d	8d 4d dc	 lea	 ecx, DWORD PTR _szBuf$[ebp]
  00180	e8 00 00 00 00	 call	 ??1?$CHeapPtr@DVCCRTAllocator@ATL@@@ATL@@QAE@XZ
  00185	eb 35		 jmp	 SHORT $LN1@TraceV
$LN6@TraceV:

; 269  : 		}
; 270  : 
; 271  : 		TraceV(pszFileName, nLine, dwCategory, nLevel, wszBuf);

  00187	8d 4d d0	 lea	 ecx, DWORD PTR _wszBuf$[ebp]
  0018a	e8 00 00 00 00	 call	 ??B?$CHeapPtrBase@_WVCCRTAllocator@ATL@@@ATL@@QBEPA_WXZ ; ATL::CHeapPtrBase<wchar_t,ATL::CCRTAllocator>::operator wchar_t *
  0018f	50		 push	 eax
  00190	ff 75 14	 push	 DWORD PTR _nLevel$[ebp]
  00193	ff 75 10	 push	 DWORD PTR _dwCategory$[ebp]
  00196	ff 75 0c	 push	 DWORD PTR _nLine$[ebp]
  00199	ff 75 08	 push	 DWORD PTR _pszFileName$[ebp]
  0019c	e8 00 00 00 00	 call	 ?TraceV@CTrace@ATL@@CAXPBDHIIPB_W@Z ; ATL::CTrace::TraceV
  001a1	83 c4 14	 add	 esp, 20			; 00000014H

; 272  : 	}

  001a4	c6 45 fc 00	 mov	 BYTE PTR __$EHRec$[ebp+8], 0
  001a8	8d 4d d0	 lea	 ecx, DWORD PTR _wszBuf$[ebp]
  001ab	e8 00 00 00 00	 call	 ??1?$CHeapPtr@_WVCCRTAllocator@ATL@@@ATL@@QAE@XZ
  001b0	83 4d fc ff	 or	 DWORD PTR __$EHRec$[ebp+8], -1
  001b4	8d 4d dc	 lea	 ecx, DWORD PTR _szBuf$[ebp]
  001b7	e8 00 00 00 00	 call	 ??1?$CHeapPtr@DVCCRTAllocator@ATL@@@ATL@@QAE@XZ
$LN1@TraceV:
  001bc	52		 push	 edx
  001bd	8b cd		 mov	 ecx, ebp
  001bf	50		 push	 eax
  001c0	8d 15 00 00 00
	00		 lea	 edx, DWORD PTR $LN14@TraceV
  001c6	e8 00 00 00 00	 call	 @_RTC_CheckStackVars@8
  001cb	58		 pop	 eax
  001cc	5a		 pop	 edx
  001cd	8b 4d f4	 mov	 ecx, DWORD PTR __$EHRec$[ebp]
  001d0	64 89 0d 00 00
	00 00		 mov	 DWORD PTR fs:0, ecx
  001d7	59		 pop	 ecx
  001d8	5f		 pop	 edi
  001d9	5e		 pop	 esi
  001da	5b		 pop	 ebx
  001db	8b 4d f0	 mov	 ecx, DWORD PTR __$ArrayPad$[ebp]
  001de	33 cd		 xor	 ecx, ebp
  001e0	e8 00 00 00 00	 call	 @__security_check_cookie@4
  001e5	81 c4 f4 00 00
	00		 add	 esp, 244		; 000000f4H
  001eb	3b ec		 cmp	 ebp, esp
  001ed	e8 00 00 00 00	 call	 __RTC_CheckEsp
  001f2	c9		 leave
  001f3	c3		 ret	 0
$LN14@TraceV:
  001f4	02 00 00 00	 DD	 2
  001f8	00 00 00 00	 DD	 $LN13@TraceV
$LN13@TraceV:
  001fc	dc ff ff ff	 DD	 -36			; ffffffdcH
  00200	04 00 00 00	 DD	 4
  00204	00 00 00 00	 DD	 $LN10@TraceV
  00208	d0 ff ff ff	 DD	 -48			; ffffffd0H
  0020c	04 00 00 00	 DD	 4
  00210	00 00 00 00	 DD	 $LN11@TraceV
$LN11@TraceV:
  00214	77		 DB	 119			; 00000077H
  00215	73		 DB	 115			; 00000073H
  00216	7a		 DB	 122			; 0000007aH
  00217	42		 DB	 66			; 00000042H
  00218	75		 DB	 117			; 00000075H
  00219	66		 DB	 102			; 00000066H
  0021a	00		 DB	 0
$LN10@TraceV:
  0021b	73		 DB	 115			; 00000073H
  0021c	7a		 DB	 122			; 0000007aH
  0021d	42		 DB	 66			; 00000042H
  0021e	75		 DB	 117			; 00000075H
  0021f	66		 DB	 102			; 00000066H
  00220	00		 DB	 0
_TEXT	ENDS
;	COMDAT text$x
text$x	SEGMENT
__unwindfunclet$?TraceV@CTrace@ATL@@SAXPBDHII0PAD@Z$0:
  00000	8d 4d dc	 lea	 ecx, DWORD PTR _szBuf$[ebp]
  00003	e9 00 00 00 00	 jmp	 ??1?$CHeapPtr@DVCCRTAllocator@ATL@@@ATL@@QAE@XZ
__unwindfunclet$?TraceV@CTrace@ATL@@SAXPBDHII0PAD@Z$1:
  00008	8d 4d d0	 lea	 ecx, DWORD PTR _wszBuf$[ebp]
  0000b	e9 00 00 00 00	 jmp	 ??1?$CHeapPtr@_WVCCRTAllocator@ATL@@@ATL@@QAE@XZ
  00010	cc		 int	 3
  00011	cc		 int	 3
  00012	cc		 int	 3
  00013	cc		 int	 3
  00014	cc		 int	 3
__ehhandler$?TraceV@CTrace@ATL@@SAXPBDHII0PAD@Z:
  00015	90		 npad	 1
  00016	90		 npad	 1
  00017	8b 54 24 08	 mov	 edx, DWORD PTR [esp+8]
  0001b	8d 42 0c	 lea	 eax, DWORD PTR [edx+12]
  0001e	8b 8a 08 ff ff
	ff		 mov	 ecx, DWORD PTR [edx-248]
  00024	33 c8		 xor	 ecx, eax
  00026	e8 00 00 00 00	 call	 @__security_check_cookie@4
  0002b	8b 4a fc	 mov	 ecx, DWORD PTR [edx-4]
  0002e	33 c8		 xor	 ecx, eax
  00030	e8 00 00 00 00	 call	 @__security_check_cookie@4
  00035	b8 00 00 00 00	 mov	 eax, OFFSET __ehfuncinfo$?TraceV@CTrace@ATL@@SAXPBDHII0PAD@Z
  0003a	e9 00 00 00 00	 jmp	 ___CxxFrameHandler3
text$x	ENDS
?TraceV@CTrace@ATL@@SAXPBDHII0PAD@Z ENDP		; ATL::CTrace::TraceV
; Function compile flags: /Odsp /RTCsu /ZI
; File C:\Program Files\Microsoft Visual Studio\2022\Enterprise\VC\Tools\MSVC\14.34.31933\atlmfc\include\atltrace.h
;	COMDAT ?TraceV@CTrace@ATL@@CAXPBDHIIPB_W@Z
_TEXT	SEGMENT
_fileName$ = -2632					; size = 520
_wszBuf$ = -2104					; size = 4
_chCount$ = -2092					; size = 4
_pwszCategoryName$ = -2080				; size = 4
_categoryLength$ = -2068				; size = 4
_wszCategory$ = -2056					; size = 2048
__$ArrayPad$ = -4					; size = 4
_pszFileName$ = 8					; size = 4
_nLine$ = 12						; size = 4
_dwCategory$ = 16					; size = 4
_nLevel$ = 20						; size = 4
_pwszMessage$ = 24					; size = 4
?TraceV@CTrace@ATL@@CAXPBDHIIPB_W@Z PROC		; ATL::CTrace::TraceV, COMDAT

; 150  : 	{

  00000	55		 push	 ebp
  00001	8b ec		 mov	 ebp, esp
  00003	81 ec cc 0e 00
	00		 sub	 esp, 3788		; 00000eccH
  00009	53		 push	 ebx
  0000a	56		 push	 esi
  0000b	57		 push	 edi
  0000c	8d bd b4 f5 ff
	ff		 lea	 edi, DWORD PTR [ebp-2636]
  00012	b9 93 02 00 00	 mov	 ecx, 659		; 00000293H
  00017	b8 cc cc cc cc	 mov	 eax, -858993460		; ccccccccH
  0001c	f3 ab		 rep stosd
  0001e	a1 00 00 00 00	 mov	 eax, DWORD PTR ___security_cookie
  00023	33 c5		 xor	 eax, ebp
  00025	89 45 fc	 mov	 DWORD PTR __$ArrayPad$[ebp], eax
  00028	b9 00 00 00 00	 mov	 ecx, OFFSET __63F83F46_atltrace@h
  0002d	e8 00 00 00 00	 call	 @__CheckForDebuggerJustMyCode@4

; 151  : 		if (CTrace::m_nLevel == CTrace::DisableTracing || CTrace::m_nLevel < nLevel || (CTrace::m_nCategory & dwCategory) == 0)

  00032	83 3d 00 00 00
	00 ff		 cmp	 DWORD PTR ?m_nLevel@CTrace@ATL@@1IA, -1 ; ATL::CTrace::m_nLevel
  00039	74 14		 je	 SHORT $LN3@TraceV
  0003b	a1 00 00 00 00	 mov	 eax, DWORD PTR ?m_nLevel@CTrace@ATL@@1IA ; ATL::CTrace::m_nLevel
  00040	3b 45 14	 cmp	 eax, DWORD PTR _nLevel$[ebp]
  00043	72 0a		 jb	 SHORT $LN3@TraceV
  00045	a1 00 00 00 00	 mov	 eax, DWORD PTR ?m_nCategory@CTrace@ATL@@1IA ; ATL::CTrace::m_nCategory
  0004a	23 45 10	 and	 eax, DWORD PTR _dwCategory$[ebp]
  0004d	75 05		 jne	 SHORT $LN2@TraceV
$LN3@TraceV:

; 152  : 		{
; 153  : 			return;

  0004f	e9 bb 01 00 00	 jmp	 $LN1@TraceV
$LN2@TraceV:

; 154  : 		}
; 155  : 
; 156  : 		wchar_t wszCategory[TraceBufferSize] = {'\0'};

  00054	68 00 08 00 00	 push	 2048			; 00000800H
  00059	6a 00		 push	 0
  0005b	8d 85 f8 f7 ff
	ff		 lea	 eax, DWORD PTR _wszCategory$[ebp]
  00061	50		 push	 eax
  00062	e8 00 00 00 00	 call	 _memset
  00067	83 c4 0c	 add	 esp, 12			; 0000000cH

; 157  : 		int categoryLength = 0;

  0006a	83 a5 ec f7 ff
	ff 00		 and	 DWORD PTR _categoryLength$[ebp], 0

; 158  : 		const wchar_t *const pwszCategoryName = GetCategoryName(dwCategory);

  00071	ff 75 10	 push	 DWORD PTR _dwCategory$[ebp]
  00074	e8 00 00 00 00	 call	 ?GetCategoryName@CTrace@ATL@@CAPA_WI@Z ; ATL::CTrace::GetCategoryName
  00079	59		 pop	 ecx
  0007a	89 85 e0 f7 ff
	ff		 mov	 DWORD PTR _pwszCategoryName$[ebp], eax

; 159  : 		if (pwszCategoryName != nullptr)

  00080	83 bd e0 f7 ff
	ff 00		 cmp	 DWORD PTR _pwszCategoryName$[ebp], 0
  00087	74 35		 je	 SHORT $LN4@TraceV

; 160  : 		{
; 161  : 			if ((categoryLength = swprintf_s(wszCategory, TraceBufferSize, L"%ls - ", pwszCategoryName)) == -1)

  00089	ff b5 e0 f7 ff
	ff		 push	 DWORD PTR _pwszCategoryName$[ebp]
  0008f	68 00 00 00 00	 push	 OFFSET ??_C@_1O@LFNDFEBP@?$AA?$CF?$AAl?$AAs?$AA?5?$AA?9?$AA?5@
  00094	68 00 04 00 00	 push	 1024			; 00000400H
  00099	8d 85 f8 f7 ff
	ff		 lea	 eax, DWORD PTR _wszCategory$[ebp]
  0009f	50		 push	 eax
  000a0	e8 00 00 00 00	 call	 _swprintf_s
  000a5	83 c4 10	 add	 esp, 16			; 00000010H
  000a8	89 85 ec f7 ff
	ff		 mov	 DWORD PTR _categoryLength$[ebp], eax
  000ae	83 bd ec f7 ff
	ff ff		 cmp	 DWORD PTR _categoryLength$[ebp], -1
  000b5	75 05		 jne	 SHORT $LN6@TraceV

; 162  : 			{
; 163  : 				return;

  000b7	e9 53 01 00 00	 jmp	 $LN1@TraceV
$LN6@TraceV:

; 164  : 			}
; 165  : 		}

  000bc	eb 30		 jmp	 SHORT $LN5@TraceV
$LN4@TraceV:

; 166  : 		else
; 167  : 		{
; 168  : 			if ((categoryLength = swprintf_s(wszCategory, TraceBufferSize, L"%u - ", dwCategory)) == -1)

  000be	ff 75 10	 push	 DWORD PTR _dwCategory$[ebp]
  000c1	68 00 00 00 00	 push	 OFFSET ??_C@_1M@PGKOAACE@?$AA?$CF?$AAu?$AA?5?$AA?9?$AA?5@
  000c6	68 00 04 00 00	 push	 1024			; 00000400H
  000cb	8d 85 f8 f7 ff
	ff		 lea	 eax, DWORD PTR _wszCategory$[ebp]
  000d1	50		 push	 eax
  000d2	e8 00 00 00 00	 call	 _swprintf_s
  000d7	83 c4 10	 add	 esp, 16			; 00000010H
  000da	89 85 ec f7 ff
	ff		 mov	 DWORD PTR _categoryLength$[ebp], eax
  000e0	83 bd ec f7 ff
	ff ff		 cmp	 DWORD PTR _categoryLength$[ebp], -1
  000e7	75 05		 jne	 SHORT $LN5@TraceV

; 169  : 			{
; 170  : 				return;

  000e9	e9 21 01 00 00	 jmp	 $LN1@TraceV
$LN5@TraceV:

; 171  : 			}
; 172  : 		}
; 173  : 
; 174  : 		int chCount = (int)wcslen(pwszMessage) + categoryLength + 1;

  000ee	ff 75 18	 push	 DWORD PTR _pwszMessage$[ebp]
  000f1	e8 00 00 00 00	 call	 _wcslen
  000f6	59		 pop	 ecx
  000f7	8b 8d ec f7 ff
	ff		 mov	 ecx, DWORD PTR _categoryLength$[ebp]
  000fd	8d 44 08 01	 lea	 eax, DWORD PTR [eax+ecx+1]
  00101	89 85 d4 f7 ff
	ff		 mov	 DWORD PTR _chCount$[ebp], eax

; 175  : 		CHeapPtr<wchar_t> wszBuf;

  00107	6a 04		 push	 4
  00109	8d 8d c8 f7 ff
	ff		 lea	 ecx, DWORD PTR _wszBuf$[ebp]
  0010f	e8 00 00 00 00	 call	 ?__autoclassinit2@?$CHeapPtr@_WVCCRTAllocator@ATL@@@ATL@@QAEXI@Z
  00114	8d 8d c8 f7 ff
	ff		 lea	 ecx, DWORD PTR _wszBuf$[ebp]
  0011a	e8 00 00 00 00	 call	 ??0?$CHeapPtr@_WVCCRTAllocator@ATL@@@ATL@@QAE@XZ ; ATL::CHeapPtr<wchar_t,ATL::CCRTAllocator>::CHeapPtr<wchar_t,ATL::CCRTAllocator>

; 176  : 		if (!wszBuf.Allocate(chCount))

  0011f	ff b5 d4 f7 ff
	ff		 push	 DWORD PTR _chCount$[ebp]
  00125	8d 8d c8 f7 ff
	ff		 lea	 ecx, DWORD PTR _wszBuf$[ebp]
  0012b	e8 00 00 00 00	 call	 ?Allocate@?$CHeapPtr@_WVCCRTAllocator@ATL@@@ATL@@QAE_NI@Z ; ATL::CHeapPtr<wchar_t,ATL::CCRTAllocator>::Allocate
  00130	0f b6 c0	 movzx	 eax, al
  00133	85 c0		 test	 eax, eax
  00135	75 10		 jne	 SHORT $LN8@TraceV

; 177  : 		{
; 178  : 			return;

  00137	8d 8d c8 f7 ff
	ff		 lea	 ecx, DWORD PTR _wszBuf$[ebp]
  0013d	e8 00 00 00 00	 call	 ??1?$CHeapPtr@_WVCCRTAllocator@ATL@@@ATL@@QAE@XZ
  00142	e9 c8 00 00 00	 jmp	 $LN1@TraceV
$LN8@TraceV:

; 179  : 		}
; 180  : 
; 181  : 		wszBuf[0] = '\0';

  00147	8d 8d c8 f7 ff
	ff		 lea	 ecx, DWORD PTR _wszBuf$[ebp]
  0014d	e8 00 00 00 00	 call	 ??B?$CHeapPtrBase@_WVCCRTAllocator@ATL@@@ATL@@QBEPA_WXZ ; ATL::CHeapPtrBase<wchar_t,ATL::CCRTAllocator>::operator wchar_t *
  00152	6a 02		 push	 2
  00154	59		 pop	 ecx
  00155	6b c9 00	 imul	 ecx, ecx, 0
  00158	33 d2		 xor	 edx, edx
  0015a	66 89 14 08	 mov	 WORD PTR [eax+ecx], dx

; 182  : 
; 183  : 		if (swprintf_s(wszBuf, chCount, L"%ls%ls", wszCategory, pwszMessage) == -1)

  0015e	ff 75 18	 push	 DWORD PTR _pwszMessage$[ebp]
  00161	8d 85 f8 f7 ff
	ff		 lea	 eax, DWORD PTR _wszCategory$[ebp]
  00167	50		 push	 eax
  00168	68 00 00 00 00	 push	 OFFSET ??_C@_1O@OAIPCDPO@?$AA?$CF?$AAl?$AAs?$AA?$CF?$AAl?$AAs@
  0016d	ff b5 d4 f7 ff
	ff		 push	 DWORD PTR _chCount$[ebp]
  00173	8d 8d c8 f7 ff
	ff		 lea	 ecx, DWORD PTR _wszBuf$[ebp]
  00179	e8 00 00 00 00	 call	 ??B?$CHeapPtrBase@_WVCCRTAllocator@ATL@@@ATL@@QBEPA_WXZ ; ATL::CHeapPtrBase<wchar_t,ATL::CCRTAllocator>::operator wchar_t *
  0017e	50		 push	 eax
  0017f	e8 00 00 00 00	 call	 _swprintf_s
  00184	83 c4 14	 add	 esp, 20			; 00000014H
  00187	83 f8 ff	 cmp	 eax, -1
  0018a	75 0d		 jne	 SHORT $LN9@TraceV

; 184  : 		{
; 185  : 			return;

  0018c	8d 8d c8 f7 ff
	ff		 lea	 ecx, DWORD PTR _wszBuf$[ebp]
  00192	e8 00 00 00 00	 call	 ??1?$CHeapPtr@_WVCCRTAllocator@ATL@@@ATL@@QAE@XZ
  00197	eb 76		 jmp	 SHORT $LN1@TraceV
$LN9@TraceV:

; 186  : 		}
; 187  : 
; 188  : 		wchar_t fileName[_MAX_PATH] = {'\0'};	

  00199	68 08 02 00 00	 push	 520			; 00000208H
  0019e	6a 00		 push	 0
  001a0	8d 85 b8 f5 ff
	ff		 lea	 eax, DWORD PTR _fileName$[ebp]
  001a6	50		 push	 eax
  001a7	e8 00 00 00 00	 call	 _memset
  001ac	83 c4 0c	 add	 esp, 12			; 0000000cH

; 189  : #if _MSC_VER < 1900
; 190  : 		if (swprintf_s(fileName, _MAX_PATH, L"%S", pszFileName) == -1)
; 191  : #else
; 192  : 		if (swprintf_s(fileName, _MAX_PATH, L"%hs", pszFileName) == -1)

  001af	ff 75 08	 push	 DWORD PTR _pszFileName$[ebp]
  001b2	68 00 00 00 00	 push	 OFFSET ??_C@_17LGGGMOOB@?$AA?$CF?$AAh?$AAs@
  001b7	68 04 01 00 00	 push	 260			; 00000104H
  001bc	8d 85 b8 f5 ff
	ff		 lea	 eax, DWORD PTR _fileName$[ebp]
  001c2	50		 push	 eax
  001c3	e8 00 00 00 00	 call	 _swprintf_s
  001c8	83 c4 10	 add	 esp, 16			; 00000010H
  001cb	83 f8 ff	 cmp	 eax, -1
  001ce	75 0d		 jne	 SHORT $LN10@TraceV

; 193  : #endif
; 194  : 		{
; 195  : 			return;

  001d0	8d 8d c8 f7 ff
	ff		 lea	 ecx, DWORD PTR _wszBuf$[ebp]
  001d6	e8 00 00 00 00	 call	 ??1?$CHeapPtr@_WVCCRTAllocator@ATL@@@ATL@@QAE@XZ
  001db	eb 32		 jmp	 SHORT $LN1@TraceV
$LN10@TraceV:

; 196  : 		}
; 197  : 
; 198  : 		_CrtDbgReportW(_CRT_WARN, fileName, nLine, nullptr, L"%ls", static_cast<const wchar_t*>(wszBuf));

  001dd	8d 8d c8 f7 ff
	ff		 lea	 ecx, DWORD PTR _wszBuf$[ebp]
  001e3	e8 00 00 00 00	 call	 ??B?$CHeapPtrBase@_WVCCRTAllocator@ATL@@@ATL@@QBEPA_WXZ ; ATL::CHeapPtrBase<wchar_t,ATL::CCRTAllocator>::operator wchar_t *
  001e8	50		 push	 eax
  001e9	68 00 00 00 00	 push	 OFFSET ??_C@_17CNPHIMPH@?$AA?$CF?$AAl?$AAs@
  001ee	6a 00		 push	 0
  001f0	ff 75 0c	 push	 DWORD PTR _nLine$[ebp]
  001f3	8d 85 b8 f5 ff
	ff		 lea	 eax, DWORD PTR _fileName$[ebp]
  001f9	50		 push	 eax
  001fa	6a 00		 push	 0
  001fc	e8 00 00 00 00	 call	 __CrtDbgReportW
  00201	83 c4 18	 add	 esp, 24			; 00000018H

; 199  : 	}

  00204	8d 8d c8 f7 ff
	ff		 lea	 ecx, DWORD PTR _wszBuf$[ebp]
  0020a	e8 00 00 00 00	 call	 ??1?$CHeapPtr@_WVCCRTAllocator@ATL@@@ATL@@QAE@XZ
$LN1@TraceV:
  0020f	52		 push	 edx
  00210	8b cd		 mov	 ecx, ebp
  00212	50		 push	 eax
  00213	8d 15 00 00 00
	00		 lea	 edx, DWORD PTR $LN17@TraceV
  00219	e8 00 00 00 00	 call	 @_RTC_CheckStackVars@8
  0021e	58		 pop	 eax
  0021f	5a		 pop	 edx
  00220	5f		 pop	 edi
  00221	5e		 pop	 esi
  00222	5b		 pop	 ebx
  00223	8b 4d fc	 mov	 ecx, DWORD PTR __$ArrayPad$[ebp]
  00226	33 cd		 xor	 ecx, ebp
  00228	e8 00 00 00 00	 call	 @__security_check_cookie@4
  0022d	81 c4 cc 0e 00
	00		 add	 esp, 3788		; 00000eccH
  00233	3b ec		 cmp	 ebp, esp
  00235	e8 00 00 00 00	 call	 __RTC_CheckEsp
  0023a	c9		 leave
  0023b	c3		 ret	 0
$LN17@TraceV:
  0023c	03 00 00 00	 DD	 3
  00240	00 00 00 00	 DD	 $LN16@TraceV
$LN16@TraceV:
  00244	f8 f7 ff ff	 DD	 -2056			; fffff7f8H
  00248	00 08 00 00	 DD	 2048			; 00000800H
  0024c	00 00 00 00	 DD	 $LN13@TraceV
  00250	c8 f7 ff ff	 DD	 -2104			; fffff7c8H
  00254	04 00 00 00	 DD	 4
  00258	00 00 00 00	 DD	 $LN14@TraceV
  0025c	b8 f5 ff ff	 DD	 -2632			; fffff5b8H
  00260	08 02 00 00	 DD	 520			; 00000208H
  00264	00 00 00 00	 DD	 $LN15@TraceV
$LN15@TraceV:
  00268	66		 DB	 102			; 00000066H
  00269	69		 DB	 105			; 00000069H
  0026a	6c		 DB	 108			; 0000006cH
  0026b	65		 DB	 101			; 00000065H
  0026c	4e		 DB	 78			; 0000004eH
  0026d	61		 DB	 97			; 00000061H
  0026e	6d		 DB	 109			; 0000006dH
  0026f	65		 DB	 101			; 00000065H
  00270	00		 DB	 0
$LN14@TraceV:
  00271	77		 DB	 119			; 00000077H
  00272	73		 DB	 115			; 00000073H
  00273	7a		 DB	 122			; 0000007aH
  00274	42		 DB	 66			; 00000042H
  00275	75		 DB	 117			; 00000075H
  00276	66		 DB	 102			; 00000066H
  00277	00		 DB	 0
$LN13@TraceV:
  00278	77		 DB	 119			; 00000077H
  00279	73		 DB	 115			; 00000073H
  0027a	7a		 DB	 122			; 0000007aH
  0027b	43		 DB	 67			; 00000043H
  0027c	61		 DB	 97			; 00000061H
  0027d	74		 DB	 116			; 00000074H
  0027e	65		 DB	 101			; 00000065H
  0027f	67		 DB	 103			; 00000067H
  00280	6f		 DB	 111			; 0000006fH
  00281	72		 DB	 114			; 00000072H
  00282	79		 DB	 121			; 00000079H
  00283	00		 DB	 0
?TraceV@CTrace@ATL@@CAXPBDHIIPB_W@Z ENDP		; ATL::CTrace::TraceV
_TEXT	ENDS
; Function compile flags: /Odsp /RTCsu /ZI
; File C:\Program Files\Microsoft Visual Studio\2022\Enterprise\VC\Tools\MSVC\14.34.31933\atlmfc\include\atltrace.h
;	COMDAT ?GetCategoryName@CTrace@ATL@@CAPA_WI@Z
_TEXT	SEGMENT
_i$1 = -8						; size = 4
_nCategory$ = 8						; size = 4
?GetCategoryName@CTrace@ATL@@CAPA_WI@Z PROC		; ATL::CTrace::GetCategoryName, COMDAT

; 132  : 	{

  00000	55		 push	 ebp
  00001	8b ec		 mov	 ebp, esp
  00003	81 ec cc 00 00
	00		 sub	 esp, 204		; 000000ccH
  00009	53		 push	 ebx
  0000a	56		 push	 esi
  0000b	57		 push	 edi
  0000c	8d 7d f4	 lea	 edi, DWORD PTR [ebp-12]
  0000f	6a 03		 push	 3
  00011	59		 pop	 ecx
  00012	b8 cc cc cc cc	 mov	 eax, -858993460		; ccccccccH
  00017	f3 ab		 rep stosd
  00019	b9 00 00 00 00	 mov	 ecx, OFFSET __63F83F46_atltrace@h
  0001e	e8 00 00 00 00	 call	 @__CheckForDebuggerJustMyCode@4

; 133  : 		for(unsigned int i = 0; i < m_nLastCategory; i++) 

  00023	83 65 f8 00	 and	 DWORD PTR _i$1[ebp], 0
  00027	eb 07		 jmp	 SHORT $LN4@GetCategor
$LN2@GetCategor:
  00029	8b 45 f8	 mov	 eax, DWORD PTR _i$1[ebp]
  0002c	40		 inc	 eax
  0002d	89 45 f8	 mov	 DWORD PTR _i$1[ebp], eax
$LN4@GetCategor:
  00030	8b 45 f8	 mov	 eax, DWORD PTR _i$1[ebp]
  00033	3b 05 00 00 00
	00		 cmp	 eax, DWORD PTR ?m_nLastCategory@CTrace@ATL@@1IA ; ATL::CTrace::m_nLastCategory
  00039	73 22		 jae	 SHORT $LN3@GetCategor

; 134  : 		{
; 135  : 			if (m_nMap[i].nCategory == nCategory)

  0003b	69 45 f8 04 01
	00 00		 imul	 eax, DWORD PTR _i$1[ebp], 260
  00042	8b 80 00 00 00
	00		 mov	 eax, DWORD PTR ?m_nMap@CTrace@ATL@@1PAUCategoryMap@12@A[eax]
  00048	3b 45 08	 cmp	 eax, DWORD PTR _nCategory$[ebp]
  0004b	75 0e		 jne	 SHORT $LN5@GetCategor

; 136  : 			{
; 137  : 				return m_nMap[i].categryName;

  0004d	69 45 f8 04 01
	00 00		 imul	 eax, DWORD PTR _i$1[ebp], 260
  00054	05 04 00 00 00	 add	 eax, OFFSET ?m_nMap@CTrace@ATL@@1PAUCategoryMap@12@A+4
  00059	eb 04		 jmp	 SHORT $LN1@GetCategor
$LN5@GetCategor:

; 138  : 			}
; 139  : 		}

  0005b	eb cc		 jmp	 SHORT $LN2@GetCategor
$LN3@GetCategor:

; 140  : 
; 141  : 		return nullptr;

  0005d	33 c0		 xor	 eax, eax
$LN1@GetCategor:

; 142  : 	}

  0005f	5f		 pop	 edi
  00060	5e		 pop	 esi
  00061	5b		 pop	 ebx
  00062	81 c4 cc 00 00
	00		 add	 esp, 204		; 000000ccH
  00068	3b ec		 cmp	 ebp, esp
  0006a	e8 00 00 00 00	 call	 __RTC_CheckEsp
  0006f	c9		 leave
  00070	c3		 ret	 0
?GetCategoryName@CTrace@ATL@@CAPA_WI@Z ENDP		; ATL::CTrace::GetCategoryName
_TEXT	ENDS
; Function compile flags: /Odsp /RTCsu /ZI
; File C:\Program Files\Microsoft Visual Studio\2022\Enterprise\VC\Tools\MSVC\14.34.31933\atlmfc\include\atltrace.h
;	COMDAT ??B?$CTraceCategoryEx@$0IAAAA@$0A@@ATL@@QAEIXZ
_TEXT	SEGMENT
_this$ = -8						; size = 4
??B?$CTraceCategoryEx@$0IAAAA@$0A@@ATL@@QAEIXZ PROC	; ATL::CTraceCategoryEx<524288,0>::operator unsigned int, COMDAT
; _this$ = ecx

; 79   : 	{

  00000	55		 push	 ebp
  00001	8b ec		 mov	 ebp, esp
  00003	81 ec cc 00 00
	00		 sub	 esp, 204		; 000000ccH
  00009	53		 push	 ebx
  0000a	56		 push	 esi
  0000b	57		 push	 edi
  0000c	51		 push	 ecx
  0000d	8d 7d f4	 lea	 edi, DWORD PTR [ebp-12]
  00010	6a 03		 push	 3
  00012	59		 pop	 ecx
  00013	b8 cc cc cc cc	 mov	 eax, -858993460		; ccccccccH
  00018	f3 ab		 rep stosd
  0001a	59		 pop	 ecx
  0001b	89 4d f8	 mov	 DWORD PTR _this$[ebp], ecx
  0001e	b9 00 00 00 00	 mov	 ecx, OFFSET __63F83F46_atltrace@h
  00023	e8 00 00 00 00	 call	 @__CheckForDebuggerJustMyCode@4

; 80   : #ifdef _DEBUG
; 81   : 		return traceCategory;

  00028	b8 00 00 08 00	 mov	 eax, 524288		; 00080000H

; 82   : #else
; 83   : 		return 0;
; 84   : #endif
; 85   : 	}

  0002d	5f		 pop	 edi
  0002e	5e		 pop	 esi
  0002f	5b		 pop	 ebx
  00030	81 c4 cc 00 00
	00		 add	 esp, 204		; 000000ccH
  00036	3b ec		 cmp	 ebp, esp
  00038	e8 00 00 00 00	 call	 __RTC_CheckEsp
  0003d	c9		 leave
  0003e	c3		 ret	 0
??B?$CTraceCategoryEx@$0IAAAA@$0A@@ATL@@QAEIXZ ENDP	; ATL::CTraceCategoryEx<524288,0>::operator unsigned int
_TEXT	ENDS
; Function compile flags: /Odsp /RTCsu /ZI
; File C:\Program Files\Microsoft Visual Studio\2022\Enterprise\VC\Tools\MSVC\14.34.31933\atlmfc\include\atlalloc.h
;	COMDAT ?Free@CCRTAllocator@ATL@@SAXPAX@Z
_TEXT	SEGMENT
_p$ = 8							; size = 4
?Free@CCRTAllocator@ATL@@SAXPAX@Z PROC			; ATL::CCRTAllocator::Free, COMDAT

; 267  : 	{

  00000	55		 push	 ebp
  00001	8b ec		 mov	 ebp, esp
  00003	81 ec c0 00 00
	00		 sub	 esp, 192		; 000000c0H
  00009	53		 push	 ebx
  0000a	56		 push	 esi
  0000b	57		 push	 edi
  0000c	8b fd		 mov	 edi, ebp
  0000e	33 c9		 xor	 ecx, ecx
  00010	b8 cc cc cc cc	 mov	 eax, -858993460		; ccccccccH
  00015	f3 ab		 rep stosd
  00017	b9 00 00 00 00	 mov	 ecx, OFFSET __D909E87F_atlalloc@h
  0001c	e8 00 00 00 00	 call	 @__CheckForDebuggerJustMyCode@4

; 268  : 		free(p);

  00021	ff 75 08	 push	 DWORD PTR _p$[ebp]
  00024	e8 00 00 00 00	 call	 _free
  00029	59		 pop	 ecx

; 269  : 	}

  0002a	5f		 pop	 edi
  0002b	5e		 pop	 esi
  0002c	5b		 pop	 ebx
  0002d	81 c4 c0 00 00
	00		 add	 esp, 192		; 000000c0H
  00033	3b ec		 cmp	 ebp, esp
  00035	e8 00 00 00 00	 call	 __RTC_CheckEsp
  0003a	c9		 leave
  0003b	c3		 ret	 0
?Free@CCRTAllocator@ATL@@SAXPAX@Z ENDP			; ATL::CCRTAllocator::Free
_TEXT	ENDS
; Function compile flags: /Odsp /RTCsu /ZI
; File C:\Program Files\Microsoft Visual Studio\2022\Enterprise\VC\Tools\MSVC\14.34.31933\atlmfc\include\atlalloc.h
;	COMDAT ?Allocate@CCRTAllocator@ATL@@SAPAXI@Z
_TEXT	SEGMENT
_nBytes$ = 8						; size = 4
?Allocate@CCRTAllocator@ATL@@SAPAXI@Z PROC		; ATL::CCRTAllocator::Allocate, COMDAT

; 262  : 	{

  00000	55		 push	 ebp
  00001	8b ec		 mov	 ebp, esp
  00003	81 ec c0 00 00
	00		 sub	 esp, 192		; 000000c0H
  00009	53		 push	 ebx
  0000a	56		 push	 esi
  0000b	57		 push	 edi
  0000c	8b fd		 mov	 edi, ebp
  0000e	33 c9		 xor	 ecx, ecx
  00010	b8 cc cc cc cc	 mov	 eax, -858993460		; ccccccccH
  00015	f3 ab		 rep stosd
  00017	b9 00 00 00 00	 mov	 ecx, OFFSET __D909E87F_atlalloc@h
  0001c	e8 00 00 00 00	 call	 @__CheckForDebuggerJustMyCode@4

; 263  : 		return malloc(nBytes);

  00021	ff 75 08	 push	 DWORD PTR _nBytes$[ebp]
  00024	e8 00 00 00 00	 call	 _malloc
  00029	59		 pop	 ecx

; 264  : 	}

  0002a	5f		 pop	 edi
  0002b	5e		 pop	 esi
  0002c	5b		 pop	 ebx
  0002d	81 c4 c0 00 00
	00		 add	 esp, 192		; 000000c0H
  00033	3b ec		 cmp	 ebp, esp
  00035	e8 00 00 00 00	 call	 __RTC_CheckEsp
  0003a	c9		 leave
  0003b	c3		 ret	 0
?Allocate@CCRTAllocator@ATL@@SAPAXI@Z ENDP		; ATL::CCRTAllocator::Allocate
_TEXT	ENDS
; Function compile flags: /Odsp /RTCsu /ZI
; File C:\Program Files\Microsoft Visual Studio\2022\Enterprise\VC\Tools\MSVC\14.34.31933\atlmfc\include\atlalloc.h
;	COMDAT ??$AtlMultiply@I@ATL@@YAJPAIII@Z
_TEXT	SEGMENT
_i64Result$ = -12					; size = 8
_piResult$ = 8						; size = 4
_iLeft$ = 12						; size = 4
_iRight$ = 16						; size = 4
??$AtlMultiply@I@ATL@@YAJPAIII@Z PROC			; ATL::AtlMultiply<unsigned int>, COMDAT

; 135  : {

  00000	55		 push	 ebp
  00001	8b ec		 mov	 ebp, esp
  00003	81 ec d0 00 00
	00		 sub	 esp, 208		; 000000d0H
  00009	53		 push	 ebx
  0000a	56		 push	 esi
  0000b	57		 push	 edi
  0000c	8d 7d f0	 lea	 edi, DWORD PTR [ebp-16]
  0000f	6a 04		 push	 4
  00011	59		 pop	 ecx
  00012	b8 cc cc cc cc	 mov	 eax, -858993460		; ccccccccH
  00017	f3 ab		 rep stosd
  00019	b9 00 00 00 00	 mov	 ecx, OFFSET __D909E87F_atlalloc@h
  0001e	e8 00 00 00 00	 call	 @__CheckForDebuggerJustMyCode@4

; 136  : 	unsigned __int64 i64Result=static_cast<unsigned __int64>(iLeft) * static_cast<unsigned __int64>(iRight);

  00023	8b 45 0c	 mov	 eax, DWORD PTR _iLeft$[ebp]
  00026	f7 65 10	 mul	 DWORD PTR _iRight$[ebp]
  00029	89 45 f4	 mov	 DWORD PTR _i64Result$[ebp], eax
  0002c	89 55 f8	 mov	 DWORD PTR _i64Result$[ebp+4], edx

; 137  : 	if(i64Result>UINT_MAX)

  0002f	83 7d f8 00	 cmp	 DWORD PTR _i64Result$[ebp+4], 0
  00033	77 06		 ja	 SHORT $LN4@AtlMultipl
  00035	83 7d f4 ff	 cmp	 DWORD PTR _i64Result$[ebp], -1
  00039	76 0d		 jbe	 SHORT $LN2@AtlMultipl
$LN4@AtlMultipl:

; 138  : 	{
; 139  : 		return HRESULT_FROM_WIN32(ERROR_ARITHMETIC_OVERFLOW);

  0003b	68 16 02 00 00	 push	 534			; 00000216H
  00040	e8 00 00 00 00	 call	 _HRESULT_FROM_WIN32
  00045	59		 pop	 ecx
  00046	eb 0a		 jmp	 SHORT $LN1@AtlMultipl
$LN2@AtlMultipl:

; 140  : 	}
; 141  : 	*piResult=static_cast<unsigned int>(i64Result);

  00048	8b 45 f4	 mov	 eax, DWORD PTR _i64Result$[ebp]
  0004b	8b 4d 08	 mov	 ecx, DWORD PTR _piResult$[ebp]
  0004e	89 01		 mov	 DWORD PTR [ecx], eax

; 142  : 	return S_OK;

  00050	33 c0		 xor	 eax, eax
$LN1@AtlMultipl:

; 143  : }

  00052	5f		 pop	 edi
  00053	5e		 pop	 esi
  00054	5b		 pop	 ebx
  00055	81 c4 d0 00 00
	00		 add	 esp, 208		; 000000d0H
  0005b	3b ec		 cmp	 ebp, esp
  0005d	e8 00 00 00 00	 call	 __RTC_CheckEsp
  00062	c9		 leave
  00063	c3		 ret	 0
??$AtlMultiply@I@ATL@@YAJPAIII@Z ENDP			; ATL::AtlMultiply<unsigned int>
_TEXT	ENDS
; Function compile flags: /Odsp /RTCsu /ZI
; File C:\Program Files (x86)\Windows Kits\10\Include\10.0.22000.0\ucrt\stdio.h
;	COMDAT __vscprintf
_TEXT	SEGMENT
__Format$ = 8						; size = 4
__ArgList$ = 12						; size = 4
__vscprintf PROC					; COMDAT

; 1668 :     {

  00000	55		 push	 ebp
  00001	8b ec		 mov	 ebp, esp
  00003	81 ec c0 00 00
	00		 sub	 esp, 192		; 000000c0H
  00009	53		 push	 ebx
  0000a	56		 push	 esi
  0000b	57		 push	 edi
  0000c	8b fd		 mov	 edi, ebp
  0000e	33 c9		 xor	 ecx, ecx
  00010	b8 cc cc cc cc	 mov	 eax, -858993460		; ccccccccH
  00015	f3 ab		 rep stosd
  00017	b9 00 00 00 00	 mov	 ecx, OFFSET __B5C48800_stdio@h
  0001c	e8 00 00 00 00	 call	 @__CheckForDebuggerJustMyCode@4

; 1669 :         return _vscprintf_l(_Format, NULL, _ArgList);

  00021	ff 75 0c	 push	 DWORD PTR __ArgList$[ebp]
  00024	6a 00		 push	 0
  00026	ff 75 08	 push	 DWORD PTR __Format$[ebp]
  00029	e8 00 00 00 00	 call	 __vscprintf_l
  0002e	83 c4 0c	 add	 esp, 12			; 0000000cH

; 1670 :     }

  00031	5f		 pop	 edi
  00032	5e		 pop	 esi
  00033	5b		 pop	 ebx
  00034	81 c4 c0 00 00
	00		 add	 esp, 192		; 000000c0H
  0003a	3b ec		 cmp	 ebp, esp
  0003c	e8 00 00 00 00	 call	 __RTC_CheckEsp
  00041	c9		 leave
  00042	c3		 ret	 0
__vscprintf ENDP
_TEXT	ENDS
; Function compile flags: /Odsp /RTCsu /ZI
; File C:\Program Files (x86)\Windows Kits\10\Include\10.0.22000.0\ucrt\stdio.h
;	COMDAT __vscprintf_l
_TEXT	SEGMENT
tv74 = -208						; size = 4
__Result$ = -8						; size = 4
__Format$ = 8						; size = 4
__Locale$ = 12						; size = 4
__ArgList$ = 16						; size = 4
__vscprintf_l PROC					; COMDAT

; 1651 :     {

  00000	55		 push	 ebp
  00001	8b ec		 mov	 ebp, esp
  00003	81 ec d0 00 00
	00		 sub	 esp, 208		; 000000d0H
  00009	53		 push	 ebx
  0000a	56		 push	 esi
  0000b	57		 push	 edi
  0000c	8d 7d f0	 lea	 edi, DWORD PTR [ebp-16]
  0000f	6a 04		 push	 4
  00011	59		 pop	 ecx
  00012	b8 cc cc cc cc	 mov	 eax, -858993460		; ccccccccH
  00017	f3 ab		 rep stosd
  00019	b9 00 00 00 00	 mov	 ecx, OFFSET __B5C48800_stdio@h
  0001e	e8 00 00 00 00	 call	 @__CheckForDebuggerJustMyCode@4

; 1652 :         int const _Result = __stdio_common_vsprintf(

  00023	ff 75 10	 push	 DWORD PTR __ArgList$[ebp]
  00026	ff 75 0c	 push	 DWORD PTR __Locale$[ebp]
  00029	ff 75 08	 push	 DWORD PTR __Format$[ebp]
  0002c	6a 00		 push	 0
  0002e	6a 00		 push	 0
  00030	e8 00 00 00 00	 call	 ___local_stdio_printf_options
  00035	8b 08		 mov	 ecx, DWORD PTR [eax]
  00037	83 c9 02	 or	 ecx, 2
  0003a	8b 40 04	 mov	 eax, DWORD PTR [eax+4]
  0003d	50		 push	 eax
  0003e	51		 push	 ecx
  0003f	e8 00 00 00 00	 call	 ___stdio_common_vsprintf
  00044	83 c4 1c	 add	 esp, 28			; 0000001cH
  00047	89 45 f8	 mov	 DWORD PTR __Result$[ebp], eax

; 1653 :             _CRT_INTERNAL_LOCAL_PRINTF_OPTIONS | _CRT_INTERNAL_PRINTF_STANDARD_SNPRINTF_BEHAVIOR,
; 1654 :             NULL, 0, _Format, _Locale, _ArgList);
; 1655 : 
; 1656 :         return _Result < 0 ? -1 : _Result;

  0004a	83 7d f8 00	 cmp	 DWORD PTR __Result$[ebp], 0
  0004e	7d 09		 jge	 SHORT $LN3@vscprintf_
  00050	83 8d 30 ff ff
	ff ff		 or	 DWORD PTR tv74[ebp], -1
  00057	eb 09		 jmp	 SHORT $LN4@vscprintf_
$LN3@vscprintf_:
  00059	8b 45 f8	 mov	 eax, DWORD PTR __Result$[ebp]
  0005c	89 85 30 ff ff
	ff		 mov	 DWORD PTR tv74[ebp], eax
$LN4@vscprintf_:
  00062	8b 85 30 ff ff
	ff		 mov	 eax, DWORD PTR tv74[ebp]

; 1657 :     }

  00068	5f		 pop	 edi
  00069	5e		 pop	 esi
  0006a	5b		 pop	 ebx
  0006b	81 c4 d0 00 00
	00		 add	 esp, 208		; 000000d0H
  00071	3b ec		 cmp	 ebp, esp
  00073	e8 00 00 00 00	 call	 __RTC_CheckEsp
  00078	c9		 leave
  00079	c3		 ret	 0
__vscprintf_l ENDP
_TEXT	ENDS
; Function compile flags: /Odsp /RTCsu /ZI
; File C:\Program Files (x86)\Windows Kits\10\Include\10.0.22000.0\ucrt\stdio.h
;	COMDAT __vsnprintf_s
_TEXT	SEGMENT
__Buffer$ = 8						; size = 4
__BufferCount$ = 12					; size = 4
__MaxCount$ = 16					; size = 4
__Format$ = 20						; size = 4
__ArgList$ = 24						; size = 4
__vsnprintf_s PROC					; COMDAT

; 1598 :     {

  00000	55		 push	 ebp
  00001	8b ec		 mov	 ebp, esp
  00003	81 ec c0 00 00
	00		 sub	 esp, 192		; 000000c0H
  00009	53		 push	 ebx
  0000a	56		 push	 esi
  0000b	57		 push	 edi
  0000c	8b fd		 mov	 edi, ebp
  0000e	33 c9		 xor	 ecx, ecx
  00010	b8 cc cc cc cc	 mov	 eax, -858993460		; ccccccccH
  00015	f3 ab		 rep stosd
  00017	b9 00 00 00 00	 mov	 ecx, OFFSET __B5C48800_stdio@h
  0001c	e8 00 00 00 00	 call	 @__CheckForDebuggerJustMyCode@4

; 1599 :         return _vsnprintf_s_l(_Buffer, _BufferCount, _MaxCount, _Format, NULL, _ArgList);

  00021	ff 75 18	 push	 DWORD PTR __ArgList$[ebp]
  00024	6a 00		 push	 0
  00026	ff 75 14	 push	 DWORD PTR __Format$[ebp]
  00029	ff 75 10	 push	 DWORD PTR __MaxCount$[ebp]
  0002c	ff 75 0c	 push	 DWORD PTR __BufferCount$[ebp]
  0002f	ff 75 08	 push	 DWORD PTR __Buffer$[ebp]
  00032	e8 00 00 00 00	 call	 __vsnprintf_s_l
  00037	83 c4 18	 add	 esp, 24			; 00000018H

; 1600 :     }

  0003a	5f		 pop	 edi
  0003b	5e		 pop	 esi
  0003c	5b		 pop	 ebx
  0003d	81 c4 c0 00 00
	00		 add	 esp, 192		; 000000c0H
  00043	3b ec		 cmp	 ebp, esp
  00045	e8 00 00 00 00	 call	 __RTC_CheckEsp
  0004a	c9		 leave
  0004b	c3		 ret	 0
__vsnprintf_s ENDP
_TEXT	ENDS
; Function compile flags: /Odsp /RTCsu /ZI
; File C:\Program Files (x86)\Windows Kits\10\Include\10.0.22000.0\ucrt\stdio.h
;	COMDAT __vsnprintf_s_l
_TEXT	SEGMENT
tv74 = -208						; size = 4
__Result$ = -8						; size = 4
__Buffer$ = 8						; size = 4
__BufferCount$ = 12					; size = 4
__MaxCount$ = 16					; size = 4
__Format$ = 20						; size = 4
__Locale$ = 24						; size = 4
__ArgList$ = 28						; size = 4
__vsnprintf_s_l PROC					; COMDAT

; 1577 :     {

  00000	55		 push	 ebp
  00001	8b ec		 mov	 ebp, esp
  00003	81 ec d0 00 00
	00		 sub	 esp, 208		; 000000d0H
  00009	53		 push	 ebx
  0000a	56		 push	 esi
  0000b	57		 push	 edi
  0000c	8d 7d f0	 lea	 edi, DWORD PTR [ebp-16]
  0000f	6a 04		 push	 4
  00011	59		 pop	 ecx
  00012	b8 cc cc cc cc	 mov	 eax, -858993460		; ccccccccH
  00017	f3 ab		 rep stosd
  00019	b9 00 00 00 00	 mov	 ecx, OFFSET __B5C48800_stdio@h
  0001e	e8 00 00 00 00	 call	 @__CheckForDebuggerJustMyCode@4

; 1578 :         int const _Result = __stdio_common_vsnprintf_s(

  00023	ff 75 1c	 push	 DWORD PTR __ArgList$[ebp]
  00026	ff 75 18	 push	 DWORD PTR __Locale$[ebp]
  00029	ff 75 14	 push	 DWORD PTR __Format$[ebp]
  0002c	ff 75 10	 push	 DWORD PTR __MaxCount$[ebp]
  0002f	ff 75 0c	 push	 DWORD PTR __BufferCount$[ebp]
  00032	ff 75 08	 push	 DWORD PTR __Buffer$[ebp]
  00035	e8 00 00 00 00	 call	 ___local_stdio_printf_options
  0003a	ff 70 04	 push	 DWORD PTR [eax+4]
  0003d	ff 30		 push	 DWORD PTR [eax]
  0003f	e8 00 00 00 00	 call	 ___stdio_common_vsnprintf_s
  00044	83 c4 20	 add	 esp, 32			; 00000020H
  00047	89 45 f8	 mov	 DWORD PTR __Result$[ebp], eax

; 1579 :             _CRT_INTERNAL_LOCAL_PRINTF_OPTIONS,
; 1580 :             _Buffer, _BufferCount, _MaxCount, _Format, _Locale, _ArgList);
; 1581 : 
; 1582 :         return _Result < 0 ? -1 : _Result;

  0004a	83 7d f8 00	 cmp	 DWORD PTR __Result$[ebp], 0
  0004e	7d 09		 jge	 SHORT $LN3@vsnprintf_
  00050	83 8d 30 ff ff
	ff ff		 or	 DWORD PTR tv74[ebp], -1
  00057	eb 09		 jmp	 SHORT $LN4@vsnprintf_
$LN3@vsnprintf_:
  00059	8b 45 f8	 mov	 eax, DWORD PTR __Result$[ebp]
  0005c	89 85 30 ff ff
	ff		 mov	 DWORD PTR tv74[ebp], eax
$LN4@vsnprintf_:
  00062	8b 85 30 ff ff
	ff		 mov	 eax, DWORD PTR tv74[ebp]

; 1583 :     }

  00068	5f		 pop	 edi
  00069	5e		 pop	 esi
  0006a	5b		 pop	 ebx
  0006b	81 c4 d0 00 00
	00		 add	 esp, 208		; 000000d0H
  00071	3b ec		 cmp	 ebp, esp
  00073	e8 00 00 00 00	 call	 __RTC_CheckEsp
  00078	c9		 leave
  00079	c3		 ret	 0
__vsnprintf_s_l ENDP
_TEXT	ENDS
; Function compile flags: /Odsp /RTCsu /ZI
; File C:\Program Files (x86)\Windows Kits\10\Include\10.0.22000.0\ucrt\corecrt_wstdio.h
;	COMDAT _swprintf_s
_TEXT	SEGMENT
__ArgList$ = -20					; size = 4
__Result$ = -8						; size = 4
__Buffer$ = 8						; size = 4
__BufferCount$ = 12					; size = 4
__Format$ = 16						; size = 4
_swprintf_s PROC					; COMDAT

; 1523 :         {

  00000	55		 push	 ebp
  00001	8b ec		 mov	 ebp, esp
  00003	81 ec e4 00 00
	00		 sub	 esp, 228		; 000000e4H
  00009	53		 push	 ebx
  0000a	56		 push	 esi
  0000b	57		 push	 edi
  0000c	8d 7d dc	 lea	 edi, DWORD PTR [ebp-36]
  0000f	6a 09		 push	 9
  00011	59		 pop	 ecx
  00012	b8 cc cc cc cc	 mov	 eax, -858993460		; ccccccccH
  00017	f3 ab		 rep stosd
  00019	b9 00 00 00 00	 mov	 ecx, OFFSET __A7F89B2B_corecrt_wstdio@h
  0001e	e8 00 00 00 00	 call	 @__CheckForDebuggerJustMyCode@4

; 1524 :             int _Result;
; 1525 :             va_list _ArgList;
; 1526 :             __crt_va_start(_ArgList, _Format);

  00023	8d 45 14	 lea	 eax, DWORD PTR __Format$[ebp+4]
  00026	89 45 ec	 mov	 DWORD PTR __ArgList$[ebp], eax

; 1527 :             _Result = _vswprintf_s_l(_Buffer, _BufferCount, _Format, NULL, _ArgList);

  00029	ff 75 ec	 push	 DWORD PTR __ArgList$[ebp]
  0002c	6a 00		 push	 0
  0002e	ff 75 10	 push	 DWORD PTR __Format$[ebp]
  00031	ff 75 0c	 push	 DWORD PTR __BufferCount$[ebp]
  00034	ff 75 08	 push	 DWORD PTR __Buffer$[ebp]
  00037	e8 00 00 00 00	 call	 __vswprintf_s_l
  0003c	83 c4 14	 add	 esp, 20			; 00000014H
  0003f	89 45 f8	 mov	 DWORD PTR __Result$[ebp], eax

; 1528 :             __crt_va_end(_ArgList);

  00042	83 65 ec 00	 and	 DWORD PTR __ArgList$[ebp], 0

; 1529 :             return _Result;

  00046	8b 45 f8	 mov	 eax, DWORD PTR __Result$[ebp]

; 1530 :         }

  00049	5f		 pop	 edi
  0004a	5e		 pop	 esi
  0004b	5b		 pop	 ebx
  0004c	81 c4 e4 00 00
	00		 add	 esp, 228		; 000000e4H
  00052	3b ec		 cmp	 ebp, esp
  00054	e8 00 00 00 00	 call	 __RTC_CheckEsp
  00059	c9		 leave
  0005a	c3		 ret	 0
_swprintf_s ENDP
_TEXT	ENDS
; Function compile flags: /Odsp /RTCsu /ZI
; File C:\Program Files (x86)\Windows Kits\10\Include\10.0.22000.0\ucrt\corecrt_wstdio.h
;	COMDAT __vswprintf_s_l
_TEXT	SEGMENT
tv73 = -208						; size = 4
__Result$ = -8						; size = 4
__Buffer$ = 8						; size = 4
__BufferCount$ = 12					; size = 4
__Format$ = 16						; size = 4
__Locale$ = 20						; size = 4
__ArgList$ = 24						; size = 4
__vswprintf_s_l PROC					; COMDAT

; 1256 :     {

  00000	55		 push	 ebp
  00001	8b ec		 mov	 ebp, esp
  00003	81 ec d0 00 00
	00		 sub	 esp, 208		; 000000d0H
  00009	53		 push	 ebx
  0000a	56		 push	 esi
  0000b	57		 push	 edi
  0000c	8d 7d f0	 lea	 edi, DWORD PTR [ebp-16]
  0000f	6a 04		 push	 4
  00011	59		 pop	 ecx
  00012	b8 cc cc cc cc	 mov	 eax, -858993460		; ccccccccH
  00017	f3 ab		 rep stosd
  00019	b9 00 00 00 00	 mov	 ecx, OFFSET __A7F89B2B_corecrt_wstdio@h
  0001e	e8 00 00 00 00	 call	 @__CheckForDebuggerJustMyCode@4

; 1257 :         int const _Result = __stdio_common_vswprintf_s(

  00023	ff 75 18	 push	 DWORD PTR __ArgList$[ebp]
  00026	ff 75 14	 push	 DWORD PTR __Locale$[ebp]
  00029	ff 75 10	 push	 DWORD PTR __Format$[ebp]
  0002c	ff 75 0c	 push	 DWORD PTR __BufferCount$[ebp]
  0002f	ff 75 08	 push	 DWORD PTR __Buffer$[ebp]
  00032	e8 00 00 00 00	 call	 ___local_stdio_printf_options
  00037	ff 70 04	 push	 DWORD PTR [eax+4]
  0003a	ff 30		 push	 DWORD PTR [eax]
  0003c	e8 00 00 00 00	 call	 ___stdio_common_vswprintf_s
  00041	83 c4 1c	 add	 esp, 28			; 0000001cH
  00044	89 45 f8	 mov	 DWORD PTR __Result$[ebp], eax

; 1258 :             _CRT_INTERNAL_LOCAL_PRINTF_OPTIONS,
; 1259 :             _Buffer, _BufferCount, _Format, _Locale, _ArgList);
; 1260 : 
; 1261 :         return _Result < 0 ? -1 : _Result;

  00047	83 7d f8 00	 cmp	 DWORD PTR __Result$[ebp], 0
  0004b	7d 09		 jge	 SHORT $LN3@vswprintf_
  0004d	83 8d 30 ff ff
	ff ff		 or	 DWORD PTR tv73[ebp], -1
  00054	eb 09		 jmp	 SHORT $LN4@vswprintf_
$LN3@vswprintf_:
  00056	8b 45 f8	 mov	 eax, DWORD PTR __Result$[ebp]
  00059	89 85 30 ff ff
	ff		 mov	 DWORD PTR tv73[ebp], eax
$LN4@vswprintf_:
  0005f	8b 85 30 ff ff
	ff		 mov	 eax, DWORD PTR tv73[ebp]

; 1262 :     }

  00065	5f		 pop	 edi
  00066	5e		 pop	 esi
  00067	5b		 pop	 ebx
  00068	81 c4 d0 00 00
	00		 add	 esp, 208		; 000000d0H
  0006e	3b ec		 cmp	 ebp, esp
  00070	e8 00 00 00 00	 call	 __RTC_CheckEsp
  00075	c9		 leave
  00076	c3		 ret	 0
__vswprintf_s_l ENDP
_TEXT	ENDS
; Function compile flags: /Odsp /RTCsu /ZI
; File C:\Program Files (x86)\Windows Kits\10\Include\10.0.22000.0\ucrt\corecrt_stdio_config.h
;	COMDAT ___local_stdio_printf_options
_TEXT	SEGMENT
___local_stdio_printf_options PROC			; COMDAT

; 90   :     {

  00000	55		 push	 ebp
  00001	8b ec		 mov	 ebp, esp
  00003	81 ec c0 00 00
	00		 sub	 esp, 192		; 000000c0H
  00009	53		 push	 ebx
  0000a	56		 push	 esi
  0000b	57		 push	 edi
  0000c	8b fd		 mov	 edi, ebp
  0000e	33 c9		 xor	 ecx, ecx
  00010	b8 cc cc cc cc	 mov	 eax, -858993460		; ccccccccH
  00015	f3 ab		 rep stosd
  00017	b9 00 00 00 00	 mov	 ecx, OFFSET __C44F8F6B_corecrt_stdio_config@h
  0001c	e8 00 00 00 00	 call	 @__CheckForDebuggerJustMyCode@4

; 91   :         static unsigned __int64 _OptionsStorage;
; 92   :         return &_OptionsStorage;

  00021	b8 00 00 00 00	 mov	 eax, OFFSET ?_OptionsStorage@?1??__local_stdio_printf_options@@9@4_KA ; `__local_stdio_printf_options'::`2'::_OptionsStorage

; 93   :     }

  00026	5f		 pop	 edi
  00027	5e		 pop	 esi
  00028	5b		 pop	 ebx
  00029	81 c4 c0 00 00
	00		 add	 esp, 192		; 000000c0H
  0002f	3b ec		 cmp	 ebp, esp
  00031	e8 00 00 00 00	 call	 __RTC_CheckEsp
  00036	c9		 leave
  00037	c3		 ret	 0
___local_stdio_printf_options ENDP
_TEXT	ENDS
; Function compile flags: /Odsp /RTCsu /ZI
; File C:\Program Files (x86)\Windows Kits\10\Include\10.0.22000.0\shared\winerror.h
;	COMDAT _HRESULT_FROM_WIN32
_TEXT	SEGMENT
tv68 = -196						; size = 4
_x$ = 8							; size = 4
_HRESULT_FROM_WIN32 PROC				; COMDAT

; 29718: FORCEINLINE _Translates_Win32_to_HRESULT_(x) HRESULT HRESULT_FROM_WIN32(unsigned long x) { return (HRESULT)(x) <= 0 ? (HRESULT)(x) : (HRESULT) (((x) & 0x0000FFFF) | (FACILITY_WIN32 << 16) | 0x80000000);}

  00000	55		 push	 ebp
  00001	8b ec		 mov	 ebp, esp
  00003	81 ec c4 00 00
	00		 sub	 esp, 196		; 000000c4H
  00009	53		 push	 ebx
  0000a	56		 push	 esi
  0000b	57		 push	 edi
  0000c	8d 7d fc	 lea	 edi, DWORD PTR [ebp-4]
  0000f	33 c9		 xor	 ecx, ecx
  00011	41		 inc	 ecx
  00012	b8 cc cc cc cc	 mov	 eax, -858993460		; ccccccccH
  00017	f3 ab		 rep stosd
  00019	b9 00 00 00 00	 mov	 ecx, OFFSET __A8C6672F_winerror@h
  0001e	e8 00 00 00 00	 call	 @__CheckForDebuggerJustMyCode@4
  00023	83 7d 08 00	 cmp	 DWORD PTR _x$[ebp], 0
  00027	7f 0b		 jg	 SHORT $LN3@HRESULT_FR
  00029	8b 45 08	 mov	 eax, DWORD PTR _x$[ebp]
  0002c	89 85 3c ff ff
	ff		 mov	 DWORD PTR tv68[ebp], eax
  00032	eb 18		 jmp	 SHORT $LN4@HRESULT_FR
$LN3@HRESULT_FR:
  00034	8b 45 08	 mov	 eax, DWORD PTR _x$[ebp]
  00037	25 ff ff 00 00	 and	 eax, 65535		; 0000ffffH
  0003c	0d 00 00 07 00	 or	 eax, 458752		; 00070000H
  00041	0d 00 00 00 80	 or	 eax, -2147483648	; 80000000H
  00046	89 85 3c ff ff
	ff		 mov	 DWORD PTR tv68[ebp], eax
$LN4@HRESULT_FR:
  0004c	8b 85 3c ff ff
	ff		 mov	 eax, DWORD PTR tv68[ebp]
  00052	5f		 pop	 edi
  00053	5e		 pop	 esi
  00054	5b		 pop	 ebx
  00055	81 c4 c4 00 00
	00		 add	 esp, 196		; 000000c4H
  0005b	3b ec		 cmp	 ebp, esp
  0005d	e8 00 00 00 00	 call	 __RTC_CheckEsp
  00062	c9		 leave
  00063	c3		 ret	 0
_HRESULT_FROM_WIN32 ENDP
_TEXT	ENDS
; Function compile flags: /Odsp /RTCsu /ZI
; File J:\work\SUDOKU\SUDOKU\SUDOKU\SUDOKU.cpp
;	COMDAT ?__empty_global_delete@@YAXPAXI@Z
_TEXT	SEGMENT
___formal$ = 8						; size = 4
___formal$ = 12						; size = 4
?__empty_global_delete@@YAXPAXI@Z PROC			; __empty_global_delete, COMDAT

  00000	55		 push	 ebp
  00001	8b ec		 mov	 ebp, esp
  00003	81 ec c0 00 00
	00		 sub	 esp, 192		; 000000c0H
  00009	53		 push	 ebx
  0000a	56		 push	 esi
  0000b	57		 push	 edi
  0000c	8b fd		 mov	 edi, ebp
  0000e	33 c9		 xor	 ecx, ecx
  00010	b8 cc cc cc cc	 mov	 eax, -858993460		; ccccccccH
  00015	f3 ab		 rep stosd
  00017	b9 00 00 00 00	 mov	 ecx, OFFSET __B746AA20_SUDOKU@cpp
  0001c	e8 00 00 00 00	 call	 @__CheckForDebuggerJustMyCode@4
  00021	5f		 pop	 edi
  00022	5e		 pop	 esi
  00023	5b		 pop	 ebx
  00024	81 c4 c0 00 00
	00		 add	 esp, 192		; 000000c0H
  0002a	3b ec		 cmp	 ebp, esp
  0002c	e8 00 00 00 00	 call	 __RTC_CheckEsp
  00031	c9		 leave
  00032	c3		 ret	 0
?__empty_global_delete@@YAXPAXI@Z ENDP			; __empty_global_delete
_TEXT	ENDS
; Function compile flags: /Odsp /RTCsu /ZI
; File J:\work\SUDOKU\SUDOKU\SUDOKU\SUDOKU.cpp
;	COMDAT ?__empty_global_delete@@YAXPAX@Z
_TEXT	SEGMENT
___formal$ = 8						; size = 4
?__empty_global_delete@@YAXPAX@Z PROC			; __empty_global_delete, COMDAT

  00000	55		 push	 ebp
  00001	8b ec		 mov	 ebp, esp
  00003	81 ec c0 00 00
	00		 sub	 esp, 192		; 000000c0H
  00009	53		 push	 ebx
  0000a	56		 push	 esi
  0000b	57		 push	 edi
  0000c	8b fd		 mov	 edi, ebp
  0000e	33 c9		 xor	 ecx, ecx
  00010	b8 cc cc cc cc	 mov	 eax, -858993460		; ccccccccH
  00015	f3 ab		 rep stosd
  00017	b9 00 00 00 00	 mov	 ecx, OFFSET __B746AA20_SUDOKU@cpp
  0001c	e8 00 00 00 00	 call	 @__CheckForDebuggerJustMyCode@4
  00021	5f		 pop	 edi
  00022	5e		 pop	 esi
  00023	5b		 pop	 ebx
  00024	81 c4 c0 00 00
	00		 add	 esp, 192		; 000000c0H
  0002a	3b ec		 cmp	 ebp, esp
  0002c	e8 00 00 00 00	 call	 __RTC_CheckEsp
  00031	c9		 leave
  00032	c3		 ret	 0
?__empty_global_delete@@YAXPAX@Z ENDP			; __empty_global_delete
_TEXT	ENDS
END
